
src/hwlib.axf:     file format elf32-littlearm


Disassembly of section .text:

00100040 <__cs3_interrupt_vector>:
  100040:	18 f0 9f e5 18 f0 9f e5 18 f0 9f e5 18 f0 9f e5     ................
  100050:	18 f0 9f e5 18 f0 9f e5 18 f0 9f e5 18 f0 9f e5     ................
  100060:	80 00 10 00 34 fa 11 00 38 fa 11 00 3c fa 11 00     ....4...8...<...
  100070:	40 fa 11 00 30 fa 11 00 44 fa 11 00 48 fa 11 00     @...0...D...H...

00100080 <__cs3_reset>:
  100080:	ea000022 	b	100110 <_start>

00100084 <__cs3_start_c>:
  100084:	e3008002 	movw	r8, #2
  100088:	e92d4080 	push	{r7, lr}
  10008c:	e3408000 	movt	r8, #0
  100090:	e3580000 	cmp	r8, #0
  100094:	0a00001c 	beq	10010c <__cs3_start_c+0x88>
  100098:	e300e704 	movw	lr, #1796	; 0x704
  10009c:	e2488001 	sub	r8, r8, #1
  1000a0:	e3a04000 	mov	r4, #0
  1000a4:	e3a05000 	mov	r5, #0
  1000a8:	e340e012 	movt	lr, #18
  1000ac:	e99e1005 	ldmib	lr, {r0, r2, ip}
  1000b0:	e1500002 	cmp	r0, r2
  1000b4:	0082200c 	addeq	r2, r2, ip
  1000b8:	0a000007 	beq	1000dc <__cs3_start_c+0x58>
  1000bc:	e35c0000 	cmp	ip, #0
  1000c0:	0a000005 	beq	1000dc <__cs3_start_c+0x58>
  1000c4:	e1a03000 	mov	r3, r0
  1000c8:	e0c360d8 	ldrd	r6, [r3], #8
  1000cc:	e0431000 	sub	r1, r3, r0
  1000d0:	e0c260f8 	strd	r6, [r2], #8
  1000d4:	e151000c 	cmp	r1, ip
  1000d8:	1afffffa 	bne	1000c8 <__cs3_start_c+0x44>
  1000dc:	e59e0010 	ldr	r0, [lr, #16]
  1000e0:	e3500000 	cmp	r0, #0
  1000e4:	11a03002 	movne	r3, r2
  1000e8:	0a000003 	beq	1000fc <__cs3_start_c+0x78>
  1000ec:	e0c340f8 	strd	r4, [r3], #8
  1000f0:	e0431002 	sub	r1, r3, r2
  1000f4:	e1500001 	cmp	r0, r1
  1000f8:	1afffffb 	bne	1000ec <__cs3_start_c+0x68>
  1000fc:	e2488001 	sub	r8, r8, #1
  100100:	e28ee014 	add	lr, lr, #20
  100104:	e3780001 	cmn	r8, #1
  100108:	1affffe7 	bne	1000ac <__cs3_start_c+0x28>
  10010c:	eb007dfa 	bl	11f8fc <__cs3_premain>

00100110 <_start>:
  100110:	e51fd000 	ldr	sp, [pc, #-0]	; 100118 <_start+0x8>
  100114:	eaffffda 	b	100084 <__cs3_start_c>
  100118:	01100040 	.word	0x01100040

0010011c <deregister_tm_clones>:
  10011c:	e59f3024 	ldr	r3, [pc, #36]	; 100148 <deregister_tm_clones+0x2c>
  100120:	e30c0aa0 	movw	r0, #51872	; 0xcaa0
  100124:	e3400012 	movt	r0, #18
  100128:	e0433000 	sub	r3, r3, r0
  10012c:	e3530006 	cmp	r3, #6
  100130:	912fff1e 	bxls	lr
  100134:	e3003000 	movw	r3, #0
  100138:	e3403000 	movt	r3, #0
  10013c:	e3530000 	cmp	r3, #0
  100140:	012fff1e 	bxeq	lr
  100144:	e12fff13 	bx	r3
  100148:	0012caa3 	.word	0x0012caa3

0010014c <register_tm_clones>:
  10014c:	e30c3aa0 	movw	r3, #51872	; 0xcaa0
  100150:	e30c0aa0 	movw	r0, #51872	; 0xcaa0
  100154:	e3403012 	movt	r3, #18
  100158:	e3400012 	movt	r0, #18
  10015c:	e0431000 	sub	r1, r3, r0
  100160:	e1a01141 	asr	r1, r1, #2
  100164:	e0811fa1 	add	r1, r1, r1, lsr #31
  100168:	e1b010c1 	asrs	r1, r1, #1
  10016c:	012fff1e 	bxeq	lr
  100170:	e3003000 	movw	r3, #0
  100174:	e3403000 	movt	r3, #0
  100178:	e3530000 	cmp	r3, #0
  10017c:	012fff1e 	bxeq	lr
  100180:	e12fff13 	bx	r3

00100184 <__do_global_dtors_aux>:
  100184:	e92d4010 	push	{r4, lr}
  100188:	e30c4aa0 	movw	r4, #51872	; 0xcaa0
  10018c:	e3404012 	movt	r4, #18
  100190:	e5d43000 	ldrb	r3, [r4]
  100194:	e3530000 	cmp	r3, #0
  100198:	18bd8010 	popne	{r4, pc}
  10019c:	ebffffde 	bl	10011c <deregister_tm_clones>
  1001a0:	e3003000 	movw	r3, #0
  1001a4:	e3403000 	movt	r3, #0
  1001a8:	e3530000 	cmp	r3, #0
  1001ac:	0a000002 	beq	1001bc <__do_global_dtors_aux+0x38>
  1001b0:	e30f0ad0 	movw	r0, #64208	; 0xfad0
  1001b4:	e3400011 	movt	r0, #17
  1001b8:	e320f000 	nop	{0}
  1001bc:	e3a03001 	mov	r3, #1
  1001c0:	e5c43000 	strb	r3, [r4]
  1001c4:	e8bd8010 	pop	{r4, pc}

001001c8 <frame_dummy>:
  1001c8:	e3003000 	movw	r3, #0
  1001cc:	e92d4010 	push	{r4, lr}
  1001d0:	e3403000 	movt	r3, #0
  1001d4:	e3530000 	cmp	r3, #0
  1001d8:	0a000004 	beq	1001f0 <frame_dummy+0x28>
  1001dc:	e30c1aa4 	movw	r1, #51876	; 0xcaa4
  1001e0:	e30f0ad0 	movw	r0, #64208	; 0xfad0
  1001e4:	e3401012 	movt	r1, #18
  1001e8:	e3400011 	movt	r0, #17
  1001ec:	e320f000 	nop	{0}
  1001f0:	e3040000 	movw	r0, #16384	; 0x4000
  1001f4:	e3400012 	movt	r0, #18
  1001f8:	e5903000 	ldr	r3, [r0]
  1001fc:	e3530000 	cmp	r3, #0
  100200:	1a000001 	bne	10020c <frame_dummy+0x44>
  100204:	e8bd4010 	pop	{r4, lr}
  100208:	eaffffcf 	b	10014c <register_tm_clones>
  10020c:	e3003000 	movw	r3, #0
  100210:	e3403000 	movt	r3, #0
  100214:	e3530000 	cmp	r3, #0
  100218:	0afffff9 	beq	100204 <frame_dummy+0x3c>
  10021c:	e12fff33 	blx	r3
  100220:	eafffff7 	b	100204 <frame_dummy+0x3c>

00100224 <main>:
  100224:	e92d4800 	push	{fp, lr}
  100228:	e28db004 	add	fp, sp, #4
  10022c:	e24dd058 	sub	sp, sp, #88	; 0x58
  100230:	e50b0058 	str	r0, [fp, #-88]	; 0xffffffa8
  100234:	e50b105c 	str	r1, [fp, #-92]	; 0xffffffa4
  100238:	e30f0ae0 	movw	r0, #64224	; 0xfae0
  10023c:	e3400011 	movt	r0, #17
  100240:	eb005b8d 	bl	11707c <puts>
  100244:	e24b301c 	sub	r3, fp, #28
  100248:	e3a02000 	mov	r2, #0
  10024c:	e5832000 	str	r2, [r3]
  100250:	e5832004 	str	r2, [r3, #4]
  100254:	e5832008 	str	r2, [r3, #8]
  100258:	e3a03000 	mov	r3, #0
  10025c:	e34f3f25 	movt	r3, #65317	; 0xff25
  100260:	e50b301c 	str	r3, [fp, #-28]	; 0xffffffe4
  100264:	e3a03002 	mov	r3, #2
  100268:	e54b3014 	strb	r3, [fp, #-20]	; 0xffffffec
  10026c:	e24b3030 	sub	r3, fp, #48	; 0x30
  100270:	e3a02000 	mov	r2, #0
  100274:	e5832000 	str	r2, [r3]
  100278:	e5832004 	str	r2, [r3, #4]
  10027c:	e5832008 	str	r2, [r3, #8]
  100280:	e583200c 	str	r2, [r3, #12]
  100284:	e5832010 	str	r2, [r3, #16]
  100288:	e3a03ce1 	mov	r3, #57600	; 0xe100
  10028c:	e34035f5 	movt	r3, #1525	; 0x5f5
  100290:	e50b3030 	str	r3, [fp, #-48]	; 0xffffffd0
  100294:	e3a03002 	mov	r3, #2
  100298:	e54b302c 	strb	r3, [fp, #-44]	; 0xffffffd4
  10029c:	e3a03000 	mov	r3, #0
  1002a0:	e34f3f24 	movt	r3, #65316	; 0xff24
  1002a4:	e50b3028 	str	r3, [fp, #-40]	; 0xffffffd8
  1002a8:	e24b3040 	sub	r3, fp, #64	; 0x40
  1002ac:	e3a02000 	mov	r2, #0
  1002b0:	e5832000 	str	r2, [r3]
  1002b4:	e5832004 	str	r2, [r3, #4]
  1002b8:	e5832008 	str	r2, [r3, #8]
  1002bc:	e583200c 	str	r2, [r3, #12]
  1002c0:	e30f3080 	movw	r3, #61568	; 0xf080
  1002c4:	e34032fa 	movt	r3, #762	; 0x2fa
  1002c8:	e50b3040 	str	r3, [fp, #-64]	; 0xffffffc0
  1002cc:	e3a03002 	mov	r3, #2
  1002d0:	e54b303b 	strb	r3, [fp, #-59]	; 0xffffffc5
  1002d4:	e30f3e58 	movw	r3, #65112	; 0xfe58
  1002d8:	e3403011 	movt	r3, #17
  1002dc:	e50b3038 	str	r3, [fp, #-56]	; 0xffffffc8
  1002e0:	e24b3030 	sub	r3, fp, #48	; 0x30
  1002e4:	e50b3034 	str	r3, [fp, #-52]	; 0xffffffcc
  1002e8:	e24b3040 	sub	r3, fp, #64	; 0x40
  1002ec:	e50b3050 	str	r3, [fp, #-80]	; 0xffffffb0
  1002f0:	e24b301c 	sub	r3, fp, #28
  1002f4:	e50b304c 	str	r3, [fp, #-76]	; 0xffffffb4
  1002f8:	e3a03000 	mov	r3, #0
  1002fc:	e54b3048 	strb	r3, [fp, #-72]	; 0xffffffb8
  100300:	e3a03000 	mov	r3, #0
  100304:	e54b3047 	strb	r3, [fp, #-71]	; 0xffffffb9
  100308:	e3a03000 	mov	r3, #0
  10030c:	e54b3046 	strb	r3, [fp, #-70]	; 0xffffffba
  100310:	e30036e0 	movw	r3, #1760	; 0x6e0
  100314:	e3403011 	movt	r3, #17
  100318:	e50b3044 	str	r3, [fp, #-68]	; 0xffffffbc
  10031c:	e55b3046 	ldrb	r3, [fp, #-70]	; 0xffffffba
  100320:	e3530000 	cmp	r3, #0
  100324:	1a000002 	bne	100334 <main+0x110>
  100328:	e3a0300e 	mov	r3, #14
  10032c:	e54b3020 	strb	r3, [fp, #-32]	; 0xffffffe0
  100330:	ea000004 	b	100348 <main+0x124>
  100334:	e55b3046 	ldrb	r3, [fp, #-70]	; 0xffffffba
  100338:	e3530001 	cmp	r3, #1
  10033c:	1a000001 	bne	100348 <main+0x124>
  100340:	e3a03010 	mov	r3, #16
  100344:	e54b3020 	strb	r3, [fp, #-32]	; 0xffffffe0
  100348:	e3a03000 	mov	r3, #0
  10034c:	e50b300c 	str	r3, [fp, #-12]
  100350:	eb000048 	bl	100478 <cache_fun>
  100354:	e24b2050 	sub	r2, fp, #80	; 0x50
  100358:	e24b3010 	sub	r3, fp, #16
  10035c:	e1a01002 	mov	r1, r2
  100360:	e1a00003 	mov	r0, r3
  100364:	eb0002b1 	bl	100e30 <ad738x_init>
  100368:	e51b3010 	ldr	r3, [fp, #-16]
  10036c:	e3a02b01 	mov	r2, #1024	; 0x400
  100370:	e3a01064 	mov	r1, #100	; 0x64
  100374:	e1a00003 	mov	r0, r3
  100378:	eb000245 	bl	100c94 <ad738x_read_data>
  10037c:	e50b000c 	str	r0, [fp, #-12]
  100380:	e51b3010 	ldr	r3, [fp, #-16]
  100384:	e5d33008 	ldrb	r3, [r3, #8]
  100388:	e3530000 	cmp	r3, #0
  10038c:	1a00001c 	bne	100404 <main+0x1e0>
  100390:	e3a03000 	mov	r3, #0
  100394:	e14b30b6 	strh	r3, [fp, #-6]
  100398:	ea000015 	b	1003f4 <main+0x1d0>
  10039c:	e15b30b6 	ldrh	r3, [fp, #-6]
  1003a0:	e1a03103 	lsl	r3, r3, #2
  1003a4:	e51b200c 	ldr	r2, [fp, #-12]
  1003a8:	e0823003 	add	r3, r2, r3
  1003ac:	e5933000 	ldr	r3, [r3]
  1003b0:	e6ff3073 	uxth	r3, r3
  1003b4:	e7ed1053 	ubfx	r1, r3, #0, #14
  1003b8:	e15b30b6 	ldrh	r3, [fp, #-6]
  1003bc:	e1a03103 	lsl	r3, r3, #2
  1003c0:	e51b200c 	ldr	r2, [fp, #-12]
  1003c4:	e0823003 	add	r3, r2, r3
  1003c8:	e5933000 	ldr	r3, [r3]
  1003cc:	e1a03823 	lsr	r3, r3, #16
  1003d0:	e6ff3073 	uxth	r3, r3
  1003d4:	e7ed3053 	ubfx	r3, r3, #0, #14
  1003d8:	e1a02003 	mov	r2, r3
  1003dc:	e30f0b08 	movw	r0, #64264	; 0xfb08
  1003e0:	e3400011 	movt	r0, #17
  1003e4:	eb005ad6 	bl	116f44 <printf>
  1003e8:	e15b30b6 	ldrh	r3, [fp, #-6]
  1003ec:	e2833001 	add	r3, r3, #1
  1003f0:	e14b30b6 	strh	r3, [fp, #-6]
  1003f4:	e15b30b6 	ldrh	r3, [fp, #-6]
  1003f8:	e3530063 	cmp	r3, #99	; 0x63
  1003fc:	9affffe6 	bls	10039c <main+0x178>
  100400:	eaffffd8 	b	100368 <main+0x144>
  100404:	e3a03000 	mov	r3, #0
  100408:	e14b30b6 	strh	r3, [fp, #-6]
  10040c:	ea000015 	b	100468 <main+0x244>
  100410:	e15b30b6 	ldrh	r3, [fp, #-6]
  100414:	e1a03103 	lsl	r3, r3, #2
  100418:	e51b200c 	ldr	r2, [fp, #-12]
  10041c:	e0823003 	add	r3, r2, r3
  100420:	e5933000 	ldr	r3, [r3]
  100424:	e6ff3073 	uxth	r3, r3
  100428:	e7ed1053 	ubfx	r1, r3, #0, #14
  10042c:	e15b30b6 	ldrh	r3, [fp, #-6]
  100430:	e2833001 	add	r3, r3, #1
  100434:	e1a03103 	lsl	r3, r3, #2
  100438:	e51b200c 	ldr	r2, [fp, #-12]
  10043c:	e0823003 	add	r3, r2, r3
  100440:	e5933000 	ldr	r3, [r3]
  100444:	e6ff3073 	uxth	r3, r3
  100448:	e7ed3053 	ubfx	r3, r3, #0, #14
  10044c:	e1a02003 	mov	r2, r3
  100450:	e30f0b08 	movw	r0, #64264	; 0xfb08
  100454:	e3400011 	movt	r0, #17
  100458:	eb005ab9 	bl	116f44 <printf>
  10045c:	e15b30b6 	ldrh	r3, [fp, #-6]
  100460:	e2833002 	add	r3, r3, #2
  100464:	e14b30b6 	strh	r3, [fp, #-6]
  100468:	e15b30b6 	ldrh	r3, [fp, #-6]
  10046c:	e3530063 	cmp	r3, #99	; 0x63
  100470:	9affffe6 	bls	100410 <main+0x1ec>
  100474:	eaffffbb 	b	100368 <main+0x144>

00100478 <cache_fun>:
  100478:	e92d4800 	push	{fp, lr}
  10047c:	e28db004 	add	fp, sp, #4
  100480:	e3a00009 	mov	r0, #9
  100484:	eb000001 	bl	100490 <cache_configuration>
  100488:	e320f000 	nop	{0}
  10048c:	e8bd8800 	pop	{fp, pc}

00100490 <cache_configuration>:
  100490:	e92d4800 	push	{fp, lr}
  100494:	e28db004 	add	fp, sp, #4
  100498:	e24dd008 	sub	sp, sp, #8
  10049c:	e50b0008 	str	r0, [fp, #-8]
  1004a0:	e51b3008 	ldr	r3, [fp, #-8]
  1004a4:	e3530000 	cmp	r3, #0
  1004a8:	ca000003 	bgt	1004bc <cache_configuration+0x2c>
  1004ac:	e30f0b30 	movw	r0, #64304	; 0xfb30
  1004b0:	e3400011 	movt	r0, #17
  1004b4:	eb005aa2 	bl	116f44 <printf>
  1004b8:	ea0000a2 	b	100748 <cache_configuration+0x2b8>
  1004bc:	e51b3008 	ldr	r3, [fp, #-8]
  1004c0:	e3530001 	cmp	r3, #1
  1004c4:	ca000004 	bgt	1004dc <cache_configuration+0x4c>
  1004c8:	e30f0b4c 	movw	r0, #64332	; 0xfb4c
  1004cc:	e3400011 	movt	r0, #17
  1004d0:	eb005a9b 	bl	116f44 <printf>
  1004d4:	eb000b3e 	bl	1031d4 <enable_MMU>
  1004d8:	ea00009a 	b	100748 <cache_configuration+0x2b8>
  1004dc:	e51b3008 	ldr	r3, [fp, #-8]
  1004e0:	e3530002 	cmp	r3, #2
  1004e4:	ca000005 	bgt	100500 <cache_configuration+0x70>
  1004e8:	e30f0b6c 	movw	r0, #64364	; 0xfb6c
  1004ec:	e3400011 	movt	r0, #17
  1004f0:	eb005a93 	bl	116f44 <printf>
  1004f4:	eb000b36 	bl	1031d4 <enable_MMU>
  1004f8:	eb000b81 	bl	103304 <initialize_L2C>
  1004fc:	ea000091 	b	100748 <cache_configuration+0x2b8>
  100500:	e51b3008 	ldr	r3, [fp, #-8]
  100504:	e3530003 	cmp	r3, #3
  100508:	ca000006 	bgt	100528 <cache_configuration+0x98>
  10050c:	e30f0b98 	movw	r0, #64408	; 0xfb98
  100510:	e3400011 	movt	r0, #17
  100514:	eb005a8a 	bl	116f44 <printf>
  100518:	eb000b2d 	bl	1031d4 <enable_MMU>
  10051c:	eb000b78 	bl	103304 <initialize_L2C>
  100520:	eb000bdb 	bl	103494 <enable_SCU>
  100524:	ea000087 	b	100748 <cache_configuration+0x2b8>
  100528:	e51b3008 	ldr	r3, [fp, #-8]
  10052c:	e3530004 	cmp	r3, #4
  100530:	ca000007 	bgt	100554 <cache_configuration+0xc4>
  100534:	e30f0bcc 	movw	r0, #64460	; 0xfbcc
  100538:	e3400011 	movt	r0, #17
  10053c:	eb005a80 	bl	116f44 <printf>
  100540:	eb000b23 	bl	1031d4 <enable_MMU>
  100544:	eb000b6e 	bl	103304 <initialize_L2C>
  100548:	eb000bd1 	bl	103494 <enable_SCU>
  10054c:	eb000b92 	bl	10339c <enable_L1_I>
  100550:	ea00007c 	b	100748 <cache_configuration+0x2b8>
  100554:	e51b3008 	ldr	r3, [fp, #-8]
  100558:	e3530005 	cmp	r3, #5
  10055c:	ca000008 	bgt	100584 <cache_configuration+0xf4>
  100560:	e30f0be4 	movw	r0, #64484	; 0xfbe4
  100564:	e3400011 	movt	r0, #17
  100568:	eb005a75 	bl	116f44 <printf>
  10056c:	eb000b18 	bl	1031d4 <enable_MMU>
  100570:	eb000b63 	bl	103304 <initialize_L2C>
  100574:	eb000bc6 	bl	103494 <enable_SCU>
  100578:	eb000b87 	bl	10339c <enable_L1_I>
  10057c:	eb000b8a 	bl	1033ac <enable_branch_prediction>
  100580:	ea000070 	b	100748 <cache_configuration+0x2b8>
  100584:	e51b3008 	ldr	r3, [fp, #-8]
  100588:	e3530006 	cmp	r3, #6
  10058c:	ca000009 	bgt	1005b8 <cache_configuration+0x128>
  100590:	e30f0c14 	movw	r0, #64532	; 0xfc14
  100594:	e3400011 	movt	r0, #17
  100598:	eb005a69 	bl	116f44 <printf>
  10059c:	eb000b0c 	bl	1031d4 <enable_MMU>
  1005a0:	eb000b57 	bl	103304 <initialize_L2C>
  1005a4:	eb000bba 	bl	103494 <enable_SCU>
  1005a8:	eb000b77 	bl	10338c <enable_L1_D>
  1005ac:	eb000b7a 	bl	10339c <enable_L1_I>
  1005b0:	eb000b7d 	bl	1033ac <enable_branch_prediction>
  1005b4:	ea000063 	b	100748 <cache_configuration+0x2b8>
  1005b8:	e51b3008 	ldr	r3, [fp, #-8]
  1005bc:	e3530007 	cmp	r3, #7
  1005c0:	ca00000a 	bgt	1005f0 <cache_configuration+0x160>
  1005c4:	e30f0c48 	movw	r0, #64584	; 0xfc48
  1005c8:	e3400011 	movt	r0, #17
  1005cc:	eb005a5c 	bl	116f44 <printf>
  1005d0:	eb000aff 	bl	1031d4 <enable_MMU>
  1005d4:	eb000b4a 	bl	103304 <initialize_L2C>
  1005d8:	eb000b99 	bl	103444 <enable_L1_D_side_prefetch>
  1005dc:	eb000bac 	bl	103494 <enable_SCU>
  1005e0:	eb000b69 	bl	10338c <enable_L1_D>
  1005e4:	eb000b6c 	bl	10339c <enable_L1_I>
  1005e8:	eb000b6f 	bl	1033ac <enable_branch_prediction>
  1005ec:	ea000055 	b	100748 <cache_configuration+0x2b8>
  1005f0:	e51b3008 	ldr	r3, [fp, #-8]
  1005f4:	e3530008 	cmp	r3, #8
  1005f8:	ca000008 	bgt	100620 <cache_configuration+0x190>
  1005fc:	e30f0c94 	movw	r0, #64660	; 0xfc94
  100600:	e3400011 	movt	r0, #17
  100604:	eb005a4e 	bl	116f44 <printf>
  100608:	eb000af1 	bl	1031d4 <enable_MMU>
  10060c:	eb000b3c 	bl	103304 <initialize_L2C>
  100610:	eb000b8b 	bl	103444 <enable_L1_D_side_prefetch>
  100614:	eb000b9e 	bl	103494 <enable_SCU>
  100618:	eb000b52 	bl	103368 <enable_caches>
  10061c:	ea000049 	b	100748 <cache_configuration+0x2b8>
  100620:	e51b3008 	ldr	r3, [fp, #-8]
  100624:	e3530009 	cmp	r3, #9
  100628:	ca000009 	bgt	100654 <cache_configuration+0x1c4>
  10062c:	e30f0ce0 	movw	r0, #64736	; 0xfce0
  100630:	e3400011 	movt	r0, #17
  100634:	eb005a42 	bl	116f44 <printf>
  100638:	eb000ae5 	bl	1031d4 <enable_MMU>
  10063c:	eb000b30 	bl	103304 <initialize_L2C>
  100640:	eb000b7f 	bl	103444 <enable_L1_D_side_prefetch>
  100644:	eb000b82 	bl	103454 <enable_L2_prefetch_hint>
  100648:	eb000b91 	bl	103494 <enable_SCU>
  10064c:	eb000b45 	bl	103368 <enable_caches>
  100650:	ea00003c 	b	100748 <cache_configuration+0x2b8>
  100654:	e51b3008 	ldr	r3, [fp, #-8]
  100658:	e353000a 	cmp	r3, #10
  10065c:	ca00000a 	bgt	10068c <cache_configuration+0x1fc>
  100660:	e30f0d14 	movw	r0, #64788	; 0xfd14
  100664:	e3400011 	movt	r0, #17
  100668:	eb005a35 	bl	116f44 <printf>
  10066c:	eb000ad8 	bl	1031d4 <enable_MMU>
  100670:	eb000b23 	bl	103304 <initialize_L2C>
  100674:	eb000b72 	bl	103444 <enable_L1_D_side_prefetch>
  100678:	eb000b75 	bl	103454 <enable_L2_prefetch_hint>
  10067c:	eb000b84 	bl	103494 <enable_SCU>
  100680:	eb000b63 	bl	103414 <enable_write_full_line_zeros>
  100684:	eb000b37 	bl	103368 <enable_caches>
  100688:	ea00002e 	b	100748 <cache_configuration+0x2b8>
  10068c:	e51b3008 	ldr	r3, [fp, #-8]
  100690:	e353000b 	cmp	r3, #11
  100694:	ca00000b 	bgt	1006c8 <cache_configuration+0x238>
  100698:	e30f0d50 	movw	r0, #64848	; 0xfd50
  10069c:	e3400011 	movt	r0, #17
  1006a0:	eb005a27 	bl	116f44 <printf>
  1006a4:	eb000aca 	bl	1031d4 <enable_MMU>
  1006a8:	eb000b15 	bl	103304 <initialize_L2C>
  1006ac:	eb000b64 	bl	103444 <enable_L1_D_side_prefetch>
  1006b0:	eb000b67 	bl	103454 <enable_L2_prefetch_hint>
  1006b4:	eb000b76 	bl	103494 <enable_SCU>
  1006b8:	eb000b7a 	bl	1034a8 <enable_L2_speculative_linefill>
  1006bc:	eb000b54 	bl	103414 <enable_write_full_line_zeros>
  1006c0:	eb000b28 	bl	103368 <enable_caches>
  1006c4:	ea00001f 	b	100748 <cache_configuration+0x2b8>
  1006c8:	e51b3008 	ldr	r3, [fp, #-8]
  1006cc:	e353000c 	cmp	r3, #12
  1006d0:	ca00000c 	bgt	100708 <cache_configuration+0x278>
  1006d4:	e30f0d9c 	movw	r0, #64924	; 0xfd9c
  1006d8:	e3400011 	movt	r0, #17
  1006dc:	eb005a18 	bl	116f44 <printf>
  1006e0:	eb000abb 	bl	1031d4 <enable_MMU>
  1006e4:	eb000b06 	bl	103304 <initialize_L2C>
  1006e8:	eb000b55 	bl	103444 <enable_L1_D_side_prefetch>
  1006ec:	eb000b58 	bl	103454 <enable_L2_prefetch_hint>
  1006f0:	eb000b67 	bl	103494 <enable_SCU>
  1006f4:	eb000b6b 	bl	1034a8 <enable_L2_speculative_linefill>
  1006f8:	eb000b45 	bl	103414 <enable_write_full_line_zeros>
  1006fc:	eb000b3b 	bl	1033f0 <enable_early_BRESP>
  100700:	eb000b18 	bl	103368 <enable_caches>
  100704:	ea00000f 	b	100748 <cache_configuration+0x2b8>
  100708:	e51b3008 	ldr	r3, [fp, #-8]
  10070c:	e353000d 	cmp	r3, #13
  100710:	ca00000c 	bgt	100748 <cache_configuration+0x2b8>
  100714:	e30f0ddc 	movw	r0, #64988	; 0xfddc
  100718:	e3400011 	movt	r0, #17
  10071c:	eb005a08 	bl	116f44 <printf>
  100720:	eb000aab 	bl	1031d4 <enable_MMU>
  100724:	eb000af6 	bl	103304 <initialize_L2C>
  100728:	eb000b45 	bl	103444 <enable_L1_D_side_prefetch>
  10072c:	eb000b48 	bl	103454 <enable_L2_prefetch_hint>
  100730:	eb000b57 	bl	103494 <enable_SCU>
  100734:	eb000b5b 	bl	1034a8 <enable_L2_speculative_linefill>
  100738:	eb000b35 	bl	103414 <enable_write_full_line_zeros>
  10073c:	eb000b2b 	bl	1033f0 <enable_early_BRESP>
  100740:	eb000b21 	bl	1033cc <enable_store_buffer_device_limitation>
  100744:	eb000b07 	bl	103368 <enable_caches>
  100748:	e320f000 	nop	{0}
  10074c:	e24bd004 	sub	sp, fp, #4
  100750:	e8bd8800 	pop	{fp, pc}

00100754 <ad738x_spi_reg_read>:
  100754:	e92d4800 	push	{fp, lr}
  100758:	e28db004 	add	fp, sp, #4
  10075c:	e24dd018 	sub	sp, sp, #24
  100760:	e50b0010 	str	r0, [fp, #-16]
  100764:	e1a03001 	mov	r3, r1
  100768:	e50b2018 	str	r2, [fp, #-24]	; 0xffffffe8
  10076c:	e54b3011 	strb	r3, [fp, #-17]	; 0xffffffef
  100770:	e55b3011 	ldrb	r3, [fp, #-17]	; 0xffffffef
  100774:	e1a03203 	lsl	r3, r3, #4
  100778:	e6ef3073 	uxtb	r3, r3
  10077c:	e2033070 	and	r3, r3, #112	; 0x70
  100780:	e6ef3073 	uxtb	r3, r3
  100784:	e54b300c 	strb	r3, [fp, #-12]
  100788:	e3a03000 	mov	r3, #0
  10078c:	e54b300b 	strb	r3, [fp, #-11]
  100790:	e51b3010 	ldr	r3, [fp, #-16]
  100794:	e5933000 	ldr	r3, [r3]
  100798:	e24b100c 	sub	r1, fp, #12
  10079c:	e3a02002 	mov	r2, #2
  1007a0:	e1a00003 	mov	r0, r3
  1007a4:	eb00024b 	bl	1010d8 <spi_write_and_read>
  1007a8:	e50b0008 	str	r0, [fp, #-8]
  1007ac:	e3a03000 	mov	r3, #0
  1007b0:	e54b300c 	strb	r3, [fp, #-12]
  1007b4:	e3a03000 	mov	r3, #0
  1007b8:	e54b300b 	strb	r3, [fp, #-11]
  1007bc:	e51b3010 	ldr	r3, [fp, #-16]
  1007c0:	e5933000 	ldr	r3, [r3]
  1007c4:	e24b100c 	sub	r1, fp, #12
  1007c8:	e3a02002 	mov	r2, #2
  1007cc:	e1a00003 	mov	r0, r3
  1007d0:	eb000240 	bl	1010d8 <spi_write_and_read>
  1007d4:	e50b0008 	str	r0, [fp, #-8]
  1007d8:	e55b300c 	ldrb	r3, [fp, #-12]
  1007dc:	e1a03403 	lsl	r3, r3, #8
  1007e0:	e6bf2073 	sxth	r2, r3
  1007e4:	e55b300b 	ldrb	r3, [fp, #-11]
  1007e8:	e6bf3073 	sxth	r3, r3
  1007ec:	e1823003 	orr	r3, r2, r3
  1007f0:	e6bf3073 	sxth	r3, r3
  1007f4:	e6ff2073 	uxth	r2, r3
  1007f8:	e51b3018 	ldr	r3, [fp, #-24]	; 0xffffffe8
  1007fc:	e1c320b0 	strh	r2, [r3]
  100800:	e51b3008 	ldr	r3, [fp, #-8]
  100804:	e1a00003 	mov	r0, r3
  100808:	e24bd004 	sub	sp, fp, #4
  10080c:	e8bd8800 	pop	{fp, pc}

00100810 <ad738x_spi_reg_write>:
  100810:	e92d4800 	push	{fp, lr}
  100814:	e28db004 	add	fp, sp, #4
  100818:	e24dd010 	sub	sp, sp, #16
  10081c:	e50b0010 	str	r0, [fp, #-16]
  100820:	e1a03002 	mov	r3, r2
  100824:	e1a02001 	mov	r2, r1
  100828:	e54b2011 	strb	r2, [fp, #-17]	; 0xffffffef
  10082c:	e14b31b4 	strh	r3, [fp, #-20]	; 0xffffffec
  100830:	e55b3011 	ldrb	r3, [fp, #-17]	; 0xffffffef
  100834:	e1a03203 	lsl	r3, r3, #4
  100838:	e6af3073 	sxtb	r3, r3
  10083c:	e2033070 	and	r3, r3, #112	; 0x70
  100840:	e6af3073 	sxtb	r3, r3
  100844:	e1e03c83 	mvn	r3, r3, lsl #25
  100848:	e1e03ca3 	mvn	r3, r3, lsr #25
  10084c:	e6af2073 	sxtb	r2, r3
  100850:	e15b31b4 	ldrh	r3, [fp, #-20]	; 0xffffffec
  100854:	e1a03443 	asr	r3, r3, #8
  100858:	e6af3073 	sxtb	r3, r3
  10085c:	e203300f 	and	r3, r3, #15
  100860:	e6af3073 	sxtb	r3, r3
  100864:	e1823003 	orr	r3, r2, r3
  100868:	e6af3073 	sxtb	r3, r3
  10086c:	e6ef3073 	uxtb	r3, r3
  100870:	e54b3008 	strb	r3, [fp, #-8]
  100874:	e15b31b4 	ldrh	r3, [fp, #-20]	; 0xffffffec
  100878:	e6ef3073 	uxtb	r3, r3
  10087c:	e54b3007 	strb	r3, [fp, #-7]
  100880:	e51b3010 	ldr	r3, [fp, #-16]
  100884:	e5933000 	ldr	r3, [r3]
  100888:	e24b1008 	sub	r1, fp, #8
  10088c:	e3a02002 	mov	r2, #2
  100890:	e1a00003 	mov	r0, r3
  100894:	eb00020f 	bl	1010d8 <spi_write_and_read>
  100898:	e1a03000 	mov	r3, r0
  10089c:	e1a00003 	mov	r0, r3
  1008a0:	e24bd004 	sub	sp, fp, #4
  1008a4:	e8bd8800 	pop	{fp, pc}

001008a8 <ad738x_spi_write_mask>:
  1008a8:	e92d4800 	push	{fp, lr}
  1008ac:	e28db004 	add	fp, sp, #4
  1008b0:	e24dd018 	sub	sp, sp, #24
  1008b4:	e50b0010 	str	r0, [fp, #-16]
  1008b8:	e50b2018 	str	r2, [fp, #-24]	; 0xffffffe8
  1008bc:	e1a02001 	mov	r2, r1
  1008c0:	e54b2011 	strb	r2, [fp, #-17]	; 0xffffffef
  1008c4:	e14b31b4 	strh	r3, [fp, #-20]	; 0xffffffec
  1008c8:	e24b200a 	sub	r2, fp, #10
  1008cc:	e55b3011 	ldrb	r3, [fp, #-17]	; 0xffffffef
  1008d0:	e1a01003 	mov	r1, r3
  1008d4:	e51b0010 	ldr	r0, [fp, #-16]
  1008d8:	ebffff9d 	bl	100754 <ad738x_spi_reg_read>
  1008dc:	e50b0008 	str	r0, [fp, #-8]
  1008e0:	e51b3018 	ldr	r3, [fp, #-24]	; 0xffffffe8
  1008e4:	e6ff3073 	uxth	r3, r3
  1008e8:	e1e03003 	mvn	r3, r3
  1008ec:	e6ff2073 	uxth	r2, r3
  1008f0:	e15b30ba 	ldrh	r3, [fp, #-10]
  1008f4:	e0033002 	and	r3, r3, r2
  1008f8:	e6ff3073 	uxth	r3, r3
  1008fc:	e14b30ba 	strh	r3, [fp, #-10]
  100900:	e15b20ba 	ldrh	r2, [fp, #-10]
  100904:	e15b31b4 	ldrh	r3, [fp, #-20]	; 0xffffffec
  100908:	e1823003 	orr	r3, r2, r3
  10090c:	e6ff3073 	uxth	r3, r3
  100910:	e14b30ba 	strh	r3, [fp, #-10]
  100914:	e15b20ba 	ldrh	r2, [fp, #-10]
  100918:	e55b3011 	ldrb	r3, [fp, #-17]	; 0xffffffef
  10091c:	e1a01003 	mov	r1, r3
  100920:	e51b0010 	ldr	r0, [fp, #-16]
  100924:	ebffffb9 	bl	100810 <ad738x_spi_reg_write>
  100928:	e1a02000 	mov	r2, r0
  10092c:	e51b3008 	ldr	r3, [fp, #-8]
  100930:	e1833002 	orr	r3, r3, r2
  100934:	e50b3008 	str	r3, [fp, #-8]
  100938:	e51b3008 	ldr	r3, [fp, #-8]
  10093c:	e1a00003 	mov	r0, r3
  100940:	e24bd004 	sub	sp, fp, #4
  100944:	e8bd8800 	pop	{fp, pc}

00100948 <ad738x_spi_single_conversion>:
  100948:	e92d4800 	push	{fp, lr}
  10094c:	e28db004 	add	fp, sp, #4
  100950:	e24dd010 	sub	sp, sp, #16
  100954:	e50b0010 	str	r0, [fp, #-16]
  100958:	e50b1014 	str	r1, [fp, #-20]	; 0xffffffec
  10095c:	e3a03000 	mov	r3, #0
  100960:	e54b300c 	strb	r3, [fp, #-12]
  100964:	e3a03000 	mov	r3, #0
  100968:	e54b300b 	strb	r3, [fp, #-11]
  10096c:	e3a03000 	mov	r3, #0
  100970:	e54b300a 	strb	r3, [fp, #-10]
  100974:	e3a03000 	mov	r3, #0
  100978:	e54b3009 	strb	r3, [fp, #-9]
  10097c:	e51b3010 	ldr	r3, [fp, #-16]
  100980:	e5933000 	ldr	r3, [r3]
  100984:	e24b100c 	sub	r1, fp, #12
  100988:	e3a02004 	mov	r2, #4
  10098c:	e1a00003 	mov	r0, r3
  100990:	eb0001d0 	bl	1010d8 <spi_write_and_read>
  100994:	e50b0008 	str	r0, [fp, #-8]
  100998:	e55b300c 	ldrb	r3, [fp, #-12]
  10099c:	e1a03403 	lsl	r3, r3, #8
  1009a0:	e6bf2073 	sxth	r2, r3
  1009a4:	e55b300b 	ldrb	r3, [fp, #-11]
  1009a8:	e6bf3073 	sxth	r3, r3
  1009ac:	e1823003 	orr	r3, r2, r3
  1009b0:	e6bf3073 	sxth	r3, r3
  1009b4:	e6ff2073 	uxth	r2, r3
  1009b8:	e51b3014 	ldr	r3, [fp, #-20]	; 0xffffffec
  1009bc:	e1c320b0 	strh	r2, [r3]
  1009c0:	e51b3014 	ldr	r3, [fp, #-20]	; 0xffffffec
  1009c4:	e2833002 	add	r3, r3, #2
  1009c8:	e55b200a 	ldrb	r2, [fp, #-10]
  1009cc:	e1a02402 	lsl	r2, r2, #8
  1009d0:	e6bf1072 	sxth	r1, r2
  1009d4:	e55b2009 	ldrb	r2, [fp, #-9]
  1009d8:	e6bf2072 	sxth	r2, r2
  1009dc:	e1812002 	orr	r2, r1, r2
  1009e0:	e6bf2072 	sxth	r2, r2
  1009e4:	e6ff2072 	uxth	r2, r2
  1009e8:	e1c320b0 	strh	r2, [r3]
  1009ec:	e51b3008 	ldr	r3, [fp, #-8]
  1009f0:	e1a00003 	mov	r0, r3
  1009f4:	e24bd004 	sub	sp, fp, #4
  1009f8:	e8bd8800 	pop	{fp, pc}

001009fc <ad738x_set_conversion_mode>:
  1009fc:	e92d4800 	push	{fp, lr}
  100a00:	e28db004 	add	fp, sp, #4
  100a04:	e24dd008 	sub	sp, sp, #8
  100a08:	e50b0008 	str	r0, [fp, #-8]
  100a0c:	e1a03001 	mov	r3, r1
  100a10:	e54b3009 	strb	r3, [fp, #-9]
  100a14:	e55b3009 	ldrb	r3, [fp, #-9]
  100a18:	e1a03403 	lsl	r3, r3, #8
  100a1c:	e6ff3073 	uxth	r3, r3
  100a20:	e2033c01 	and	r3, r3, #256	; 0x100
  100a24:	e6ff3073 	uxth	r3, r3
  100a28:	e3a02c01 	mov	r2, #256	; 0x100
  100a2c:	e3a01002 	mov	r1, #2
  100a30:	e51b0008 	ldr	r0, [fp, #-8]
  100a34:	ebffff9b 	bl	1008a8 <ad738x_spi_write_mask>
  100a38:	e1a03000 	mov	r3, r0
  100a3c:	e1a00003 	mov	r0, r3
  100a40:	e24bd004 	sub	sp, fp, #4
  100a44:	e8bd8800 	pop	{fp, pc}

00100a48 <ad738x_reset>:
  100a48:	e92d4800 	push	{fp, lr}
  100a4c:	e28db004 	add	fp, sp, #4
  100a50:	e24dd010 	sub	sp, sp, #16
  100a54:	e50b0010 	str	r0, [fp, #-16]
  100a58:	e1a03001 	mov	r3, r1
  100a5c:	e54b3011 	strb	r3, [fp, #-17]	; 0xffffffef
  100a60:	e55b3011 	ldrb	r3, [fp, #-17]	; 0xffffffef
  100a64:	e3530001 	cmp	r3, #1
  100a68:	1a000001 	bne	100a74 <ad738x_reset+0x2c>
  100a6c:	e3a030ff 	mov	r3, #255	; 0xff
  100a70:	ea000000 	b	100a78 <ad738x_reset+0x30>
  100a74:	e3a0303c 	mov	r3, #60	; 0x3c
  100a78:	e50b3008 	str	r3, [fp, #-8]
  100a7c:	e3e03000 	mvn	r3, #0
  100a80:	e50b300c 	str	r3, [fp, #-12]
  100a84:	e51b300c 	ldr	r3, [fp, #-12]
  100a88:	e1a03c03 	lsl	r3, r3, #24
  100a8c:	e50b300c 	str	r3, [fp, #-12]
  100a90:	e51b300c 	ldr	r3, [fp, #-12]
  100a94:	e1a03c23 	lsr	r3, r3, #24
  100a98:	e50b300c 	str	r3, [fp, #-12]
  100a9c:	e51b200c 	ldr	r2, [fp, #-12]
  100aa0:	e51b3008 	ldr	r3, [fp, #-8]
  100aa4:	e6ff3073 	uxth	r3, r3
  100aa8:	e6ef3073 	uxtb	r3, r3
  100aac:	e6ff3073 	uxth	r3, r3
  100ab0:	e3a01002 	mov	r1, #2
  100ab4:	e51b0010 	ldr	r0, [fp, #-16]
  100ab8:	ebffff7a 	bl	1008a8 <ad738x_spi_write_mask>
  100abc:	e1a03000 	mov	r3, r0
  100ac0:	e1a00003 	mov	r0, r3
  100ac4:	e24bd004 	sub	sp, fp, #4
  100ac8:	e8bd8800 	pop	{fp, pc}

00100acc <ad738x_oversampling_config>:
  100acc:	e92d4800 	push	{fp, lr}
  100ad0:	e28db004 	add	fp, sp, #4
  100ad4:	e24dd018 	sub	sp, sp, #24
  100ad8:	e50b0018 	str	r0, [fp, #-24]	; 0xffffffe8
  100adc:	e1a00001 	mov	r0, r1
  100ae0:	e1a01002 	mov	r1, r2
  100ae4:	e1a02003 	mov	r2, r3
  100ae8:	e1a03000 	mov	r3, r0
  100aec:	e54b3019 	strb	r3, [fp, #-25]	; 0xffffffe7
  100af0:	e1a03001 	mov	r3, r1
  100af4:	e54b301a 	strb	r3, [fp, #-26]	; 0xffffffe6
  100af8:	e1a03002 	mov	r3, r2
  100afc:	e54b301b 	strb	r3, [fp, #-27]	; 0xffffffe5
  100b00:	e55b3019 	ldrb	r3, [fp, #-25]	; 0xffffffe7
  100b04:	e1a03483 	lsl	r3, r3, #9
  100b08:	e6ff3073 	uxth	r3, r3
  100b0c:	e2033c02 	and	r3, r3, #512	; 0x200
  100b10:	e6ff3073 	uxth	r3, r3
  100b14:	e3a02c02 	mov	r2, #512	; 0x200
  100b18:	e3a01001 	mov	r1, #1
  100b1c:	e51b0018 	ldr	r0, [fp, #-24]	; 0xffffffe8
  100b20:	ebffff60 	bl	1008a8 <ad738x_spi_write_mask>
  100b24:	e50b0008 	str	r0, [fp, #-8]
  100b28:	e3e03000 	mvn	r3, #0
  100b2c:	e50b300c 	str	r3, [fp, #-12]
  100b30:	e51b300c 	ldr	r3, [fp, #-12]
  100b34:	e1a03e83 	lsl	r3, r3, #29
  100b38:	e50b300c 	str	r3, [fp, #-12]
  100b3c:	e51b300c 	ldr	r3, [fp, #-12]
  100b40:	e1a03ba3 	lsr	r3, r3, #23
  100b44:	e50b300c 	str	r3, [fp, #-12]
  100b48:	e51b200c 	ldr	r2, [fp, #-12]
  100b4c:	e55b301a 	ldrb	r3, [fp, #-26]	; 0xffffffe6
  100b50:	e1a03303 	lsl	r3, r3, #6
  100b54:	e6ff3073 	uxth	r3, r3
  100b58:	e2033d07 	and	r3, r3, #448	; 0x1c0
  100b5c:	e6ff3073 	uxth	r3, r3
  100b60:	e3a01001 	mov	r1, #1
  100b64:	e51b0018 	ldr	r0, [fp, #-24]	; 0xffffffe8
  100b68:	ebffff4e 	bl	1008a8 <ad738x_spi_write_mask>
  100b6c:	e1a02000 	mov	r2, r0
  100b70:	e51b3008 	ldr	r3, [fp, #-8]
  100b74:	e1833002 	orr	r3, r3, r2
  100b78:	e50b3008 	str	r3, [fp, #-8]
  100b7c:	e55b301b 	ldrb	r3, [fp, #-27]	; 0xffffffe5
  100b80:	e1a03103 	lsl	r3, r3, #2
  100b84:	e6ff3073 	uxth	r3, r3
  100b88:	e2033004 	and	r3, r3, #4
  100b8c:	e6ff3073 	uxth	r3, r3
  100b90:	e3a02004 	mov	r2, #4
  100b94:	e3a01001 	mov	r1, #1
  100b98:	e51b0018 	ldr	r0, [fp, #-24]	; 0xffffffe8
  100b9c:	ebffff41 	bl	1008a8 <ad738x_spi_write_mask>
  100ba0:	e1a02000 	mov	r2, r0
  100ba4:	e51b3008 	ldr	r3, [fp, #-8]
  100ba8:	e1833002 	orr	r3, r3, r2
  100bac:	e50b3008 	str	r3, [fp, #-8]
  100bb0:	e24b300e 	sub	r3, fp, #14
  100bb4:	e1a02003 	mov	r2, r3
  100bb8:	e3a01001 	mov	r1, #1
  100bbc:	e51b0018 	ldr	r0, [fp, #-24]	; 0xffffffe8
  100bc0:	ebfffee3 	bl	100754 <ad738x_spi_reg_read>
  100bc4:	e1a02000 	mov	r2, r0
  100bc8:	e51b3008 	ldr	r3, [fp, #-8]
  100bcc:	e1833002 	orr	r3, r3, r2
  100bd0:	e50b3008 	str	r3, [fp, #-8]
  100bd4:	e15b30be 	ldrh	r3, [fp, #-14]
  100bd8:	e1a03143 	asr	r3, r3, #2
  100bdc:	e6ef3073 	uxtb	r3, r3
  100be0:	e2033001 	and	r3, r3, #1
  100be4:	e6ef2073 	uxtb	r2, r3
  100be8:	e51b3018 	ldr	r3, [fp, #-24]	; 0xffffffe8
  100bec:	e5c3200a 	strb	r2, [r3, #10]
  100bf0:	e51b3008 	ldr	r3, [fp, #-8]
  100bf4:	e1a00003 	mov	r0, r3
  100bf8:	e24bd004 	sub	sp, fp, #4
  100bfc:	e8bd8800 	pop	{fp, pc}

00100c00 <ad738x_power_down_mode>:
  100c00:	e92d4800 	push	{fp, lr}
  100c04:	e28db004 	add	fp, sp, #4
  100c08:	e24dd008 	sub	sp, sp, #8
  100c0c:	e50b0008 	str	r0, [fp, #-8]
  100c10:	e1a03001 	mov	r3, r1
  100c14:	e54b3009 	strb	r3, [fp, #-9]
  100c18:	e55b3009 	ldrb	r3, [fp, #-9]
  100c1c:	e6ff3073 	uxth	r3, r3
  100c20:	e2033001 	and	r3, r3, #1
  100c24:	e6ff3073 	uxth	r3, r3
  100c28:	e3a02001 	mov	r2, #1
  100c2c:	e3a01001 	mov	r1, #1
  100c30:	e51b0008 	ldr	r0, [fp, #-8]
  100c34:	ebffff1b 	bl	1008a8 <ad738x_spi_write_mask>
  100c38:	e1a03000 	mov	r3, r0
  100c3c:	e1a00003 	mov	r0, r3
  100c40:	e24bd004 	sub	sp, fp, #4
  100c44:	e8bd8800 	pop	{fp, pc}

00100c48 <ad738x_reference_sel>:
  100c48:	e92d4800 	push	{fp, lr}
  100c4c:	e28db004 	add	fp, sp, #4
  100c50:	e24dd008 	sub	sp, sp, #8
  100c54:	e50b0008 	str	r0, [fp, #-8]
  100c58:	e1a03001 	mov	r3, r1
  100c5c:	e54b3009 	strb	r3, [fp, #-9]
  100c60:	e55b3009 	ldrb	r3, [fp, #-9]
  100c64:	e1a03083 	lsl	r3, r3, #1
  100c68:	e6ff3073 	uxth	r3, r3
  100c6c:	e2033002 	and	r3, r3, #2
  100c70:	e6ff3073 	uxth	r3, r3
  100c74:	e3a02002 	mov	r2, #2
  100c78:	e3a01001 	mov	r1, #1
  100c7c:	e51b0008 	ldr	r0, [fp, #-8]
  100c80:	ebffff08 	bl	1008a8 <ad738x_spi_write_mask>
  100c84:	e1a03000 	mov	r3, r0
  100c88:	e1a00003 	mov	r0, r3
  100c8c:	e24bd004 	sub	sp, fp, #4
  100c90:	e8bd8800 	pop	{fp, pc}

00100c94 <ad738x_read_data>:
  100c94:	e92d4800 	push	{fp, lr}
  100c98:	e28db004 	add	fp, sp, #4
  100c9c:	e24dd058 	sub	sp, sp, #88	; 0x58
  100ca0:	e50b0048 	str	r0, [fp, #-72]	; 0xffffffb8
  100ca4:	e1a03002 	mov	r3, r2
  100ca8:	e14b14ba 	strh	r1, [fp, #-74]	; 0xffffffb6
  100cac:	e14b34bc 	strh	r3, [fp, #-76]	; 0xffffffb4
  100cb0:	e3a03000 	mov	r3, #0
  100cb4:	e50b3008 	str	r3, [fp, #-8]
  100cb8:	e3a03000 	mov	r3, #0
  100cbc:	e50b3014 	str	r3, [fp, #-20]	; 0xffffffec
  100cc0:	e3a03000 	mov	r3, #0
  100cc4:	e50b3010 	str	r3, [fp, #-16]
  100cc8:	e51b3048 	ldr	r3, [fp, #-72]	; 0xffffffb8
  100ccc:	e5d33008 	ldrb	r3, [r3, #8]
  100cd0:	e3530000 	cmp	r3, #0
  100cd4:	1a00000c 	bne	100d0c <ad738x_read_data+0x78>
  100cd8:	e3a03c13 	mov	r3, #4864	; 0x1300
  100cdc:	e50b302c 	str	r3, [fp, #-44]	; 0xffffffd4
  100ce0:	e3003301 	movw	r3, #769	; 0x301
  100ce4:	e50b3028 	str	r3, [fp, #-40]	; 0xffffffd8
  100ce8:	e30133ff 	movw	r3, #5119	; 0x13ff
  100cec:	e50b3024 	str	r3, [fp, #-36]	; 0xffffffdc
  100cf0:	e3a03c13 	mov	r3, #4864	; 0x1300
  100cf4:	e50b3020 	str	r3, [fp, #-32]	; 0xffffffe0
  100cf8:	e3003301 	movw	r3, #769	; 0x301
  100cfc:	e50b301c 	str	r3, [fp, #-28]	; 0xffffffe4
  100d00:	e30133ff 	movw	r3, #5119	; 0x13ff
  100d04:	e50b3018 	str	r3, [fp, #-24]	; 0xffffffe8
  100d08:	ea000007 	b	100d2c <ad738x_read_data+0x98>
  100d0c:	e3a03c13 	mov	r3, #4864	; 0x1300
  100d10:	e50b302c 	str	r3, [fp, #-44]	; 0xffffffd4
  100d14:	e3003301 	movw	r3, #769	; 0x301
  100d18:	e50b3028 	str	r3, [fp, #-40]	; 0xffffffd8
  100d1c:	e3003301 	movw	r3, #769	; 0x301
  100d20:	e50b3024 	str	r3, [fp, #-36]	; 0xffffffdc
  100d24:	e30133ff 	movw	r3, #5119	; 0x13ff
  100d28:	e50b3020 	str	r3, [fp, #-32]	; 0xffffffe0
  100d2c:	e51b3048 	ldr	r3, [fp, #-72]	; 0xffffffb8
  100d30:	e5932000 	ldr	r2, [r3]
  100d34:	e51b3048 	ldr	r3, [fp, #-72]	; 0xffffffb8
  100d38:	e5933004 	ldr	r3, [r3, #4]
  100d3c:	e1a01003 	mov	r1, r3
  100d40:	e1a00002 	mov	r0, r2
  100d44:	eb00068e 	bl	102784 <spi_engine_offload_init>
  100d48:	e24b302c 	sub	r3, fp, #44	; 0x2c
  100d4c:	e50b3040 	str	r3, [fp, #-64]	; 0xffffffc0
  100d50:	e51b3048 	ldr	r3, [fp, #-72]	; 0xffffffb8
  100d54:	e5d33008 	ldrb	r3, [r3, #8]
  100d58:	e3530000 	cmp	r3, #0
  100d5c:	1a000002 	bne	100d6c <ad738x_read_data+0xd8>
  100d60:	e3a03006 	mov	r3, #6
  100d64:	e50b303c 	str	r3, [fp, #-60]	; 0xffffffc4
  100d68:	ea000001 	b	100d74 <ad738x_read_data+0xe0>
  100d6c:	e3a03004 	mov	r3, #4
  100d70:	e50b303c 	str	r3, [fp, #-60]	; 0xffffffc4
  100d74:	e51b3038 	ldr	r3, [fp, #-56]	; 0xffffffc8
  100d78:	e15b21b4 	ldrh	r2, [fp, #-20]	; 0xffffffec
  100d7c:	e1c320b0 	strh	r2, [r3]
  100d80:	e15b34bc 	ldrh	r3, [fp, #-76]	; 0xffffffb4
  100d84:	e24b2044 	sub	r2, fp, #68	; 0x44
  100d88:	e1a01002 	mov	r1, r2
  100d8c:	e1a00003 	mov	r0, r3
  100d90:	eb003e0b 	bl	1105c4 <align_malloc>
  100d94:	e50b000c 	str	r0, [fp, #-12]
  100d98:	e15b34bc 	ldrh	r3, [fp, #-76]	; 0xffffffb4
  100d9c:	e1a02003 	mov	r2, r3
  100da0:	e3a01000 	mov	r1, #0
  100da4:	e51b000c 	ldr	r0, [fp, #-12]
  100da8:	eb00580b 	bl	116ddc <memset>
  100dac:	e51b300c 	ldr	r3, [fp, #-12]
  100db0:	e50b3030 	str	r3, [fp, #-48]	; 0xffffffd0
  100db4:	e51b3048 	ldr	r3, [fp, #-72]	; 0xffffffb8
  100db8:	e593c000 	ldr	ip, [r3]
  100dbc:	e15b34ba 	ldrh	r3, [fp, #-74]	; 0xffffffb6
  100dc0:	e1a03083 	lsl	r3, r3, #1
  100dc4:	e58d3008 	str	r3, [sp, #8]
  100dc8:	e1a0200d 	mov	r2, sp
  100dcc:	e24b3034 	sub	r3, fp, #52	; 0x34
  100dd0:	e8930003 	ldm	r3, {r0, r1}
  100dd4:	e8820003 	stm	r2, {r0, r1}
  100dd8:	e24b3040 	sub	r3, fp, #64	; 0x40
  100ddc:	e893000e 	ldm	r3, {r1, r2, r3}
  100de0:	e1a0000c 	mov	r0, ip
  100de4:	eb0006ac 	bl	10289c <spi_engine_offload_transfer>
  100de8:	e51b300c 	ldr	r3, [fp, #-12]
  100dec:	e50b3008 	str	r3, [fp, #-8]
  100df0:	e51b3048 	ldr	r3, [fp, #-72]	; 0xffffffb8
  100df4:	e593300c 	ldr	r3, [r3, #12]
  100df8:	e3530000 	cmp	r3, #0
  100dfc:	0a000007 	beq	100e20 <ad738x_read_data+0x18c>
  100e00:	e51b3048 	ldr	r3, [fp, #-72]	; 0xffffffb8
  100e04:	e593300c 	ldr	r3, [r3, #12]
  100e08:	e51b2030 	ldr	r2, [fp, #-48]	; 0xffffffd0
  100e0c:	e1a00002 	mov	r0, r2
  100e10:	e15b24ba 	ldrh	r2, [fp, #-74]	; 0xffffffb6
  100e14:	e1a02382 	lsl	r2, r2, #7
  100e18:	e1a01002 	mov	r1, r2
  100e1c:	e12fff33 	blx	r3
  100e20:	e51b3008 	ldr	r3, [fp, #-8]
  100e24:	e1a00003 	mov	r0, r3
  100e28:	e24bd004 	sub	sp, fp, #4
  100e2c:	e8bd8800 	pop	{fp, pc}

00100e30 <ad738x_init>:
  100e30:	e92d4800 	push	{fp, lr}
  100e34:	e28db004 	add	fp, sp, #4
  100e38:	e24dd010 	sub	sp, sp, #16
  100e3c:	e50b0010 	str	r0, [fp, #-16]
  100e40:	e50b1014 	str	r1, [fp, #-20]	; 0xffffffec
  100e44:	e3a00010 	mov	r0, #16
  100e48:	eb0055fc 	bl	116640 <malloc>
  100e4c:	e1a03000 	mov	r3, r0
  100e50:	e50b300c 	str	r3, [fp, #-12]
  100e54:	e51b300c 	ldr	r3, [fp, #-12]
  100e58:	e3530000 	cmp	r3, #0
  100e5c:	1a000001 	bne	100e68 <ad738x_init+0x38>
  100e60:	e3e03000 	mvn	r3, #0
  100e64:	ea00005e 	b	100fe4 <ad738x_init+0x1b4>
  100e68:	e51b3014 	ldr	r3, [fp, #-20]	; 0xffffffec
  100e6c:	e5932004 	ldr	r2, [r3, #4]
  100e70:	e51b300c 	ldr	r3, [fp, #-12]
  100e74:	e5832004 	str	r2, [r3, #4]
  100e78:	e51b3014 	ldr	r3, [fp, #-20]	; 0xffffffec
  100e7c:	e593200c 	ldr	r2, [r3, #12]
  100e80:	e51b300c 	ldr	r3, [fp, #-12]
  100e84:	e583200c 	str	r2, [r3, #12]
  100e88:	e51b3014 	ldr	r3, [fp, #-20]	; 0xffffffec
  100e8c:	e5d32008 	ldrb	r2, [r3, #8]
  100e90:	e51b300c 	ldr	r3, [fp, #-12]
  100e94:	e5c32008 	strb	r2, [r3, #8]
  100e98:	e51b3014 	ldr	r3, [fp, #-20]	; 0xffffffec
  100e9c:	e5d32009 	ldrb	r2, [r3, #9]
  100ea0:	e51b300c 	ldr	r3, [fp, #-12]
  100ea4:	e5c32009 	strb	r2, [r3, #9]
  100ea8:	e51b3014 	ldr	r3, [fp, #-20]	; 0xffffffec
  100eac:	e5d3200a 	ldrb	r2, [r3, #10]
  100eb0:	e51b300c 	ldr	r3, [fp, #-12]
  100eb4:	e5c3200a 	strb	r2, [r3, #10]
  100eb8:	e51b200c 	ldr	r2, [fp, #-12]
  100ebc:	e51b3014 	ldr	r3, [fp, #-20]	; 0xffffffec
  100ec0:	e5933000 	ldr	r3, [r3]
  100ec4:	e1a01003 	mov	r1, r3
  100ec8:	e1a00002 	mov	r0, r2
  100ecc:	eb000056 	bl	10102c <spi_init>
  100ed0:	e50b0008 	str	r0, [fp, #-8]
  100ed4:	e3a01001 	mov	r1, #1
  100ed8:	e51b000c 	ldr	r0, [fp, #-12]
  100edc:	ebfffed9 	bl	100a48 <ad738x_reset>
  100ee0:	e1a02000 	mov	r2, r0
  100ee4:	e51b3008 	ldr	r3, [fp, #-8]
  100ee8:	e1833002 	orr	r3, r3, r2
  100eec:	e50b3008 	str	r3, [fp, #-8]
  100ef0:	e3a00ffa 	mov	r0, #1000	; 0x3e8
  100ef4:	eb00009a 	bl	101164 <mdelay>
  100ef8:	e51b300c 	ldr	r3, [fp, #-12]
  100efc:	e5d33008 	ldrb	r3, [r3, #8]
  100f00:	e1a01003 	mov	r1, r3
  100f04:	e51b000c 	ldr	r0, [fp, #-12]
  100f08:	ebfffebb 	bl	1009fc <ad738x_set_conversion_mode>
  100f0c:	e1a02000 	mov	r2, r0
  100f10:	e51b3008 	ldr	r3, [fp, #-8]
  100f14:	e1833002 	orr	r3, r3, r2
  100f18:	e50b3008 	str	r3, [fp, #-8]
  100f1c:	e51b300c 	ldr	r3, [fp, #-12]
  100f20:	e5d33009 	ldrb	r3, [r3, #9]
  100f24:	e1a01003 	mov	r1, r3
  100f28:	e51b000c 	ldr	r0, [fp, #-12]
  100f2c:	ebffff45 	bl	100c48 <ad738x_reference_sel>
  100f30:	e1a02000 	mov	r2, r0
  100f34:	e51b3008 	ldr	r3, [fp, #-8]
  100f38:	e1833002 	orr	r3, r3, r2
  100f3c:	e50b3008 	str	r3, [fp, #-8]
  100f40:	e51b300c 	ldr	r3, [fp, #-12]
  100f44:	e5d33008 	ldrb	r3, [r3, #8]
  100f48:	e3530001 	cmp	r3, #1
  100f4c:	1a00000e 	bne	100f8c <ad738x_init+0x15c>
  100f50:	e51b300c 	ldr	r3, [fp, #-12]
  100f54:	e5d3300a 	ldrb	r3, [r3, #10]
  100f58:	e3530001 	cmp	r3, #1
  100f5c:	1a00000a 	bne	100f8c <ad738x_init+0x15c>
  100f60:	e51b300c 	ldr	r3, [fp, #-12]
  100f64:	e5d3300a 	ldrb	r3, [r3, #10]
  100f68:	e3a02001 	mov	r2, #1
  100f6c:	e3a01000 	mov	r1, #0
  100f70:	e51b000c 	ldr	r0, [fp, #-12]
  100f74:	ebfffed4 	bl	100acc <ad738x_oversampling_config>
  100f78:	e1a02000 	mov	r2, r0
  100f7c:	e51b3008 	ldr	r3, [fp, #-8]
  100f80:	e1833002 	orr	r3, r3, r2
  100f84:	e50b3008 	str	r3, [fp, #-8]
  100f88:	ea000009 	b	100fb4 <ad738x_init+0x184>
  100f8c:	e51b300c 	ldr	r3, [fp, #-12]
  100f90:	e5d3300a 	ldrb	r3, [r3, #10]
  100f94:	e3a02000 	mov	r2, #0
  100f98:	e3a01000 	mov	r1, #0
  100f9c:	e51b000c 	ldr	r0, [fp, #-12]
  100fa0:	ebfffec9 	bl	100acc <ad738x_oversampling_config>
  100fa4:	e1a02000 	mov	r2, r0
  100fa8:	e51b3008 	ldr	r3, [fp, #-8]
  100fac:	e1833002 	orr	r3, r3, r2
  100fb0:	e50b3008 	str	r3, [fp, #-8]
  100fb4:	e51b3010 	ldr	r3, [fp, #-16]
  100fb8:	e51b200c 	ldr	r2, [fp, #-12]
  100fbc:	e5832000 	str	r2, [r3]
  100fc0:	e51b3008 	ldr	r3, [fp, #-8]
  100fc4:	e3530000 	cmp	r3, #0
  100fc8:	1a000002 	bne	100fd8 <ad738x_init+0x1a8>
  100fcc:	e30f0e38 	movw	r0, #65080	; 0xfe38
  100fd0:	e3400011 	movt	r0, #17
  100fd4:	eb005828 	bl	11707c <puts>
  100fd8:	e3a00ffa 	mov	r0, #1000	; 0x3e8
  100fdc:	eb000060 	bl	101164 <mdelay>
  100fe0:	e51b3008 	ldr	r3, [fp, #-8]
  100fe4:	e1a00003 	mov	r0, r3
  100fe8:	e24bd004 	sub	sp, fp, #4
  100fec:	e8bd8800 	pop	{fp, pc}

00100ff0 <ad738x_remove>:
  100ff0:	e92d4800 	push	{fp, lr}
  100ff4:	e28db004 	add	fp, sp, #4
  100ff8:	e24dd010 	sub	sp, sp, #16
  100ffc:	e50b0010 	str	r0, [fp, #-16]
  101000:	e51b3010 	ldr	r3, [fp, #-16]
  101004:	e5933000 	ldr	r3, [r3]
  101008:	e1a00003 	mov	r0, r3
  10100c:	eb000024 	bl	1010a4 <spi_remove>
  101010:	e50b0008 	str	r0, [fp, #-8]
  101014:	e51b0010 	ldr	r0, [fp, #-16]
  101018:	eb00558e 	bl	116658 <free>
  10101c:	e51b3008 	ldr	r3, [fp, #-8]
  101020:	e1a00003 	mov	r0, r3
  101024:	e24bd004 	sub	sp, fp, #4
  101028:	e8bd8800 	pop	{fp, pc}

0010102c <spi_init>:
  10102c:	e92d4800 	push	{fp, lr}
  101030:	e28db004 	add	fp, sp, #4
  101034:	e24dd008 	sub	sp, sp, #8
  101038:	e50b0008 	str	r0, [fp, #-8]
  10103c:	e50b100c 	str	r1, [fp, #-12]
  101040:	e51b300c 	ldr	r3, [fp, #-12]
  101044:	e3530000 	cmp	r3, #0
  101048:	1a000001 	bne	101054 <spi_init+0x28>
  10104c:	e3e03000 	mvn	r3, #0
  101050:	ea000010 	b	101098 <spi_init+0x6c>
  101054:	e51b300c 	ldr	r3, [fp, #-12]
  101058:	e5933008 	ldr	r3, [r3, #8]
  10105c:	e5933000 	ldr	r3, [r3]
  101060:	e51b100c 	ldr	r1, [fp, #-12]
  101064:	e51b0008 	ldr	r0, [fp, #-8]
  101068:	e12fff33 	blx	r3
  10106c:	e1a03000 	mov	r3, r0
  101070:	e3530000 	cmp	r3, #0
  101074:	0a000001 	beq	101080 <spi_init+0x54>
  101078:	e3e03000 	mvn	r3, #0
  10107c:	ea000005 	b	101098 <spi_init+0x6c>
  101080:	e51b3008 	ldr	r3, [fp, #-8]
  101084:	e5933000 	ldr	r3, [r3]
  101088:	e51b200c 	ldr	r2, [fp, #-12]
  10108c:	e5922008 	ldr	r2, [r2, #8]
  101090:	e5832008 	str	r2, [r3, #8]
  101094:	e3a03000 	mov	r3, #0
  101098:	e1a00003 	mov	r0, r3
  10109c:	e24bd004 	sub	sp, fp, #4
  1010a0:	e8bd8800 	pop	{fp, pc}

001010a4 <spi_remove>:
  1010a4:	e92d4800 	push	{fp, lr}
  1010a8:	e28db004 	add	fp, sp, #4
  1010ac:	e24dd008 	sub	sp, sp, #8
  1010b0:	e50b0008 	str	r0, [fp, #-8]
  1010b4:	e51b3008 	ldr	r3, [fp, #-8]
  1010b8:	e5933008 	ldr	r3, [r3, #8]
  1010bc:	e5933008 	ldr	r3, [r3, #8]
  1010c0:	e51b0008 	ldr	r0, [fp, #-8]
  1010c4:	e12fff33 	blx	r3
  1010c8:	e1a03000 	mov	r3, r0
  1010cc:	e1a00003 	mov	r0, r3
  1010d0:	e24bd004 	sub	sp, fp, #4
  1010d4:	e8bd8800 	pop	{fp, pc}

001010d8 <spi_write_and_read>:
  1010d8:	e92d4800 	push	{fp, lr}
  1010dc:	e28db004 	add	fp, sp, #4
  1010e0:	e24dd010 	sub	sp, sp, #16
  1010e4:	e50b0008 	str	r0, [fp, #-8]
  1010e8:	e50b100c 	str	r1, [fp, #-12]
  1010ec:	e1a03002 	mov	r3, r2
  1010f0:	e14b30be 	strh	r3, [fp, #-14]
  1010f4:	e51b3008 	ldr	r3, [fp, #-8]
  1010f8:	e5933008 	ldr	r3, [r3, #8]
  1010fc:	e5933004 	ldr	r3, [r3, #4]
  101100:	e15b20be 	ldrh	r2, [fp, #-14]
  101104:	e51b100c 	ldr	r1, [fp, #-12]
  101108:	e51b0008 	ldr	r0, [fp, #-8]
  10110c:	e12fff33 	blx	r3
  101110:	e1a03000 	mov	r3, r0
  101114:	e1a00003 	mov	r0, r3
  101118:	e24bd004 	sub	sp, fp, #4
  10111c:	e8bd8800 	pop	{fp, pc}

00101120 <udelay>:
  101120:	e92d4800 	push	{fp, lr}
  101124:	e28db004 	add	fp, sp, #4
  101128:	e24dd010 	sub	sp, sp, #16
  10112c:	e50b0010 	str	r0, [fp, #-16]
  101130:	e3a00003 	mov	r0, #3
  101134:	eb004631 	bl	112a00 <alt_gpt_counter_get>
  101138:	e50b0008 	str	r0, [fp, #-8]
  10113c:	e51b3010 	ldr	r3, [fp, #-16]
  101140:	e3a02ffa 	mov	r2, #1000	; 0x3e8
  101144:	e0030392 	mul	r3, r2, r3
  101148:	e1a02003 	mov	r2, r3
  10114c:	e51b1008 	ldr	r1, [fp, #-8]
  101150:	e3a00003 	mov	r0, #3
  101154:	eb004739 	bl	112e40 <alt_gpt_delay_ns>
  101158:	e320f000 	nop	{0}
  10115c:	e24bd004 	sub	sp, fp, #4
  101160:	e8bd8800 	pop	{fp, pc}

00101164 <mdelay>:
  101164:	e92d4800 	push	{fp, lr}
  101168:	e28db004 	add	fp, sp, #4
  10116c:	e24dd010 	sub	sp, sp, #16
  101170:	e50b0010 	str	r0, [fp, #-16]
  101174:	e3a00003 	mov	r0, #3
  101178:	eb004620 	bl	112a00 <alt_gpt_counter_get>
  10117c:	e50b0008 	str	r0, [fp, #-8]
  101180:	e51b2010 	ldr	r2, [fp, #-16]
  101184:	e3043240 	movw	r3, #16960	; 0x4240
  101188:	e340300f 	movt	r3, #15
  10118c:	e0030293 	mul	r3, r3, r2
  101190:	e1a02003 	mov	r2, r3
  101194:	e51b1008 	ldr	r1, [fp, #-8]
  101198:	e3a00003 	mov	r0, #3
  10119c:	eb004727 	bl	112e40 <alt_gpt_delay_ns>
  1011a0:	e320f000 	nop	{0}
  1011a4:	e24bd004 	sub	sp, fp, #4
  1011a8:	e8bd8800 	pop	{fp, pc}

001011ac <find_first_set_bit>:
  1011ac:	e52db004 	push	{fp}		; (str fp, [sp, #-4]!)
  1011b0:	e28db000 	add	fp, sp, #0
  1011b4:	e24dd014 	sub	sp, sp, #20
  1011b8:	e50b0010 	str	r0, [fp, #-16]
  1011bc:	e3a03000 	mov	r3, #0
  1011c0:	e50b3008 	str	r3, [fp, #-8]
  1011c4:	ea00000b 	b	1011f8 <find_first_set_bit+0x4c>
  1011c8:	e51b3010 	ldr	r3, [fp, #-16]
  1011cc:	e2033001 	and	r3, r3, #1
  1011d0:	e3530000 	cmp	r3, #0
  1011d4:	0a000001 	beq	1011e0 <find_first_set_bit+0x34>
  1011d8:	e51b3008 	ldr	r3, [fp, #-8]
  1011dc:	ea000009 	b	101208 <find_first_set_bit+0x5c>
  1011e0:	e51b3010 	ldr	r3, [fp, #-16]
  1011e4:	e1a030a3 	lsr	r3, r3, #1
  1011e8:	e50b3010 	str	r3, [fp, #-16]
  1011ec:	e51b3008 	ldr	r3, [fp, #-8]
  1011f0:	e2833001 	add	r3, r3, #1
  1011f4:	e50b3008 	str	r3, [fp, #-8]
  1011f8:	e51b3010 	ldr	r3, [fp, #-16]
  1011fc:	e3530000 	cmp	r3, #0
  101200:	1afffff0 	bne	1011c8 <find_first_set_bit+0x1c>
  101204:	e3a03020 	mov	r3, #32
  101208:	e1a00003 	mov	r0, r3
  10120c:	e24bd000 	sub	sp, fp, #0
  101210:	e49db004 	pop	{fp}		; (ldr fp, [sp], #4)
  101214:	e12fff1e 	bx	lr

00101218 <find_last_set_bit>:
  101218:	e52db004 	push	{fp}		; (str fp, [sp, #-4]!)
  10121c:	e28db000 	add	fp, sp, #0
  101220:	e24dd014 	sub	sp, sp, #20
  101224:	e50b0010 	str	r0, [fp, #-16]
  101228:	e3a03000 	mov	r3, #0
  10122c:	e50b3008 	str	r3, [fp, #-8]
  101230:	e3a03020 	mov	r3, #32
  101234:	e50b300c 	str	r3, [fp, #-12]
  101238:	ea00000b 	b	10126c <find_last_set_bit+0x54>
  10123c:	e51b3010 	ldr	r3, [fp, #-16]
  101240:	e2033001 	and	r3, r3, #1
  101244:	e3530000 	cmp	r3, #0
  101248:	0a000001 	beq	101254 <find_last_set_bit+0x3c>
  10124c:	e51b3008 	ldr	r3, [fp, #-8]
  101250:	e50b300c 	str	r3, [fp, #-12]
  101254:	e51b3010 	ldr	r3, [fp, #-16]
  101258:	e1a030a3 	lsr	r3, r3, #1
  10125c:	e50b3010 	str	r3, [fp, #-16]
  101260:	e51b3008 	ldr	r3, [fp, #-8]
  101264:	e2833001 	add	r3, r3, #1
  101268:	e50b3008 	str	r3, [fp, #-8]
  10126c:	e51b3010 	ldr	r3, [fp, #-16]
  101270:	e3530000 	cmp	r3, #0
  101274:	1afffff0 	bne	10123c <find_last_set_bit+0x24>
  101278:	e51b300c 	ldr	r3, [fp, #-12]
  10127c:	e1a00003 	mov	r0, r3
  101280:	e24bd000 	sub	sp, fp, #0
  101284:	e49db004 	pop	{fp}		; (ldr fp, [sp], #4)
  101288:	e12fff1e 	bx	lr

0010128c <find_closest>:
  10128c:	e52db004 	push	{fp}		; (str fp, [sp, #-4]!)
  101290:	e28db000 	add	fp, sp, #0
  101294:	e24dd024 	sub	sp, sp, #36	; 0x24
  101298:	e50b0018 	str	r0, [fp, #-24]	; 0xffffffe8
  10129c:	e50b101c 	str	r1, [fp, #-28]	; 0xffffffe4
  1012a0:	e50b2020 	str	r2, [fp, #-32]	; 0xffffffe0
  1012a4:	e51b301c 	ldr	r3, [fp, #-28]	; 0xffffffe4
  1012a8:	e5932000 	ldr	r2, [r3]
  1012ac:	e51b3018 	ldr	r3, [fp, #-24]	; 0xffffffe8
  1012b0:	e0423003 	sub	r3, r2, r3
  1012b4:	e3530000 	cmp	r3, #0
  1012b8:	b2633000 	rsblt	r3, r3, #0
  1012bc:	e50b3008 	str	r3, [fp, #-8]
  1012c0:	e3a03000 	mov	r3, #0
  1012c4:	e50b300c 	str	r3, [fp, #-12]
  1012c8:	e3a03001 	mov	r3, #1
  1012cc:	e50b3010 	str	r3, [fp, #-16]
  1012d0:	ea00001a 	b	101340 <find_closest+0xb4>
  1012d4:	e51b3010 	ldr	r3, [fp, #-16]
  1012d8:	e1a03103 	lsl	r3, r3, #2
  1012dc:	e51b201c 	ldr	r2, [fp, #-28]	; 0xffffffe4
  1012e0:	e0823003 	add	r3, r2, r3
  1012e4:	e5932000 	ldr	r2, [r3]
  1012e8:	e51b3018 	ldr	r3, [fp, #-24]	; 0xffffffe8
  1012ec:	e0423003 	sub	r3, r2, r3
  1012f0:	e0232fc3 	eor	r2, r3, r3, asr #31
  1012f4:	e0422fc3 	sub	r2, r2, r3, asr #31
  1012f8:	e51b3008 	ldr	r3, [fp, #-8]
  1012fc:	e1520003 	cmp	r2, r3
  101300:	aa00000b 	bge	101334 <find_closest+0xa8>
  101304:	e51b3010 	ldr	r3, [fp, #-16]
  101308:	e1a03103 	lsl	r3, r3, #2
  10130c:	e51b201c 	ldr	r2, [fp, #-28]	; 0xffffffe4
  101310:	e0823003 	add	r3, r2, r3
  101314:	e5932000 	ldr	r2, [r3]
  101318:	e51b3018 	ldr	r3, [fp, #-24]	; 0xffffffe8
  10131c:	e0423003 	sub	r3, r2, r3
  101320:	e3530000 	cmp	r3, #0
  101324:	b2633000 	rsblt	r3, r3, #0
  101328:	e50b3008 	str	r3, [fp, #-8]
  10132c:	e51b3010 	ldr	r3, [fp, #-16]
  101330:	e50b300c 	str	r3, [fp, #-12]
  101334:	e51b3010 	ldr	r3, [fp, #-16]
  101338:	e2833001 	add	r3, r3, #1
  10133c:	e50b3010 	str	r3, [fp, #-16]
  101340:	e51b2010 	ldr	r2, [fp, #-16]
  101344:	e51b3020 	ldr	r3, [fp, #-32]	; 0xffffffe0
  101348:	e1520003 	cmp	r2, r3
  10134c:	3affffe0 	bcc	1012d4 <find_closest+0x48>
  101350:	e51b300c 	ldr	r3, [fp, #-12]
  101354:	e1a00003 	mov	r0, r3
  101358:	e24bd000 	sub	sp, fp, #0
  10135c:	e49db004 	pop	{fp}		; (ldr fp, [sp], #4)
  101360:	e12fff1e 	bx	lr

00101364 <field_prep>:
  101364:	e92d4800 	push	{fp, lr}
  101368:	e28db004 	add	fp, sp, #4
  10136c:	e24dd008 	sub	sp, sp, #8
  101370:	e50b0008 	str	r0, [fp, #-8]
  101374:	e50b100c 	str	r1, [fp, #-12]
  101378:	e51b0008 	ldr	r0, [fp, #-8]
  10137c:	ebffff8a 	bl	1011ac <find_first_set_bit>
  101380:	e1a02000 	mov	r2, r0
  101384:	e51b300c 	ldr	r3, [fp, #-12]
  101388:	e1a02213 	lsl	r2, r3, r2
  10138c:	e51b3008 	ldr	r3, [fp, #-8]
  101390:	e0033002 	and	r3, r3, r2
  101394:	e1a00003 	mov	r0, r3
  101398:	e24bd004 	sub	sp, fp, #4
  10139c:	e8bd8800 	pop	{fp, pc}

001013a0 <field_get>:
  1013a0:	e92d4810 	push	{r4, fp, lr}
  1013a4:	e28db008 	add	fp, sp, #8
  1013a8:	e24dd00c 	sub	sp, sp, #12
  1013ac:	e50b0010 	str	r0, [fp, #-16]
  1013b0:	e50b1014 	str	r1, [fp, #-20]	; 0xffffffec
  1013b4:	e51b2014 	ldr	r2, [fp, #-20]	; 0xffffffec
  1013b8:	e51b3010 	ldr	r3, [fp, #-16]
  1013bc:	e0024003 	and	r4, r2, r3
  1013c0:	e51b0010 	ldr	r0, [fp, #-16]
  1013c4:	ebffff78 	bl	1011ac <find_first_set_bit>
  1013c8:	e1a03000 	mov	r3, r0
  1013cc:	e1a03334 	lsr	r3, r4, r3
  1013d0:	e1a00003 	mov	r0, r3
  1013d4:	e24bd008 	sub	sp, fp, #8
  1013d8:	e8bd8810 	pop	{r4, fp, pc}

001013dc <log_base_2>:
  1013dc:	e92d4800 	push	{fp, lr}
  1013e0:	e28db004 	add	fp, sp, #4
  1013e4:	e24dd008 	sub	sp, sp, #8
  1013e8:	e50b0008 	str	r0, [fp, #-8]
  1013ec:	e51b0008 	ldr	r0, [fp, #-8]
  1013f0:	ebffff88 	bl	101218 <find_last_set_bit>
  1013f4:	e1a03000 	mov	r3, r0
  1013f8:	e1a00003 	mov	r0, r3
  1013fc:	e24bd004 	sub	sp, fp, #4
  101400:	e8bd8800 	pop	{fp, pc}

00101404 <greatest_common_divisor>:
  101404:	e92d4800 	push	{fp, lr}
  101408:	e28db004 	add	fp, sp, #4
  10140c:	e24dd010 	sub	sp, sp, #16
  101410:	e50b0010 	str	r0, [fp, #-16]
  101414:	e50b1014 	str	r1, [fp, #-20]	; 0xffffffec
  101418:	e3a03001 	mov	r3, #1
  10141c:	e50b300c 	str	r3, [fp, #-12]
  101420:	e51b3010 	ldr	r3, [fp, #-16]
  101424:	e3530000 	cmp	r3, #0
  101428:	0a000002 	beq	101438 <greatest_common_divisor+0x34>
  10142c:	e51b3014 	ldr	r3, [fp, #-20]	; 0xffffffec
  101430:	e3530000 	cmp	r3, #0
  101434:	1a000005 	bne	101450 <greatest_common_divisor+0x4c>
  101438:	e51b2014 	ldr	r2, [fp, #-20]	; 0xffffffec
  10143c:	e51b3010 	ldr	r3, [fp, #-16]
  101440:	e1520003 	cmp	r2, r3
  101444:	21a03002 	movcs	r3, r2
  101448:	31a03003 	movcc	r3, r3
  10144c:	ea00001e 	b	1014cc <greatest_common_divisor+0xc8>
  101450:	e3a03001 	mov	r3, #1
  101454:	e50b3008 	str	r3, [fp, #-8]
  101458:	ea000012 	b	1014a8 <greatest_common_divisor+0xa4>
  10145c:	e51b3010 	ldr	r3, [fp, #-16]
  101460:	e51b1008 	ldr	r1, [fp, #-8]
  101464:	e1a00003 	mov	r0, r3
  101468:	eb0053e6 	bl	116408 <__aeabi_uidivmod>
  10146c:	e1a03001 	mov	r3, r1
  101470:	e3530000 	cmp	r3, #0
  101474:	1a000008 	bne	10149c <greatest_common_divisor+0x98>
  101478:	e51b3014 	ldr	r3, [fp, #-20]	; 0xffffffec
  10147c:	e51b1008 	ldr	r1, [fp, #-8]
  101480:	e1a00003 	mov	r0, r3
  101484:	eb0053df 	bl	116408 <__aeabi_uidivmod>
  101488:	e1a03001 	mov	r3, r1
  10148c:	e3530000 	cmp	r3, #0
  101490:	1a000001 	bne	10149c <greatest_common_divisor+0x98>
  101494:	e51b3008 	ldr	r3, [fp, #-8]
  101498:	e50b300c 	str	r3, [fp, #-12]
  10149c:	e51b3008 	ldr	r3, [fp, #-8]
  1014a0:	e2833001 	add	r3, r3, #1
  1014a4:	e50b3008 	str	r3, [fp, #-8]
  1014a8:	e51b2008 	ldr	r2, [fp, #-8]
  1014ac:	e51b3010 	ldr	r3, [fp, #-16]
  1014b0:	e1520003 	cmp	r2, r3
  1014b4:	8a000003 	bhi	1014c8 <greatest_common_divisor+0xc4>
  1014b8:	e51b2008 	ldr	r2, [fp, #-8]
  1014bc:	e51b3014 	ldr	r3, [fp, #-20]	; 0xffffffec
  1014c0:	e1520003 	cmp	r2, r3
  1014c4:	9affffe4 	bls	10145c <greatest_common_divisor+0x58>
  1014c8:	e51b300c 	ldr	r3, [fp, #-12]
  1014cc:	e1a00003 	mov	r0, r3
  1014d0:	e24bd004 	sub	sp, fp, #4
  1014d4:	e8bd8800 	pop	{fp, pc}

001014d8 <rational_best_approximation>:
  1014d8:	e92d4800 	push	{fp, lr}
  1014dc:	e28db004 	add	fp, sp, #4
  1014e0:	e24dd018 	sub	sp, sp, #24
  1014e4:	e50b0010 	str	r0, [fp, #-16]
  1014e8:	e50b1014 	str	r1, [fp, #-20]	; 0xffffffec
  1014ec:	e50b2018 	str	r2, [fp, #-24]	; 0xffffffe8
  1014f0:	e50b301c 	str	r3, [fp, #-28]	; 0xffffffe4
  1014f4:	e51b1014 	ldr	r1, [fp, #-20]	; 0xffffffec
  1014f8:	e51b0010 	ldr	r0, [fp, #-16]
  1014fc:	ebffffc0 	bl	101404 <greatest_common_divisor>
  101500:	e50b0008 	str	r0, [fp, #-8]
  101504:	e51b1008 	ldr	r1, [fp, #-8]
  101508:	e51b0010 	ldr	r0, [fp, #-16]
  10150c:	eb005342 	bl	11621c <__aeabi_uidiv>
  101510:	e1a03000 	mov	r3, r0
  101514:	e1a02003 	mov	r2, r3
  101518:	e59b3004 	ldr	r3, [fp, #4]
  10151c:	e5832000 	str	r2, [r3]
  101520:	e51b1008 	ldr	r1, [fp, #-8]
  101524:	e51b0014 	ldr	r0, [fp, #-20]	; 0xffffffec
  101528:	eb00533b 	bl	11621c <__aeabi_uidiv>
  10152c:	e1a03000 	mov	r3, r0
  101530:	e1a02003 	mov	r2, r3
  101534:	e59b3008 	ldr	r3, [fp, #8]
  101538:	e5832000 	str	r2, [r3]
  10153c:	e59b3004 	ldr	r3, [fp, #4]
  101540:	e5932000 	ldr	r2, [r3]
  101544:	e51b3018 	ldr	r3, [fp, #-24]	; 0xffffffe8
  101548:	e1520003 	cmp	r2, r3
  10154c:	8a000004 	bhi	101564 <rational_best_approximation+0x8c>
  101550:	e59b3008 	ldr	r3, [fp, #8]
  101554:	e5932000 	ldr	r2, [r3]
  101558:	e51b301c 	ldr	r3, [fp, #-28]	; 0xffffffe4
  10155c:	e1520003 	cmp	r2, r3
  101560:	9a000005 	bls	10157c <rational_best_approximation+0xa4>
  101564:	e59b3004 	ldr	r3, [fp, #4]
  101568:	e3a02000 	mov	r2, #0
  10156c:	e5832000 	str	r2, [r3]
  101570:	e59b3008 	ldr	r3, [fp, #8]
  101574:	e3a02000 	mov	r2, #0
  101578:	e5832000 	str	r2, [r3]
  10157c:	e320f000 	nop	{0}
  101580:	e24bd004 	sub	sp, fp, #4
  101584:	e8bd8800 	pop	{fp, pc}

00101588 <hweight8>:
  101588:	e52db004 	push	{fp}		; (str fp, [sp, #-4]!)
  10158c:	e28db000 	add	fp, sp, #0
  101590:	e24dd014 	sub	sp, sp, #20
  101594:	e50b0010 	str	r0, [fp, #-16]
  101598:	e3a03000 	mov	r3, #0
  10159c:	e50b3008 	str	r3, [fp, #-8]
  1015a0:	ea000009 	b	1015cc <hweight8+0x44>
  1015a4:	e51b3010 	ldr	r3, [fp, #-16]
  1015a8:	e2033001 	and	r3, r3, #1
  1015ac:	e3530000 	cmp	r3, #0
  1015b0:	0a000002 	beq	1015c0 <hweight8+0x38>
  1015b4:	e51b3008 	ldr	r3, [fp, #-8]
  1015b8:	e2833001 	add	r3, r3, #1
  1015bc:	e50b3008 	str	r3, [fp, #-8]
  1015c0:	e51b3010 	ldr	r3, [fp, #-16]
  1015c4:	e1a030a3 	lsr	r3, r3, #1
  1015c8:	e50b3010 	str	r3, [fp, #-16]
  1015cc:	e51b3010 	ldr	r3, [fp, #-16]
  1015d0:	e3530000 	cmp	r3, #0
  1015d4:	1afffff2 	bne	1015a4 <hweight8+0x1c>
  1015d8:	e51b3008 	ldr	r3, [fp, #-8]
  1015dc:	e1a00003 	mov	r0, r3
  1015e0:	e24bd000 	sub	sp, fp, #0
  1015e4:	e49db004 	pop	{fp}		; (ldr fp, [sp], #4)
  1015e8:	e12fff1e 	bx	lr

001015ec <do_div>:
  1015ec:	e92d4800 	push	{fp, lr}
  1015f0:	e28db004 	add	fp, sp, #4
  1015f4:	e24dd018 	sub	sp, sp, #24
  1015f8:	e50b0010 	str	r0, [fp, #-16]
  1015fc:	e14b21fc 	strd	r2, [fp, #-28]	; 0xffffffe4
  101600:	f2c00010 	vmov.i32	d16, #0	; 0x00000000
  101604:	ed4b0b03 	vstr	d16, [fp, #-12]
  101608:	e51b3010 	ldr	r3, [fp, #-16]
  10160c:	e1c300d0 	ldrd	r0, [r3]
  101610:	e14b21dc 	ldrd	r2, [fp, #-28]	; 0xffffffe4
  101614:	eb005384 	bl	11642c <__aeabi_uldivmod>
  101618:	e14b20fc 	strd	r2, [fp, #-12]
  10161c:	e51b3010 	ldr	r3, [fp, #-16]
  101620:	e1c300d0 	ldrd	r0, [r3]
  101624:	e14b21dc 	ldrd	r2, [fp, #-28]	; 0xffffffe4
  101628:	eb00537f 	bl	11642c <__aeabi_uldivmod>
  10162c:	e1a02000 	mov	r2, r0
  101630:	e1a03001 	mov	r3, r1
  101634:	e51b1010 	ldr	r1, [fp, #-16]
  101638:	e1c120f0 	strd	r2, [r1]
  10163c:	e14b20dc 	ldrd	r2, [fp, #-12]
  101640:	e1a00002 	mov	r0, r2
  101644:	e1a01003 	mov	r1, r3
  101648:	e24bd004 	sub	sp, fp, #4
  10164c:	e8bd8800 	pop	{fp, pc}

00101650 <div64_u64_rem>:
  101650:	e92d4800 	push	{fp, lr}
  101654:	e28db004 	add	fp, sp, #4
  101658:	e24dd010 	sub	sp, sp, #16
  10165c:	e14b00fc 	strd	r0, [fp, #-12]
  101660:	e14b21f4 	strd	r2, [fp, #-20]	; 0xffffffec
  101664:	e14b00dc 	ldrd	r0, [fp, #-12]
  101668:	e14b21d4 	ldrd	r2, [fp, #-20]	; 0xffffffec
  10166c:	eb00536e 	bl	11642c <__aeabi_uldivmod>
  101670:	e59b1004 	ldr	r1, [fp, #4]
  101674:	e1c120f0 	strd	r2, [r1]
  101678:	e14b21d4 	ldrd	r2, [fp, #-20]	; 0xffffffec
  10167c:	e14b00dc 	ldrd	r0, [fp, #-12]
  101680:	eb005369 	bl	11642c <__aeabi_uldivmod>
  101684:	e1a02000 	mov	r2, r0
  101688:	e1a03001 	mov	r3, r1
  10168c:	e1a00002 	mov	r0, r2
  101690:	e1a01003 	mov	r1, r3
  101694:	e24bd004 	sub	sp, fp, #4
  101698:	e8bd8800 	pop	{fp, pc}

0010169c <div_u64_rem>:
  10169c:	e92d4800 	push	{fp, lr}
  1016a0:	e28db004 	add	fp, sp, #4
  1016a4:	e24dd010 	sub	sp, sp, #16
  1016a8:	e14b00fc 	strd	r0, [fp, #-12]
  1016ac:	e50b2010 	str	r2, [fp, #-16]
  1016b0:	e50b3014 	str	r3, [fp, #-20]	; 0xffffffec
  1016b4:	e51b3010 	ldr	r3, [fp, #-16]
  1016b8:	e1a02003 	mov	r2, r3
  1016bc:	e3a03000 	mov	r3, #0
  1016c0:	e24b100c 	sub	r1, fp, #12
  1016c4:	e1a00001 	mov	r0, r1
  1016c8:	ebffffc7 	bl	1015ec <do_div>
  1016cc:	e1a02000 	mov	r2, r0
  1016d0:	e1a03001 	mov	r3, r1
  1016d4:	e51b3014 	ldr	r3, [fp, #-20]	; 0xffffffec
  1016d8:	e5832000 	str	r2, [r3]
  1016dc:	e14b20dc 	ldrd	r2, [fp, #-12]
  1016e0:	e1a00002 	mov	r0, r2
  1016e4:	e1a01003 	mov	r1, r3
  1016e8:	e24bd004 	sub	sp, fp, #4
  1016ec:	e8bd8800 	pop	{fp, pc}

001016f0 <div_u64>:
  1016f0:	e92d4800 	push	{fp, lr}
  1016f4:	e28db004 	add	fp, sp, #4
  1016f8:	e24dd018 	sub	sp, sp, #24
  1016fc:	e14b01f4 	strd	r0, [fp, #-20]	; 0xffffffec
  101700:	e50b2018 	str	r2, [fp, #-24]	; 0xffffffe8
  101704:	e24b3008 	sub	r3, fp, #8
  101708:	e51b2018 	ldr	r2, [fp, #-24]	; 0xffffffe8
  10170c:	e14b01d4 	ldrd	r0, [fp, #-20]	; 0xffffffec
  101710:	ebffffe1 	bl	10169c <div_u64_rem>
  101714:	e1a02000 	mov	r2, r0
  101718:	e1a03001 	mov	r3, r1
  10171c:	e1a00002 	mov	r0, r2
  101720:	e1a01003 	mov	r1, r3
  101724:	e24bd004 	sub	sp, fp, #4
  101728:	e8bd8800 	pop	{fp, pc}

0010172c <str_to_int32>:
  10172c:	e92d4800 	push	{fp, lr}
  101730:	e28db004 	add	fp, sp, #4
  101734:	e24dd010 	sub	sp, sp, #16
  101738:	e50b0010 	str	r0, [fp, #-16]
  10173c:	e24b300c 	sub	r3, fp, #12
  101740:	e3a02000 	mov	r2, #0
  101744:	e1a01003 	mov	r1, r3
  101748:	e51b0010 	ldr	r0, [fp, #-16]
  10174c:	eb00574b 	bl	117480 <strtol>
  101750:	e50b0008 	str	r0, [fp, #-8]
  101754:	e51b200c 	ldr	r2, [fp, #-12]
  101758:	e51b3010 	ldr	r3, [fp, #-16]
  10175c:	e1520003 	cmp	r2, r3
  101760:	1a000001 	bne	10176c <str_to_int32+0x40>
  101764:	e3e03015 	mvn	r3, #21
  101768:	ea000000 	b	101770 <str_to_int32+0x44>
  10176c:	e51b3008 	ldr	r3, [fp, #-8]
  101770:	e1a00003 	mov	r0, r3
  101774:	e24bd004 	sub	sp, fp, #4
  101778:	e8bd8800 	pop	{fp, pc}

0010177c <srt_to_uint32>:
  10177c:	e92d4800 	push	{fp, lr}
  101780:	e28db004 	add	fp, sp, #4
  101784:	e24dd010 	sub	sp, sp, #16
  101788:	e50b0010 	str	r0, [fp, #-16]
  10178c:	e24b300c 	sub	r3, fp, #12
  101790:	e3a02000 	mov	r2, #0
  101794:	e1a01003 	mov	r1, r3
  101798:	e51b0010 	ldr	r0, [fp, #-16]
  10179c:	eb0057e5 	bl	117738 <strtoul>
  1017a0:	e50b0008 	str	r0, [fp, #-8]
  1017a4:	e51b200c 	ldr	r2, [fp, #-12]
  1017a8:	e51b3010 	ldr	r3, [fp, #-16]
  1017ac:	e1520003 	cmp	r2, r3
  1017b0:	1a000001 	bne	1017bc <srt_to_uint32+0x40>
  1017b4:	e3e03015 	mvn	r3, #21
  1017b8:	ea000000 	b	1017c0 <srt_to_uint32+0x44>
  1017bc:	e51b3008 	ldr	r3, [fp, #-8]
  1017c0:	e1a00003 	mov	r0, r3
  1017c4:	e24bd004 	sub	sp, fp, #4
  1017c8:	e8bd8800 	pop	{fp, pc}

001017cc <spi_engine_write>:
  1017cc:	e92d4800 	push	{fp, lr}
  1017d0:	e28db004 	add	fp, sp, #4
  1017d4:	e24dd010 	sub	sp, sp, #16
  1017d8:	e50b0008 	str	r0, [fp, #-8]
  1017dc:	e50b100c 	str	r1, [fp, #-12]
  1017e0:	e50b2010 	str	r2, [fp, #-16]
  1017e4:	e51b3008 	ldr	r3, [fp, #-8]
  1017e8:	e5933014 	ldr	r3, [r3, #20]
  1017ec:	e51b2010 	ldr	r2, [fp, #-16]
  1017f0:	e51b100c 	ldr	r1, [fp, #-12]
  1017f4:	e1a00003 	mov	r0, r3
  1017f8:	eb0005ec 	bl	102fb0 <axi_io_write>
  1017fc:	e3a03000 	mov	r3, #0
  101800:	e1a00003 	mov	r0, r3
  101804:	e24bd004 	sub	sp, fp, #4
  101808:	e8bd8800 	pop	{fp, pc}

0010180c <spi_engine_read>:
  10180c:	e92d4800 	push	{fp, lr}
  101810:	e28db004 	add	fp, sp, #4
  101814:	e24dd010 	sub	sp, sp, #16
  101818:	e50b0008 	str	r0, [fp, #-8]
  10181c:	e50b100c 	str	r1, [fp, #-12]
  101820:	e50b2010 	str	r2, [fp, #-16]
  101824:	e51b3008 	ldr	r3, [fp, #-8]
  101828:	e5933014 	ldr	r3, [r3, #20]
  10182c:	e51b2010 	ldr	r2, [fp, #-16]
  101830:	e51b100c 	ldr	r1, [fp, #-12]
  101834:	e1a00003 	mov	r0, r3
  101838:	eb0005cb 	bl	102f6c <axi_io_read>
  10183c:	e3a03000 	mov	r3, #0
  101840:	e1a00003 	mov	r0, r3
  101844:	e24bd004 	sub	sp, fp, #4
  101848:	e8bd8800 	pop	{fp, pc}

0010184c <spi_engine_set_transfer_width>:
  10184c:	e52db004 	push	{fp}		; (str fp, [sp, #-4]!)
  101850:	e28db000 	add	fp, sp, #0
  101854:	e24dd014 	sub	sp, sp, #20
  101858:	e50b0010 	str	r0, [fp, #-16]
  10185c:	e1a03001 	mov	r3, r1
  101860:	e54b3011 	strb	r3, [fp, #-17]	; 0xffffffef
  101864:	e51b3010 	ldr	r3, [fp, #-16]
  101868:	e593300c 	ldr	r3, [r3, #12]
  10186c:	e50b3008 	str	r3, [fp, #-8]
  101870:	e51b3008 	ldr	r3, [fp, #-8]
  101874:	e5d33029 	ldrb	r3, [r3, #41]	; 0x29
  101878:	e55b2011 	ldrb	r2, [fp, #-17]	; 0xffffffef
  10187c:	e1520003 	cmp	r2, r3
  101880:	9a000004 	bls	101898 <spi_engine_set_transfer_width+0x4c>
  101884:	e51b3008 	ldr	r3, [fp, #-8]
  101888:	e5d32029 	ldrb	r2, [r3, #41]	; 0x29
  10188c:	e51b3008 	ldr	r3, [fp, #-8]
  101890:	e5c32028 	strb	r2, [r3, #40]	; 0x28
  101894:	ea000002 	b	1018a4 <spi_engine_set_transfer_width+0x58>
  101898:	e51b3008 	ldr	r3, [fp, #-8]
  10189c:	e55b2011 	ldrb	r2, [fp, #-17]	; 0xffffffef
  1018a0:	e5c32028 	strb	r2, [r3, #40]	; 0x28
  1018a4:	e3a03000 	mov	r3, #0
  1018a8:	e1a00003 	mov	r0, r3
  1018ac:	e24bd000 	sub	sp, fp, #0
  1018b0:	e49db004 	pop	{fp}		; (ldr fp, [sp], #4)
  1018b4:	e12fff1e 	bx	lr

001018b8 <spi_engine_set_speed>:
  1018b8:	e92d4800 	push	{fp, lr}
  1018bc:	e28db004 	add	fp, sp, #4
  1018c0:	e24dd010 	sub	sp, sp, #16
  1018c4:	e50b0010 	str	r0, [fp, #-16]
  1018c8:	e50b1014 	str	r1, [fp, #-20]	; 0xffffffec
  1018cc:	e51b3010 	ldr	r3, [fp, #-16]
  1018d0:	e593300c 	ldr	r3, [r3, #12]
  1018d4:	e50b3008 	str	r3, [fp, #-8]
  1018d8:	e51b3008 	ldr	r3, [fp, #-8]
  1018dc:	e5932000 	ldr	r2, [r3]
  1018e0:	e51b3014 	ldr	r3, [fp, #-20]	; 0xffffffec
  1018e4:	e1a03083 	lsl	r3, r3, #1
  1018e8:	e1a01003 	mov	r1, r3
  1018ec:	e1a00002 	mov	r0, r2
  1018f0:	eb005249 	bl	11621c <__aeabi_uidiv>
  1018f4:	e1a03000 	mov	r3, r0
  1018f8:	e2432001 	sub	r2, r3, #1
  1018fc:	e51b3008 	ldr	r3, [fp, #-8]
  101900:	e5832024 	str	r2, [r3, #36]	; 0x24
  101904:	e320f000 	nop	{0}
  101908:	e24bd004 	sub	sp, fp, #4
  10190c:	e8bd8800 	pop	{fp, pc}

00101910 <spi_get_words_number>:
  101910:	e92d4800 	push	{fp, lr}
  101914:	e28db004 	add	fp, sp, #4
  101918:	e24dd010 	sub	sp, sp, #16
  10191c:	e50b0010 	str	r0, [fp, #-16]
  101920:	e1a03001 	mov	r3, r1
  101924:	e54b3011 	strb	r3, [fp, #-17]	; 0xffffffef
  101928:	e51b3010 	ldr	r3, [fp, #-16]
  10192c:	e5d33028 	ldrb	r3, [r3, #40]	; 0x28
  101930:	e1a031a3 	lsr	r3, r3, #3
  101934:	e54b3006 	strb	r3, [fp, #-6]
  101938:	e55b3011 	ldrb	r3, [fp, #-17]	; 0xffffffef
  10193c:	e55b2006 	ldrb	r2, [fp, #-6]
  101940:	e1a01002 	mov	r1, r2
  101944:	e1a00003 	mov	r0, r3
  101948:	eb005233 	bl	11621c <__aeabi_uidiv>
  10194c:	e1a03000 	mov	r3, r0
  101950:	e54b3005 	strb	r3, [fp, #-5]
  101954:	e55b3011 	ldrb	r3, [fp, #-17]	; 0xffffffef
  101958:	e55b2006 	ldrb	r2, [fp, #-6]
  10195c:	e1a01002 	mov	r1, r2
  101960:	e1a00003 	mov	r0, r3
  101964:	eb0052a7 	bl	116408 <__aeabi_uidivmod>
  101968:	e1a03001 	mov	r3, r1
  10196c:	e6ef3073 	uxtb	r3, r3
  101970:	e3530000 	cmp	r3, #0
  101974:	0a000002 	beq	101984 <spi_get_words_number+0x74>
  101978:	e55b3005 	ldrb	r3, [fp, #-5]
  10197c:	e2833001 	add	r3, r3, #1
  101980:	e54b3005 	strb	r3, [fp, #-5]
  101984:	e55b3005 	ldrb	r3, [fp, #-5]
  101988:	e1a00003 	mov	r0, r3
  10198c:	e24bd004 	sub	sp, fp, #4
  101990:	e8bd8800 	pop	{fp, pc}

00101994 <spi_get_word_lenght>:
  101994:	e52db004 	push	{fp}		; (str fp, [sp, #-4]!)
  101998:	e28db000 	add	fp, sp, #0
  10199c:	e24dd014 	sub	sp, sp, #20
  1019a0:	e50b0010 	str	r0, [fp, #-16]
  1019a4:	e51b3010 	ldr	r3, [fp, #-16]
  1019a8:	e5d33028 	ldrb	r3, [r3, #40]	; 0x28
  1019ac:	e1a031a3 	lsr	r3, r3, #3
  1019b0:	e54b3005 	strb	r3, [fp, #-5]
  1019b4:	e55b3005 	ldrb	r3, [fp, #-5]
  1019b8:	e1a00003 	mov	r0, r3
  1019bc:	e24bd000 	sub	sp, fp, #0
  1019c0:	e49db004 	pop	{fp}		; (ldr fp, [sp], #4)
  1019c4:	e12fff1e 	bx	lr

001019c8 <spi_get_sleep_div>:
  1019c8:	e92d4800 	push	{fp, lr}
  1019cc:	e28db004 	add	fp, sp, #4
  1019d0:	e24dd018 	sub	sp, sp, #24
  1019d4:	e50b0010 	str	r0, [fp, #-16]
  1019d8:	e50b1014 	str	r1, [fp, #-20]	; 0xffffffec
  1019dc:	e50b2018 	str	r2, [fp, #-24]	; 0xffffffe8
  1019e0:	e51b3010 	ldr	r3, [fp, #-16]
  1019e4:	e593300c 	ldr	r3, [r3, #12]
  1019e8:	e50b3008 	str	r3, [fp, #-8]
  1019ec:	e51b3010 	ldr	r3, [fp, #-16]
  1019f0:	e5932000 	ldr	r2, [r3]
  1019f4:	e30d3e83 	movw	r3, #56963	; 0xde83
  1019f8:	e344331b 	movt	r3, #17179	; 0x431b
  1019fc:	e0832392 	umull	r2, r3, r2, r3
  101a00:	e1a03923 	lsr	r3, r3, #18
  101a04:	e51b2014 	ldr	r2, [fp, #-20]	; 0xffffffec
  101a08:	e0020392 	mul	r2, r2, r3
  101a0c:	e3043dd3 	movw	r3, #19923	; 0x4dd3
  101a10:	e3413062 	movt	r3, #4194	; 0x1062
  101a14:	e0832392 	umull	r2, r3, r2, r3
  101a18:	e1a02323 	lsr	r2, r3, #6
  101a1c:	e51b3008 	ldr	r3, [fp, #-8]
  101a20:	e5933024 	ldr	r3, [r3, #36]	; 0x24
  101a24:	e2833001 	add	r3, r3, #1
  101a28:	e1a03083 	lsl	r3, r3, #1
  101a2c:	e1a01003 	mov	r1, r3
  101a30:	e1a00002 	mov	r0, r2
  101a34:	eb0051f8 	bl	11621c <__aeabi_uidiv>
  101a38:	e1a03000 	mov	r3, r0
  101a3c:	e2432001 	sub	r2, r3, #1
  101a40:	e51b3018 	ldr	r3, [fp, #-24]	; 0xffffffe8
  101a44:	e5832000 	str	r2, [r3]
  101a48:	e3a03000 	mov	r3, #0
  101a4c:	e1a00003 	mov	r0, r3
  101a50:	e24bd004 	sub	sp, fp, #4
  101a54:	e8bd8800 	pop	{fp, pc}

00101a58 <spi_engine_queue_new_cmd>:
  101a58:	e92d4800 	push	{fp, lr}
  101a5c:	e28db004 	add	fp, sp, #4
  101a60:	e24dd010 	sub	sp, sp, #16
  101a64:	e50b0010 	str	r0, [fp, #-16]
  101a68:	e50b1014 	str	r1, [fp, #-20]	; 0xffffffec
  101a6c:	e3a00008 	mov	r0, #8
  101a70:	eb0052f2 	bl	116640 <malloc>
  101a74:	e1a03000 	mov	r3, r0
  101a78:	e50b3008 	str	r3, [fp, #-8]
  101a7c:	e51b3008 	ldr	r3, [fp, #-8]
  101a80:	e3530000 	cmp	r3, #0
  101a84:	1a000001 	bne	101a90 <spi_engine_queue_new_cmd+0x38>
  101a88:	e3e03000 	mvn	r3, #0
  101a8c:	ea000009 	b	101ab8 <spi_engine_queue_new_cmd+0x60>
  101a90:	e51b3008 	ldr	r3, [fp, #-8]
  101a94:	e51b2014 	ldr	r2, [fp, #-20]	; 0xffffffec
  101a98:	e5832000 	str	r2, [r3]
  101a9c:	e51b3008 	ldr	r3, [fp, #-8]
  101aa0:	e3a02000 	mov	r2, #0
  101aa4:	e5832004 	str	r2, [r3, #4]
  101aa8:	e51b3010 	ldr	r3, [fp, #-16]
  101aac:	e51b2008 	ldr	r2, [fp, #-8]
  101ab0:	e5832000 	str	r2, [r3]
  101ab4:	e3a03000 	mov	r3, #0
  101ab8:	e1a00003 	mov	r0, r3
  101abc:	e24bd004 	sub	sp, fp, #4
  101ac0:	e8bd8800 	pop	{fp, pc}

00101ac4 <spi_engine_queue_add_cmd>:
  101ac4:	e92d4800 	push	{fp, lr}
  101ac8:	e28db004 	add	fp, sp, #4
  101acc:	e24dd010 	sub	sp, sp, #16
  101ad0:	e50b0010 	str	r0, [fp, #-16]
  101ad4:	e50b1014 	str	r1, [fp, #-20]	; 0xffffffec
  101ad8:	e3a03000 	mov	r3, #0
  101adc:	e50b300c 	str	r3, [fp, #-12]
  101ae0:	e51b3010 	ldr	r3, [fp, #-16]
  101ae4:	e5933000 	ldr	r3, [r3]
  101ae8:	e50b3008 	str	r3, [fp, #-8]
  101aec:	ea000002 	b	101afc <spi_engine_queue_add_cmd+0x38>
  101af0:	e51b3008 	ldr	r3, [fp, #-8]
  101af4:	e5933004 	ldr	r3, [r3, #4]
  101af8:	e50b3008 	str	r3, [fp, #-8]
  101afc:	e51b3008 	ldr	r3, [fp, #-8]
  101b00:	e5933004 	ldr	r3, [r3, #4]
  101b04:	e3530000 	cmp	r3, #0
  101b08:	1afffff8 	bne	101af0 <spi_engine_queue_add_cmd+0x2c>
  101b0c:	e24b300c 	sub	r3, fp, #12
  101b10:	e51b1014 	ldr	r1, [fp, #-20]	; 0xffffffec
  101b14:	e1a00003 	mov	r0, r3
  101b18:	ebffffce 	bl	101a58 <spi_engine_queue_new_cmd>
  101b1c:	e51b200c 	ldr	r2, [fp, #-12]
  101b20:	e51b3008 	ldr	r3, [fp, #-8]
  101b24:	e5832004 	str	r2, [r3, #4]
  101b28:	e320f000 	nop	{0}
  101b2c:	e24bd004 	sub	sp, fp, #4
  101b30:	e8bd8800 	pop	{fp, pc}

00101b34 <spi_engine_queue_append_cmd>:
  101b34:	e92d4800 	push	{fp, lr}
  101b38:	e28db004 	add	fp, sp, #4
  101b3c:	e24dd010 	sub	sp, sp, #16
  101b40:	e50b0010 	str	r0, [fp, #-16]
  101b44:	e50b1014 	str	r1, [fp, #-20]	; 0xffffffec
  101b48:	e3a03000 	mov	r3, #0
  101b4c:	e50b3008 	str	r3, [fp, #-8]
  101b50:	e24b3008 	sub	r3, fp, #8
  101b54:	e51b1014 	ldr	r1, [fp, #-20]	; 0xffffffec
  101b58:	e1a00003 	mov	r0, r3
  101b5c:	ebffffbd 	bl	101a58 <spi_engine_queue_new_cmd>
  101b60:	e51b3008 	ldr	r3, [fp, #-8]
  101b64:	e51b2010 	ldr	r2, [fp, #-16]
  101b68:	e5922000 	ldr	r2, [r2]
  101b6c:	e5832004 	str	r2, [r3, #4]
  101b70:	e51b2008 	ldr	r2, [fp, #-8]
  101b74:	e51b3010 	ldr	r3, [fp, #-16]
  101b78:	e5832000 	str	r2, [r3]
  101b7c:	e320f000 	nop	{0}
  101b80:	e24bd004 	sub	sp, fp, #4
  101b84:	e8bd8800 	pop	{fp, pc}

00101b88 <spi_engine_queue_get_cmd>:
  101b88:	e92d4800 	push	{fp, lr}
  101b8c:	e28db004 	add	fp, sp, #4
  101b90:	e24dd010 	sub	sp, sp, #16
  101b94:	e50b0010 	str	r0, [fp, #-16]
  101b98:	e50b1014 	str	r1, [fp, #-20]	; 0xffffffec
  101b9c:	e51b3010 	ldr	r3, [fp, #-16]
  101ba0:	e5933000 	ldr	r3, [r3]
  101ba4:	e3530000 	cmp	r3, #0
  101ba8:	1a000001 	bne	101bb4 <spi_engine_queue_get_cmd+0x2c>
  101bac:	e3e03000 	mvn	r3, #0
  101bb0:	ea00001a 	b	101c20 <spi_engine_queue_get_cmd+0x98>
  101bb4:	e51b3010 	ldr	r3, [fp, #-16]
  101bb8:	e5933000 	ldr	r3, [r3]
  101bbc:	e50b3008 	str	r3, [fp, #-8]
  101bc0:	e51b3008 	ldr	r3, [fp, #-8]
  101bc4:	e5932000 	ldr	r2, [r3]
  101bc8:	e51b3014 	ldr	r3, [fp, #-20]	; 0xffffffec
  101bcc:	e5832000 	str	r2, [r3]
  101bd0:	e51b3010 	ldr	r3, [fp, #-16]
  101bd4:	e5933000 	ldr	r3, [r3]
  101bd8:	e5933004 	ldr	r3, [r3, #4]
  101bdc:	e3530000 	cmp	r3, #0
  101be0:	0a000006 	beq	101c00 <spi_engine_queue_get_cmd+0x78>
  101be4:	e51b3008 	ldr	r3, [fp, #-8]
  101be8:	e5932004 	ldr	r2, [r3, #4]
  101bec:	e51b3010 	ldr	r3, [fp, #-16]
  101bf0:	e5832000 	str	r2, [r3]
  101bf4:	e51b0008 	ldr	r0, [fp, #-8]
  101bf8:	eb005296 	bl	116658 <free>
  101bfc:	ea000006 	b	101c1c <spi_engine_queue_get_cmd+0x94>
  101c00:	e51b3010 	ldr	r3, [fp, #-16]
  101c04:	e5933000 	ldr	r3, [r3]
  101c08:	e1a00003 	mov	r0, r3
  101c0c:	eb005291 	bl	116658 <free>
  101c10:	e51b3010 	ldr	r3, [fp, #-16]
  101c14:	e3a02000 	mov	r2, #0
  101c18:	e5832000 	str	r2, [r3]
  101c1c:	e3a03000 	mov	r3, #0
  101c20:	e1a00003 	mov	r0, r3
  101c24:	e24bd004 	sub	sp, fp, #4
  101c28:	e8bd8800 	pop	{fp, pc}

00101c2c <spi_engine_queue_free>:
  101c2c:	e92d4800 	push	{fp, lr}
  101c30:	e28db004 	add	fp, sp, #4
  101c34:	e24dd008 	sub	sp, sp, #8
  101c38:	e50b0008 	str	r0, [fp, #-8]
  101c3c:	e51b3008 	ldr	r3, [fp, #-8]
  101c40:	e5933000 	ldr	r3, [r3]
  101c44:	e3530000 	cmp	r3, #0
  101c48:	0a000009 	beq	101c74 <spi_engine_queue_free+0x48>
  101c4c:	e51b3008 	ldr	r3, [fp, #-8]
  101c50:	e5933000 	ldr	r3, [r3]
  101c54:	e5933004 	ldr	r3, [r3, #4]
  101c58:	e3530000 	cmp	r3, #0
  101c5c:	0a000004 	beq	101c74 <spi_engine_queue_free+0x48>
  101c60:	e51b3008 	ldr	r3, [fp, #-8]
  101c64:	e5933000 	ldr	r3, [r3]
  101c68:	e2833004 	add	r3, r3, #4
  101c6c:	e1a00003 	mov	r0, r3
  101c70:	ebffffed 	bl	101c2c <spi_engine_queue_free>
  101c74:	e51b3008 	ldr	r3, [fp, #-8]
  101c78:	e5933000 	ldr	r3, [r3]
  101c7c:	e3530000 	cmp	r3, #0
  101c80:	0a000006 	beq	101ca0 <spi_engine_queue_free+0x74>
  101c84:	e51b3008 	ldr	r3, [fp, #-8]
  101c88:	e5933000 	ldr	r3, [r3]
  101c8c:	e1a00003 	mov	r0, r3
  101c90:	eb005270 	bl	116658 <free>
  101c94:	e51b3008 	ldr	r3, [fp, #-8]
  101c98:	e3a02000 	mov	r2, #0
  101c9c:	e5832000 	str	r2, [r3]
  101ca0:	e3a03000 	mov	r3, #0
  101ca4:	e1a00003 	mov	r0, r3
  101ca8:	e24bd004 	sub	sp, fp, #4
  101cac:	e8bd8800 	pop	{fp, pc}

00101cb0 <spi_engine_write_cmd_reg>:
  101cb0:	e92d4800 	push	{fp, lr}
  101cb4:	e28db004 	add	fp, sp, #4
  101cb8:	e24dd010 	sub	sp, sp, #16
  101cbc:	e50b0010 	str	r0, [fp, #-16]
  101cc0:	e50b1014 	str	r1, [fp, #-20]	; 0xffffffec
  101cc4:	e51b3010 	ldr	r3, [fp, #-16]
  101cc8:	e5d33010 	ldrb	r3, [r3, #16]
  101ccc:	e2033003 	and	r3, r3, #3
  101cd0:	e3530000 	cmp	r3, #0
  101cd4:	0a000005 	beq	101cf0 <spi_engine_write_cmd_reg+0x40>
  101cd8:	e51b2014 	ldr	r2, [fp, #-20]	; 0xffffffec
  101cdc:	e3a01e11 	mov	r1, #272	; 0x110
  101ce0:	e51b0010 	ldr	r0, [fp, #-16]
  101ce4:	ebfffeb8 	bl	1017cc <spi_engine_write>
  101ce8:	e50b0008 	str	r0, [fp, #-8]
  101cec:	ea000004 	b	101d04 <spi_engine_write_cmd_reg+0x54>
  101cf0:	e51b2014 	ldr	r2, [fp, #-20]	; 0xffffffec
  101cf4:	e3a010e0 	mov	r1, #224	; 0xe0
  101cf8:	e51b0010 	ldr	r0, [fp, #-16]
  101cfc:	ebfffeb2 	bl	1017cc <spi_engine_write>
  101d00:	e50b0008 	str	r0, [fp, #-8]
  101d04:	e51b3008 	ldr	r3, [fp, #-8]
  101d08:	e1a00003 	mov	r0, r3
  101d0c:	e24bd004 	sub	sp, fp, #4
  101d10:	e8bd8800 	pop	{fp, pc}

00101d14 <spi_engine_transfer>:
  101d14:	e92d4800 	push	{fp, lr}
  101d18:	e28db004 	add	fp, sp, #4
  101d1c:	e24dd010 	sub	sp, sp, #16
  101d20:	e50b0010 	str	r0, [fp, #-16]
  101d24:	e1a03001 	mov	r3, r1
  101d28:	e54b3011 	strb	r3, [fp, #-17]	; 0xffffffef
  101d2c:	e1a03002 	mov	r3, r2
  101d30:	e54b3012 	strb	r3, [fp, #-18]	; 0xffffffee
  101d34:	e55b3012 	ldrb	r3, [fp, #-18]	; 0xffffffee
  101d38:	e1a01003 	mov	r1, r3
  101d3c:	e51b0010 	ldr	r0, [fp, #-16]
  101d40:	ebfffef2 	bl	101910 <spi_get_words_number>
  101d44:	e1a03000 	mov	r3, r0
  101d48:	e54b3005 	strb	r3, [fp, #-5]
  101d4c:	e51b3010 	ldr	r3, [fp, #-16]
  101d50:	e5d32011 	ldrb	r2, [r3, #17]
  101d54:	e55b3005 	ldrb	r3, [fp, #-5]
  101d58:	e0823003 	add	r3, r2, r3
  101d5c:	e6ef2073 	uxtb	r2, r3
  101d60:	e51b3010 	ldr	r3, [fp, #-16]
  101d64:	e5c32011 	strb	r2, [r3, #17]
  101d68:	e55b3011 	ldrb	r3, [fp, #-17]	; 0xffffffef
  101d6c:	e1a03403 	lsl	r3, r3, #8
  101d70:	e2032c03 	and	r2, r3, #768	; 0x300
  101d74:	e55b3005 	ldrb	r3, [fp, #-5]
  101d78:	e2433001 	sub	r3, r3, #1
  101d7c:	e1823003 	orr	r3, r2, r3
  101d80:	e1a01003 	mov	r1, r3
  101d84:	e51b0010 	ldr	r0, [fp, #-16]
  101d88:	ebffffc8 	bl	101cb0 <spi_engine_write_cmd_reg>
  101d8c:	e3a03000 	mov	r3, #0
  101d90:	e1a00003 	mov	r0, r3
  101d94:	e24bd004 	sub	sp, fp, #4
  101d98:	e8bd8800 	pop	{fp, pc}

00101d9c <spi_engine_set_cs>:
  101d9c:	e92d4800 	push	{fp, lr}
  101da0:	e28db004 	add	fp, sp, #4
  101da4:	e24dd010 	sub	sp, sp, #16
  101da8:	e50b0010 	str	r0, [fp, #-16]
  101dac:	e1a03001 	mov	r3, r1
  101db0:	e54b3011 	strb	r3, [fp, #-17]	; 0xffffffef
  101db4:	e51b3010 	ldr	r3, [fp, #-16]
  101db8:	e593300c 	ldr	r3, [r3, #12]
  101dbc:	e50b300c 	str	r3, [fp, #-12]
  101dc0:	e3e03000 	mvn	r3, #0
  101dc4:	e54b3005 	strb	r3, [fp, #-5]
  101dc8:	e55b3011 	ldrb	r3, [fp, #-17]	; 0xffffffef
  101dcc:	e2233001 	eor	r3, r3, #1
  101dd0:	e6ef3073 	uxtb	r3, r3
  101dd4:	e3530000 	cmp	r3, #0
  101dd8:	0a000009 	beq	101e04 <spi_engine_set_cs+0x68>
  101ddc:	e51b3010 	ldr	r3, [fp, #-16]
  101de0:	e5d33004 	ldrb	r3, [r3, #4]
  101de4:	e1a02003 	mov	r2, r3
  101de8:	e3a03001 	mov	r3, #1
  101dec:	e1a03213 	lsl	r3, r3, r2
  101df0:	e6af2073 	sxtb	r2, r3
  101df4:	e15b30d5 	ldrsb	r3, [fp, #-5]
  101df8:	e0233002 	eor	r3, r3, r2
  101dfc:	e6af3073 	sxtb	r3, r3
  101e00:	e54b3005 	strb	r3, [fp, #-5]
  101e04:	e51b300c 	ldr	r3, [fp, #-12]
  101e08:	e5d33020 	ldrb	r3, [r3, #32]
  101e0c:	e1a03403 	lsl	r3, r3, #8
  101e10:	e2033c03 	and	r3, r3, #768	; 0x300
  101e14:	e3832a01 	orr	r2, r3, #4096	; 0x1000
  101e18:	e55b3005 	ldrb	r3, [fp, #-5]
  101e1c:	e1823003 	orr	r3, r2, r3
  101e20:	e1a01003 	mov	r1, r3
  101e24:	e51b000c 	ldr	r0, [fp, #-12]
  101e28:	ebffffa0 	bl	101cb0 <spi_engine_write_cmd_reg>
  101e2c:	e320f000 	nop	{0}
  101e30:	e24bd004 	sub	sp, fp, #4
  101e34:	e8bd8800 	pop	{fp, pc}

00101e38 <spi_gen_sleep_ns>:
  101e38:	e92d4800 	push	{fp, lr}
  101e3c:	e28db004 	add	fp, sp, #4
  101e40:	e24dd010 	sub	sp, sp, #16
  101e44:	e50b0010 	str	r0, [fp, #-16]
  101e48:	e50b1014 	str	r1, [fp, #-20]	; 0xffffffec
  101e4c:	e51b3010 	ldr	r3, [fp, #-16]
  101e50:	e593300c 	ldr	r3, [r3, #12]
  101e54:	e50b3008 	str	r3, [fp, #-8]
  101e58:	e24b300c 	sub	r3, fp, #12
  101e5c:	e1a02003 	mov	r2, r3
  101e60:	e51b1014 	ldr	r1, [fp, #-20]	; 0xffffffec
  101e64:	e51b0010 	ldr	r0, [fp, #-16]
  101e68:	ebfffed6 	bl	1019c8 <spi_get_sleep_div>
  101e6c:	e51b300c 	ldr	r3, [fp, #-12]
  101e70:	e3833c31 	orr	r3, r3, #12544	; 0x3100
  101e74:	e1a01003 	mov	r1, r3
  101e78:	e51b0008 	ldr	r0, [fp, #-8]
  101e7c:	ebffff8b 	bl	101cb0 <spi_engine_write_cmd_reg>
  101e80:	e320f000 	nop	{0}
  101e84:	e24bd004 	sub	sp, fp, #4
  101e88:	e8bd8800 	pop	{fp, pc}

00101e8c <spi_engine_write_cmd>:
  101e8c:	e92d4800 	push	{fp, lr}
  101e90:	e28db004 	add	fp, sp, #4
  101e94:	e24dd010 	sub	sp, sp, #16
  101e98:	e50b0010 	str	r0, [fp, #-16]
  101e9c:	e50b1014 	str	r1, [fp, #-20]	; 0xffffffec
  101ea0:	e51b3010 	ldr	r3, [fp, #-16]
  101ea4:	e593300c 	ldr	r3, [r3, #12]
  101ea8:	e50b3008 	str	r3, [fp, #-8]
  101eac:	e51b3014 	ldr	r3, [fp, #-20]	; 0xffffffec
  101eb0:	e1a03623 	lsr	r3, r3, #12
  101eb4:	e6ef3073 	uxtb	r3, r3
  101eb8:	e203300f 	and	r3, r3, #15
  101ebc:	e54b3009 	strb	r3, [fp, #-9]
  101ec0:	e51b3014 	ldr	r3, [fp, #-20]	; 0xffffffec
  101ec4:	e1a03423 	lsr	r3, r3, #8
  101ec8:	e6ef3073 	uxtb	r3, r3
  101ecc:	e203300f 	and	r3, r3, #15
  101ed0:	e54b300a 	strb	r3, [fp, #-10]
  101ed4:	e51b3014 	ldr	r3, [fp, #-20]	; 0xffffffec
  101ed8:	e54b300b 	strb	r3, [fp, #-11]
  101edc:	e55b3009 	ldrb	r3, [fp, #-9]
  101ee0:	e3530003 	cmp	r3, #3
  101ee4:	979ff103 	ldrls	pc, [pc, r3, lsl #2]
  101ee8:	ea00002a 	b	101f98 <spi_engine_write_cmd+0x10c>
  101eec:	00101efc 	.word	0x00101efc
  101ef0:	00101f14 	.word	0x00101f14
  101ef4:	00101f88 	.word	0x00101f88
  101ef8:	00101f4c 	.word	0x00101f4c
  101efc:	e55b200b 	ldrb	r2, [fp, #-11]
  101f00:	e55b300a 	ldrb	r3, [fp, #-10]
  101f04:	e1a01003 	mov	r1, r3
  101f08:	e51b0008 	ldr	r0, [fp, #-8]
  101f0c:	ebffff80 	bl	101d14 <spi_engine_transfer>
  101f10:	ea000025 	b	101fac <spi_engine_write_cmd+0x120>
  101f14:	e55b300b 	ldrb	r3, [fp, #-11]
  101f18:	e35300ff 	cmp	r3, #255	; 0xff
  101f1c:	1a000003 	bne	101f30 <spi_engine_write_cmd+0xa4>
  101f20:	e3a01001 	mov	r1, #1
  101f24:	e51b0010 	ldr	r0, [fp, #-16]
  101f28:	ebffff9b 	bl	101d9c <spi_engine_set_cs>
  101f2c:	ea00001b 	b	101fa0 <spi_engine_write_cmd+0x114>
  101f30:	e55b300b 	ldrb	r3, [fp, #-11]
  101f34:	e3530000 	cmp	r3, #0
  101f38:	1a000018 	bne	101fa0 <spi_engine_write_cmd+0x114>
  101f3c:	e3a01000 	mov	r1, #0
  101f40:	e51b0010 	ldr	r0, [fp, #-16]
  101f44:	ebffff94 	bl	101d9c <spi_engine_set_cs>
  101f48:	ea000014 	b	101fa0 <spi_engine_write_cmd+0x114>
  101f4c:	e55b300a 	ldrb	r3, [fp, #-10]
  101f50:	e3530000 	cmp	r3, #0
  101f54:	1a000003 	bne	101f68 <spi_engine_write_cmd+0xdc>
  101f58:	e51b1014 	ldr	r1, [fp, #-20]	; 0xffffffec
  101f5c:	e51b0008 	ldr	r0, [fp, #-8]
  101f60:	ebffff52 	bl	101cb0 <spi_engine_write_cmd_reg>
  101f64:	ea00000f 	b	101fa8 <spi_engine_write_cmd+0x11c>
  101f68:	e55b300a 	ldrb	r3, [fp, #-10]
  101f6c:	e3530001 	cmp	r3, #1
  101f70:	1a00000c 	bne	101fa8 <spi_engine_write_cmd+0x11c>
  101f74:	e55b300b 	ldrb	r3, [fp, #-11]
  101f78:	e1a01003 	mov	r1, r3
  101f7c:	e51b0010 	ldr	r0, [fp, #-16]
  101f80:	ebffffac 	bl	101e38 <spi_gen_sleep_ns>
  101f84:	ea000007 	b	101fa8 <spi_engine_write_cmd+0x11c>
  101f88:	e51b1014 	ldr	r1, [fp, #-20]	; 0xffffffec
  101f8c:	e51b0008 	ldr	r0, [fp, #-8]
  101f90:	ebffff46 	bl	101cb0 <spi_engine_write_cmd_reg>
  101f94:	ea000004 	b	101fac <spi_engine_write_cmd+0x120>
  101f98:	e3e03000 	mvn	r3, #0
  101f9c:	ea000003 	b	101fb0 <spi_engine_write_cmd+0x124>
  101fa0:	e320f000 	nop	{0}
  101fa4:	ea000000 	b	101fac <spi_engine_write_cmd+0x120>
  101fa8:	e320f000 	nop	{0}
  101fac:	e3a03000 	mov	r3, #0
  101fb0:	e1a00003 	mov	r0, r3
  101fb4:	e24bd004 	sub	sp, fp, #4
  101fb8:	e8bd8800 	pop	{fp, pc}

00101fbc <spi_engine_compile_message>:
  101fbc:	e92d4800 	push	{fp, lr}
  101fc0:	e28db004 	add	fp, sp, #4
  101fc4:	e24dd010 	sub	sp, sp, #16
  101fc8:	e50b0010 	str	r0, [fp, #-16]
  101fcc:	e50b1014 	str	r1, [fp, #-20]	; 0xffffffec
  101fd0:	e51b3010 	ldr	r3, [fp, #-16]
  101fd4:	e593300c 	ldr	r3, [r3, #12]
  101fd8:	e50b3008 	str	r3, [fp, #-8]
  101fdc:	e51b3014 	ldr	r3, [fp, #-20]	; 0xffffffec
  101fe0:	e283200c 	add	r2, r3, #12
  101fe4:	e51b3008 	ldr	r3, [fp, #-8]
  101fe8:	e5d33028 	ldrb	r3, [r3, #40]	; 0x28
  101fec:	e3833c22 	orr	r3, r3, #8704	; 0x2200
  101ff0:	e1a01003 	mov	r1, r3
  101ff4:	e1a00002 	mov	r0, r2
  101ff8:	ebfffecd 	bl	101b34 <spi_engine_queue_append_cmd>
  101ffc:	e51b3014 	ldr	r3, [fp, #-20]	; 0xffffffec
  102000:	e283200c 	add	r2, r3, #12
  102004:	e51b3010 	ldr	r3, [fp, #-16]
  102008:	e5d33005 	ldrb	r3, [r3, #5]
  10200c:	e3833c21 	orr	r3, r3, #8448	; 0x2100
  102010:	e1a01003 	mov	r1, r3
  102014:	e1a00002 	mov	r0, r2
  102018:	ebfffec5 	bl	101b34 <spi_engine_queue_append_cmd>
  10201c:	e51b3014 	ldr	r3, [fp, #-20]	; 0xffffffec
  102020:	e283200c 	add	r2, r3, #12
  102024:	e51b3008 	ldr	r3, [fp, #-8]
  102028:	e5933024 	ldr	r3, [r3, #36]	; 0x24
  10202c:	e3833a02 	orr	r3, r3, #8192	; 0x2000
  102030:	e1a01003 	mov	r1, r3
  102034:	e1a00002 	mov	r0, r2
  102038:	ebfffebd 	bl	101b34 <spi_engine_queue_append_cmd>
  10203c:	e51b3014 	ldr	r3, [fp, #-20]	; 0xffffffec
  102040:	e283200c 	add	r2, r3, #12
  102044:	e3043008 	movw	r3, #16392	; 0x4008
  102048:	e3403012 	movt	r3, #18
  10204c:	e5d33000 	ldrb	r3, [r3]
  102050:	e3833a03 	orr	r3, r3, #12288	; 0x3000
  102054:	e1a01003 	mov	r1, r3
  102058:	e1a00002 	mov	r0, r2
  10205c:	ebfffe98 	bl	101ac4 <spi_engine_queue_add_cmd>
  102060:	e3a03000 	mov	r3, #0
  102064:	e1a00003 	mov	r0, r3
  102068:	e24bd004 	sub	sp, fp, #4
  10206c:	e8bd8800 	pop	{fp, pc}

00102070 <spi_engine_transfer_message>:
  102070:	e92d4800 	push	{fp, lr}
  102074:	e28db004 	add	fp, sp, #4
  102078:	e24dd020 	sub	sp, sp, #32
  10207c:	e50b0020 	str	r0, [fp, #-32]	; 0xffffffe0
  102080:	e50b1024 	str	r1, [fp, #-36]	; 0xffffffdc
  102084:	e51b3020 	ldr	r3, [fp, #-32]	; 0xffffffe0
  102088:	e593300c 	ldr	r3, [r3, #12]
  10208c:	e50b300c 	str	r3, [fp, #-12]
  102090:	e51b1024 	ldr	r1, [fp, #-36]	; 0xffffffdc
  102094:	e51b0020 	ldr	r0, [fp, #-32]	; 0xffffffe0
  102098:	ebffffc7 	bl	101fbc <spi_engine_compile_message>
  10209c:	e51b300c 	ldr	r3, [fp, #-12]
  1020a0:	e5d33010 	ldrb	r3, [r3, #16]
  1020a4:	e2033003 	and	r3, r3, #3
  1020a8:	e3530000 	cmp	r3, #0
  1020ac:	13a03001 	movne	r3, #1
  1020b0:	03a03000 	moveq	r3, #0
  1020b4:	e54b300d 	strb	r3, [fp, #-13]
  1020b8:	ea000009 	b	1020e4 <spi_engine_transfer_message+0x74>
  1020bc:	e51b3024 	ldr	r3, [fp, #-36]	; 0xffffffdc
  1020c0:	e283300c 	add	r3, r3, #12
  1020c4:	e24b2014 	sub	r2, fp, #20
  1020c8:	e1a01002 	mov	r1, r2
  1020cc:	e1a00003 	mov	r0, r3
  1020d0:	ebfffeac 	bl	101b88 <spi_engine_queue_get_cmd>
  1020d4:	e51b3014 	ldr	r3, [fp, #-20]	; 0xffffffec
  1020d8:	e1a01003 	mov	r1, r3
  1020dc:	e51b0020 	ldr	r0, [fp, #-32]	; 0xffffffe0
  1020e0:	ebffff69 	bl	101e8c <spi_engine_write_cmd>
  1020e4:	e51b3024 	ldr	r3, [fp, #-36]	; 0xffffffdc
  1020e8:	e593300c 	ldr	r3, [r3, #12]
  1020ec:	e3530000 	cmp	r3, #0
  1020f0:	1afffff1 	bne	1020bc <spi_engine_transfer_message+0x4c>
  1020f4:	e55b300d 	ldrb	r3, [fp, #-13]
  1020f8:	e3530000 	cmp	r3, #0
  1020fc:	0a000016 	beq	10215c <spi_engine_transfer_message+0xec>
  102100:	e3a03000 	mov	r3, #0
  102104:	e50b3008 	str	r3, [fp, #-8]
  102108:	ea00000c 	b	102140 <spi_engine_transfer_message+0xd0>
  10210c:	e51b3024 	ldr	r3, [fp, #-36]	; 0xffffffdc
  102110:	e5932000 	ldr	r2, [r3]
  102114:	e51b3008 	ldr	r3, [fp, #-8]
  102118:	e1a03103 	lsl	r3, r3, #2
  10211c:	e0823003 	add	r3, r2, r3
  102120:	e5933000 	ldr	r3, [r3]
  102124:	e1a02003 	mov	r2, r3
  102128:	e3a01f45 	mov	r1, #276	; 0x114
  10212c:	e51b000c 	ldr	r0, [fp, #-12]
  102130:	ebfffda5 	bl	1017cc <spi_engine_write>
  102134:	e51b3008 	ldr	r3, [fp, #-8]
  102138:	e2833001 	add	r3, r3, #1
  10213c:	e50b3008 	str	r3, [fp, #-8]
  102140:	e51b300c 	ldr	r3, [fp, #-12]
  102144:	e5d33011 	ldrb	r3, [r3, #17]
  102148:	e1a02003 	mov	r2, r3
  10214c:	e51b3008 	ldr	r3, [fp, #-8]
  102150:	e1520003 	cmp	r2, r3
  102154:	8affffec 	bhi	10210c <spi_engine_transfer_message+0x9c>
  102158:	ea00003f 	b	10225c <spi_engine_transfer_message+0x1ec>
  10215c:	e3a03000 	mov	r3, #0
  102160:	e50b3008 	str	r3, [fp, #-8]
  102164:	ea00000c 	b	10219c <spi_engine_transfer_message+0x12c>
  102168:	e51b3024 	ldr	r3, [fp, #-36]	; 0xffffffdc
  10216c:	e5932000 	ldr	r2, [r3]
  102170:	e51b3008 	ldr	r3, [fp, #-8]
  102174:	e1a03103 	lsl	r3, r3, #2
  102178:	e0823003 	add	r3, r2, r3
  10217c:	e5933000 	ldr	r3, [r3]
  102180:	e1a02003 	mov	r2, r3
  102184:	e3a010e4 	mov	r1, #228	; 0xe4
  102188:	e51b000c 	ldr	r0, [fp, #-12]
  10218c:	ebfffd8e 	bl	1017cc <spi_engine_write>
  102190:	e51b3008 	ldr	r3, [fp, #-8]
  102194:	e2833001 	add	r3, r3, #1
  102198:	e50b3008 	str	r3, [fp, #-8]
  10219c:	e51b3024 	ldr	r3, [fp, #-36]	; 0xffffffdc
  1021a0:	e5932008 	ldr	r2, [r3, #8]
  1021a4:	e51b3008 	ldr	r3, [fp, #-8]
  1021a8:	e1520003 	cmp	r2, r3
  1021ac:	8affffed 	bhi	102168 <spi_engine_transfer_message+0xf8>
  1021b0:	e24b3018 	sub	r3, fp, #24
  1021b4:	e1a02003 	mov	r2, r3
  1021b8:	e3a010c0 	mov	r1, #192	; 0xc0
  1021bc:	e51b000c 	ldr	r0, [fp, #-12]
  1021c0:	ebfffd91 	bl	10180c <spi_engine_read>
  1021c4:	e3043008 	movw	r3, #16392	; 0x4008
  1021c8:	e3403012 	movt	r3, #18
  1021cc:	e5d33000 	ldrb	r3, [r3]
  1021d0:	e1a02003 	mov	r2, r3
  1021d4:	e51b3018 	ldr	r3, [fp, #-24]	; 0xffffffe8
  1021d8:	e1520003 	cmp	r2, r3
  1021dc:	1afffff3 	bne	1021b0 <spi_engine_transfer_message+0x140>
  1021e0:	e3043008 	movw	r3, #16392	; 0x4008
  1021e4:	e3403012 	movt	r3, #18
  1021e8:	e5d33000 	ldrb	r3, [r3]
  1021ec:	e2833001 	add	r3, r3, #1
  1021f0:	e6ef2073 	uxtb	r2, r3
  1021f4:	e3043008 	movw	r3, #16392	; 0x4008
  1021f8:	e3403012 	movt	r3, #18
  1021fc:	e5c32000 	strb	r2, [r3]
  102200:	e3a03000 	mov	r3, #0
  102204:	e50b3008 	str	r3, [fp, #-8]
  102208:	ea00000e 	b	102248 <spi_engine_transfer_message+0x1d8>
  10220c:	e24b3014 	sub	r3, fp, #20
  102210:	e1a02003 	mov	r2, r3
  102214:	e3a010e8 	mov	r1, #232	; 0xe8
  102218:	e51b000c 	ldr	r0, [fp, #-12]
  10221c:	ebfffd7a 	bl	10180c <spi_engine_read>
  102220:	e51b3024 	ldr	r3, [fp, #-36]	; 0xffffffdc
  102224:	e5932004 	ldr	r2, [r3, #4]
  102228:	e51b3008 	ldr	r3, [fp, #-8]
  10222c:	e1a03103 	lsl	r3, r3, #2
  102230:	e0823003 	add	r3, r2, r3
  102234:	e51b2014 	ldr	r2, [fp, #-20]	; 0xffffffec
  102238:	e5832000 	str	r2, [r3]
  10223c:	e51b3008 	ldr	r3, [fp, #-8]
  102240:	e2833001 	add	r3, r3, #1
  102244:	e50b3008 	str	r3, [fp, #-8]
  102248:	e51b3024 	ldr	r3, [fp, #-36]	; 0xffffffdc
  10224c:	e5932008 	ldr	r2, [r3, #8]
  102250:	e51b3008 	ldr	r3, [fp, #-8]
  102254:	e1520003 	cmp	r2, r3
  102258:	8affffeb 	bhi	10220c <spi_engine_transfer_message+0x19c>
  10225c:	e3a03000 	mov	r3, #0
  102260:	e1a00003 	mov	r0, r3
  102264:	e24bd004 	sub	sp, fp, #4
  102268:	e8bd8800 	pop	{fp, pc}

0010226c <spi_engine_init>:
  10226c:	e92d4800 	push	{fp, lr}
  102270:	e28db004 	add	fp, sp, #4
  102274:	e24dd018 	sub	sp, sp, #24
  102278:	e50b0018 	str	r0, [fp, #-24]	; 0xffffffe8
  10227c:	e50b101c 	str	r1, [fp, #-28]	; 0xffffffe4
  102280:	e51b301c 	ldr	r3, [fp, #-28]	; 0xffffffe4
  102284:	e3530000 	cmp	r3, #0
  102288:	1a000001 	bne	102294 <spi_engine_init+0x28>
  10228c:	e3e03000 	mvn	r3, #0
  102290:	ea000080 	b	102498 <spi_engine_init+0x22c>
  102294:	e3a00010 	mov	r0, #16
  102298:	eb0050e8 	bl	116640 <malloc>
  10229c:	e1a03000 	mov	r3, r0
  1022a0:	e1a02003 	mov	r2, r3
  1022a4:	e51b3018 	ldr	r3, [fp, #-24]	; 0xffffffe8
  1022a8:	e5832000 	str	r2, [r3]
  1022ac:	e51b3018 	ldr	r3, [fp, #-24]	; 0xffffffe8
  1022b0:	e5933000 	ldr	r3, [r3]
  1022b4:	e3530000 	cmp	r3, #0
  1022b8:	1a000005 	bne	1022d4 <spi_engine_init+0x68>
  1022bc:	e51b3018 	ldr	r3, [fp, #-24]	; 0xffffffe8
  1022c0:	e5933000 	ldr	r3, [r3]
  1022c4:	e1a00003 	mov	r0, r3
  1022c8:	eb0050e2 	bl	116658 <free>
  1022cc:	e3e03000 	mvn	r3, #0
  1022d0:	ea000070 	b	102498 <spi_engine_init+0x22c>
  1022d4:	e3a0002c 	mov	r0, #44	; 0x2c
  1022d8:	eb0050d8 	bl	116640 <malloc>
  1022dc:	e1a03000 	mov	r3, r0
  1022e0:	e50b3008 	str	r3, [fp, #-8]
  1022e4:	e51b3008 	ldr	r3, [fp, #-8]
  1022e8:	e3530000 	cmp	r3, #0
  1022ec:	1a000001 	bne	1022f8 <spi_engine_init+0x8c>
  1022f0:	e3e03000 	mvn	r3, #0
  1022f4:	ea000067 	b	102498 <spi_engine_init+0x22c>
  1022f8:	e51b301c 	ldr	r3, [fp, #-28]	; 0xffffffe4
  1022fc:	e593300c 	ldr	r3, [r3, #12]
  102300:	e50b300c 	str	r3, [fp, #-12]
  102304:	e51b3018 	ldr	r3, [fp, #-24]	; 0xffffffe8
  102308:	e5933000 	ldr	r3, [r3]
  10230c:	e51b201c 	ldr	r2, [fp, #-28]	; 0xffffffe4
  102310:	e5922000 	ldr	r2, [r2]
  102314:	e5832000 	str	r2, [r3]
  102318:	e51b3018 	ldr	r3, [fp, #-24]	; 0xffffffe8
  10231c:	e5933000 	ldr	r3, [r3]
  102320:	e51b201c 	ldr	r2, [fp, #-28]	; 0xffffffe4
  102324:	e5d22004 	ldrb	r2, [r2, #4]
  102328:	e5c32004 	strb	r2, [r3, #4]
  10232c:	e51b3018 	ldr	r3, [fp, #-24]	; 0xffffffe8
  102330:	e5933000 	ldr	r3, [r3]
  102334:	e51b201c 	ldr	r2, [fp, #-28]	; 0xffffffe4
  102338:	e5d22005 	ldrb	r2, [r2, #5]
  10233c:	e5c32005 	strb	r2, [r3, #5]
  102340:	e51b3018 	ldr	r3, [fp, #-24]	; 0xffffffe8
  102344:	e5933000 	ldr	r3, [r3]
  102348:	e51b2008 	ldr	r2, [fp, #-8]
  10234c:	e583200c 	str	r2, [r3, #12]
  102350:	e51b3008 	ldr	r3, [fp, #-8]
  102354:	e3a02000 	mov	r2, #0
  102358:	e5c32010 	strb	r2, [r3, #16]
  10235c:	e51b300c 	ldr	r3, [fp, #-12]
  102360:	e5932008 	ldr	r2, [r3, #8]
  102364:	e51b3008 	ldr	r3, [fp, #-8]
  102368:	e5832014 	str	r2, [r3, #20]
  10236c:	e51b300c 	ldr	r3, [fp, #-12]
  102370:	e5d32004 	ldrb	r2, [r3, #4]
  102374:	e51b3008 	ldr	r3, [fp, #-8]
  102378:	e5c32004 	strb	r2, [r3, #4]
  10237c:	e51b300c 	ldr	r3, [fp, #-12]
  102380:	e593300c 	ldr	r3, [r3, #12]
  102384:	e6ef2073 	uxtb	r2, r3
  102388:	e51b3008 	ldr	r3, [fp, #-8]
  10238c:	e5c32020 	strb	r2, [r3, #32]
  102390:	e51b300c 	ldr	r3, [fp, #-12]
  102394:	e5932000 	ldr	r2, [r3]
  102398:	e51b3008 	ldr	r3, [fp, #-8]
  10239c:	e5832000 	str	r2, [r3]
  1023a0:	e51b3008 	ldr	r3, [fp, #-8]
  1023a4:	e5932000 	ldr	r2, [r3]
  1023a8:	e51b301c 	ldr	r3, [fp, #-28]	; 0xffffffe4
  1023ac:	e5933000 	ldr	r3, [r3]
  1023b0:	e1a03083 	lsl	r3, r3, #1
  1023b4:	e1a01003 	mov	r1, r3
  1023b8:	e1a00002 	mov	r0, r2
  1023bc:	eb004f96 	bl	11621c <__aeabi_uidiv>
  1023c0:	e1a03000 	mov	r3, r0
  1023c4:	e2432001 	sub	r2, r3, #1
  1023c8:	e51b3008 	ldr	r3, [fp, #-8]
  1023cc:	e5832024 	str	r2, [r3, #36]	; 0x24
  1023d0:	e3a02001 	mov	r2, #1
  1023d4:	e3a01040 	mov	r1, #64	; 0x40
  1023d8:	e51b0008 	ldr	r0, [fp, #-8]
  1023dc:	ebfffcfa 	bl	1017cc <spi_engine_write>
  1023e0:	e3a00ffa 	mov	r0, #1000	; 0x3e8
  1023e4:	ebfffb4d 	bl	101120 <udelay>
  1023e8:	e3a02000 	mov	r2, #0
  1023ec:	e3a01040 	mov	r1, #64	; 0x40
  1023f0:	e51b0008 	ldr	r0, [fp, #-8]
  1023f4:	ebfffcf4 	bl	1017cc <spi_engine_write>
  1023f8:	e3a020ff 	mov	r2, #255	; 0xff
  1023fc:	e3a01084 	mov	r1, #132	; 0x84
  102400:	e51b0008 	ldr	r0, [fp, #-8]
  102404:	ebfffcf0 	bl	1017cc <spi_engine_write>
  102408:	e3a02000 	mov	r2, #0
  10240c:	e3a01080 	mov	r1, #128	; 0x80
  102410:	e51b0008 	ldr	r0, [fp, #-8]
  102414:	ebfffcec 	bl	1017cc <spi_engine_write>
  102418:	e24b3010 	sub	r3, fp, #16
  10241c:	e1a02003 	mov	r2, r3
  102420:	e3a0100c 	mov	r1, #12
  102424:	e51b0008 	ldr	r0, [fp, #-8]
  102428:	ebfffcf7 	bl	10180c <spi_engine_read>
  10242c:	e51b3010 	ldr	r3, [fp, #-16]
  102430:	e6ef2073 	uxtb	r2, r3
  102434:	e51b3008 	ldr	r3, [fp, #-8]
  102438:	e5c32029 	strb	r2, [r3, #41]	; 0x29
  10243c:	e51b3018 	ldr	r3, [fp, #-24]	; 0xffffffe8
  102440:	e5932000 	ldr	r2, [r3]
  102444:	e51b300c 	ldr	r3, [fp, #-12]
  102448:	e5d33010 	ldrb	r3, [r3, #16]
  10244c:	e1a01003 	mov	r1, r3
  102450:	e1a00002 	mov	r0, r2
  102454:	ebfffcfc 	bl	10184c <spi_engine_set_transfer_width>
  102458:	e24b3014 	sub	r3, fp, #20
  10245c:	e1a02003 	mov	r2, r3
  102460:	e3a01000 	mov	r1, #0
  102464:	e51b0008 	ldr	r0, [fp, #-8]
  102468:	ebfffce7 	bl	10180c <spi_engine_read>
  10246c:	e51b3014 	ldr	r3, [fp, #-20]	; 0xffffffec
  102470:	e1a01823 	lsr	r1, r3, #16
  102474:	e51b3014 	ldr	r3, [fp, #-20]	; 0xffffffec
  102478:	e1a03423 	lsr	r3, r3, #8
  10247c:	e6ef2073 	uxtb	r2, r3
  102480:	e51b3014 	ldr	r3, [fp, #-20]	; 0xffffffec
  102484:	e6ef3073 	uxtb	r3, r3
  102488:	e30f0e64 	movw	r0, #65124	; 0xfe64
  10248c:	e3400011 	movt	r0, #17
  102490:	eb0052ab 	bl	116f44 <printf>
  102494:	e3a03000 	mov	r3, #0
  102498:	e1a00003 	mov	r0, r3
  10249c:	e24bd004 	sub	sp, fp, #4
  1024a0:	e8bd8800 	pop	{fp, pc}

001024a4 <spi_engine_write_and_read>:
  1024a4:	e92d48f0 	push	{r4, r5, r6, r7, fp, lr}
  1024a8:	e28db014 	add	fp, sp, #20
  1024ac:	e24dd030 	sub	sp, sp, #48	; 0x30
  1024b0:	e50b0038 	str	r0, [fp, #-56]	; 0xffffffc8
  1024b4:	e50b103c 	str	r1, [fp, #-60]	; 0xffffffc4
  1024b8:	e1a03002 	mov	r3, r2
  1024bc:	e14b33be 	strh	r3, [fp, #-62]	; 0xffffffc2
  1024c0:	e51b3038 	ldr	r3, [fp, #-56]	; 0xffffffc8
  1024c4:	e593300c 	ldr	r3, [r3, #12]
  1024c8:	e50b301c 	str	r3, [fp, #-28]	; 0xffffffe4
  1024cc:	e51b301c 	ldr	r3, [fp, #-28]	; 0xffffffe4
  1024d0:	e3a02000 	mov	r2, #0
  1024d4:	e5c32010 	strb	r2, [r3, #16]
  1024d8:	e3a02000 	mov	r2, #0
  1024dc:	e3a01c01 	mov	r1, #256	; 0x100
  1024e0:	e51b001c 	ldr	r0, [fp, #-28]	; 0xffffffe4
  1024e4:	ebfffcb8 	bl	1017cc <spi_engine_write>
  1024e8:	e15b33be 	ldrh	r3, [fp, #-62]	; 0xffffffc2
  1024ec:	e6ef3073 	uxtb	r3, r3
  1024f0:	e1a01003 	mov	r1, r3
  1024f4:	e51b001c 	ldr	r0, [fp, #-28]	; 0xffffffe4
  1024f8:	ebfffd04 	bl	101910 <spi_get_words_number>
  1024fc:	e1a03000 	mov	r3, r0
  102500:	e54b301d 	strb	r3, [fp, #-29]	; 0xffffffe3
  102504:	e3a00008 	mov	r0, #8
  102508:	eb00504c 	bl	116640 <malloc>
  10250c:	e1a03000 	mov	r3, r0
  102510:	e50b3028 	str	r3, [fp, #-40]	; 0xffffffd8
  102514:	e51b3028 	ldr	r3, [fp, #-40]	; 0xffffffd8
  102518:	e3530000 	cmp	r3, #0
  10251c:	1a000001 	bne	102528 <spi_engine_write_and_read+0x84>
  102520:	e3e03000 	mvn	r3, #0
  102524:	ea000093 	b	102778 <spi_engine_write_and_read+0x2d4>
  102528:	e55b301d 	ldrb	r3, [fp, #-29]	; 0xffffffe3
  10252c:	e3a01004 	mov	r1, #4
  102530:	e1a00003 	mov	r0, r3
  102534:	eb005011 	bl	116580 <calloc>
  102538:	e1a03000 	mov	r3, r0
  10253c:	e50b3034 	str	r3, [fp, #-52]	; 0xffffffcc
  102540:	e55b301d 	ldrb	r3, [fp, #-29]	; 0xffffffe3
  102544:	e3a01004 	mov	r1, #4
  102548:	e1a00003 	mov	r0, r3
  10254c:	eb00500b 	bl	116580 <calloc>
  102550:	e1a03000 	mov	r3, r0
  102554:	e50b3030 	str	r3, [fp, #-48]	; 0xffffffd0
  102558:	e55b301d 	ldrb	r3, [fp, #-29]	; 0xffffffe3
  10255c:	e50b302c 	str	r3, [fp, #-44]	; 0xffffffd4
  102560:	e51b001c 	ldr	r0, [fp, #-28]	; 0xffffffe4
  102564:	ebfffd0a 	bl	101994 <spi_get_word_lenght>
  102568:	e1a03000 	mov	r3, r0
  10256c:	e54b301e 	strb	r3, [fp, #-30]	; 0xffffffe2
  102570:	e51b3028 	ldr	r3, [fp, #-40]	; 0xffffffd8
  102574:	e3a02000 	mov	r2, #0
  102578:	e5832004 	str	r2, [r3, #4]
  10257c:	e51b3028 	ldr	r3, [fp, #-40]	; 0xffffffd8
  102580:	e30123ff 	movw	r2, #5119	; 0x13ff
  102584:	e5832000 	str	r2, [r3]
  102588:	e24b3034 	sub	r3, fp, #52	; 0x34
  10258c:	e283300c 	add	r3, r3, #12
  102590:	e3a01c13 	mov	r1, #4864	; 0x1300
  102594:	e1a00003 	mov	r0, r3
  102598:	ebfffd49 	bl	101ac4 <spi_engine_queue_add_cmd>
  10259c:	e15b33be 	ldrh	r3, [fp, #-62]	; 0xffffffc2
  1025a0:	e3833c03 	orr	r3, r3, #768	; 0x300
  1025a4:	e6ff3073 	uxth	r3, r3
  1025a8:	e1a02003 	mov	r2, r3
  1025ac:	e24b3034 	sub	r3, fp, #52	; 0x34
  1025b0:	e283300c 	add	r3, r3, #12
  1025b4:	e1a01002 	mov	r1, r2
  1025b8:	e1a00003 	mov	r0, r3
  1025bc:	ebfffd40 	bl	101ac4 <spi_engine_queue_add_cmd>
  1025c0:	e24b3034 	sub	r3, fp, #52	; 0x34
  1025c4:	e283300c 	add	r3, r3, #12
  1025c8:	e30113ff 	movw	r1, #5119	; 0x13ff
  1025cc:	e1a00003 	mov	r0, r3
  1025d0:	ebfffd3b 	bl	101ac4 <spi_engine_queue_add_cmd>
  1025d4:	e3a03000 	mov	r3, #0
  1025d8:	e54b3015 	strb	r3, [fp, #-21]	; 0xffffffeb
  1025dc:	ea000027 	b	102680 <spi_engine_write_and_read+0x1dc>
  1025e0:	e51b4034 	ldr	r4, [fp, #-52]	; 0xffffffcc
  1025e4:	e55b3015 	ldrb	r3, [fp, #-21]	; 0xffffffeb
  1025e8:	e55b201e 	ldrb	r2, [fp, #-30]	; 0xffffffe2
  1025ec:	e1a01002 	mov	r1, r2
  1025f0:	e1a00003 	mov	r0, r3
  1025f4:	eb004f08 	bl	11621c <__aeabi_uidiv>
  1025f8:	e1a03000 	mov	r3, r0
  1025fc:	e6ef1073 	uxtb	r1, r3
  102600:	e1a03001 	mov	r3, r1
  102604:	e1a03103 	lsl	r3, r3, #2
  102608:	e0844003 	add	r4, r4, r3
  10260c:	e51b2034 	ldr	r2, [fp, #-52]	; 0xffffffcc
  102610:	e1a03001 	mov	r3, r1
  102614:	e1a03103 	lsl	r3, r3, #2
  102618:	e0823003 	add	r3, r2, r3
  10261c:	e5935000 	ldr	r5, [r3]
  102620:	e55b3015 	ldrb	r3, [fp, #-21]	; 0xffffffeb
  102624:	e51b203c 	ldr	r2, [fp, #-60]	; 0xffffffc4
  102628:	e0823003 	add	r3, r2, r3
  10262c:	e5d33000 	ldrb	r3, [r3]
  102630:	e1a06003 	mov	r6, r3
  102634:	e51b301c 	ldr	r3, [fp, #-28]	; 0xffffffe4
  102638:	e5d33028 	ldrb	r3, [r3, #40]	; 0x28
  10263c:	e1a07003 	mov	r7, r3
  102640:	e55b3015 	ldrb	r3, [fp, #-21]	; 0xffffffeb
  102644:	e55b201e 	ldrb	r2, [fp, #-30]	; 0xffffffe2
  102648:	e1a01002 	mov	r1, r2
  10264c:	e1a00003 	mov	r0, r3
  102650:	eb004f6c 	bl	116408 <__aeabi_uidivmod>
  102654:	e1a03001 	mov	r3, r1
  102658:	e6ef3073 	uxtb	r3, r3
  10265c:	e2833001 	add	r3, r3, #1
  102660:	e1a03183 	lsl	r3, r3, #3
  102664:	e0473003 	sub	r3, r7, r3
  102668:	e1a03316 	lsl	r3, r6, r3
  10266c:	e1853003 	orr	r3, r5, r3
  102670:	e5843000 	str	r3, [r4]
  102674:	e55b3015 	ldrb	r3, [fp, #-21]	; 0xffffffeb
  102678:	e2833001 	add	r3, r3, #1
  10267c:	e54b3015 	strb	r3, [fp, #-21]	; 0xffffffeb
  102680:	e55b3015 	ldrb	r3, [fp, #-21]	; 0xffffffeb
  102684:	e6ff3073 	uxth	r3, r3
  102688:	e15b23be 	ldrh	r2, [fp, #-62]	; 0xffffffc2
  10268c:	e1520003 	cmp	r2, r3
  102690:	8affffd2 	bhi	1025e0 <spi_engine_write_and_read+0x13c>
  102694:	e24b3034 	sub	r3, fp, #52	; 0x34
  102698:	e1a01003 	mov	r1, r3
  10269c:	e51b0038 	ldr	r0, [fp, #-56]	; 0xffffffc8
  1026a0:	ebfffe72 	bl	102070 <spi_engine_transfer_message>
  1026a4:	e50b0024 	str	r0, [fp, #-36]	; 0xffffffdc
  1026a8:	e3a03000 	mov	r3, #0
  1026ac:	e54b3015 	strb	r3, [fp, #-21]	; 0xffffffeb
  1026b0:	ea000020 	b	102738 <spi_engine_write_and_read+0x294>
  1026b4:	e55b3015 	ldrb	r3, [fp, #-21]	; 0xffffffeb
  1026b8:	e51b203c 	ldr	r2, [fp, #-60]	; 0xffffffc4
  1026bc:	e0824003 	add	r4, r2, r3
  1026c0:	e51b5030 	ldr	r5, [fp, #-48]	; 0xffffffd0
  1026c4:	e55b3015 	ldrb	r3, [fp, #-21]	; 0xffffffeb
  1026c8:	e55b201e 	ldrb	r2, [fp, #-30]	; 0xffffffe2
  1026cc:	e1a01002 	mov	r1, r2
  1026d0:	e1a00003 	mov	r0, r3
  1026d4:	eb004ed0 	bl	11621c <__aeabi_uidiv>
  1026d8:	e1a03000 	mov	r3, r0
  1026dc:	e6ef3073 	uxtb	r3, r3
  1026e0:	e1a03103 	lsl	r3, r3, #2
  1026e4:	e0853003 	add	r3, r5, r3
  1026e8:	e5935000 	ldr	r5, [r3]
  1026ec:	e51b301c 	ldr	r3, [fp, #-28]	; 0xffffffe4
  1026f0:	e5d33028 	ldrb	r3, [r3, #40]	; 0x28
  1026f4:	e1a06003 	mov	r6, r3
  1026f8:	e55b3015 	ldrb	r3, [fp, #-21]	; 0xffffffeb
  1026fc:	e55b201e 	ldrb	r2, [fp, #-30]	; 0xffffffe2
  102700:	e1a01002 	mov	r1, r2
  102704:	e1a00003 	mov	r0, r3
  102708:	eb004f3e 	bl	116408 <__aeabi_uidivmod>
  10270c:	e1a03001 	mov	r3, r1
  102710:	e6ef3073 	uxtb	r3, r3
  102714:	e2833001 	add	r3, r3, #1
  102718:	e1a03183 	lsl	r3, r3, #3
  10271c:	e0463003 	sub	r3, r6, r3
  102720:	e1a03335 	lsr	r3, r5, r3
  102724:	e6ef3073 	uxtb	r3, r3
  102728:	e5c43000 	strb	r3, [r4]
  10272c:	e55b3015 	ldrb	r3, [fp, #-21]	; 0xffffffeb
  102730:	e2833001 	add	r3, r3, #1
  102734:	e54b3015 	strb	r3, [fp, #-21]	; 0xffffffeb
  102738:	e55b3015 	ldrb	r3, [fp, #-21]	; 0xffffffeb
  10273c:	e6ff3073 	uxth	r3, r3
  102740:	e15b23be 	ldrh	r2, [fp, #-62]	; 0xffffffc2
  102744:	e1520003 	cmp	r2, r3
  102748:	8affffd9 	bhi	1026b4 <spi_engine_write_and_read+0x210>
  10274c:	e24b3034 	sub	r3, fp, #52	; 0x34
  102750:	e283300c 	add	r3, r3, #12
  102754:	e1a00003 	mov	r0, r3
  102758:	ebfffd33 	bl	101c2c <spi_engine_queue_free>
  10275c:	e51b3034 	ldr	r3, [fp, #-52]	; 0xffffffcc
  102760:	e1a00003 	mov	r0, r3
  102764:	eb004fbb 	bl	116658 <free>
  102768:	e51b3030 	ldr	r3, [fp, #-48]	; 0xffffffd0
  10276c:	e1a00003 	mov	r0, r3
  102770:	eb004fb8 	bl	116658 <free>
  102774:	e51b3024 	ldr	r3, [fp, #-36]	; 0xffffffdc
  102778:	e1a00003 	mov	r0, r3
  10277c:	e24bd014 	sub	sp, fp, #20
  102780:	e8bd88f0 	pop	{r4, r5, r6, r7, fp, pc}

00102784 <spi_engine_offload_init>:
  102784:	e92d4800 	push	{fp, lr}
  102788:	e28db004 	add	fp, sp, #4
  10278c:	e24dd020 	sub	sp, sp, #32
  102790:	e50b0020 	str	r0, [fp, #-32]	; 0xffffffe0
  102794:	e50b1024 	str	r1, [fp, #-36]	; 0xffffffdc
  102798:	e51b3020 	ldr	r3, [fp, #-32]	; 0xffffffe0
  10279c:	e593300c 	ldr	r3, [r3, #12]
  1027a0:	e50b3008 	str	r3, [fp, #-8]
  1027a4:	e51b3024 	ldr	r3, [fp, #-36]	; 0xffffffdc
  1027a8:	e5d32008 	ldrb	r2, [r3, #8]
  1027ac:	e51b3008 	ldr	r3, [fp, #-8]
  1027b0:	e5c32010 	strb	r2, [r3, #16]
  1027b4:	e51b3024 	ldr	r3, [fp, #-36]	; 0xffffffdc
  1027b8:	e5d33008 	ldrb	r3, [r3, #8]
  1027bc:	e2033001 	and	r3, r3, #1
  1027c0:	e3530000 	cmp	r3, #0
  1027c4:	0a000015 	beq	102820 <spi_engine_offload_init+0x9c>
  1027c8:	e30f3e98 	movw	r3, #65176	; 0xfe98
  1027cc:	e3403011 	movt	r3, #17
  1027d0:	e50b3018 	str	r3, [fp, #-24]	; 0xffffffe8
  1027d4:	e51b3024 	ldr	r3, [fp, #-36]	; 0xffffffdc
  1027d8:	e5933004 	ldr	r3, [r3, #4]
  1027dc:	e50b3014 	str	r3, [fp, #-20]	; 0xffffffec
  1027e0:	e3a03001 	mov	r3, #1
  1027e4:	e54b3010 	strb	r3, [fp, #-16]
  1027e8:	e3a03001 	mov	r3, #1
  1027ec:	e50b300c 	str	r3, [fp, #-12]
  1027f0:	e51b3008 	ldr	r3, [fp, #-8]
  1027f4:	e2833008 	add	r3, r3, #8
  1027f8:	e24b2018 	sub	r2, fp, #24
  1027fc:	e1a01002 	mov	r1, r2
  102800:	e1a00003 	mov	r0, r3
  102804:	eb000188 	bl	102e2c <axi_dmac_init>
  102808:	e51b3008 	ldr	r3, [fp, #-8]
  10280c:	e5933008 	ldr	r3, [r3, #8]
  102810:	e3530000 	cmp	r3, #0
  102814:	1a000001 	bne	102820 <spi_engine_offload_init+0x9c>
  102818:	e3e03000 	mvn	r3, #0
  10281c:	ea00001b 	b	102890 <spi_engine_offload_init+0x10c>
  102820:	e51b3024 	ldr	r3, [fp, #-36]	; 0xffffffdc
  102824:	e5d33008 	ldrb	r3, [r3, #8]
  102828:	e2033002 	and	r3, r3, #2
  10282c:	e3530000 	cmp	r3, #0
  102830:	0a000015 	beq	10288c <spi_engine_offload_init+0x108>
  102834:	e30f3ea4 	movw	r3, #65188	; 0xfea4
  102838:	e3403011 	movt	r3, #17
  10283c:	e50b3018 	str	r3, [fp, #-24]	; 0xffffffe8
  102840:	e51b3024 	ldr	r3, [fp, #-36]	; 0xffffffdc
  102844:	e5933000 	ldr	r3, [r3]
  102848:	e50b3014 	str	r3, [fp, #-20]	; 0xffffffec
  10284c:	e3a03000 	mov	r3, #0
  102850:	e54b3010 	strb	r3, [fp, #-16]
  102854:	e3a03001 	mov	r3, #1
  102858:	e50b300c 	str	r3, [fp, #-12]
  10285c:	e51b3008 	ldr	r3, [fp, #-8]
  102860:	e283300c 	add	r3, r3, #12
  102864:	e24b2018 	sub	r2, fp, #24
  102868:	e1a01002 	mov	r1, r2
  10286c:	e1a00003 	mov	r0, r3
  102870:	eb00016d 	bl	102e2c <axi_dmac_init>
  102874:	e51b3008 	ldr	r3, [fp, #-8]
  102878:	e593300c 	ldr	r3, [r3, #12]
  10287c:	e3530000 	cmp	r3, #0
  102880:	1a000001 	bne	10288c <spi_engine_offload_init+0x108>
  102884:	e3e03000 	mvn	r3, #0
  102888:	ea000000 	b	102890 <spi_engine_offload_init+0x10c>
  10288c:	e3a03000 	mov	r3, #0
  102890:	e1a00003 	mov	r0, r3
  102894:	e24bd004 	sub	sp, fp, #4
  102898:	e8bd8800 	pop	{fp, pc}

0010289c <spi_engine_offload_transfer>:
  10289c:	e24dd010 	sub	sp, sp, #16
  1028a0:	e92d4800 	push	{fp, lr}
  1028a4:	e28db004 	add	fp, sp, #4
  1028a8:	e24dd028 	sub	sp, sp, #40	; 0x28
  1028ac:	e50b0028 	str	r0, [fp, #-40]	; 0xffffffd8
  1028b0:	e28b0008 	add	r0, fp, #8
  1028b4:	e880000e 	stm	r0, {r1, r2, r3}
  1028b8:	e51b3028 	ldr	r3, [fp, #-40]	; 0xffffffd8
  1028bc:	e593300c 	ldr	r3, [r3, #12]
  1028c0:	e50b3010 	str	r3, [fp, #-16]
  1028c4:	e51b3010 	ldr	r3, [fp, #-16]
  1028c8:	e5d33010 	ldrb	r3, [r3, #16]
  1028cc:	e2033003 	and	r3, r3, #3
  1028d0:	e3530000 	cmp	r3, #0
  1028d4:	1a000001 	bne	1028e0 <spi_engine_offload_transfer+0x44>
  1028d8:	e3e03000 	mvn	r3, #0
  1028dc:	ea00007a 	b	102acc <spi_engine_offload_transfer+0x230>
  1028e0:	e3a02001 	mov	r2, #1
  1028e4:	e3a01f42 	mov	r1, #264	; 0x108
  1028e8:	e51b0010 	ldr	r0, [fp, #-16]
  1028ec:	ebfffbb6 	bl	1017cc <spi_engine_write>
  1028f0:	e3a02000 	mov	r2, #0
  1028f4:	e3a01f42 	mov	r1, #264	; 0x108
  1028f8:	e51b0010 	ldr	r0, [fp, #-16]
  1028fc:	ebfffbb2 	bl	1017cc <spi_engine_write>
  102900:	e51b3010 	ldr	r3, [fp, #-16]
  102904:	e3a02000 	mov	r2, #0
  102908:	e5c32011 	strb	r2, [r3, #17]
  10290c:	e51b3010 	ldr	r3, [fp, #-16]
  102910:	e3a02000 	mov	r2, #0
  102914:	e5c32012 	strb	r2, [r3, #18]
  102918:	e3a00008 	mov	r0, #8
  10291c:	eb004f47 	bl	116640 <malloc>
  102920:	e1a03000 	mov	r3, r0
  102924:	e50b3018 	str	r3, [fp, #-24]	; 0xffffffe8
  102928:	e51b3018 	ldr	r3, [fp, #-24]	; 0xffffffe8
  10292c:	e3530000 	cmp	r3, #0
  102930:	1a000001 	bne	10293c <spi_engine_offload_transfer+0xa0>
  102934:	e3e03000 	mvn	r3, #0
  102938:	ea000063 	b	102acc <spi_engine_offload_transfer+0x230>
  10293c:	e59b3010 	ldr	r3, [fp, #16]
  102940:	e50b3024 	str	r3, [fp, #-36]	; 0xffffffdc
  102944:	e51b3018 	ldr	r3, [fp, #-24]	; 0xffffffe8
  102948:	e3a02000 	mov	r2, #0
  10294c:	e5832004 	str	r2, [r3, #4]
  102950:	e51b3018 	ldr	r3, [fp, #-24]	; 0xffffffe8
  102954:	e59b2008 	ldr	r2, [fp, #8]
  102958:	e5922000 	ldr	r2, [r2]
  10295c:	e5832000 	str	r2, [r3]
  102960:	e3a03001 	mov	r3, #1
  102964:	e50b3008 	str	r3, [fp, #-8]
  102968:	ea00000b 	b	10299c <spi_engine_offload_transfer+0x100>
  10296c:	e59b2008 	ldr	r2, [fp, #8]
  102970:	e51b3008 	ldr	r3, [fp, #-8]
  102974:	e2831001 	add	r1, r3, #1
  102978:	e50b1008 	str	r1, [fp, #-8]
  10297c:	e1a03103 	lsl	r3, r3, #2
  102980:	e0823003 	add	r3, r2, r3
  102984:	e5932000 	ldr	r2, [r3]
  102988:	e24b3024 	sub	r3, fp, #36	; 0x24
  10298c:	e283300c 	add	r3, r3, #12
  102990:	e1a01002 	mov	r1, r2
  102994:	e1a00003 	mov	r0, r3
  102998:	ebfffc49 	bl	101ac4 <spi_engine_queue_add_cmd>
  10299c:	e59b200c 	ldr	r2, [fp, #12]
  1029a0:	e51b3008 	ldr	r3, [fp, #-8]
  1029a4:	e1520003 	cmp	r2, r3
  1029a8:	8affffef 	bhi	10296c <spi_engine_offload_transfer+0xd0>
  1029ac:	e24b3024 	sub	r3, fp, #36	; 0x24
  1029b0:	e1a01003 	mov	r1, r3
  1029b4:	e51b0028 	ldr	r0, [fp, #-40]	; 0xffffffd8
  1029b8:	ebfffdac 	bl	102070 <spi_engine_transfer_message>
  1029bc:	e51b0010 	ldr	r0, [fp, #-16]
  1029c0:	ebfffbf3 	bl	101994 <spi_get_word_lenght>
  1029c4:	e1a03000 	mov	r3, r0
  1029c8:	e54b3011 	strb	r3, [fp, #-17]	; 0xffffffef
  1029cc:	e51b3010 	ldr	r3, [fp, #-16]
  1029d0:	e5d33010 	ldrb	r3, [r3, #16]
  1029d4:	e2033001 	and	r3, r3, #1
  1029d8:	e3530000 	cmp	r3, #0
  1029dc:	0a00000b 	beq	102a10 <spi_engine_offload_transfer+0x174>
  1029e0:	e51b3010 	ldr	r3, [fp, #-16]
  1029e4:	e5930008 	ldr	r0, [r3, #8]
  1029e8:	e59b1014 	ldr	r1, [fp, #20]
  1029ec:	e55b3011 	ldrb	r3, [fp, #-17]	; 0xffffffef
  1029f0:	e51b2010 	ldr	r2, [fp, #-16]
  1029f4:	e5d22011 	ldrb	r2, [r2, #17]
  1029f8:	e0030392 	mul	r3, r2, r3
  1029fc:	e1a02003 	mov	r2, r3
  102a00:	e59b301c 	ldr	r3, [fp, #28]
  102a04:	e0030293 	mul	r3, r3, r2
  102a08:	e1a02003 	mov	r2, r3
  102a0c:	eb000076 	bl	102bec <axi_dmac_transfer>
  102a10:	e51b3010 	ldr	r3, [fp, #-16]
  102a14:	e5d33010 	ldrb	r3, [r3, #16]
  102a18:	e2033002 	and	r3, r3, #2
  102a1c:	e3530000 	cmp	r3, #0
  102a20:	0a00000b 	beq	102a54 <spi_engine_offload_transfer+0x1b8>
  102a24:	e51b3010 	ldr	r3, [fp, #-16]
  102a28:	e593000c 	ldr	r0, [r3, #12]
  102a2c:	e59b1018 	ldr	r1, [fp, #24]
  102a30:	e55b3011 	ldrb	r3, [fp, #-17]	; 0xffffffef
  102a34:	e51b2010 	ldr	r2, [fp, #-16]
  102a38:	e5d22011 	ldrb	r2, [r2, #17]
  102a3c:	e0030392 	mul	r3, r2, r3
  102a40:	e1a02003 	mov	r2, r3
  102a44:	e59b301c 	ldr	r3, [fp, #28]
  102a48:	e0030293 	mul	r3, r3, r2
  102a4c:	e1a02003 	mov	r2, r3
  102a50:	eb000065 	bl	102bec <axi_dmac_transfer>
  102a54:	e3a00ffa 	mov	r0, #1000	; 0x3e8
  102a58:	ebfff9b0 	bl	101120 <udelay>
  102a5c:	e3a03000 	mov	r3, #0
  102a60:	e50b300c 	str	r3, [fp, #-12]
  102a64:	e3a03000 	mov	r3, #0
  102a68:	e50b3008 	str	r3, [fp, #-8]
  102a6c:	ea000005 	b	102a88 <spi_engine_offload_transfer+0x1ec>
  102a70:	e51b300c 	ldr	r3, [fp, #-12]
  102a74:	e2833001 	add	r3, r3, #1
  102a78:	e50b300c 	str	r3, [fp, #-12]
  102a7c:	e51b3008 	ldr	r3, [fp, #-8]
  102a80:	e2833001 	add	r3, r3, #1
  102a84:	e50b3008 	str	r3, [fp, #-8]
  102a88:	e51b3008 	ldr	r3, [fp, #-8]
  102a8c:	e302270f 	movw	r2, #9999	; 0x270f
  102a90:	e1530002 	cmp	r3, r2
  102a94:	9afffff5 	bls	102a70 <spi_engine_offload_transfer+0x1d4>
  102a98:	e3a02001 	mov	r2, #1
  102a9c:	e3a01c01 	mov	r1, #256	; 0x100
  102aa0:	e51b0010 	ldr	r0, [fp, #-16]
  102aa4:	ebfffb48 	bl	1017cc <spi_engine_write>
  102aa8:	e51b3010 	ldr	r3, [fp, #-16]
  102aac:	e593300c 	ldr	r3, [r3, #12]
  102ab0:	e1a00003 	mov	r0, r3
  102ab4:	eb000101 	bl	102ec0 <axi_wait>
  102ab8:	e24b3024 	sub	r3, fp, #36	; 0x24
  102abc:	e283300c 	add	r3, r3, #12
  102ac0:	e1a00003 	mov	r0, r3
  102ac4:	ebfffc58 	bl	101c2c <spi_engine_queue_free>
  102ac8:	e3a03000 	mov	r3, #0
  102acc:	e1a00003 	mov	r0, r3
  102ad0:	e24bd004 	sub	sp, fp, #4
  102ad4:	e8bd4800 	pop	{fp, lr}
  102ad8:	e28dd010 	add	sp, sp, #16
  102adc:	e12fff1e 	bx	lr

00102ae0 <spi_engine_remove>:
  102ae0:	e92d4800 	push	{fp, lr}
  102ae4:	e28db004 	add	fp, sp, #4
  102ae8:	e24dd010 	sub	sp, sp, #16
  102aec:	e50b0010 	str	r0, [fp, #-16]
  102af0:	e51b3010 	ldr	r3, [fp, #-16]
  102af4:	e593300c 	ldr	r3, [r3, #12]
  102af8:	e50b3008 	str	r3, [fp, #-8]
  102afc:	e51b3008 	ldr	r3, [fp, #-8]
  102b00:	e5d33010 	ldrb	r3, [r3, #16]
  102b04:	e2033001 	and	r3, r3, #1
  102b08:	e3530000 	cmp	r3, #0
  102b0c:	0a000003 	beq	102b20 <spi_engine_remove+0x40>
  102b10:	e51b3008 	ldr	r3, [fp, #-8]
  102b14:	e5933008 	ldr	r3, [r3, #8]
  102b18:	e1a00003 	mov	r0, r3
  102b1c:	eb000103 	bl	102f30 <axi_dmac_remove>
  102b20:	e51b3008 	ldr	r3, [fp, #-8]
  102b24:	e5d33010 	ldrb	r3, [r3, #16]
  102b28:	e2033002 	and	r3, r3, #2
  102b2c:	e3530000 	cmp	r3, #0
  102b30:	0a000003 	beq	102b44 <spi_engine_remove+0x64>
  102b34:	e51b3008 	ldr	r3, [fp, #-8]
  102b38:	e593300c 	ldr	r3, [r3, #12]
  102b3c:	e1a00003 	mov	r0, r3
  102b40:	eb0000fa 	bl	102f30 <axi_dmac_remove>
  102b44:	e51b3010 	ldr	r3, [fp, #-16]
  102b48:	e593300c 	ldr	r3, [r3, #12]
  102b4c:	e1a00003 	mov	r0, r3
  102b50:	eb004ec0 	bl	116658 <free>
  102b54:	e51b0010 	ldr	r0, [fp, #-16]
  102b58:	eb004ebe 	bl	116658 <free>
  102b5c:	e3a03000 	mov	r3, #0
  102b60:	e1a00003 	mov	r0, r3
  102b64:	e24bd004 	sub	sp, fp, #4
  102b68:	e8bd8800 	pop	{fp, pc}

00102b6c <axi_dmac_read>:
  102b6c:	e92d4800 	push	{fp, lr}
  102b70:	e28db004 	add	fp, sp, #4
  102b74:	e24dd010 	sub	sp, sp, #16
  102b78:	e50b0008 	str	r0, [fp, #-8]
  102b7c:	e50b100c 	str	r1, [fp, #-12]
  102b80:	e50b2010 	str	r2, [fp, #-16]
  102b84:	e51b3008 	ldr	r3, [fp, #-8]
  102b88:	e5933004 	ldr	r3, [r3, #4]
  102b8c:	e51b2010 	ldr	r2, [fp, #-16]
  102b90:	e51b100c 	ldr	r1, [fp, #-12]
  102b94:	e1a00003 	mov	r0, r3
  102b98:	eb0000f3 	bl	102f6c <axi_io_read>
  102b9c:	e3a03000 	mov	r3, #0
  102ba0:	e1a00003 	mov	r0, r3
  102ba4:	e24bd004 	sub	sp, fp, #4
  102ba8:	e8bd8800 	pop	{fp, pc}

00102bac <axi_dmac_write>:
  102bac:	e92d4800 	push	{fp, lr}
  102bb0:	e28db004 	add	fp, sp, #4
  102bb4:	e24dd010 	sub	sp, sp, #16
  102bb8:	e50b0008 	str	r0, [fp, #-8]
  102bbc:	e50b100c 	str	r1, [fp, #-12]
  102bc0:	e50b2010 	str	r2, [fp, #-16]
  102bc4:	e51b3008 	ldr	r3, [fp, #-8]
  102bc8:	e5933004 	ldr	r3, [r3, #4]
  102bcc:	e51b2010 	ldr	r2, [fp, #-16]
  102bd0:	e51b100c 	ldr	r1, [fp, #-12]
  102bd4:	e1a00003 	mov	r0, r3
  102bd8:	eb0000f4 	bl	102fb0 <axi_io_write>
  102bdc:	e3a03000 	mov	r3, #0
  102be0:	e1a00003 	mov	r0, r3
  102be4:	e24bd004 	sub	sp, fp, #4
  102be8:	e8bd8800 	pop	{fp, pc}

00102bec <axi_dmac_transfer>:
  102bec:	e92d4800 	push	{fp, lr}
  102bf0:	e28db004 	add	fp, sp, #4
  102bf4:	e24dd020 	sub	sp, sp, #32
  102bf8:	e50b0018 	str	r0, [fp, #-24]	; 0xffffffe8
  102bfc:	e50b101c 	str	r1, [fp, #-28]	; 0xffffffe4
  102c00:	e50b2020 	str	r2, [fp, #-32]	; 0xffffffe0
  102c04:	e3a03000 	mov	r3, #0
  102c08:	e50b3010 	str	r3, [fp, #-16]
  102c0c:	e51b3020 	ldr	r3, [fp, #-32]	; 0xffffffe0
  102c10:	e3530000 	cmp	r3, #0
  102c14:	1a000001 	bne	102c20 <axi_dmac_transfer+0x34>
  102c18:	e3a03000 	mov	r3, #0
  102c1c:	ea00007f 	b	102e20 <axi_dmac_transfer+0x234>
  102c20:	e3a02000 	mov	r2, #0
  102c24:	e3a01b01 	mov	r1, #1024	; 0x400
  102c28:	e51b0018 	ldr	r0, [fp, #-24]	; 0xffffffe8
  102c2c:	ebffffde 	bl	102bac <axi_dmac_write>
  102c30:	e3a02001 	mov	r2, #1
  102c34:	e3a01b01 	mov	r1, #1024	; 0x400
  102c38:	e51b0018 	ldr	r0, [fp, #-24]	; 0xffffffe8
  102c3c:	ebffffda 	bl	102bac <axi_dmac_write>
  102c40:	e24b3010 	sub	r3, fp, #16
  102c44:	e1a02003 	mov	r2, r3
  102c48:	e3a01b01 	mov	r1, #1024	; 0x400
  102c4c:	e51b0018 	ldr	r0, [fp, #-24]	; 0xffffffe8
  102c50:	ebffffc5 	bl	102b6c <axi_dmac_read>
  102c54:	e3a02000 	mov	r2, #0
  102c58:	e3a01080 	mov	r1, #128	; 0x80
  102c5c:	e51b0018 	ldr	r0, [fp, #-24]	; 0xffffffe8
  102c60:	ebffffd1 	bl	102bac <axi_dmac_write>
  102c64:	e24b300c 	sub	r3, fp, #12
  102c68:	e1a02003 	mov	r2, r3
  102c6c:	e3a01084 	mov	r1, #132	; 0x84
  102c70:	e51b0018 	ldr	r0, [fp, #-24]	; 0xffffffe8
  102c74:	ebffffbc 	bl	102b6c <axi_dmac_read>
  102c78:	e24b3008 	sub	r3, fp, #8
  102c7c:	e1a02003 	mov	r2, r3
  102c80:	e3001404 	movw	r1, #1028	; 0x404
  102c84:	e51b0018 	ldr	r0, [fp, #-24]	; 0xffffffe8
  102c88:	ebffffb7 	bl	102b6c <axi_dmac_read>
  102c8c:	e24b300c 	sub	r3, fp, #12
  102c90:	e1a02003 	mov	r2, r3
  102c94:	e3a01084 	mov	r1, #132	; 0x84
  102c98:	e51b0018 	ldr	r0, [fp, #-24]	; 0xffffffe8
  102c9c:	ebffffb2 	bl	102b6c <axi_dmac_read>
  102ca0:	e51b300c 	ldr	r3, [fp, #-12]
  102ca4:	e1a02003 	mov	r2, r3
  102ca8:	e3a01084 	mov	r1, #132	; 0x84
  102cac:	e51b0018 	ldr	r0, [fp, #-24]	; 0xffffffe8
  102cb0:	ebffffbd 	bl	102bac <axi_dmac_write>
  102cb4:	e51b3018 	ldr	r3, [fp, #-24]	; 0xffffffe8
  102cb8:	e5d33008 	ldrb	r3, [r3, #8]
  102cbc:	e3530000 	cmp	r3, #0
  102cc0:	0a000002 	beq	102cd0 <axi_dmac_transfer+0xe4>
  102cc4:	e3530001 	cmp	r3, #1
  102cc8:	0a000009 	beq	102cf4 <axi_dmac_transfer+0x108>
  102ccc:	ea000011 	b	102d18 <axi_dmac_transfer+0x12c>
  102cd0:	e51b201c 	ldr	r2, [fp, #-28]	; 0xffffffe4
  102cd4:	e3a01e41 	mov	r1, #1040	; 0x410
  102cd8:	e51b0018 	ldr	r0, [fp, #-24]	; 0xffffffe8
  102cdc:	ebffffb2 	bl	102bac <axi_dmac_write>
  102ce0:	e3a02000 	mov	r2, #0
  102ce4:	e3a01e42 	mov	r1, #1056	; 0x420
  102ce8:	e51b0018 	ldr	r0, [fp, #-24]	; 0xffffffe8
  102cec:	ebffffae 	bl	102bac <axi_dmac_write>
  102cf0:	ea00000a 	b	102d20 <axi_dmac_transfer+0x134>
  102cf4:	e51b201c 	ldr	r2, [fp, #-28]	; 0xffffffe4
  102cf8:	e3001414 	movw	r1, #1044	; 0x414
  102cfc:	e51b0018 	ldr	r0, [fp, #-24]	; 0xffffffe8
  102d00:	ebffffa9 	bl	102bac <axi_dmac_write>
  102d04:	e3a02000 	mov	r2, #0
  102d08:	e3001424 	movw	r1, #1060	; 0x424
  102d0c:	e51b0018 	ldr	r0, [fp, #-24]	; 0xffffffe8
  102d10:	ebffffa5 	bl	102bac <axi_dmac_write>
  102d14:	ea000001 	b	102d20 <axi_dmac_transfer+0x134>
  102d18:	e3e03000 	mvn	r3, #0
  102d1c:	ea00003f 	b	102e20 <axi_dmac_transfer+0x234>
  102d20:	e51b3020 	ldr	r3, [fp, #-32]	; 0xffffffe0
  102d24:	e2433001 	sub	r3, r3, #1
  102d28:	e1a02003 	mov	r2, r3
  102d2c:	e3001418 	movw	r1, #1048	; 0x418
  102d30:	e51b0018 	ldr	r0, [fp, #-24]	; 0xffffffe8
  102d34:	ebffff9c 	bl	102bac <axi_dmac_write>
  102d38:	e3a02000 	mov	r2, #0
  102d3c:	e300141c 	movw	r1, #1052	; 0x41c
  102d40:	e51b0018 	ldr	r0, [fp, #-24]	; 0xffffffe8
  102d44:	ebffff98 	bl	102bac <axi_dmac_write>
  102d48:	e51b3018 	ldr	r3, [fp, #-24]	; 0xffffffe8
  102d4c:	e593300c 	ldr	r3, [r3, #12]
  102d50:	e1a02003 	mov	r2, r3
  102d54:	e300140c 	movw	r1, #1036	; 0x40c
  102d58:	e51b0018 	ldr	r0, [fp, #-24]	; 0xffffffe8
  102d5c:	ebffff92 	bl	102bac <axi_dmac_write>
  102d60:	e3a02001 	mov	r2, #1
  102d64:	e3001408 	movw	r1, #1032	; 0x408
  102d68:	e51b0018 	ldr	r0, [fp, #-24]	; 0xffffffe8
  102d6c:	ebffff8e 	bl	102bac <axi_dmac_write>
  102d70:	e51b3018 	ldr	r3, [fp, #-24]	; 0xffffffe8
  102d74:	e593300c 	ldr	r3, [r3, #12]
  102d78:	e2033001 	and	r3, r3, #1
  102d7c:	e3530000 	cmp	r3, #0
  102d80:	0a000001 	beq	102d8c <axi_dmac_transfer+0x1a0>
  102d84:	e3a03000 	mov	r3, #0
  102d88:	ea000024 	b	102e20 <axi_dmac_transfer+0x234>
  102d8c:	e24b300c 	sub	r3, fp, #12
  102d90:	e1a02003 	mov	r2, r3
  102d94:	e3001408 	movw	r1, #1032	; 0x408
  102d98:	e51b0018 	ldr	r0, [fp, #-24]	; 0xffffffe8
  102d9c:	ebffff72 	bl	102b6c <axi_dmac_read>
  102da0:	e51b300c 	ldr	r3, [fp, #-12]
  102da4:	e3530001 	cmp	r3, #1
  102da8:	0afffff7 	beq	102d8c <axi_dmac_transfer+0x1a0>
  102dac:	e24b300c 	sub	r3, fp, #12
  102db0:	e1a02003 	mov	r2, r3
  102db4:	e3a01084 	mov	r1, #132	; 0x84
  102db8:	e51b0018 	ldr	r0, [fp, #-24]	; 0xffffffe8
  102dbc:	ebffff6a 	bl	102b6c <axi_dmac_read>
  102dc0:	e51b300c 	ldr	r3, [fp, #-12]
  102dc4:	e3530003 	cmp	r3, #3
  102dc8:	1afffff7 	bne	102dac <axi_dmac_transfer+0x1c0>
  102dcc:	e51b300c 	ldr	r3, [fp, #-12]
  102dd0:	e1a02003 	mov	r2, r3
  102dd4:	e3a01084 	mov	r1, #132	; 0x84
  102dd8:	e51b0018 	ldr	r0, [fp, #-24]	; 0xffffffe8
  102ddc:	ebffff72 	bl	102bac <axi_dmac_write>
  102de0:	e24b300c 	sub	r3, fp, #12
  102de4:	e1a02003 	mov	r2, r3
  102de8:	e3001428 	movw	r1, #1064	; 0x428
  102dec:	e51b0018 	ldr	r0, [fp, #-24]	; 0xffffffe8
  102df0:	ebffff5d 	bl	102b6c <axi_dmac_read>
  102df4:	e51b3008 	ldr	r3, [fp, #-8]
  102df8:	e3a02001 	mov	r2, #1
  102dfc:	e1a02312 	lsl	r2, r2, r3
  102e00:	e51b300c 	ldr	r3, [fp, #-12]
  102e04:	e0022003 	and	r2, r2, r3
  102e08:	e51b3008 	ldr	r3, [fp, #-8]
  102e0c:	e3a01001 	mov	r1, #1
  102e10:	e1a03311 	lsl	r3, r1, r3
  102e14:	e1520003 	cmp	r2, r3
  102e18:	1afffff0 	bne	102de0 <axi_dmac_transfer+0x1f4>
  102e1c:	e3a03000 	mov	r3, #0
  102e20:	e1a00003 	mov	r0, r3
  102e24:	e24bd004 	sub	sp, fp, #4
  102e28:	e8bd8800 	pop	{fp, pc}

00102e2c <axi_dmac_init>:
  102e2c:	e92d4800 	push	{fp, lr}
  102e30:	e28db004 	add	fp, sp, #4
  102e34:	e24dd010 	sub	sp, sp, #16
  102e38:	e50b0010 	str	r0, [fp, #-16]
  102e3c:	e50b1014 	str	r1, [fp, #-20]	; 0xffffffec
  102e40:	e3a00010 	mov	r0, #16
  102e44:	eb004dfd 	bl	116640 <malloc>
  102e48:	e1a03000 	mov	r3, r0
  102e4c:	e50b3008 	str	r3, [fp, #-8]
  102e50:	e51b3008 	ldr	r3, [fp, #-8]
  102e54:	e3530000 	cmp	r3, #0
  102e58:	1a000001 	bne	102e64 <axi_dmac_init+0x38>
  102e5c:	e3e03000 	mvn	r3, #0
  102e60:	ea000013 	b	102eb4 <axi_dmac_init+0x88>
  102e64:	e51b3014 	ldr	r3, [fp, #-20]	; 0xffffffec
  102e68:	e5932000 	ldr	r2, [r3]
  102e6c:	e51b3008 	ldr	r3, [fp, #-8]
  102e70:	e5832000 	str	r2, [r3]
  102e74:	e51b3014 	ldr	r3, [fp, #-20]	; 0xffffffec
  102e78:	e5932004 	ldr	r2, [r3, #4]
  102e7c:	e51b3008 	ldr	r3, [fp, #-8]
  102e80:	e5832004 	str	r2, [r3, #4]
  102e84:	e51b3014 	ldr	r3, [fp, #-20]	; 0xffffffec
  102e88:	e5d32008 	ldrb	r2, [r3, #8]
  102e8c:	e51b3008 	ldr	r3, [fp, #-8]
  102e90:	e5c32008 	strb	r2, [r3, #8]
  102e94:	e51b3014 	ldr	r3, [fp, #-20]	; 0xffffffec
  102e98:	e593200c 	ldr	r2, [r3, #12]
  102e9c:	e51b3008 	ldr	r3, [fp, #-8]
  102ea0:	e583200c 	str	r2, [r3, #12]
  102ea4:	e51b3010 	ldr	r3, [fp, #-16]
  102ea8:	e51b2008 	ldr	r2, [fp, #-8]
  102eac:	e5832000 	str	r2, [r3]
  102eb0:	e3a03000 	mov	r3, #0
  102eb4:	e1a00003 	mov	r0, r3
  102eb8:	e24bd004 	sub	sp, fp, #4
  102ebc:	e8bd8800 	pop	{fp, pc}

00102ec0 <axi_wait>:
  102ec0:	e92d4800 	push	{fp, lr}
  102ec4:	e28db004 	add	fp, sp, #4
  102ec8:	e24dd010 	sub	sp, sp, #16
  102ecc:	e50b0010 	str	r0, [fp, #-16]
  102ed0:	e24b3008 	sub	r3, fp, #8
  102ed4:	e1a02003 	mov	r2, r3
  102ed8:	e3001404 	movw	r1, #1028	; 0x404
  102edc:	e51b0010 	ldr	r0, [fp, #-16]
  102ee0:	ebffff21 	bl	102b6c <axi_dmac_read>
  102ee4:	e24b300c 	sub	r3, fp, #12
  102ee8:	e1a02003 	mov	r2, r3
  102eec:	e3001408 	movw	r1, #1032	; 0x408
  102ef0:	e51b0010 	ldr	r0, [fp, #-16]
  102ef4:	ebffff1c 	bl	102b6c <axi_dmac_read>
  102ef8:	e51b300c 	ldr	r3, [fp, #-12]
  102efc:	e3530001 	cmp	r3, #1
  102f00:	0afffff7 	beq	102ee4 <axi_wait+0x24>
  102f04:	e24b300c 	sub	r3, fp, #12
  102f08:	e1a02003 	mov	r2, r3
  102f0c:	e3a01084 	mov	r1, #132	; 0x84
  102f10:	e51b0010 	ldr	r0, [fp, #-16]
  102f14:	ebffff14 	bl	102b6c <axi_dmac_read>
  102f18:	e51b300c 	ldr	r3, [fp, #-12]
  102f1c:	e3530003 	cmp	r3, #3
  102f20:	1afffff7 	bne	102f04 <axi_wait+0x44>
  102f24:	e320f000 	nop	{0}
  102f28:	e24bd004 	sub	sp, fp, #4
  102f2c:	e8bd8800 	pop	{fp, pc}

00102f30 <axi_dmac_remove>:
  102f30:	e92d4800 	push	{fp, lr}
  102f34:	e28db004 	add	fp, sp, #4
  102f38:	e24dd008 	sub	sp, sp, #8
  102f3c:	e50b0008 	str	r0, [fp, #-8]
  102f40:	e51b3008 	ldr	r3, [fp, #-8]
  102f44:	e3530000 	cmp	r3, #0
  102f48:	1a000001 	bne	102f54 <axi_dmac_remove+0x24>
  102f4c:	e3e03000 	mvn	r3, #0
  102f50:	ea000002 	b	102f60 <axi_dmac_remove+0x30>
  102f54:	e51b0008 	ldr	r0, [fp, #-8]
  102f58:	eb004dbe 	bl	116658 <free>
  102f5c:	e3a03000 	mov	r3, #0
  102f60:	e1a00003 	mov	r0, r3
  102f64:	e24bd004 	sub	sp, fp, #4
  102f68:	e8bd8800 	pop	{fp, pc}

00102f6c <axi_io_read>:
  102f6c:	e52db004 	push	{fp}		; (str fp, [sp, #-4]!)
  102f70:	e28db000 	add	fp, sp, #0
  102f74:	e24dd014 	sub	sp, sp, #20
  102f78:	e50b0008 	str	r0, [fp, #-8]
  102f7c:	e50b100c 	str	r1, [fp, #-12]
  102f80:	e50b2010 	str	r2, [fp, #-16]
  102f84:	e51b2008 	ldr	r2, [fp, #-8]
  102f88:	e51b300c 	ldr	r3, [fp, #-12]
  102f8c:	e0823003 	add	r3, r2, r3
  102f90:	e5932000 	ldr	r2, [r3]
  102f94:	e51b3010 	ldr	r3, [fp, #-16]
  102f98:	e5832000 	str	r2, [r3]
  102f9c:	e3a03000 	mov	r3, #0
  102fa0:	e1a00003 	mov	r0, r3
  102fa4:	e24bd000 	sub	sp, fp, #0
  102fa8:	e49db004 	pop	{fp}		; (ldr fp, [sp], #4)
  102fac:	e12fff1e 	bx	lr

00102fb0 <axi_io_write>:
  102fb0:	e52db004 	push	{fp}		; (str fp, [sp, #-4]!)
  102fb4:	e28db000 	add	fp, sp, #0
  102fb8:	e24dd014 	sub	sp, sp, #20
  102fbc:	e50b0008 	str	r0, [fp, #-8]
  102fc0:	e50b100c 	str	r1, [fp, #-12]
  102fc4:	e50b2010 	str	r2, [fp, #-16]
  102fc8:	e51b2008 	ldr	r2, [fp, #-8]
  102fcc:	e51b300c 	ldr	r3, [fp, #-12]
  102fd0:	e0823003 	add	r3, r2, r3
  102fd4:	e1a02003 	mov	r2, r3
  102fd8:	e51b3010 	ldr	r3, [fp, #-16]
  102fdc:	e5823000 	str	r3, [r2]
  102fe0:	e3a03000 	mov	r3, #0
  102fe4:	e1a00003 	mov	r0, r3
  102fe8:	e24bd000 	sub	sp, fp, #0
  102fec:	e49db004 	pop	{fp}		; (ldr fp, [sp], #4)
  102ff0:	e12fff1e 	bx	lr

00102ff4 <_close>:
  102ff4:	e52db004 	push	{fp}		; (str fp, [sp, #-4]!)
  102ff8:	e28db000 	add	fp, sp, #0
  102ffc:	e24dd00c 	sub	sp, sp, #12
  103000:	e50b0008 	str	r0, [fp, #-8]
  103004:	e51b3008 	ldr	r3, [fp, #-8]
  103008:	e3530001 	cmp	r3, #1
  10300c:	1a000001 	bne	103018 <_close+0x24>
  103010:	e3a03000 	mov	r3, #0
  103014:	ea000000 	b	10301c <_close+0x28>
  103018:	e3e03000 	mvn	r3, #0
  10301c:	e1a00003 	mov	r0, r3
  103020:	e24bd000 	sub	sp, fp, #0
  103024:	e49db004 	pop	{fp}		; (ldr fp, [sp], #4)
  103028:	e12fff1e 	bx	lr

0010302c <_fstat>:
  10302c:	e52db004 	push	{fp}		; (str fp, [sp, #-4]!)
  103030:	e28db000 	add	fp, sp, #0
  103034:	e24dd00c 	sub	sp, sp, #12
  103038:	e50b0008 	str	r0, [fp, #-8]
  10303c:	e50b100c 	str	r1, [fp, #-12]
  103040:	e51b3008 	ldr	r3, [fp, #-8]
  103044:	e3530001 	cmp	r3, #1
  103048:	1a000001 	bne	103054 <_fstat+0x28>
  10304c:	e3a03000 	mov	r3, #0
  103050:	ea000000 	b	103058 <_fstat+0x2c>
  103054:	e3e03000 	mvn	r3, #0
  103058:	e1a00003 	mov	r0, r3
  10305c:	e24bd000 	sub	sp, fp, #0
  103060:	e49db004 	pop	{fp}		; (ldr fp, [sp], #4)
  103064:	e12fff1e 	bx	lr

00103068 <_isatty>:
  103068:	e52db004 	push	{fp}		; (str fp, [sp, #-4]!)
  10306c:	e28db000 	add	fp, sp, #0
  103070:	e24dd00c 	sub	sp, sp, #12
  103074:	e50b0008 	str	r0, [fp, #-8]
  103078:	e51b3008 	ldr	r3, [fp, #-8]
  10307c:	e3530001 	cmp	r3, #1
  103080:	1a000001 	bne	10308c <_isatty+0x24>
  103084:	e3a03001 	mov	r3, #1
  103088:	ea000000 	b	103090 <_isatty+0x28>
  10308c:	e3e03000 	mvn	r3, #0
  103090:	e1a00003 	mov	r0, r3
  103094:	e24bd000 	sub	sp, fp, #0
  103098:	e49db004 	pop	{fp}		; (ldr fp, [sp], #4)
  10309c:	e12fff1e 	bx	lr

001030a0 <_lseek>:
  1030a0:	e52db004 	push	{fp}		; (str fp, [sp, #-4]!)
  1030a4:	e28db000 	add	fp, sp, #0
  1030a8:	e24dd014 	sub	sp, sp, #20
  1030ac:	e50b0008 	str	r0, [fp, #-8]
  1030b0:	e50b100c 	str	r1, [fp, #-12]
  1030b4:	e50b2010 	str	r2, [fp, #-16]
  1030b8:	e51b3008 	ldr	r3, [fp, #-8]
  1030bc:	e3530001 	cmp	r3, #1
  1030c0:	1a000001 	bne	1030cc <_lseek+0x2c>
  1030c4:	e3a03000 	mov	r3, #0
  1030c8:	ea000000 	b	1030d0 <_lseek+0x30>
  1030cc:	e3e03000 	mvn	r3, #0
  1030d0:	e1a00003 	mov	r0, r3
  1030d4:	e24bd000 	sub	sp, fp, #0
  1030d8:	e49db004 	pop	{fp}		; (ldr fp, [sp], #4)
  1030dc:	e12fff1e 	bx	lr

001030e0 <_read>:
  1030e0:	e52db004 	push	{fp}		; (str fp, [sp, #-4]!)
  1030e4:	e28db000 	add	fp, sp, #0
  1030e8:	e24dd014 	sub	sp, sp, #20
  1030ec:	e50b0008 	str	r0, [fp, #-8]
  1030f0:	e50b100c 	str	r1, [fp, #-12]
  1030f4:	e50b2010 	str	r2, [fp, #-16]
  1030f8:	e3e03000 	mvn	r3, #0
  1030fc:	e1a00003 	mov	r0, r3
  103100:	e24bd000 	sub	sp, fp, #0
  103104:	e49db004 	pop	{fp}		; (ldr fp, [sp], #4)
  103108:	e12fff1e 	bx	lr

0010310c <_write>:
  10310c:	e52db004 	push	{fp}		; (str fp, [sp, #-4]!)
  103110:	e28db000 	add	fp, sp, #0
  103114:	e24dd01c 	sub	sp, sp, #28
  103118:	e50b0010 	str	r0, [fp, #-16]
  10311c:	e50b1014 	str	r1, [fp, #-20]	; 0xffffffec
  103120:	e50b2018 	str	r2, [fp, #-24]	; 0xffffffe8
  103124:	e50b301c 	str	r3, [fp, #-28]	; 0xffffffe4
  103128:	e51b3010 	ldr	r3, [fp, #-16]
  10312c:	e3530001 	cmp	r3, #1
  103130:	0a000001 	beq	10313c <_write+0x30>
  103134:	e3e03000 	mvn	r3, #0
  103138:	ea000019 	b	1031a4 <_write+0x98>
  10313c:	e3a03000 	mov	r3, #0
  103140:	e50b3008 	str	r3, [fp, #-8]
  103144:	ea000011 	b	103190 <_write+0x84>
  103148:	e320f000 	nop	{0}
  10314c:	e3023014 	movw	r3, #8212	; 0x2014
  103150:	e34f3fc0 	movt	r3, #65472	; 0xffc0
  103154:	e5933000 	ldr	r3, [r3]
  103158:	e1a032a3 	lsr	r3, r3, #5
  10315c:	e2033001 	and	r3, r3, #1
  103160:	e3530001 	cmp	r3, #1
  103164:	1afffff8 	bne	10314c <_write+0x40>
  103168:	e3a03a02 	mov	r3, #8192	; 0x2000
  10316c:	e34f3fc0 	movt	r3, #65472	; 0xffc0
  103170:	e51b2008 	ldr	r2, [fp, #-8]
  103174:	e51b1014 	ldr	r1, [fp, #-20]	; 0xffffffec
  103178:	e0812002 	add	r2, r1, r2
  10317c:	e5d22000 	ldrb	r2, [r2]
  103180:	e5832000 	str	r2, [r3]
  103184:	e51b3008 	ldr	r3, [fp, #-8]
  103188:	e2833001 	add	r3, r3, #1
  10318c:	e50b3008 	str	r3, [fp, #-8]
  103190:	e51b2008 	ldr	r2, [fp, #-8]
  103194:	e51b3018 	ldr	r3, [fp, #-24]	; 0xffffffe8
  103198:	e1520003 	cmp	r2, r3
  10319c:	3affffe9 	bcc	103148 <_write+0x3c>
  1031a0:	e51b3018 	ldr	r3, [fp, #-24]	; 0xffffffe8
  1031a4:	e1a00003 	mov	r0, r3
  1031a8:	e24bd000 	sub	sp, fp, #0
  1031ac:	e49db004 	pop	{fp}		; (ldr fp, [sp], #4)
  1031b0:	e12fff1e 	bx	lr

001031b4 <enable_all_caches>:
  1031b4:	e52de004 	push	{lr}		; (str lr, [sp, #-4]!)
  1031b8:	eb000005 	bl	1031d4 <enable_MMU>
  1031bc:	eb000050 	bl	103304 <initialize_L2C>
  1031c0:	eb00009f 	bl	103444 <enable_L1_D_side_prefetch>
  1031c4:	eb0000a2 	bl	103454 <enable_L2_prefetch_hint>
  1031c8:	eb0000b1 	bl	103494 <enable_SCU>
  1031cc:	eb000065 	bl	103368 <enable_caches>
  1031d0:	e49df004 	pop	{pc}		; (ldr pc, [sp], #4)

001031d4 <enable_MMU>:
  1031d4:	e92d4eb0 	push	{r4, r5, r7, r9, sl, fp, lr}
  1031d8:	e59f0378 	ldr	r0, [pc, #888]	; 103558 <invalidate_and_flush+0x9c>
  1031dc:	e3a01000 	mov	r1, #0
  1031e0:	e5801100 	str	r1, [r0, #256]	; 0x100
  1031e4:	ee110f10 	mrc	15, 0, r0, cr1, cr0, {0}
  1031e8:	e3c00a01 	bic	r0, r0, #4096	; 0x1000
  1031ec:	e3c00004 	bic	r0, r0, #4
  1031f0:	e3c00001 	bic	r0, r0, #1
  1031f4:	e3c00b02 	bic	r0, r0, #2048	; 0x800
  1031f8:	ee010f10 	mcr	15, 0, r0, cr1, cr0, {0}
  1031fc:	e3a00000 	mov	r0, #0
  103200:	ee080f17 	mcr	15, 0, r0, cr8, cr7, {0}
  103204:	ee070fd5 	mcr	15, 0, r0, cr7, cr5, {6}
  103208:	ee300f30 	mrc	15, 1, r0, cr0, cr0, {1}
  10320c:	e3100003 	tst	r0, #3
  103210:	e3a00000 	mov	r0, #0
  103214:	1e070f15 	mcrne	15, 0, r0, cr7, cr5, {0}
  103218:	ee300f30 	mrc	15, 1, r0, cr0, cr0, {1}
  10321c:	e2103407 	ands	r3, r0, #117440512	; 0x7000000
  103220:	e1a03ba3 	lsr	r3, r3, #23
  103224:	0a00001a 	beq	103294 <Finished>
  103228:	e3a0a000 	mov	sl, #0

0010322c <Loop1>:
  10322c:	e08a20aa 	add	r2, sl, sl, lsr #1
  103230:	e1a01230 	lsr	r1, r0, r2
  103234:	e2011007 	and	r1, r1, #7
  103238:	e3510002 	cmp	r1, #2
  10323c:	ba000011 	blt	103288 <Skip>
  103240:	ee40af10 	mcr	15, 2, sl, cr0, cr0, {0}
  103244:	f57ff06f 	isb	sy
  103248:	ee301f10 	mrc	15, 1, r1, cr0, cr0, {0}
  10324c:	e2012007 	and	r2, r1, #7
  103250:	e2822004 	add	r2, r2, #4
  103254:	e59f4300 	ldr	r4, [pc, #768]	; 10355c <invalidate_and_flush+0xa0>
  103258:	e01441a1 	ands	r4, r4, r1, lsr #3
  10325c:	e16f5f14 	clz	r5, r4
  103260:	e59f72f8 	ldr	r7, [pc, #760]	; 103560 <invalidate_and_flush+0xa4>
  103264:	e01776a1 	ands	r7, r7, r1, lsr #13

00103268 <Loop2>:
  103268:	e1a09004 	mov	r9, r4

0010326c <Loop3>:
  10326c:	e18ab519 	orr	fp, sl, r9, lsl r5
  103270:	e18bb217 	orr	fp, fp, r7, lsl r2
  103274:	ee07bf56 	mcr	15, 0, fp, cr7, cr6, {2}
  103278:	e2599001 	subs	r9, r9, #1
  10327c:	aafffffa 	bge	10326c <Loop3>
  103280:	e2577001 	subs	r7, r7, #1
  103284:	aafffff7 	bge	103268 <Loop2>

00103288 <Skip>:
  103288:	e28aa002 	add	sl, sl, #2
  10328c:	e153000a 	cmp	r3, sl
  103290:	caffffe5 	bgt	10322c <Loop1>

00103294 <Finished>:
  103294:	e3a00000 	mov	r0, #0
  103298:	ee070fd5 	mcr	15, 0, r0, cr7, cr5, {6}
  10329c:	e3a00000 	mov	r0, #0
  1032a0:	ee020f50 	mcr	15, 0, r0, cr2, cr0, {2}
  1032a4:	e59f02b8 	ldr	r0, [pc, #696]	; 103564 <invalidate_and_flush+0xa8>
  1032a8:	e3a01008 	mov	r1, #8
  1032ac:	e3811040 	orr	r1, r1, #64	; 0x40
  1032b0:	e1800001 	orr	r0, r0, r1
  1032b4:	ee020f10 	mcr	15, 0, r0, cr2, cr0, {0}
  1032b8:	e59f02a4 	ldr	r0, [pc, #676]	; 103564 <invalidate_and_flush+0xa8>
  1032bc:	e59f12a4 	ldr	r1, [pc, #676]	; 103568 <invalidate_and_flush+0xac>

001032c0 <init_ttb_1>:
  1032c0:	e3510b02 	cmp	r1, #2048	; 0x800
  1032c4:	459f22a0 	ldrmi	r2, [pc, #672]	; 10356c <invalidate_and_flush+0xb0>
  1032c8:	559f22a0 	ldrpl	r2, [pc, #672]	; 103570 <invalidate_and_flush+0xb4>
  1032cc:	e1823a01 	orr	r3, r2, r1, lsl #20
  1032d0:	e7803101 	str	r3, [r0, r1, lsl #2]
  1032d4:	e2511001 	subs	r1, r1, #1
  1032d8:	5afffff8 	bpl	1032c0 <init_ttb_1>
  1032dc:	ee130f10 	mrc	15, 0, r0, cr3, cr0, {0}
  1032e0:	e3e00000 	mvn	r0, #0
  1032e4:	ee030f10 	mcr	15, 0, r0, cr3, cr0, {0}
  1032e8:	ee110f10 	mrc	15, 0, r0, cr1, cr0, {0}
  1032ec:	e3c00a01 	bic	r0, r0, #4096	; 0x1000
  1032f0:	e3c00004 	bic	r0, r0, #4
  1032f4:	e3c00002 	bic	r0, r0, #2
  1032f8:	e3800001 	orr	r0, r0, #1
  1032fc:	ee010f10 	mcr	15, 0, r0, cr1, cr0, {0}
  103300:	e8bd8eb0 	pop	{r4, r5, r7, r9, sl, fp, pc}

00103304 <initialize_L2C>:
  103304:	e59f024c 	ldr	r0, [pc, #588]	; 103558 <invalidate_and_flush+0x9c>
  103308:	e3a01000 	mov	r1, #0
  10330c:	e5801100 	str	r1, [r0, #256]	; 0x100
  103310:	e3a01806 	mov	r1, #393216	; 0x60000
  103314:	e3811202 	orr	r1, r1, #536870912	; 0x20000000
  103318:	e3811201 	orr	r1, r1, #268435456	; 0x10000000
  10331c:	e5801104 	str	r1, [r0, #260]	; 0x104
  103320:	e3a01000 	mov	r1, #0
  103324:	e5801108 	str	r1, [r0, #264]	; 0x108
  103328:	e3a01000 	mov	r1, #0
  10332c:	e580110c 	str	r1, [r0, #268]	; 0x10c
  103330:	e3a010ff 	mov	r1, #255	; 0xff
  103334:	e580177c 	str	r1, [r0, #1916]	; 0x77c

00103338 <poll_invalidate>:
  103338:	e590177c 	ldr	r1, [r0, #1916]	; 0x77c
  10333c:	e3110001 	tst	r1, #1
  103340:	1afffffc 	bne	103338 <poll_invalidate>
  103344:	e3a01007 	mov	r1, #7
  103348:	e5801200 	str	r1, [r0, #512]	; 0x200
  10334c:	e3a01008 	mov	r1, #8
  103350:	e5801204 	str	r1, [r0, #516]	; 0x204
  103354:	e3a0100c 	mov	r1, #12
  103358:	e5801208 	str	r1, [r0, #520]	; 0x208
  10335c:	e3a01000 	mov	r1, #0
  103360:	e5801100 	str	r1, [r0, #256]	; 0x100
  103364:	e12fff1e 	bx	lr

00103368 <enable_caches>:
  103368:	ee110f10 	mrc	15, 0, r0, cr1, cr0, {0}
  10336c:	e3800a01 	orr	r0, r0, #4096	; 0x1000
  103370:	e3800004 	orr	r0, r0, #4
  103374:	e3800b02 	orr	r0, r0, #2048	; 0x800
  103378:	ee010f10 	mcr	15, 0, r0, cr1, cr0, {0}
  10337c:	e59f01d4 	ldr	r0, [pc, #468]	; 103558 <invalidate_and_flush+0x9c>
  103380:	e3a01001 	mov	r1, #1
  103384:	e5801100 	str	r1, [r0, #256]	; 0x100
  103388:	e12fff1e 	bx	lr

0010338c <enable_L1_D>:
  10338c:	ee110f10 	mrc	15, 0, r0, cr1, cr0, {0}
  103390:	e3800004 	orr	r0, r0, #4
  103394:	ee010f10 	mcr	15, 0, r0, cr1, cr0, {0}
  103398:	e12fff1e 	bx	lr

0010339c <enable_L1_I>:
  10339c:	ee110f10 	mrc	15, 0, r0, cr1, cr0, {0}
  1033a0:	e3800a01 	orr	r0, r0, #4096	; 0x1000
  1033a4:	ee010f10 	mcr	15, 0, r0, cr1, cr0, {0}
  1033a8:	e12fff1e 	bx	lr

001033ac <enable_branch_prediction>:
  1033ac:	ee110f10 	mrc	15, 0, r0, cr1, cr0, {0}
  1033b0:	e3800b02 	orr	r0, r0, #2048	; 0x800
  1033b4:	ee010f10 	mcr	15, 0, r0, cr1, cr0, {0}
  1033b8:	e12fff1e 	bx	lr

001033bc <enable_L2>:
  1033bc:	e59f0194 	ldr	r0, [pc, #404]	; 103558 <invalidate_and_flush+0x9c>
  1033c0:	e3a01001 	mov	r1, #1
  1033c4:	e5801100 	str	r1, [r0, #256]	; 0x100
  1033c8:	e12fff1e 	bx	lr

001033cc <enable_store_buffer_device_limitation>:
  1033cc:	e59f0184 	ldr	r0, [pc, #388]	; 103558 <invalidate_and_flush+0x9c>
  1033d0:	e3a01000 	mov	r1, #0
  1033d4:	e5801100 	str	r1, [r0, #256]	; 0x100
  1033d8:	e5901104 	ldr	r1, [r0, #260]	; 0x104
  1033dc:	e3811b02 	orr	r1, r1, #2048	; 0x800
  1033e0:	e5801104 	str	r1, [r0, #260]	; 0x104
  1033e4:	e3a01001 	mov	r1, #1
  1033e8:	e5801100 	str	r1, [r0, #256]	; 0x100
  1033ec:	e12fff1e 	bx	lr

001033f0 <enable_early_BRESP>:
  1033f0:	e59f0160 	ldr	r0, [pc, #352]	; 103558 <invalidate_and_flush+0x9c>
  1033f4:	e3a01000 	mov	r1, #0
  1033f8:	e5801100 	str	r1, [r0, #256]	; 0x100
  1033fc:	e5901104 	ldr	r1, [r0, #260]	; 0x104
  103400:	e3811101 	orr	r1, r1, #1073741824	; 0x40000000
  103404:	e5801104 	str	r1, [r0, #260]	; 0x104
  103408:	e3a01001 	mov	r1, #1
  10340c:	e5801100 	str	r1, [r0, #256]	; 0x100
  103410:	e12fff1e 	bx	lr

00103414 <enable_write_full_line_zeros>:
  103414:	e59f013c 	ldr	r0, [pc, #316]	; 103558 <invalidate_and_flush+0x9c>
  103418:	e3a01000 	mov	r1, #0
  10341c:	e5801100 	str	r1, [r0, #256]	; 0x100
  103420:	e5901104 	ldr	r1, [r0, #260]	; 0x104
  103424:	e3811101 	orr	r1, r1, #1073741824	; 0x40000000
  103428:	e5801104 	str	r1, [r0, #260]	; 0x104
  10342c:	e3a01001 	mov	r1, #1
  103430:	e5801100 	str	r1, [r0, #256]	; 0x100
  103434:	ee110f30 	mrc	15, 0, r0, cr1, cr0, {1}
  103438:	e3800008 	orr	r0, r0, #8
  10343c:	ee010f30 	mcr	15, 0, r0, cr1, cr0, {1}
  103440:	e12fff1e 	bx	lr

00103444 <enable_L1_D_side_prefetch>:
  103444:	ee110f30 	mrc	15, 0, r0, cr1, cr0, {1}
  103448:	e3800004 	orr	r0, r0, #4
  10344c:	ee010f30 	mcr	15, 0, r0, cr1, cr0, {1}
  103450:	e12fff1e 	bx	lr

00103454 <enable_L2_prefetch_hint>:
  103454:	ee110f30 	mrc	15, 0, r0, cr1, cr0, {1}
  103458:	e3800002 	orr	r0, r0, #2
  10345c:	ee010f30 	mcr	15, 0, r0, cr1, cr0, {1}
  103460:	e12fff1e 	bx	lr

00103464 <enable_exclusive_caching>:
  103464:	e59f00ec 	ldr	r0, [pc, #236]	; 103558 <invalidate_and_flush+0x9c>
  103468:	e3a01000 	mov	r1, #0
  10346c:	e5801100 	str	r1, [r0, #256]	; 0x100
  103470:	e5901104 	ldr	r1, [r0, #260]	; 0x104
  103474:	e3811a01 	orr	r1, r1, #4096	; 0x1000
  103478:	e5801104 	str	r1, [r0, #260]	; 0x104
  10347c:	e3a01001 	mov	r1, #1
  103480:	e5801100 	str	r1, [r0, #256]	; 0x100
  103484:	ee110f30 	mrc	15, 0, r0, cr1, cr0, {1}
  103488:	e3800080 	orr	r0, r0, #128	; 0x80
  10348c:	ee010f30 	mcr	15, 0, r0, cr1, cr0, {1}
  103490:	e12fff1e 	bx	lr

00103494 <enable_SCU>:
  103494:	ee9f0f10 	mrc	15, 4, r0, cr15, cr0, {0}
  103498:	e5901000 	ldr	r1, [r0]
  10349c:	e3811001 	orr	r1, r1, #1
  1034a0:	e5801000 	str	r1, [r0]
  1034a4:	e12fff1e 	bx	lr

001034a8 <enable_L2_speculative_linefill>:
  1034a8:	ee9f0f10 	mrc	15, 4, r0, cr15, cr0, {0}
  1034ac:	e5901000 	ldr	r1, [r0]
  1034b0:	e3811008 	orr	r1, r1, #8
  1034b4:	e5801000 	str	r1, [r0]
  1034b8:	e12fff1e 	bx	lr

001034bc <invalidate_and_flush>:
  1034bc:	e92d4eb0 	push	{r4, r5, r7, r9, sl, fp, lr}
  1034c0:	e3a00000 	mov	r0, #0
  1034c4:	ee070fd5 	mcr	15, 0, r0, cr7, cr5, {6}
  1034c8:	ee300f30 	mrc	15, 1, r0, cr0, cr0, {1}
  1034cc:	e3a00000 	mov	r0, #0
  1034d0:	ee070f15 	mcr	15, 0, r0, cr7, cr5, {0}
  1034d4:	ee300f30 	mrc	15, 1, r0, cr0, cr0, {1}
  1034d8:	e2103407 	ands	r3, r0, #117440512	; 0x7000000
  1034dc:	e1a03ba3 	lsr	r3, r3, #23
  1034e0:	0a00001a 	beq	103550 <invalidate_and_flush+0x94>
  1034e4:	e3a0a000 	mov	sl, #0
  1034e8:	e08a20aa 	add	r2, sl, sl, lsr #1
  1034ec:	e1a01230 	lsr	r1, r0, r2
  1034f0:	e2011007 	and	r1, r1, #7
  1034f4:	e3510002 	cmp	r1, #2
  1034f8:	ba000011 	blt	103544 <invalidate_and_flush+0x88>
  1034fc:	ee40af10 	mcr	15, 2, sl, cr0, cr0, {0}
  103500:	f57ff06f 	isb	sy
  103504:	ee301f10 	mrc	15, 1, r1, cr0, cr0, {0}
  103508:	e2012007 	and	r2, r1, #7
  10350c:	e2822004 	add	r2, r2, #4
  103510:	e59f4044 	ldr	r4, [pc, #68]	; 10355c <invalidate_and_flush+0xa0>
  103514:	e01441a1 	ands	r4, r4, r1, lsr #3
  103518:	e16f5f14 	clz	r5, r4
  10351c:	e59f703c 	ldr	r7, [pc, #60]	; 103560 <invalidate_and_flush+0xa4>
  103520:	e01776a1 	ands	r7, r7, r1, lsr #13
  103524:	e1a09004 	mov	r9, r4
  103528:	e18ab519 	orr	fp, sl, r9, lsl r5
  10352c:	e18bb217 	orr	fp, fp, r7, lsl r2
  103530:	ee07bf56 	mcr	15, 0, fp, cr7, cr6, {2}
  103534:	e2599001 	subs	r9, r9, #1
  103538:	aafffffa 	bge	103528 <invalidate_and_flush+0x6c>
  10353c:	e2577001 	subs	r7, r7, #1
  103540:	aafffff7 	bge	103524 <invalidate_and_flush+0x68>
  103544:	e28aa002 	add	sl, sl, #2
  103548:	e153000a 	cmp	r3, sl
  10354c:	caffffe5 	bgt	1034e8 <invalidate_and_flush+0x2c>
  103550:	f57ff04f 	dsb	sy
  103554:	e8bd8eb0 	pop	{r4, r5, r7, r9, sl, fp, pc}
  103558:	fffef000 	.word	0xfffef000
  10355c:	000003ff 	.word	0x000003ff
  103560:	00007fff 	.word	0x00007fff
  103564:	00128000 	.word	0x00128000
  103568:	00000fff 	.word	0x00000fff
  10356c:	00017c0e 	.word	0x00017c0e
  103570:	00002c02 	.word	0x00002c02

00103574 <construct_standard_st_to_mm_descriptor>:
  103574:	e52db004 	push	{fp}		; (str fp, [sp, #-4]!)
  103578:	e28db000 	add	fp, sp, #0
  10357c:	e24dd014 	sub	sp, sp, #20
  103580:	e50b0008 	str	r0, [fp, #-8]
  103584:	e50b100c 	str	r1, [fp, #-12]
  103588:	e50b2010 	str	r2, [fp, #-16]
  10358c:	e50b3014 	str	r3, [fp, #-20]	; 0xffffffec
  103590:	e51b3008 	ldr	r3, [fp, #-8]
  103594:	e3a02000 	mov	r2, #0
  103598:	e5832000 	str	r2, [r3]
  10359c:	e51b3008 	ldr	r3, [fp, #-8]
  1035a0:	e51b200c 	ldr	r2, [fp, #-12]
  1035a4:	e5832004 	str	r2, [r3, #4]
  1035a8:	e51b3008 	ldr	r3, [fp, #-8]
  1035ac:	e51b2010 	ldr	r2, [fp, #-16]
  1035b0:	e5832008 	str	r2, [r3, #8]
  1035b4:	e51b3014 	ldr	r3, [fp, #-20]	; 0xffffffec
  1035b8:	e3832102 	orr	r2, r3, #-2147483648	; 0x80000000
  1035bc:	e51b3008 	ldr	r3, [fp, #-8]
  1035c0:	e583200c 	str	r2, [r3, #12]
  1035c4:	e3a03000 	mov	r3, #0
  1035c8:	e1a00003 	mov	r0, r3
  1035cc:	e24bd000 	sub	sp, fp, #0
  1035d0:	e49db004 	pop	{fp}		; (ldr fp, [sp], #4)
  1035d4:	e12fff1e 	bx	lr

001035d8 <construct_standard_mm_to_st_descriptor>:
  1035d8:	e52db004 	push	{fp}		; (str fp, [sp, #-4]!)
  1035dc:	e28db000 	add	fp, sp, #0
  1035e0:	e24dd014 	sub	sp, sp, #20
  1035e4:	e50b0008 	str	r0, [fp, #-8]
  1035e8:	e50b100c 	str	r1, [fp, #-12]
  1035ec:	e50b2010 	str	r2, [fp, #-16]
  1035f0:	e50b3014 	str	r3, [fp, #-20]	; 0xffffffec
  1035f4:	e51b3008 	ldr	r3, [fp, #-8]
  1035f8:	e51b200c 	ldr	r2, [fp, #-12]
  1035fc:	e5832000 	str	r2, [r3]
  103600:	e51b3008 	ldr	r3, [fp, #-8]
  103604:	e3a02000 	mov	r2, #0
  103608:	e5832004 	str	r2, [r3, #4]
  10360c:	e51b3008 	ldr	r3, [fp, #-8]
  103610:	e51b2010 	ldr	r2, [fp, #-16]
  103614:	e5832008 	str	r2, [r3, #8]
  103618:	e51b3014 	ldr	r3, [fp, #-20]	; 0xffffffec
  10361c:	e3832102 	orr	r2, r3, #-2147483648	; 0x80000000
  103620:	e51b3008 	ldr	r3, [fp, #-8]
  103624:	e583200c 	str	r2, [r3, #12]
  103628:	e3a03000 	mov	r3, #0
  10362c:	e1a00003 	mov	r0, r3
  103630:	e24bd000 	sub	sp, fp, #0
  103634:	e49db004 	pop	{fp}		; (ldr fp, [sp], #4)
  103638:	e12fff1e 	bx	lr

0010363c <construct_standard_mm_to_mm_descriptor>:
  10363c:	e52db004 	push	{fp}		; (str fp, [sp, #-4]!)
  103640:	e28db000 	add	fp, sp, #0
  103644:	e24dd014 	sub	sp, sp, #20
  103648:	e50b0008 	str	r0, [fp, #-8]
  10364c:	e50b100c 	str	r1, [fp, #-12]
  103650:	e50b2010 	str	r2, [fp, #-16]
  103654:	e50b3014 	str	r3, [fp, #-20]	; 0xffffffec
  103658:	e51b3008 	ldr	r3, [fp, #-8]
  10365c:	e51b200c 	ldr	r2, [fp, #-12]
  103660:	e5832000 	str	r2, [r3]
  103664:	e51b3008 	ldr	r3, [fp, #-8]
  103668:	e51b2010 	ldr	r2, [fp, #-16]
  10366c:	e5832004 	str	r2, [r3, #4]
  103670:	e51b3008 	ldr	r3, [fp, #-8]
  103674:	e51b2014 	ldr	r2, [fp, #-20]	; 0xffffffec
  103678:	e5832008 	str	r2, [r3, #8]
  10367c:	e59b3004 	ldr	r3, [fp, #4]
  103680:	e3832102 	orr	r2, r3, #-2147483648	; 0x80000000
  103684:	e51b3008 	ldr	r3, [fp, #-8]
  103688:	e583200c 	str	r2, [r3, #12]
  10368c:	e3a03000 	mov	r3, #0
  103690:	e1a00003 	mov	r0, r3
  103694:	e24bd000 	sub	sp, fp, #0
  103698:	e49db004 	pop	{fp}		; (ldr fp, [sp], #4)
  10369c:	e12fff1e 	bx	lr

001036a0 <construct_extended_st_to_mm_descriptor>:
  1036a0:	e52db004 	push	{fp}		; (str fp, [sp, #-4]!)
  1036a4:	e28db000 	add	fp, sp, #0
  1036a8:	e24dd014 	sub	sp, sp, #20
  1036ac:	e50b0008 	str	r0, [fp, #-8]
  1036b0:	e50b100c 	str	r1, [fp, #-12]
  1036b4:	e50b2010 	str	r2, [fp, #-16]
  1036b8:	e50b3014 	str	r3, [fp, #-20]	; 0xffffffec
  1036bc:	e51b3008 	ldr	r3, [fp, #-8]
  1036c0:	e3a02000 	mov	r2, #0
  1036c4:	e5832000 	str	r2, [r3]
  1036c8:	e51b3008 	ldr	r3, [fp, #-8]
  1036cc:	e51b200c 	ldr	r2, [fp, #-12]
  1036d0:	e5832004 	str	r2, [r3, #4]
  1036d4:	e51b3008 	ldr	r3, [fp, #-8]
  1036d8:	e51b2010 	ldr	r2, [fp, #-16]
  1036dc:	e5832008 	str	r2, [r3, #8]
  1036e0:	e51b3008 	ldr	r3, [fp, #-8]
  1036e4:	e1db20b4 	ldrh	r2, [fp, #4]
  1036e8:	e1c320bc 	strh	r2, [r3, #12]
  1036ec:	e51b3008 	ldr	r3, [fp, #-8]
  1036f0:	e3a02000 	mov	r2, #0
  1036f4:	e5c3200e 	strb	r2, [r3, #14]
  1036f8:	e51b3008 	ldr	r3, [fp, #-8]
  1036fc:	e5db2008 	ldrb	r2, [fp, #8]
  103700:	e5c3200f 	strb	r2, [r3, #15]
  103704:	e51b3008 	ldr	r3, [fp, #-8]
  103708:	e3a02000 	mov	r2, #0
  10370c:	e1c321b0 	strh	r2, [r3, #16]
  103710:	e51b3008 	ldr	r3, [fp, #-8]
  103714:	e1db20bc 	ldrh	r2, [fp, #12]
  103718:	e1c321b2 	strh	r2, [r3, #18]
  10371c:	e51b3008 	ldr	r3, [fp, #-8]
  103720:	e3a02000 	mov	r2, #0
  103724:	e5832014 	str	r2, [r3, #20]
  103728:	e51b3008 	ldr	r3, [fp, #-8]
  10372c:	e3a02000 	mov	r2, #0
  103730:	e5832018 	str	r2, [r3, #24]
  103734:	e51b3014 	ldr	r3, [fp, #-20]	; 0xffffffec
  103738:	e3832102 	orr	r2, r3, #-2147483648	; 0x80000000
  10373c:	e51b3008 	ldr	r3, [fp, #-8]
  103740:	e583201c 	str	r2, [r3, #28]
  103744:	e3a03000 	mov	r3, #0
  103748:	e1a00003 	mov	r0, r3
  10374c:	e24bd000 	sub	sp, fp, #0
  103750:	e49db004 	pop	{fp}		; (ldr fp, [sp], #4)
  103754:	e12fff1e 	bx	lr

00103758 <construct_extended_st_to_mm_descriptor_64>:
  103758:	e52db004 	push	{fp}		; (str fp, [sp, #-4]!)
  10375c:	e28db000 	add	fp, sp, #0
  103760:	e24dd014 	sub	sp, sp, #20
  103764:	e50b0008 	str	r0, [fp, #-8]
  103768:	e50b100c 	str	r1, [fp, #-12]
  10376c:	e50b2010 	str	r2, [fp, #-16]
  103770:	e50b3014 	str	r3, [fp, #-20]	; 0xffffffec
  103774:	e51b3008 	ldr	r3, [fp, #-8]
  103778:	e3a02000 	mov	r2, #0
  10377c:	e5832000 	str	r2, [r3]
  103780:	e51b3008 	ldr	r3, [fp, #-8]
  103784:	e51b200c 	ldr	r2, [fp, #-12]
  103788:	e5832004 	str	r2, [r3, #4]
  10378c:	e51b3008 	ldr	r3, [fp, #-8]
  103790:	e51b2014 	ldr	r2, [fp, #-20]	; 0xffffffec
  103794:	e5832008 	str	r2, [r3, #8]
  103798:	e51b3008 	ldr	r3, [fp, #-8]
  10379c:	e1db20b8 	ldrh	r2, [fp, #8]
  1037a0:	e1c320bc 	strh	r2, [r3, #12]
  1037a4:	e51b3008 	ldr	r3, [fp, #-8]
  1037a8:	e3a02000 	mov	r2, #0
  1037ac:	e5c3200e 	strb	r2, [r3, #14]
  1037b0:	e51b3008 	ldr	r3, [fp, #-8]
  1037b4:	e5db200c 	ldrb	r2, [fp, #12]
  1037b8:	e5c3200f 	strb	r2, [r3, #15]
  1037bc:	e51b3008 	ldr	r3, [fp, #-8]
  1037c0:	e3a02000 	mov	r2, #0
  1037c4:	e1c321b0 	strh	r2, [r3, #16]
  1037c8:	e51b3008 	ldr	r3, [fp, #-8]
  1037cc:	e1db21b0 	ldrh	r2, [fp, #16]
  1037d0:	e1c321b2 	strh	r2, [r3, #18]
  1037d4:	e51b3008 	ldr	r3, [fp, #-8]
  1037d8:	e3a02000 	mov	r2, #0
  1037dc:	e5832014 	str	r2, [r3, #20]
  1037e0:	e51b3008 	ldr	r3, [fp, #-8]
  1037e4:	e51b2010 	ldr	r2, [fp, #-16]
  1037e8:	e5832018 	str	r2, [r3, #24]
  1037ec:	e59b3004 	ldr	r3, [fp, #4]
  1037f0:	e3832102 	orr	r2, r3, #-2147483648	; 0x80000000
  1037f4:	e51b3008 	ldr	r3, [fp, #-8]
  1037f8:	e583201c 	str	r2, [r3, #28]
  1037fc:	e3a03000 	mov	r3, #0
  103800:	e1a00003 	mov	r0, r3
  103804:	e24bd000 	sub	sp, fp, #0
  103808:	e49db004 	pop	{fp}		; (ldr fp, [sp], #4)
  10380c:	e12fff1e 	bx	lr

00103810 <construct_extended_mm_to_st_descriptor>:
  103810:	e52db004 	push	{fp}		; (str fp, [sp, #-4]!)
  103814:	e28db000 	add	fp, sp, #0
  103818:	e24dd014 	sub	sp, sp, #20
  10381c:	e50b0008 	str	r0, [fp, #-8]
  103820:	e50b100c 	str	r1, [fp, #-12]
  103824:	e50b2010 	str	r2, [fp, #-16]
  103828:	e50b3014 	str	r3, [fp, #-20]	; 0xffffffec
  10382c:	e51b3008 	ldr	r3, [fp, #-8]
  103830:	e51b200c 	ldr	r2, [fp, #-12]
  103834:	e5832000 	str	r2, [r3]
  103838:	e51b3008 	ldr	r3, [fp, #-8]
  10383c:	e3a02000 	mov	r2, #0
  103840:	e5832004 	str	r2, [r3, #4]
  103844:	e51b3008 	ldr	r3, [fp, #-8]
  103848:	e51b2010 	ldr	r2, [fp, #-16]
  10384c:	e5832008 	str	r2, [r3, #8]
  103850:	e51b3008 	ldr	r3, [fp, #-8]
  103854:	e1db20b4 	ldrh	r2, [fp, #4]
  103858:	e1c320bc 	strh	r2, [r3, #12]
  10385c:	e51b3008 	ldr	r3, [fp, #-8]
  103860:	e5db2008 	ldrb	r2, [fp, #8]
  103864:	e5c3200e 	strb	r2, [r3, #14]
  103868:	e51b3008 	ldr	r3, [fp, #-8]
  10386c:	e3a02000 	mov	r2, #0
  103870:	e5c3200f 	strb	r2, [r3, #15]
  103874:	e51b3008 	ldr	r3, [fp, #-8]
  103878:	e1db20bc 	ldrh	r2, [fp, #12]
  10387c:	e1c321b0 	strh	r2, [r3, #16]
  103880:	e51b3008 	ldr	r3, [fp, #-8]
  103884:	e3a02000 	mov	r2, #0
  103888:	e1c321b2 	strh	r2, [r3, #18]
  10388c:	e51b3008 	ldr	r3, [fp, #-8]
  103890:	e3a02000 	mov	r2, #0
  103894:	e5832014 	str	r2, [r3, #20]
  103898:	e51b3008 	ldr	r3, [fp, #-8]
  10389c:	e3a02000 	mov	r2, #0
  1038a0:	e5832018 	str	r2, [r3, #24]
  1038a4:	e51b3014 	ldr	r3, [fp, #-20]	; 0xffffffec
  1038a8:	e3832102 	orr	r2, r3, #-2147483648	; 0x80000000
  1038ac:	e51b3008 	ldr	r3, [fp, #-8]
  1038b0:	e583201c 	str	r2, [r3, #28]
  1038b4:	e3a03000 	mov	r3, #0
  1038b8:	e1a00003 	mov	r0, r3
  1038bc:	e24bd000 	sub	sp, fp, #0
  1038c0:	e49db004 	pop	{fp}		; (ldr fp, [sp], #4)
  1038c4:	e12fff1e 	bx	lr

001038c8 <construct_extended_mm_to_st_descriptor_64>:
  1038c8:	e52db004 	push	{fp}		; (str fp, [sp, #-4]!)
  1038cc:	e28db000 	add	fp, sp, #0
  1038d0:	e24dd014 	sub	sp, sp, #20
  1038d4:	e50b0008 	str	r0, [fp, #-8]
  1038d8:	e50b100c 	str	r1, [fp, #-12]
  1038dc:	e50b2010 	str	r2, [fp, #-16]
  1038e0:	e50b3014 	str	r3, [fp, #-20]	; 0xffffffec
  1038e4:	e51b3008 	ldr	r3, [fp, #-8]
  1038e8:	e51b200c 	ldr	r2, [fp, #-12]
  1038ec:	e5832000 	str	r2, [r3]
  1038f0:	e51b3008 	ldr	r3, [fp, #-8]
  1038f4:	e3a02000 	mov	r2, #0
  1038f8:	e5832004 	str	r2, [r3, #4]
  1038fc:	e51b3008 	ldr	r3, [fp, #-8]
  103900:	e51b2014 	ldr	r2, [fp, #-20]	; 0xffffffec
  103904:	e5832008 	str	r2, [r3, #8]
  103908:	e51b3008 	ldr	r3, [fp, #-8]
  10390c:	e1db20b8 	ldrh	r2, [fp, #8]
  103910:	e1c320bc 	strh	r2, [r3, #12]
  103914:	e51b3008 	ldr	r3, [fp, #-8]
  103918:	e5db200c 	ldrb	r2, [fp, #12]
  10391c:	e5c3200e 	strb	r2, [r3, #14]
  103920:	e51b3008 	ldr	r3, [fp, #-8]
  103924:	e3a02000 	mov	r2, #0
  103928:	e5c3200f 	strb	r2, [r3, #15]
  10392c:	e51b3008 	ldr	r3, [fp, #-8]
  103930:	e1db21b0 	ldrh	r2, [fp, #16]
  103934:	e1c321b0 	strh	r2, [r3, #16]
  103938:	e51b3008 	ldr	r3, [fp, #-8]
  10393c:	e3a02000 	mov	r2, #0
  103940:	e1c321b2 	strh	r2, [r3, #18]
  103944:	e51b3008 	ldr	r3, [fp, #-8]
  103948:	e51b2010 	ldr	r2, [fp, #-16]
  10394c:	e5832014 	str	r2, [r3, #20]
  103950:	e51b3008 	ldr	r3, [fp, #-8]
  103954:	e3a02000 	mov	r2, #0
  103958:	e5832018 	str	r2, [r3, #24]
  10395c:	e59b3004 	ldr	r3, [fp, #4]
  103960:	e3832102 	orr	r2, r3, #-2147483648	; 0x80000000
  103964:	e51b3008 	ldr	r3, [fp, #-8]
  103968:	e583201c 	str	r2, [r3, #28]
  10396c:	e3a03000 	mov	r3, #0
  103970:	e1a00003 	mov	r0, r3
  103974:	e24bd000 	sub	sp, fp, #0
  103978:	e49db004 	pop	{fp}		; (ldr fp, [sp], #4)
  10397c:	e12fff1e 	bx	lr

00103980 <construct_extended_mm_to_mm_descriptor>:
  103980:	e52db004 	push	{fp}		; (str fp, [sp, #-4]!)
  103984:	e28db000 	add	fp, sp, #0
  103988:	e24dd014 	sub	sp, sp, #20
  10398c:	e50b0008 	str	r0, [fp, #-8]
  103990:	e50b100c 	str	r1, [fp, #-12]
  103994:	e50b2010 	str	r2, [fp, #-16]
  103998:	e50b3014 	str	r3, [fp, #-20]	; 0xffffffec
  10399c:	e51b3008 	ldr	r3, [fp, #-8]
  1039a0:	e51b200c 	ldr	r2, [fp, #-12]
  1039a4:	e5832000 	str	r2, [r3]
  1039a8:	e51b3008 	ldr	r3, [fp, #-8]
  1039ac:	e51b2010 	ldr	r2, [fp, #-16]
  1039b0:	e5832004 	str	r2, [r3, #4]
  1039b4:	e51b3008 	ldr	r3, [fp, #-8]
  1039b8:	e51b2014 	ldr	r2, [fp, #-20]	; 0xffffffec
  1039bc:	e5832008 	str	r2, [r3, #8]
  1039c0:	e51b3008 	ldr	r3, [fp, #-8]
  1039c4:	e1db20b8 	ldrh	r2, [fp, #8]
  1039c8:	e1c320bc 	strh	r2, [r3, #12]
  1039cc:	e51b3008 	ldr	r3, [fp, #-8]
  1039d0:	e5db200c 	ldrb	r2, [fp, #12]
  1039d4:	e5c3200e 	strb	r2, [r3, #14]
  1039d8:	e51b3008 	ldr	r3, [fp, #-8]
  1039dc:	e5db2010 	ldrb	r2, [fp, #16]
  1039e0:	e5c3200f 	strb	r2, [r3, #15]
  1039e4:	e51b3008 	ldr	r3, [fp, #-8]
  1039e8:	e1db21b4 	ldrh	r2, [fp, #20]
  1039ec:	e1c321b0 	strh	r2, [r3, #16]
  1039f0:	e51b3008 	ldr	r3, [fp, #-8]
  1039f4:	e1db21b8 	ldrh	r2, [fp, #24]
  1039f8:	e1c321b2 	strh	r2, [r3, #18]
  1039fc:	e51b3008 	ldr	r3, [fp, #-8]
  103a00:	e3a02000 	mov	r2, #0
  103a04:	e5832014 	str	r2, [r3, #20]
  103a08:	e51b3008 	ldr	r3, [fp, #-8]
  103a0c:	e3a02000 	mov	r2, #0
  103a10:	e5832018 	str	r2, [r3, #24]
  103a14:	e59b3004 	ldr	r3, [fp, #4]
  103a18:	e3832102 	orr	r2, r3, #-2147483648	; 0x80000000
  103a1c:	e51b3008 	ldr	r3, [fp, #-8]
  103a20:	e583201c 	str	r2, [r3, #28]
  103a24:	e3a03000 	mov	r3, #0
  103a28:	e1a00003 	mov	r0, r3
  103a2c:	e24bd000 	sub	sp, fp, #0
  103a30:	e49db004 	pop	{fp}		; (ldr fp, [sp], #4)
  103a34:	e12fff1e 	bx	lr

00103a38 <construct_extended_mm_to_mm_descriptor_64>:
  103a38:	e52db004 	push	{fp}		; (str fp, [sp, #-4]!)
  103a3c:	e28db000 	add	fp, sp, #0
  103a40:	e24dd014 	sub	sp, sp, #20
  103a44:	e50b0008 	str	r0, [fp, #-8]
  103a48:	e50b100c 	str	r1, [fp, #-12]
  103a4c:	e50b2010 	str	r2, [fp, #-16]
  103a50:	e50b3014 	str	r3, [fp, #-20]	; 0xffffffec
  103a54:	e51b3008 	ldr	r3, [fp, #-8]
  103a58:	e51b200c 	ldr	r2, [fp, #-12]
  103a5c:	e5832000 	str	r2, [r3]
  103a60:	e51b3008 	ldr	r3, [fp, #-8]
  103a64:	e51b2014 	ldr	r2, [fp, #-20]	; 0xffffffec
  103a68:	e5832004 	str	r2, [r3, #4]
  103a6c:	e51b3008 	ldr	r3, [fp, #-8]
  103a70:	e59b2008 	ldr	r2, [fp, #8]
  103a74:	e5832008 	str	r2, [r3, #8]
  103a78:	e51b3008 	ldr	r3, [fp, #-8]
  103a7c:	e1db21b0 	ldrh	r2, [fp, #16]
  103a80:	e1c320bc 	strh	r2, [r3, #12]
  103a84:	e51b3008 	ldr	r3, [fp, #-8]
  103a88:	e5db2014 	ldrb	r2, [fp, #20]
  103a8c:	e5c3200e 	strb	r2, [r3, #14]
  103a90:	e51b3008 	ldr	r3, [fp, #-8]
  103a94:	e5db2018 	ldrb	r2, [fp, #24]
  103a98:	e5c3200f 	strb	r2, [r3, #15]
  103a9c:	e51b3008 	ldr	r3, [fp, #-8]
  103aa0:	e1db21bc 	ldrh	r2, [fp, #28]
  103aa4:	e1c321b0 	strh	r2, [r3, #16]
  103aa8:	e51b3008 	ldr	r3, [fp, #-8]
  103aac:	e1db22b0 	ldrh	r2, [fp, #32]
  103ab0:	e1c321b2 	strh	r2, [r3, #18]
  103ab4:	e51b3008 	ldr	r3, [fp, #-8]
  103ab8:	e51b2010 	ldr	r2, [fp, #-16]
  103abc:	e5832014 	str	r2, [r3, #20]
  103ac0:	e51b3008 	ldr	r3, [fp, #-8]
  103ac4:	e59b2004 	ldr	r2, [fp, #4]
  103ac8:	e5832018 	str	r2, [r3, #24]
  103acc:	e59b300c 	ldr	r3, [fp, #12]
  103ad0:	e3832102 	orr	r2, r3, #-2147483648	; 0x80000000
  103ad4:	e51b3008 	ldr	r3, [fp, #-8]
  103ad8:	e583201c 	str	r2, [r3, #28]
  103adc:	e3a03000 	mov	r3, #0
  103ae0:	e1a00003 	mov	r0, r3
  103ae4:	e24bd000 	sub	sp, fp, #0
  103ae8:	e49db004 	pop	{fp}		; (ldr fp, [sp], #4)
  103aec:	e12fff1e 	bx	lr

00103af0 <write_standard_descriptor>:
  103af0:	e52db004 	push	{fp}		; (str fp, [sp, #-4]!)
  103af4:	e28db000 	add	fp, sp, #0
  103af8:	e24dd014 	sub	sp, sp, #20
  103afc:	e50b0008 	str	r0, [fp, #-8]
  103b00:	e50b100c 	str	r1, [fp, #-12]
  103b04:	e50b2010 	str	r2, [fp, #-16]
  103b08:	e51b3008 	ldr	r3, [fp, #-8]
  103b0c:	e5933000 	ldr	r3, [r3]
  103b10:	e2033004 	and	r3, r3, #4
  103b14:	e3530000 	cmp	r3, #0
  103b18:	0a000001 	beq	103b24 <write_standard_descriptor+0x34>
  103b1c:	e3e0301b 	mvn	r3, #27
  103b20:	ea000016 	b	103b80 <write_standard_descriptor+0x90>
  103b24:	e51b300c 	ldr	r3, [fp, #-12]
  103b28:	e51b2010 	ldr	r2, [fp, #-16]
  103b2c:	e5922000 	ldr	r2, [r2]
  103b30:	e5832000 	str	r2, [r3]
  103b34:	e51b300c 	ldr	r3, [fp, #-12]
  103b38:	e2833004 	add	r3, r3, #4
  103b3c:	e1a02003 	mov	r2, r3
  103b40:	e51b3010 	ldr	r3, [fp, #-16]
  103b44:	e5933004 	ldr	r3, [r3, #4]
  103b48:	e5823000 	str	r3, [r2]
  103b4c:	e51b300c 	ldr	r3, [fp, #-12]
  103b50:	e2833008 	add	r3, r3, #8
  103b54:	e1a02003 	mov	r2, r3
  103b58:	e51b3010 	ldr	r3, [fp, #-16]
  103b5c:	e5933008 	ldr	r3, [r3, #8]
  103b60:	e5823000 	str	r3, [r2]
  103b64:	e51b300c 	ldr	r3, [fp, #-12]
  103b68:	e283300c 	add	r3, r3, #12
  103b6c:	e1a02003 	mov	r2, r3
  103b70:	e51b3010 	ldr	r3, [fp, #-16]
  103b74:	e593300c 	ldr	r3, [r3, #12]
  103b78:	e5823000 	str	r3, [r2]
  103b7c:	e3a03000 	mov	r3, #0
  103b80:	e1a00003 	mov	r0, r3
  103b84:	e24bd000 	sub	sp, fp, #0
  103b88:	e49db004 	pop	{fp}		; (ldr fp, [sp], #4)
  103b8c:	e12fff1e 	bx	lr

00103b90 <write_extended_descriptor>:
  103b90:	e52db004 	push	{fp}		; (str fp, [sp, #-4]!)
  103b94:	e28db000 	add	fp, sp, #0
  103b98:	e24dd014 	sub	sp, sp, #20
  103b9c:	e50b0008 	str	r0, [fp, #-8]
  103ba0:	e50b100c 	str	r1, [fp, #-12]
  103ba4:	e50b2010 	str	r2, [fp, #-16]
  103ba8:	e51b3008 	ldr	r3, [fp, #-8]
  103bac:	e5933000 	ldr	r3, [r3]
  103bb0:	e2033004 	and	r3, r3, #4
  103bb4:	e3530000 	cmp	r3, #0
  103bb8:	0a000001 	beq	103bc4 <write_extended_descriptor+0x34>
  103bbc:	e3e0301b 	mvn	r3, #27
  103bc0:	ea000040 	b	103cc8 <write_extended_descriptor+0x138>
  103bc4:	e51b300c 	ldr	r3, [fp, #-12]
  103bc8:	e51b2010 	ldr	r2, [fp, #-16]
  103bcc:	e5922000 	ldr	r2, [r2]
  103bd0:	e5832000 	str	r2, [r3]
  103bd4:	e51b300c 	ldr	r3, [fp, #-12]
  103bd8:	e2833004 	add	r3, r3, #4
  103bdc:	e1a02003 	mov	r2, r3
  103be0:	e51b3010 	ldr	r3, [fp, #-16]
  103be4:	e5933004 	ldr	r3, [r3, #4]
  103be8:	e5823000 	str	r3, [r2]
  103bec:	e51b300c 	ldr	r3, [fp, #-12]
  103bf0:	e2833008 	add	r3, r3, #8
  103bf4:	e1a02003 	mov	r2, r3
  103bf8:	e51b3010 	ldr	r3, [fp, #-16]
  103bfc:	e5933008 	ldr	r3, [r3, #8]
  103c00:	e5823000 	str	r3, [r2]
  103c04:	e51b300c 	ldr	r3, [fp, #-12]
  103c08:	e283300c 	add	r3, r3, #12
  103c0c:	e1a02003 	mov	r2, r3
  103c10:	e51b3010 	ldr	r3, [fp, #-16]
  103c14:	e1d330bc 	ldrh	r3, [r3, #12]
  103c18:	e1c230b0 	strh	r3, [r2]
  103c1c:	e51b300c 	ldr	r3, [fp, #-12]
  103c20:	e283300e 	add	r3, r3, #14
  103c24:	e1a02003 	mov	r2, r3
  103c28:	e51b3010 	ldr	r3, [fp, #-16]
  103c2c:	e5d3300e 	ldrb	r3, [r3, #14]
  103c30:	e5c23000 	strb	r3, [r2]
  103c34:	e51b300c 	ldr	r3, [fp, #-12]
  103c38:	e283300f 	add	r3, r3, #15
  103c3c:	e1a02003 	mov	r2, r3
  103c40:	e51b3010 	ldr	r3, [fp, #-16]
  103c44:	e5d3300f 	ldrb	r3, [r3, #15]
  103c48:	e5c23000 	strb	r3, [r2]
  103c4c:	e51b300c 	ldr	r3, [fp, #-12]
  103c50:	e2833010 	add	r3, r3, #16
  103c54:	e1a02003 	mov	r2, r3
  103c58:	e51b3010 	ldr	r3, [fp, #-16]
  103c5c:	e1d331b0 	ldrh	r3, [r3, #16]
  103c60:	e1c230b0 	strh	r3, [r2]
  103c64:	e51b300c 	ldr	r3, [fp, #-12]
  103c68:	e2833012 	add	r3, r3, #18
  103c6c:	e1a02003 	mov	r2, r3
  103c70:	e51b3010 	ldr	r3, [fp, #-16]
  103c74:	e1d331b2 	ldrh	r3, [r3, #18]
  103c78:	e1c230b0 	strh	r3, [r2]
  103c7c:	e51b300c 	ldr	r3, [fp, #-12]
  103c80:	e2833014 	add	r3, r3, #20
  103c84:	e1a02003 	mov	r2, r3
  103c88:	e51b3010 	ldr	r3, [fp, #-16]
  103c8c:	e5933014 	ldr	r3, [r3, #20]
  103c90:	e5823000 	str	r3, [r2]
  103c94:	e51b300c 	ldr	r3, [fp, #-12]
  103c98:	e2833018 	add	r3, r3, #24
  103c9c:	e1a02003 	mov	r2, r3
  103ca0:	e51b3010 	ldr	r3, [fp, #-16]
  103ca4:	e5933018 	ldr	r3, [r3, #24]
  103ca8:	e5823000 	str	r3, [r2]
  103cac:	e51b300c 	ldr	r3, [fp, #-12]
  103cb0:	e283301c 	add	r3, r3, #28
  103cb4:	e1a02003 	mov	r2, r3
  103cb8:	e51b3010 	ldr	r3, [fp, #-16]
  103cbc:	e593301c 	ldr	r3, [r3, #28]
  103cc0:	e5823000 	str	r3, [r2]
  103cc4:	e3a03000 	mov	r3, #0
  103cc8:	e1a00003 	mov	r0, r3
  103ccc:	e24bd000 	sub	sp, fp, #0
  103cd0:	e49db004 	pop	{fp}		; (ldr fp, [sp], #4)
  103cd4:	e12fff1e 	bx	lr

00103cd8 <read_mm_response>:
  103cd8:	e52db004 	push	{fp}		; (str fp, [sp, #-4]!)
  103cdc:	e28db000 	add	fp, sp, #0
  103ce0:	e24dd01c 	sub	sp, sp, #28
  103ce4:	e50b0010 	str	r0, [fp, #-16]
  103ce8:	e50b1014 	str	r1, [fp, #-20]	; 0xffffffec
  103cec:	e50b2018 	str	r2, [fp, #-24]	; 0xffffffe8
  103cf0:	e51b3010 	ldr	r3, [fp, #-16]
  103cf4:	e5933000 	ldr	r3, [r3]
  103cf8:	e2033008 	and	r3, r3, #8
  103cfc:	e3530000 	cmp	r3, #0
  103d00:	0a000001 	beq	103d0c <read_mm_response+0x34>
  103d04:	e3e0303c 	mvn	r3, #60	; 0x3c
  103d08:	ea000013 	b	103d5c <read_mm_response+0x84>
  103d0c:	e51b3014 	ldr	r3, [fp, #-20]	; 0xffffffec
  103d10:	e5932000 	ldr	r2, [r3]
  103d14:	e51b3018 	ldr	r3, [fp, #-24]	; 0xffffffe8
  103d18:	e5832000 	str	r2, [r3]
  103d1c:	e51b3014 	ldr	r3, [fp, #-20]	; 0xffffffec
  103d20:	e2833004 	add	r3, r3, #4
  103d24:	e5933000 	ldr	r3, [r3]
  103d28:	e50b3008 	str	r3, [fp, #-8]
  103d2c:	e51b3008 	ldr	r3, [fp, #-8]
  103d30:	e6ef2073 	uxtb	r2, r3
  103d34:	e51b3018 	ldr	r3, [fp, #-24]	; 0xffffffe8
  103d38:	e5c32004 	strb	r2, [r3, #4]
  103d3c:	e51b3008 	ldr	r3, [fp, #-8]
  103d40:	e1a03423 	lsr	r3, r3, #8
  103d44:	e6ef3073 	uxtb	r3, r3
  103d48:	e2033001 	and	r3, r3, #1
  103d4c:	e6ef2073 	uxtb	r2, r3
  103d50:	e51b3018 	ldr	r3, [fp, #-24]	; 0xffffffe8
  103d54:	e5c32005 	strb	r2, [r3, #5]
  103d58:	e3a03000 	mov	r3, #0
  103d5c:	e1a00003 	mov	r0, r3
  103d60:	e24bd000 	sub	sp, fp, #0
  103d64:	e49db004 	pop	{fp}		; (ldr fp, [sp], #4)
  103d68:	e12fff1e 	bx	lr

00103d6c <read_csr_status>:
  103d6c:	e52db004 	push	{fp}		; (str fp, [sp, #-4]!)
  103d70:	e28db000 	add	fp, sp, #0
  103d74:	e24dd00c 	sub	sp, sp, #12
  103d78:	e50b0008 	str	r0, [fp, #-8]
  103d7c:	e51b3008 	ldr	r3, [fp, #-8]
  103d80:	e5933000 	ldr	r3, [r3]
  103d84:	e1a00003 	mov	r0, r3
  103d88:	e24bd000 	sub	sp, fp, #0
  103d8c:	e49db004 	pop	{fp}		; (ldr fp, [sp], #4)
  103d90:	e12fff1e 	bx	lr

00103d94 <read_csr_control>:
  103d94:	e52db004 	push	{fp}		; (str fp, [sp, #-4]!)
  103d98:	e28db000 	add	fp, sp, #0
  103d9c:	e24dd00c 	sub	sp, sp, #12
  103da0:	e50b0008 	str	r0, [fp, #-8]
  103da4:	e51b3008 	ldr	r3, [fp, #-8]
  103da8:	e2833004 	add	r3, r3, #4
  103dac:	e5933000 	ldr	r3, [r3]
  103db0:	e1a00003 	mov	r0, r3
  103db4:	e24bd000 	sub	sp, fp, #0
  103db8:	e49db004 	pop	{fp}		; (ldr fp, [sp], #4)
  103dbc:	e12fff1e 	bx	lr

00103dc0 <read_csr_read_descriptor_buffer_fill_level>:
  103dc0:	e52db004 	push	{fp}		; (str fp, [sp, #-4]!)
  103dc4:	e28db000 	add	fp, sp, #0
  103dc8:	e24dd00c 	sub	sp, sp, #12
  103dcc:	e50b0008 	str	r0, [fp, #-8]
  103dd0:	e51b3008 	ldr	r3, [fp, #-8]
  103dd4:	e2833008 	add	r3, r3, #8
  103dd8:	e5933000 	ldr	r3, [r3]
  103ddc:	e6ff3073 	uxth	r3, r3
  103de0:	e1a00003 	mov	r0, r3
  103de4:	e24bd000 	sub	sp, fp, #0
  103de8:	e49db004 	pop	{fp}		; (ldr fp, [sp], #4)
  103dec:	e12fff1e 	bx	lr

00103df0 <read_csr_write_descriptor_buffer_fill_level>:
  103df0:	e52db004 	push	{fp}		; (str fp, [sp, #-4]!)
  103df4:	e28db000 	add	fp, sp, #0
  103df8:	e24dd00c 	sub	sp, sp, #12
  103dfc:	e50b0008 	str	r0, [fp, #-8]
  103e00:	e51b3008 	ldr	r3, [fp, #-8]
  103e04:	e2833008 	add	r3, r3, #8
  103e08:	e5933000 	ldr	r3, [r3]
  103e0c:	e1a03823 	lsr	r3, r3, #16
  103e10:	e6ff3073 	uxth	r3, r3
  103e14:	e1a00003 	mov	r0, r3
  103e18:	e24bd000 	sub	sp, fp, #0
  103e1c:	e49db004 	pop	{fp}		; (ldr fp, [sp], #4)
  103e20:	e12fff1e 	bx	lr

00103e24 <read_csr_response_buffer_fill_level>:
  103e24:	e52db004 	push	{fp}		; (str fp, [sp, #-4]!)
  103e28:	e28db000 	add	fp, sp, #0
  103e2c:	e24dd00c 	sub	sp, sp, #12
  103e30:	e50b0008 	str	r0, [fp, #-8]
  103e34:	e51b3008 	ldr	r3, [fp, #-8]
  103e38:	e283300c 	add	r3, r3, #12
  103e3c:	e5933000 	ldr	r3, [r3]
  103e40:	e6ff3073 	uxth	r3, r3
  103e44:	e1a00003 	mov	r0, r3
  103e48:	e24bd000 	sub	sp, fp, #0
  103e4c:	e49db004 	pop	{fp}		; (ldr fp, [sp], #4)
  103e50:	e12fff1e 	bx	lr

00103e54 <read_csr_read_sequence_number>:
  103e54:	e52db004 	push	{fp}		; (str fp, [sp, #-4]!)
  103e58:	e28db000 	add	fp, sp, #0
  103e5c:	e24dd00c 	sub	sp, sp, #12
  103e60:	e50b0008 	str	r0, [fp, #-8]
  103e64:	e51b3008 	ldr	r3, [fp, #-8]
  103e68:	e2833010 	add	r3, r3, #16
  103e6c:	e5933000 	ldr	r3, [r3]
  103e70:	e6ff3073 	uxth	r3, r3
  103e74:	e1a00003 	mov	r0, r3
  103e78:	e24bd000 	sub	sp, fp, #0
  103e7c:	e49db004 	pop	{fp}		; (ldr fp, [sp], #4)
  103e80:	e12fff1e 	bx	lr

00103e84 <read_csr_write_sequence_number>:
  103e84:	e52db004 	push	{fp}		; (str fp, [sp, #-4]!)
  103e88:	e28db000 	add	fp, sp, #0
  103e8c:	e24dd00c 	sub	sp, sp, #12
  103e90:	e50b0008 	str	r0, [fp, #-8]
  103e94:	e51b3008 	ldr	r3, [fp, #-8]
  103e98:	e2833010 	add	r3, r3, #16
  103e9c:	e5933000 	ldr	r3, [r3]
  103ea0:	e1a03823 	lsr	r3, r3, #16
  103ea4:	e6ff3073 	uxth	r3, r3
  103ea8:	e1a00003 	mov	r0, r3
  103eac:	e24bd000 	sub	sp, fp, #0
  103eb0:	e49db004 	pop	{fp}		; (ldr fp, [sp], #4)
  103eb4:	e12fff1e 	bx	lr

00103eb8 <read_busy>:
  103eb8:	e52db004 	push	{fp}		; (str fp, [sp, #-4]!)
  103ebc:	e28db000 	add	fp, sp, #0
  103ec0:	e24dd00c 	sub	sp, sp, #12
  103ec4:	e50b0008 	str	r0, [fp, #-8]
  103ec8:	e51b3008 	ldr	r3, [fp, #-8]
  103ecc:	e5933000 	ldr	r3, [r3]
  103ed0:	e2033001 	and	r3, r3, #1
  103ed4:	e3530000 	cmp	r3, #0
  103ed8:	13a03001 	movne	r3, #1
  103edc:	03a03000 	moveq	r3, #0
  103ee0:	e6ef3073 	uxtb	r3, r3
  103ee4:	e1a00003 	mov	r0, r3
  103ee8:	e24bd000 	sub	sp, fp, #0
  103eec:	e49db004 	pop	{fp}		; (ldr fp, [sp], #4)
  103ef0:	e12fff1e 	bx	lr

00103ef4 <read_descriptor_buffer_empty>:
  103ef4:	e52db004 	push	{fp}		; (str fp, [sp, #-4]!)
  103ef8:	e28db000 	add	fp, sp, #0
  103efc:	e24dd00c 	sub	sp, sp, #12
  103f00:	e50b0008 	str	r0, [fp, #-8]
  103f04:	e51b3008 	ldr	r3, [fp, #-8]
  103f08:	e5933000 	ldr	r3, [r3]
  103f0c:	e2033002 	and	r3, r3, #2
  103f10:	e3530000 	cmp	r3, #0
  103f14:	13a03001 	movne	r3, #1
  103f18:	03a03000 	moveq	r3, #0
  103f1c:	e6ef3073 	uxtb	r3, r3
  103f20:	e1a00003 	mov	r0, r3
  103f24:	e24bd000 	sub	sp, fp, #0
  103f28:	e49db004 	pop	{fp}		; (ldr fp, [sp], #4)
  103f2c:	e12fff1e 	bx	lr

00103f30 <read_descriptor_buffer_full>:
  103f30:	e52db004 	push	{fp}		; (str fp, [sp, #-4]!)
  103f34:	e28db000 	add	fp, sp, #0
  103f38:	e24dd00c 	sub	sp, sp, #12
  103f3c:	e50b0008 	str	r0, [fp, #-8]
  103f40:	e51b3008 	ldr	r3, [fp, #-8]
  103f44:	e5933000 	ldr	r3, [r3]
  103f48:	e2033004 	and	r3, r3, #4
  103f4c:	e3530000 	cmp	r3, #0
  103f50:	13a03001 	movne	r3, #1
  103f54:	03a03000 	moveq	r3, #0
  103f58:	e6ef3073 	uxtb	r3, r3
  103f5c:	e1a00003 	mov	r0, r3
  103f60:	e24bd000 	sub	sp, fp, #0
  103f64:	e49db004 	pop	{fp}		; (ldr fp, [sp], #4)
  103f68:	e12fff1e 	bx	lr

00103f6c <read_response_buffer_empty>:
  103f6c:	e52db004 	push	{fp}		; (str fp, [sp, #-4]!)
  103f70:	e28db000 	add	fp, sp, #0
  103f74:	e24dd00c 	sub	sp, sp, #12
  103f78:	e50b0008 	str	r0, [fp, #-8]
  103f7c:	e51b3008 	ldr	r3, [fp, #-8]
  103f80:	e5933000 	ldr	r3, [r3]
  103f84:	e2033008 	and	r3, r3, #8
  103f88:	e3530000 	cmp	r3, #0
  103f8c:	13a03001 	movne	r3, #1
  103f90:	03a03000 	moveq	r3, #0
  103f94:	e6ef3073 	uxtb	r3, r3
  103f98:	e1a00003 	mov	r0, r3
  103f9c:	e24bd000 	sub	sp, fp, #0
  103fa0:	e49db004 	pop	{fp}		; (ldr fp, [sp], #4)
  103fa4:	e12fff1e 	bx	lr

00103fa8 <read_response_buffer_full>:
  103fa8:	e52db004 	push	{fp}		; (str fp, [sp, #-4]!)
  103fac:	e28db000 	add	fp, sp, #0
  103fb0:	e24dd00c 	sub	sp, sp, #12
  103fb4:	e50b0008 	str	r0, [fp, #-8]
  103fb8:	e51b3008 	ldr	r3, [fp, #-8]
  103fbc:	e5933000 	ldr	r3, [r3]
  103fc0:	e2033010 	and	r3, r3, #16
  103fc4:	e3530000 	cmp	r3, #0
  103fc8:	13a03001 	movne	r3, #1
  103fcc:	03a03000 	moveq	r3, #0
  103fd0:	e6ef3073 	uxtb	r3, r3
  103fd4:	e1a00003 	mov	r0, r3
  103fd8:	e24bd000 	sub	sp, fp, #0
  103fdc:	e49db004 	pop	{fp}		; (ldr fp, [sp], #4)
  103fe0:	e12fff1e 	bx	lr

00103fe4 <read_stopped>:
  103fe4:	e52db004 	push	{fp}		; (str fp, [sp, #-4]!)
  103fe8:	e28db000 	add	fp, sp, #0
  103fec:	e24dd00c 	sub	sp, sp, #12
  103ff0:	e50b0008 	str	r0, [fp, #-8]
  103ff4:	e51b3008 	ldr	r3, [fp, #-8]
  103ff8:	e5933000 	ldr	r3, [r3]
  103ffc:	e2033020 	and	r3, r3, #32
  104000:	e3530000 	cmp	r3, #0
  104004:	13a03001 	movne	r3, #1
  104008:	03a03000 	moveq	r3, #0
  10400c:	e6ef3073 	uxtb	r3, r3
  104010:	e1a00003 	mov	r0, r3
  104014:	e24bd000 	sub	sp, fp, #0
  104018:	e49db004 	pop	{fp}		; (ldr fp, [sp], #4)
  10401c:	e12fff1e 	bx	lr

00104020 <read_resetting>:
  104020:	e52db004 	push	{fp}		; (str fp, [sp, #-4]!)
  104024:	e28db000 	add	fp, sp, #0
  104028:	e24dd00c 	sub	sp, sp, #12
  10402c:	e50b0008 	str	r0, [fp, #-8]
  104030:	e51b3008 	ldr	r3, [fp, #-8]
  104034:	e5933000 	ldr	r3, [r3]
  104038:	e2033040 	and	r3, r3, #64	; 0x40
  10403c:	e3530000 	cmp	r3, #0
  104040:	13a03001 	movne	r3, #1
  104044:	03a03000 	moveq	r3, #0
  104048:	e6ef3073 	uxtb	r3, r3
  10404c:	e1a00003 	mov	r0, r3
  104050:	e24bd000 	sub	sp, fp, #0
  104054:	e49db004 	pop	{fp}		; (ldr fp, [sp], #4)
  104058:	e12fff1e 	bx	lr

0010405c <read_stopped_on_error>:
  10405c:	e52db004 	push	{fp}		; (str fp, [sp, #-4]!)
  104060:	e28db000 	add	fp, sp, #0
  104064:	e24dd00c 	sub	sp, sp, #12
  104068:	e50b0008 	str	r0, [fp, #-8]
  10406c:	e51b3008 	ldr	r3, [fp, #-8]
  104070:	e5933000 	ldr	r3, [r3]
  104074:	e2033080 	and	r3, r3, #128	; 0x80
  104078:	e3530000 	cmp	r3, #0
  10407c:	13a03001 	movne	r3, #1
  104080:	03a03000 	moveq	r3, #0
  104084:	e6ef3073 	uxtb	r3, r3
  104088:	e1a00003 	mov	r0, r3
  10408c:	e24bd000 	sub	sp, fp, #0
  104090:	e49db004 	pop	{fp}		; (ldr fp, [sp], #4)
  104094:	e12fff1e 	bx	lr

00104098 <read_stopped_on_early_termination>:
  104098:	e52db004 	push	{fp}		; (str fp, [sp, #-4]!)
  10409c:	e28db000 	add	fp, sp, #0
  1040a0:	e24dd00c 	sub	sp, sp, #12
  1040a4:	e50b0008 	str	r0, [fp, #-8]
  1040a8:	e51b3008 	ldr	r3, [fp, #-8]
  1040ac:	e5933000 	ldr	r3, [r3]
  1040b0:	e2033c01 	and	r3, r3, #256	; 0x100
  1040b4:	e3530000 	cmp	r3, #0
  1040b8:	13a03001 	movne	r3, #1
  1040bc:	03a03000 	moveq	r3, #0
  1040c0:	e6ef3073 	uxtb	r3, r3
  1040c4:	e1a00003 	mov	r0, r3
  1040c8:	e24bd000 	sub	sp, fp, #0
  1040cc:	e49db004 	pop	{fp}		; (ldr fp, [sp], #4)
  1040d0:	e12fff1e 	bx	lr

001040d4 <read_irq>:
  1040d4:	e52db004 	push	{fp}		; (str fp, [sp, #-4]!)
  1040d8:	e28db000 	add	fp, sp, #0
  1040dc:	e24dd00c 	sub	sp, sp, #12
  1040e0:	e50b0008 	str	r0, [fp, #-8]
  1040e4:	e51b3008 	ldr	r3, [fp, #-8]
  1040e8:	e5933000 	ldr	r3, [r3]
  1040ec:	e2033c02 	and	r3, r3, #512	; 0x200
  1040f0:	e3530000 	cmp	r3, #0
  1040f4:	13a03001 	movne	r3, #1
  1040f8:	03a03000 	moveq	r3, #0
  1040fc:	e6ef3073 	uxtb	r3, r3
  104100:	e1a00003 	mov	r0, r3
  104104:	e24bd000 	sub	sp, fp, #0
  104108:	e49db004 	pop	{fp}		; (ldr fp, [sp], #4)
  10410c:	e12fff1e 	bx	lr

00104110 <clear_irq>:
  104110:	e52db004 	push	{fp}		; (str fp, [sp, #-4]!)
  104114:	e28db000 	add	fp, sp, #0
  104118:	e24dd00c 	sub	sp, sp, #12
  10411c:	e50b0008 	str	r0, [fp, #-8]
  104120:	e51b3008 	ldr	r3, [fp, #-8]
  104124:	e3a02c02 	mov	r2, #512	; 0x200
  104128:	e5832000 	str	r2, [r3]
  10412c:	e320f000 	nop	{0}
  104130:	e24bd000 	sub	sp, fp, #0
  104134:	e49db004 	pop	{fp}		; (ldr fp, [sp], #4)
  104138:	e12fff1e 	bx	lr

0010413c <stop_dispatcher>:
  10413c:	e52db004 	push	{fp}		; (str fp, [sp, #-4]!)
  104140:	e28db000 	add	fp, sp, #0
  104144:	e24dd014 	sub	sp, sp, #20
  104148:	e50b0010 	str	r0, [fp, #-16]
  10414c:	e51b3010 	ldr	r3, [fp, #-16]
  104150:	e2833004 	add	r3, r3, #4
  104154:	e5933000 	ldr	r3, [r3]
  104158:	e3833001 	orr	r3, r3, #1
  10415c:	e50b3008 	str	r3, [fp, #-8]
  104160:	e51b3010 	ldr	r3, [fp, #-16]
  104164:	e2833004 	add	r3, r3, #4
  104168:	e1a02003 	mov	r2, r3
  10416c:	e51b3008 	ldr	r3, [fp, #-8]
  104170:	e5823000 	str	r3, [r2]
  104174:	e320f000 	nop	{0}
  104178:	e24bd000 	sub	sp, fp, #0
  10417c:	e49db004 	pop	{fp}		; (ldr fp, [sp], #4)
  104180:	e12fff1e 	bx	lr

00104184 <start_dispatcher>:
  104184:	e52db004 	push	{fp}		; (str fp, [sp, #-4]!)
  104188:	e28db000 	add	fp, sp, #0
  10418c:	e24dd014 	sub	sp, sp, #20
  104190:	e50b0010 	str	r0, [fp, #-16]
  104194:	e51b3010 	ldr	r3, [fp, #-16]
  104198:	e2833004 	add	r3, r3, #4
  10419c:	e5933000 	ldr	r3, [r3]
  1041a0:	e3c33001 	bic	r3, r3, #1
  1041a4:	e50b3008 	str	r3, [fp, #-8]
  1041a8:	e51b3010 	ldr	r3, [fp, #-16]
  1041ac:	e2833004 	add	r3, r3, #4
  1041b0:	e1a02003 	mov	r2, r3
  1041b4:	e51b3008 	ldr	r3, [fp, #-8]
  1041b8:	e5823000 	str	r3, [r2]
  1041bc:	e320f000 	nop	{0}
  1041c0:	e24bd000 	sub	sp, fp, #0
  1041c4:	e49db004 	pop	{fp}		; (ldr fp, [sp], #4)
  1041c8:	e12fff1e 	bx	lr

001041cc <reset_dispatcher>:
  1041cc:	e52db004 	push	{fp}		; (str fp, [sp, #-4]!)
  1041d0:	e28db000 	add	fp, sp, #0
  1041d4:	e24dd00c 	sub	sp, sp, #12
  1041d8:	e50b0008 	str	r0, [fp, #-8]
  1041dc:	e51b3008 	ldr	r3, [fp, #-8]
  1041e0:	e2833004 	add	r3, r3, #4
  1041e4:	e1a02003 	mov	r2, r3
  1041e8:	e3a03002 	mov	r3, #2
  1041ec:	e5823000 	str	r3, [r2]
  1041f0:	e320f000 	nop	{0}
  1041f4:	e24bd000 	sub	sp, fp, #0
  1041f8:	e49db004 	pop	{fp}		; (ldr fp, [sp], #4)
  1041fc:	e12fff1e 	bx	lr

00104200 <enable_stop_on_error>:
  104200:	e52db004 	push	{fp}		; (str fp, [sp, #-4]!)
  104204:	e28db000 	add	fp, sp, #0
  104208:	e24dd014 	sub	sp, sp, #20
  10420c:	e50b0010 	str	r0, [fp, #-16]
  104210:	e51b3010 	ldr	r3, [fp, #-16]
  104214:	e2833004 	add	r3, r3, #4
  104218:	e5933000 	ldr	r3, [r3]
  10421c:	e3833004 	orr	r3, r3, #4
  104220:	e50b3008 	str	r3, [fp, #-8]
  104224:	e51b3010 	ldr	r3, [fp, #-16]
  104228:	e2833004 	add	r3, r3, #4
  10422c:	e1a02003 	mov	r2, r3
  104230:	e51b3008 	ldr	r3, [fp, #-8]
  104234:	e5823000 	str	r3, [r2]
  104238:	e320f000 	nop	{0}
  10423c:	e24bd000 	sub	sp, fp, #0
  104240:	e49db004 	pop	{fp}		; (ldr fp, [sp], #4)
  104244:	e12fff1e 	bx	lr

00104248 <disable_stop_on_error>:
  104248:	e52db004 	push	{fp}		; (str fp, [sp, #-4]!)
  10424c:	e28db000 	add	fp, sp, #0
  104250:	e24dd014 	sub	sp, sp, #20
  104254:	e50b0010 	str	r0, [fp, #-16]
  104258:	e51b3010 	ldr	r3, [fp, #-16]
  10425c:	e2833004 	add	r3, r3, #4
  104260:	e5933000 	ldr	r3, [r3]
  104264:	e3c33004 	bic	r3, r3, #4
  104268:	e50b3008 	str	r3, [fp, #-8]
  10426c:	e51b3010 	ldr	r3, [fp, #-16]
  104270:	e2833004 	add	r3, r3, #4
  104274:	e1a02003 	mov	r2, r3
  104278:	e51b3008 	ldr	r3, [fp, #-8]
  10427c:	e5823000 	str	r3, [r2]
  104280:	e320f000 	nop	{0}
  104284:	e24bd000 	sub	sp, fp, #0
  104288:	e49db004 	pop	{fp}		; (ldr fp, [sp], #4)
  10428c:	e12fff1e 	bx	lr

00104290 <enable_stop_on_early_termination>:
  104290:	e52db004 	push	{fp}		; (str fp, [sp, #-4]!)
  104294:	e28db000 	add	fp, sp, #0
  104298:	e24dd014 	sub	sp, sp, #20
  10429c:	e50b0010 	str	r0, [fp, #-16]
  1042a0:	e51b3010 	ldr	r3, [fp, #-16]
  1042a4:	e2833004 	add	r3, r3, #4
  1042a8:	e5933000 	ldr	r3, [r3]
  1042ac:	e3833008 	orr	r3, r3, #8
  1042b0:	e50b3008 	str	r3, [fp, #-8]
  1042b4:	e51b3010 	ldr	r3, [fp, #-16]
  1042b8:	e2833004 	add	r3, r3, #4
  1042bc:	e1a02003 	mov	r2, r3
  1042c0:	e51b3008 	ldr	r3, [fp, #-8]
  1042c4:	e5823000 	str	r3, [r2]
  1042c8:	e320f000 	nop	{0}
  1042cc:	e24bd000 	sub	sp, fp, #0
  1042d0:	e49db004 	pop	{fp}		; (ldr fp, [sp], #4)
  1042d4:	e12fff1e 	bx	lr

001042d8 <disable_stop_on_early_termination>:
  1042d8:	e52db004 	push	{fp}		; (str fp, [sp, #-4]!)
  1042dc:	e28db000 	add	fp, sp, #0
  1042e0:	e24dd014 	sub	sp, sp, #20
  1042e4:	e50b0010 	str	r0, [fp, #-16]
  1042e8:	e51b3010 	ldr	r3, [fp, #-16]
  1042ec:	e2833004 	add	r3, r3, #4
  1042f0:	e5933000 	ldr	r3, [r3]
  1042f4:	e3c33008 	bic	r3, r3, #8
  1042f8:	e50b3008 	str	r3, [fp, #-8]
  1042fc:	e51b3010 	ldr	r3, [fp, #-16]
  104300:	e2833004 	add	r3, r3, #4
  104304:	e1a02003 	mov	r2, r3
  104308:	e51b3008 	ldr	r3, [fp, #-8]
  10430c:	e5823000 	str	r3, [r2]
  104310:	e320f000 	nop	{0}
  104314:	e24bd000 	sub	sp, fp, #0
  104318:	e49db004 	pop	{fp}		; (ldr fp, [sp], #4)
  10431c:	e12fff1e 	bx	lr

00104320 <enable_global_interrupt_mask>:
  104320:	e52db004 	push	{fp}		; (str fp, [sp, #-4]!)
  104324:	e28db000 	add	fp, sp, #0
  104328:	e24dd014 	sub	sp, sp, #20
  10432c:	e50b0010 	str	r0, [fp, #-16]
  104330:	e51b3010 	ldr	r3, [fp, #-16]
  104334:	e2833004 	add	r3, r3, #4
  104338:	e5933000 	ldr	r3, [r3]
  10433c:	e3833010 	orr	r3, r3, #16
  104340:	e50b3008 	str	r3, [fp, #-8]
  104344:	e51b3010 	ldr	r3, [fp, #-16]
  104348:	e2833004 	add	r3, r3, #4
  10434c:	e1a02003 	mov	r2, r3
  104350:	e51b3008 	ldr	r3, [fp, #-8]
  104354:	e5823000 	str	r3, [r2]
  104358:	e320f000 	nop	{0}
  10435c:	e24bd000 	sub	sp, fp, #0
  104360:	e49db004 	pop	{fp}		; (ldr fp, [sp], #4)
  104364:	e12fff1e 	bx	lr

00104368 <disable_global_interrupt_mask>:
  104368:	e52db004 	push	{fp}		; (str fp, [sp, #-4]!)
  10436c:	e28db000 	add	fp, sp, #0
  104370:	e24dd014 	sub	sp, sp, #20
  104374:	e50b0010 	str	r0, [fp, #-16]
  104378:	e51b3010 	ldr	r3, [fp, #-16]
  10437c:	e2833004 	add	r3, r3, #4
  104380:	e5933000 	ldr	r3, [r3]
  104384:	e3c33010 	bic	r3, r3, #16
  104388:	e50b3008 	str	r3, [fp, #-8]
  10438c:	e51b3010 	ldr	r3, [fp, #-16]
  104390:	e2833004 	add	r3, r3, #4
  104394:	e1a02003 	mov	r2, r3
  104398:	e51b3008 	ldr	r3, [fp, #-8]
  10439c:	e5823000 	str	r3, [r2]
  1043a0:	e320f000 	nop	{0}
  1043a4:	e24bd000 	sub	sp, fp, #0
  1043a8:	e49db004 	pop	{fp}		; (ldr fp, [sp], #4)
  1043ac:	e12fff1e 	bx	lr

001043b0 <stop_descriptors>:
  1043b0:	e52db004 	push	{fp}		; (str fp, [sp, #-4]!)
  1043b4:	e28db000 	add	fp, sp, #0
  1043b8:	e24dd014 	sub	sp, sp, #20
  1043bc:	e50b0010 	str	r0, [fp, #-16]
  1043c0:	e51b3010 	ldr	r3, [fp, #-16]
  1043c4:	e2833004 	add	r3, r3, #4
  1043c8:	e5933000 	ldr	r3, [r3]
  1043cc:	e3833020 	orr	r3, r3, #32
  1043d0:	e50b3008 	str	r3, [fp, #-8]
  1043d4:	e51b3010 	ldr	r3, [fp, #-16]
  1043d8:	e2833004 	add	r3, r3, #4
  1043dc:	e1a02003 	mov	r2, r3
  1043e0:	e51b3008 	ldr	r3, [fp, #-8]
  1043e4:	e5823000 	str	r3, [r2]
  1043e8:	e320f000 	nop	{0}
  1043ec:	e24bd000 	sub	sp, fp, #0
  1043f0:	e49db004 	pop	{fp}		; (ldr fp, [sp], #4)
  1043f4:	e12fff1e 	bx	lr

001043f8 <start_descriptors>:
  1043f8:	e52db004 	push	{fp}		; (str fp, [sp, #-4]!)
  1043fc:	e28db000 	add	fp, sp, #0
  104400:	e24dd014 	sub	sp, sp, #20
  104404:	e50b0010 	str	r0, [fp, #-16]
  104408:	e51b3010 	ldr	r3, [fp, #-16]
  10440c:	e2833004 	add	r3, r3, #4
  104410:	e5933000 	ldr	r3, [r3]
  104414:	e3c33020 	bic	r3, r3, #32
  104418:	e50b3008 	str	r3, [fp, #-8]
  10441c:	e51b3010 	ldr	r3, [fp, #-16]
  104420:	e2833004 	add	r3, r3, #4
  104424:	e1a02003 	mov	r2, r3
  104428:	e51b3008 	ldr	r3, [fp, #-8]
  10442c:	e5823000 	str	r3, [r2]
  104430:	e320f000 	nop	{0}
  104434:	e24bd000 	sub	sp, fp, #0
  104438:	e49db004 	pop	{fp}		; (ldr fp, [sp], #4)
  10443c:	e12fff1e 	bx	lr

00104440 <alt_reset_event_get>:
  104440:	e52db004 	push	{fp}		; (str fp, [sp, #-4]!)
  104444:	e28db000 	add	fp, sp, #0
  104448:	e3a03a05 	mov	r3, #20480	; 0x5000
  10444c:	e34f3fd0 	movt	r3, #65488	; 0xffd0
  104450:	e5933000 	ldr	r3, [r3]
  104454:	e1a00003 	mov	r0, r3
  104458:	e24bd000 	sub	sp, fp, #0
  10445c:	e49db004 	pop	{fp}		; (ldr fp, [sp], #4)
  104460:	e12fff1e 	bx	lr

00104464 <alt_reset_event_clear>:
  104464:	e52db004 	push	{fp}		; (str fp, [sp, #-4]!)
  104468:	e28db000 	add	fp, sp, #0
  10446c:	e24dd00c 	sub	sp, sp, #12
  104470:	e50b0008 	str	r0, [fp, #-8]
  104474:	e3a03a05 	mov	r3, #20480	; 0x5000
  104478:	e34f3fd0 	movt	r3, #65488	; 0xffd0
  10447c:	e51b2008 	ldr	r2, [fp, #-8]
  104480:	e5832000 	str	r2, [r3]
  104484:	e3a03000 	mov	r3, #0
  104488:	e1a00003 	mov	r0, r3
  10448c:	e24bd000 	sub	sp, fp, #0
  104490:	e49db004 	pop	{fp}		; (ldr fp, [sp], #4)
  104494:	e12fff1e 	bx	lr

00104498 <alt_reset_cold_reset>:
  104498:	e52db004 	push	{fp}		; (str fp, [sp, #-4]!)
  10449c:	e28db000 	add	fp, sp, #0
  1044a0:	e3053004 	movw	r3, #20484	; 0x5004
  1044a4:	e34f3fd0 	movt	r3, #65488	; 0xffd0
  1044a8:	e3a02001 	mov	r2, #1
  1044ac:	e5832000 	str	r2, [r3]
  1044b0:	e3a03000 	mov	r3, #0
  1044b4:	e1a00003 	mov	r0, r3
  1044b8:	e24bd000 	sub	sp, fp, #0
  1044bc:	e49db004 	pop	{fp}		; (ldr fp, [sp], #4)
  1044c0:	e12fff1e 	bx	lr

001044c4 <alt_reset_warm_reset>:
  1044c4:	e52db004 	push	{fp}		; (str fp, [sp, #-4]!)
  1044c8:	e28db000 	add	fp, sp, #0
  1044cc:	e24dd01c 	sub	sp, sp, #28
  1044d0:	e50b0010 	str	r0, [fp, #-16]
  1044d4:	e50b1014 	str	r1, [fp, #-20]	; 0xffffffec
  1044d8:	e1a01002 	mov	r1, r2
  1044dc:	e1a02003 	mov	r2, r3
  1044e0:	e1a03001 	mov	r3, r1
  1044e4:	e54b3015 	strb	r3, [fp, #-21]	; 0xffffffeb
  1044e8:	e1a03002 	mov	r3, r2
  1044ec:	e54b3016 	strb	r3, [fp, #-22]	; 0xffffffea
  1044f0:	e3a03002 	mov	r3, #2
  1044f4:	e50b3008 	str	r3, [fp, #-8]
  1044f8:	e3a03000 	mov	r3, #0
  1044fc:	e50b300c 	str	r3, [fp, #-12]
  104500:	e51b3010 	ldr	r3, [fp, #-16]
  104504:	e353000f 	cmp	r3, #15
  104508:	9a000002 	bls	104518 <alt_reset_warm_reset+0x54>
  10450c:	e51b3010 	ldr	r3, [fp, #-16]
  104510:	e35300ff 	cmp	r3, #255	; 0xff
  104514:	9a000001 	bls	104520 <alt_reset_warm_reset+0x5c>
  104518:	e3e03008 	mvn	r3, #8
  10451c:	ea00003c 	b	104614 <alt_reset_warm_reset+0x150>
  104520:	e51b3014 	ldr	r3, [fp, #-20]	; 0xffffffec
  104524:	e3530000 	cmp	r3, #0
  104528:	1a000001 	bne	104534 <alt_reset_warm_reset+0x70>
  10452c:	e3e03000 	mvn	r3, #0
  104530:	ea000037 	b	104614 <alt_reset_warm_reset+0x150>
  104534:	e51b3014 	ldr	r3, [fp, #-20]	; 0xffffffec
  104538:	e3530601 	cmp	r3, #1048576	; 0x100000
  10453c:	3a000001 	bcc	104548 <alt_reset_warm_reset+0x84>
  104540:	e3e03008 	mvn	r3, #8
  104544:	ea000032 	b	104614 <alt_reset_warm_reset+0x150>
  104548:	e51b3010 	ldr	r3, [fp, #-16]
  10454c:	e6ef3073 	uxtb	r3, r3
  104550:	e51b200c 	ldr	r2, [fp, #-12]
  104554:	e1823003 	orr	r3, r2, r3
  104558:	e50b300c 	str	r3, [fp, #-12]
  10455c:	e51b3014 	ldr	r3, [fp, #-20]	; 0xffffffec
  104560:	e1a03403 	lsl	r3, r3, #8
  104564:	e3c3320f 	bic	r3, r3, #-268435456	; 0xf0000000
  104568:	e3c330ff 	bic	r3, r3, #255	; 0xff
  10456c:	e51b200c 	ldr	r2, [fp, #-12]
  104570:	e1823003 	orr	r3, r2, r3
  104574:	e50b300c 	str	r3, [fp, #-12]
  104578:	e55b3015 	ldrb	r3, [fp, #-21]	; 0xffffffeb
  10457c:	e3530000 	cmp	r3, #0
  104580:	0a000002 	beq	104590 <alt_reset_warm_reset+0xcc>
  104584:	e51b3008 	ldr	r3, [fp, #-8]
  104588:	e3833010 	orr	r3, r3, #16
  10458c:	e50b3008 	str	r3, [fp, #-8]
  104590:	e55b3016 	ldrb	r3, [fp, #-22]	; 0xffffffea
  104594:	e3530000 	cmp	r3, #0
  104598:	0a000002 	beq	1045a8 <alt_reset_warm_reset+0xe4>
  10459c:	e51b3008 	ldr	r3, [fp, #-8]
  1045a0:	e3833c01 	orr	r3, r3, #256	; 0x100
  1045a4:	e50b3008 	str	r3, [fp, #-8]
  1045a8:	e5db3004 	ldrb	r3, [fp, #4]
  1045ac:	e3530000 	cmp	r3, #0
  1045b0:	0a000002 	beq	1045c0 <alt_reset_warm_reset+0xfc>
  1045b4:	e51b3008 	ldr	r3, [fp, #-8]
  1045b8:	e3833a01 	orr	r3, r3, #4096	; 0x1000
  1045bc:	e50b3008 	str	r3, [fp, #-8]
  1045c0:	e5db3008 	ldrb	r3, [fp, #8]
  1045c4:	e3530000 	cmp	r3, #0
  1045c8:	0a000002 	beq	1045d8 <alt_reset_warm_reset+0x114>
  1045cc:	e51b3008 	ldr	r3, [fp, #-8]
  1045d0:	e3833801 	orr	r3, r3, #65536	; 0x10000
  1045d4:	e50b3008 	str	r3, [fp, #-8]
  1045d8:	e5db300c 	ldrb	r3, [fp, #12]
  1045dc:	e3530000 	cmp	r3, #0
  1045e0:	0a000002 	beq	1045f0 <alt_reset_warm_reset+0x12c>
  1045e4:	e51b3008 	ldr	r3, [fp, #-8]
  1045e8:	e3833601 	orr	r3, r3, #1048576	; 0x100000
  1045ec:	e50b3008 	str	r3, [fp, #-8]
  1045f0:	e3053008 	movw	r3, #20488	; 0x5008
  1045f4:	e34f3fd0 	movt	r3, #65488	; 0xffd0
  1045f8:	e51b200c 	ldr	r2, [fp, #-12]
  1045fc:	e5832000 	str	r2, [r3]
  104600:	e3053004 	movw	r3, #20484	; 0x5004
  104604:	e34f3fd0 	movt	r3, #65488	; 0xffd0
  104608:	e51b2008 	ldr	r2, [fp, #-8]
  10460c:	e5832000 	str	r2, [r3]
  104610:	e3a03000 	mov	r3, #0
  104614:	e1a00003 	mov	r0, r3
  104618:	e24bd000 	sub	sp, fp, #0
  10461c:	e49db004 	pop	{fp}		; (ldr fp, [sp], #4)
  104620:	e12fff1e 	bx	lr

00104624 <alt_clk_mgr_wait>:
  104624:	e52db004 	push	{fp}		; (str fp, [sp, #-4]!)
  104628:	e28db000 	add	fp, sp, #0
  10462c:	e24dd00c 	sub	sp, sp, #12
  104630:	e50b0008 	str	r0, [fp, #-8]
  104634:	e50b100c 	str	r1, [fp, #-12]
  104638:	ea000004 	b	104650 <alt_clk_mgr_wait+0x2c>
  10463c:	e51b3008 	ldr	r3, [fp, #-8]
  104640:	e5933000 	ldr	r3, [r3]
  104644:	e51b300c 	ldr	r3, [fp, #-12]
  104648:	e2433001 	sub	r3, r3, #1
  10464c:	e50b300c 	str	r3, [fp, #-12]
  104650:	e51b300c 	ldr	r3, [fp, #-12]
  104654:	e3530000 	cmp	r3, #0
  104658:	1afffff7 	bne	10463c <alt_clk_mgr_wait+0x18>
  10465c:	e320f000 	nop	{0}
  104660:	e24bd000 	sub	sp, fp, #0
  104664:	e49db004 	pop	{fp}		; (ldr fp, [sp], #4)
  104668:	e12fff1e 	bx	lr

0010466c <alt_clk_plls_settle_wait>:
  10466c:	e52db004 	push	{fp}		; (str fp, [sp, #-4]!)
  104670:	e28db000 	add	fp, sp, #0
  104674:	e24dd00c 	sub	sp, sp, #12
  104678:	e3a03032 	mov	r3, #50	; 0x32
  10467c:	e50b3008 	str	r3, [fp, #-8]
  104680:	e3043014 	movw	r3, #16404	; 0x4014
  104684:	e34f3fd0 	movt	r3, #65488	; 0xffd0
  104688:	e5933000 	ldr	r3, [r3]
  10468c:	e2033001 	and	r3, r3, #1
  104690:	e3530000 	cmp	r3, #0
  104694:	13a03001 	movne	r3, #1
  104698:	03a03000 	moveq	r3, #0
  10469c:	e54b3009 	strb	r3, [fp, #-9]
  1046a0:	e55b3009 	ldrb	r3, [fp, #-9]
  1046a4:	e3530000 	cmp	r3, #0
  1046a8:	0a000004 	beq	1046c0 <alt_clk_plls_settle_wait+0x54>
  1046ac:	e51b3008 	ldr	r3, [fp, #-8]
  1046b0:	e2432001 	sub	r2, r3, #1
  1046b4:	e50b2008 	str	r2, [fp, #-8]
  1046b8:	e3530000 	cmp	r3, #0
  1046bc:	1affffef 	bne	104680 <alt_clk_plls_settle_wait+0x14>
  1046c0:	e51b3008 	ldr	r3, [fp, #-8]
  1046c4:	e3530000 	cmp	r3, #0
  1046c8:	da000001 	ble	1046d4 <alt_clk_plls_settle_wait+0x68>
  1046cc:	e3a03000 	mov	r3, #0
  1046d0:	ea000000 	b	1046d8 <alt_clk_plls_settle_wait+0x6c>
  1046d4:	e3e03000 	mvn	r3, #0
  1046d8:	e1a00003 	mov	r0, r3
  1046dc:	e24bd000 	sub	sp, fp, #0
  1046e0:	e49db004 	pop	{fp}		; (ldr fp, [sp], #4)
  1046e4:	e12fff1e 	bx	lr

001046e8 <alt_clk_pll_lock_wait>:
  1046e8:	e52db004 	push	{fp}		; (str fp, [sp, #-4]!)
  1046ec:	e28db000 	add	fp, sp, #0
  1046f0:	e24dd014 	sub	sp, sp, #20
  1046f4:	e1a03000 	mov	r3, r0
  1046f8:	e50b1014 	str	r1, [fp, #-20]	; 0xffffffec
  1046fc:	e54b300d 	strb	r3, [fp, #-13]
  104700:	e3a03000 	mov	r3, #0
  104704:	e50b3008 	str	r3, [fp, #-8]
  104708:	e55b300d 	ldrb	r3, [fp, #-13]
  10470c:	e3530009 	cmp	r3, #9
  104710:	1a000002 	bne	104720 <alt_clk_pll_lock_wait+0x38>
  104714:	e3a03040 	mov	r3, #64	; 0x40
  104718:	e50b3008 	str	r3, [fp, #-8]
  10471c:	ea00000d 	b	104758 <alt_clk_pll_lock_wait+0x70>
  104720:	e55b300d 	ldrb	r3, [fp, #-13]
  104724:	e353000a 	cmp	r3, #10
  104728:	1a000002 	bne	104738 <alt_clk_pll_lock_wait+0x50>
  10472c:	e3a03080 	mov	r3, #128	; 0x80
  104730:	e50b3008 	str	r3, [fp, #-8]
  104734:	ea000007 	b	104758 <alt_clk_pll_lock_wait+0x70>
  104738:	e55b300d 	ldrb	r3, [fp, #-13]
  10473c:	e353000b 	cmp	r3, #11
  104740:	1a000002 	bne	104750 <alt_clk_pll_lock_wait+0x68>
  104744:	e3a03c01 	mov	r3, #256	; 0x100
  104748:	e50b3008 	str	r3, [fp, #-8]
  10474c:	ea000001 	b	104758 <alt_clk_pll_lock_wait+0x70>
  104750:	e3e03008 	mvn	r3, #8
  104754:	ea000010 	b	10479c <alt_clk_pll_lock_wait+0xb4>
  104758:	e3043008 	movw	r3, #16392	; 0x4008
  10475c:	e34f3fd0 	movt	r3, #65488	; 0xffd0
  104760:	e5933000 	ldr	r3, [r3]
  104764:	e50b300c 	str	r3, [fp, #-12]
  104768:	e51b200c 	ldr	r2, [fp, #-12]
  10476c:	e51b3008 	ldr	r3, [fp, #-8]
  104770:	e0033002 	and	r3, r3, r2
  104774:	e3530000 	cmp	r3, #0
  104778:	0a000001 	beq	104784 <alt_clk_pll_lock_wait+0x9c>
  10477c:	e3a03000 	mov	r3, #0
  104780:	ea000005 	b	10479c <alt_clk_pll_lock_wait+0xb4>
  104784:	e51b3014 	ldr	r3, [fp, #-20]	; 0xffffffec
  104788:	e2432001 	sub	r2, r3, #1
  10478c:	e50b2014 	str	r2, [fp, #-20]	; 0xffffffec
  104790:	e3530000 	cmp	r3, #0
  104794:	1affffef 	bne	104758 <alt_clk_pll_lock_wait+0x70>
  104798:	e3e0300b 	mvn	r3, #11
  10479c:	e1a00003 	mov	r0, r3
  1047a0:	e24bd000 	sub	sp, fp, #0
  1047a4:	e49db004 	pop	{fp}		; (ldr fp, [sp], #4)
  1047a8:	e12fff1e 	bx	lr

001047ac <alt_clk_pllcounter_write>:
  1047ac:	e52db004 	push	{fp}		; (str fp, [sp, #-4]!)
  1047b0:	e28db000 	add	fp, sp, #0
  1047b4:	e24dd01c 	sub	sp, sp, #28
  1047b8:	e50b0010 	str	r0, [fp, #-16]
  1047bc:	e50b1014 	str	r1, [fp, #-20]	; 0xffffffec
  1047c0:	e50b2018 	str	r2, [fp, #-24]	; 0xffffffe8
  1047c4:	e50b301c 	str	r3, [fp, #-28]	; 0xffffffe4
  1047c8:	e51b3010 	ldr	r3, [fp, #-16]
  1047cc:	e5932000 	ldr	r2, [r3]
  1047d0:	e59b1004 	ldr	r1, [fp, #4]
  1047d4:	e59b3008 	ldr	r3, [fp, #8]
  1047d8:	e1a03311 	lsl	r3, r1, r3
  1047dc:	e1822003 	orr	r2, r2, r3
  1047e0:	e51b3010 	ldr	r3, [fp, #-16]
  1047e4:	e5832000 	str	r2, [r3]
  1047e8:	e51b3014 	ldr	r3, [fp, #-20]	; 0xffffffec
  1047ec:	e5933000 	ldr	r3, [r3]
  1047f0:	e50b3008 	str	r3, [fp, #-8]
  1047f4:	e51b2008 	ldr	r2, [fp, #-8]
  1047f8:	e59b3004 	ldr	r3, [fp, #4]
  1047fc:	e0033002 	and	r3, r3, r2
  104800:	e3530000 	cmp	r3, #0
  104804:	0afffff7 	beq	1047e8 <alt_clk_pllcounter_write+0x3c>
  104808:	e51b3018 	ldr	r3, [fp, #-24]	; 0xffffffe8
  10480c:	e51b201c 	ldr	r2, [fp, #-28]	; 0xffffffe4
  104810:	e5832000 	str	r2, [r3]
  104814:	e51b3010 	ldr	r3, [fp, #-16]
  104818:	e5932000 	ldr	r2, [r3]
  10481c:	e59b1004 	ldr	r1, [fp, #4]
  104820:	e59b3008 	ldr	r3, [fp, #8]
  104824:	e1a03311 	lsl	r3, r1, r3
  104828:	e1e03003 	mvn	r3, r3
  10482c:	e0022003 	and	r2, r2, r3
  104830:	e51b3010 	ldr	r3, [fp, #-16]
  104834:	e5832000 	str	r2, [r3]
  104838:	e320f000 	nop	{0}
  10483c:	e24bd000 	sub	sp, fp, #0
  104840:	e49db004 	pop	{fp}		; (ldr fp, [sp], #4)
  104844:	e12fff1e 	bx	lr

00104848 <alt_clk_lock_status_clear>:
  104848:	e52db004 	push	{fp}		; (str fp, [sp, #-4]!)
  10484c:	e28db000 	add	fp, sp, #0
  104850:	e24dd00c 	sub	sp, sp, #12
  104854:	e1a03000 	mov	r3, r0
  104858:	e54b3005 	strb	r3, [fp, #-5]
  10485c:	e55b3005 	ldrb	r3, [fp, #-5]
  104860:	e3c3303f 	bic	r3, r3, #63	; 0x3f
  104864:	e3530000 	cmp	r3, #0
  104868:	0a000001 	beq	104874 <alt_clk_lock_status_clear+0x2c>
  10486c:	e3e03008 	mvn	r3, #8
  104870:	ea000008 	b	104898 <alt_clk_lock_status_clear+0x50>
  104874:	e3043008 	movw	r3, #16392	; 0x4008
  104878:	e34f3fd0 	movt	r3, #65488	; 0xffd0
  10487c:	e3042008 	movw	r2, #16392	; 0x4008
  104880:	e34f2fd0 	movt	r2, #65488	; 0xffd0
  104884:	e5921000 	ldr	r1, [r2]
  104888:	e55b2005 	ldrb	r2, [fp, #-5]
  10488c:	e1812002 	orr	r2, r1, r2
  104890:	e5832000 	str	r2, [r3]
  104894:	e3a03000 	mov	r3, #0
  104898:	e1a00003 	mov	r0, r3
  10489c:	e24bd000 	sub	sp, fp, #0
  1048a0:	e49db004 	pop	{fp}		; (ldr fp, [sp], #4)
  1048a4:	e12fff1e 	bx	lr

001048a8 <alt_clk_lock_status_get>:
  1048a8:	e52db004 	push	{fp}		; (str fp, [sp, #-4]!)
  1048ac:	e28db000 	add	fp, sp, #0
  1048b0:	e3043008 	movw	r3, #16392	; 0x4008
  1048b4:	e34f3fd0 	movt	r3, #65488	; 0xffd0
  1048b8:	e5933000 	ldr	r3, [r3]
  1048bc:	e7e83053 	ubfx	r3, r3, #0, #9
  1048c0:	e1a00003 	mov	r0, r3
  1048c4:	e24bd000 	sub	sp, fp, #0
  1048c8:	e49db004 	pop	{fp}		; (ldr fp, [sp], #4)
  1048cc:	e12fff1e 	bx	lr

001048d0 <alt_clk_pll_is_locked>:
  1048d0:	e52db004 	push	{fp}		; (str fp, [sp, #-4]!)
  1048d4:	e28db000 	add	fp, sp, #0
  1048d8:	e24dd014 	sub	sp, sp, #20
  1048dc:	e1a03000 	mov	r3, r0
  1048e0:	e54b300d 	strb	r3, [fp, #-13]
  1048e4:	e3e03008 	mvn	r3, #8
  1048e8:	e50b3008 	str	r3, [fp, #-8]
  1048ec:	e55b300d 	ldrb	r3, [fp, #-13]
  1048f0:	e3530009 	cmp	r3, #9
  1048f4:	1a000009 	bne	104920 <alt_clk_pll_is_locked+0x50>
  1048f8:	e3043008 	movw	r3, #16392	; 0x4008
  1048fc:	e34f3fd0 	movt	r3, #65488	; 0xffd0
  104900:	e5933000 	ldr	r3, [r3]
  104904:	e2033040 	and	r3, r3, #64	; 0x40
  104908:	e3530000 	cmp	r3, #0
  10490c:	13a03001 	movne	r3, #1
  104910:	03a03000 	moveq	r3, #0
  104914:	e6ef3073 	uxtb	r3, r3
  104918:	e50b3008 	str	r3, [fp, #-8]
  10491c:	ea000018 	b	104984 <alt_clk_pll_is_locked+0xb4>
  104920:	e55b300d 	ldrb	r3, [fp, #-13]
  104924:	e353000a 	cmp	r3, #10
  104928:	1a000009 	bne	104954 <alt_clk_pll_is_locked+0x84>
  10492c:	e3043008 	movw	r3, #16392	; 0x4008
  104930:	e34f3fd0 	movt	r3, #65488	; 0xffd0
  104934:	e5933000 	ldr	r3, [r3]
  104938:	e2033080 	and	r3, r3, #128	; 0x80
  10493c:	e3530000 	cmp	r3, #0
  104940:	13a03001 	movne	r3, #1
  104944:	03a03000 	moveq	r3, #0
  104948:	e6ef3073 	uxtb	r3, r3
  10494c:	e50b3008 	str	r3, [fp, #-8]
  104950:	ea00000b 	b	104984 <alt_clk_pll_is_locked+0xb4>
  104954:	e55b300d 	ldrb	r3, [fp, #-13]
  104958:	e353000b 	cmp	r3, #11
  10495c:	1a000008 	bne	104984 <alt_clk_pll_is_locked+0xb4>
  104960:	e3043008 	movw	r3, #16392	; 0x4008
  104964:	e34f3fd0 	movt	r3, #65488	; 0xffd0
  104968:	e5933000 	ldr	r3, [r3]
  10496c:	e2033c01 	and	r3, r3, #256	; 0x100
  104970:	e3530000 	cmp	r3, #0
  104974:	13a03001 	movne	r3, #1
  104978:	03a03000 	moveq	r3, #0
  10497c:	e6ef3073 	uxtb	r3, r3
  104980:	e50b3008 	str	r3, [fp, #-8]
  104984:	e51b3008 	ldr	r3, [fp, #-8]
  104988:	e1a00003 	mov	r0, r3
  10498c:	e24bd000 	sub	sp, fp, #0
  104990:	e49db004 	pop	{fp}		; (ldr fp, [sp], #4)
  104994:	e12fff1e 	bx	lr

00104998 <alt_clk_safe_mode_clear>:
  104998:	e92d4800 	push	{fp, lr}
  10499c:	e28db004 	add	fp, sp, #4
  1049a0:	e24dd008 	sub	sp, sp, #8
  1049a4:	e3e03000 	mvn	r3, #0
  1049a8:	e50b3008 	str	r3, [fp, #-8]
  1049ac:	e3043060 	movw	r3, #16480	; 0x4060
  1049b0:	e34f3fd0 	movt	r3, #65488	; 0xffd0
  1049b4:	e5933000 	ldr	r3, [r3]
  1049b8:	e50b300c 	str	r3, [fp, #-12]
  1049bc:	e3043060 	movw	r3, #16480	; 0x4060
  1049c0:	e34f3fd0 	movt	r3, #65488	; 0xffd0
  1049c4:	e51b200c 	ldr	r2, [fp, #-12]
  1049c8:	e3c2200c 	bic	r2, r2, #12
  1049cc:	e5832000 	str	r2, [r3]
  1049d0:	e3a03901 	mov	r3, #16384	; 0x4000
  1049d4:	e34f3fd0 	movt	r3, #65488	; 0xffd0
  1049d8:	e3a02901 	mov	r2, #16384	; 0x4000
  1049dc:	e34f2fd0 	movt	r2, #65488	; 0xffd0
  1049e0:	e5922000 	ldr	r2, [r2]
  1049e4:	e3822001 	orr	r2, r2, #1
  1049e8:	e5832000 	str	r2, [r3]
  1049ec:	ebffff1e 	bl	10466c <alt_clk_plls_settle_wait>
  1049f0:	e50b0008 	str	r0, [fp, #-8]
  1049f4:	e3043060 	movw	r3, #16480	; 0x4060
  1049f8:	e34f3fd0 	movt	r3, #65488	; 0xffd0
  1049fc:	e3042060 	movw	r2, #16480	; 0x4060
  104a00:	e34f2fd0 	movt	r2, #65488	; 0xffd0
  104a04:	e5922000 	ldr	r2, [r2]
  104a08:	e3c2100c 	bic	r1, r2, #12
  104a0c:	e51b200c 	ldr	r2, [fp, #-12]
  104a10:	e202200c 	and	r2, r2, #12
  104a14:	e1812002 	orr	r2, r1, r2
  104a18:	e5832000 	str	r2, [r3]
  104a1c:	e51b3008 	ldr	r3, [fp, #-8]
  104a20:	e1a00003 	mov	r0, r3
  104a24:	e24bd004 	sub	sp, fp, #4
  104a28:	e8bd8800 	pop	{fp, pc}

00104a2c <alt_clk_is_in_safe_mode>:
  104a2c:	e52db004 	push	{fp}		; (str fp, [sp, #-4]!)
  104a30:	e28db000 	add	fp, sp, #0
  104a34:	e24dd014 	sub	sp, sp, #20
  104a38:	e1a03000 	mov	r3, r0
  104a3c:	e54b300d 	strb	r3, [fp, #-13]
  104a40:	e3a03000 	mov	r3, #0
  104a44:	e54b3005 	strb	r3, [fp, #-5]
  104a48:	e55b300d 	ldrb	r3, [fp, #-13]
  104a4c:	e3530000 	cmp	r3, #0
  104a50:	1a000008 	bne	104a78 <alt_clk_is_in_safe_mode+0x4c>
  104a54:	e3a03901 	mov	r3, #16384	; 0x4000
  104a58:	e34f3fd0 	movt	r3, #65488	; 0xffd0
  104a5c:	e5933000 	ldr	r3, [r3]
  104a60:	e2033001 	and	r3, r3, #1
  104a64:	e3530000 	cmp	r3, #0
  104a68:	13a03001 	movne	r3, #1
  104a6c:	03a03000 	moveq	r3, #0
  104a70:	e54b3005 	strb	r3, [fp, #-5]
  104a74:	ea000019 	b	104ae0 <alt_clk_is_in_safe_mode+0xb4>
  104a78:	e55b300d 	ldrb	r3, [fp, #-13]
  104a7c:	e3530001 	cmp	r3, #1
  104a80:	1a000016 	bne	104ae0 <alt_clk_is_in_safe_mode+0xb4>
  104a84:	e3043010 	movw	r3, #16400	; 0x4010
  104a88:	e34f3fd0 	movt	r3, #65488	; 0xffd0
  104a8c:	e5933000 	ldr	r3, [r3]
  104a90:	e50b300c 	str	r3, [fp, #-12]
  104a94:	e51b300c 	ldr	r3, [fp, #-12]
  104a98:	e2033001 	and	r3, r3, #1
  104a9c:	e3530000 	cmp	r3, #0
  104aa0:	0a000002 	beq	104ab0 <alt_clk_is_in_safe_mode+0x84>
  104aa4:	e3a03001 	mov	r3, #1
  104aa8:	e54b3005 	strb	r3, [fp, #-5]
  104aac:	ea00000b 	b	104ae0 <alt_clk_is_in_safe_mode+0xb4>
  104ab0:	e51b300c 	ldr	r3, [fp, #-12]
  104ab4:	e2033002 	and	r3, r3, #2
  104ab8:	e3530000 	cmp	r3, #0
  104abc:	0a000007 	beq	104ae0 <alt_clk_is_in_safe_mode+0xb4>
  104ac0:	e3a03901 	mov	r3, #16384	; 0x4000
  104ac4:	e34f3fd0 	movt	r3, #65488	; 0xffd0
  104ac8:	e5933000 	ldr	r3, [r3]
  104acc:	e2033001 	and	r3, r3, #1
  104ad0:	e3530000 	cmp	r3, #0
  104ad4:	13a03001 	movne	r3, #1
  104ad8:	03a03000 	moveq	r3, #0
  104adc:	e54b3005 	strb	r3, [fp, #-5]
  104ae0:	e55b3005 	ldrb	r3, [fp, #-5]
  104ae4:	e1a00003 	mov	r0, r3
  104ae8:	e24bd000 	sub	sp, fp, #0
  104aec:	e49db004 	pop	{fp}		; (ldr fp, [sp], #4)
  104af0:	e12fff1e 	bx	lr

00104af4 <alt_clk_pll_bypass_disable>:
  104af4:	e92d4800 	push	{fp, lr}
  104af8:	e28db004 	add	fp, sp, #4
  104afc:	e24dd018 	sub	sp, sp, #24
  104b00:	e1a03000 	mov	r3, r0
  104b04:	e54b3015 	strb	r3, [fp, #-21]	; 0xffffffeb
  104b08:	e3e03008 	mvn	r3, #8
  104b0c:	e50b3008 	str	r3, [fp, #-8]
  104b10:	e3a03000 	mov	r3, #0
  104b14:	e54b300d 	strb	r3, [fp, #-13]
  104b18:	e3a03000 	mov	r3, #0
  104b1c:	e54b300e 	strb	r3, [fp, #-14]
  104b20:	e55b3015 	ldrb	r3, [fp, #-21]	; 0xffffffeb
  104b24:	e1a00003 	mov	r0, r3
  104b28:	ebffff68 	bl	1048d0 <alt_clk_pll_is_locked>
  104b2c:	e1a03000 	mov	r3, r0
  104b30:	e3530001 	cmp	r3, #1
  104b34:	1a0000d7 	bne	104e98 <alt_clk_pll_bypass_disable+0x3a4>
  104b38:	e55b3015 	ldrb	r3, [fp, #-21]	; 0xffffffeb
  104b3c:	e3530009 	cmp	r3, #9
  104b40:	1a00005a 	bne	104cb0 <alt_clk_pll_bypass_disable+0x1bc>
  104b44:	e3043070 	movw	r3, #16496	; 0x4070
  104b48:	e34f3fd0 	movt	r3, #65488	; 0xffd0
  104b4c:	e5933000 	ldr	r3, [r3]
  104b50:	e50b300c 	str	r3, [fp, #-12]
  104b54:	e3043060 	movw	r3, #16480	; 0x4060
  104b58:	e34f3fd0 	movt	r3, #65488	; 0xffd0
  104b5c:	e5933000 	ldr	r3, [r3]
  104b60:	e50b3014 	str	r3, [fp, #-20]	; 0xffffffec
  104b64:	e51b3014 	ldr	r3, [fp, #-20]	; 0xffffffec
  104b68:	e2033004 	and	r3, r3, #4
  104b6c:	e3530000 	cmp	r3, #0
  104b70:	0a000005 	beq	104b8c <alt_clk_pll_bypass_disable+0x98>
  104b74:	e51b300c 	ldr	r3, [fp, #-12]
  104b78:	e2033001 	and	r3, r3, #1
  104b7c:	e3530000 	cmp	r3, #0
  104b80:	1a000001 	bne	104b8c <alt_clk_pll_bypass_disable+0x98>
  104b84:	e3a03001 	mov	r3, #1
  104b88:	e54b300d 	strb	r3, [fp, #-13]
  104b8c:	e51b3014 	ldr	r3, [fp, #-20]	; 0xffffffec
  104b90:	e2033008 	and	r3, r3, #8
  104b94:	e3530000 	cmp	r3, #0
  104b98:	0a000005 	beq	104bb4 <alt_clk_pll_bypass_disable+0xc0>
  104b9c:	e51b300c 	ldr	r3, [fp, #-12]
  104ba0:	e2033002 	and	r3, r3, #2
  104ba4:	e3530000 	cmp	r3, #0
  104ba8:	1a000001 	bne	104bb4 <alt_clk_pll_bypass_disable+0xc0>
  104bac:	e3a03001 	mov	r3, #1
  104bb0:	e54b300e 	strb	r3, [fp, #-14]
  104bb4:	e51b3014 	ldr	r3, [fp, #-20]	; 0xffffffec
  104bb8:	e50b300c 	str	r3, [fp, #-12]
  104bbc:	e55b300d 	ldrb	r3, [fp, #-13]
  104bc0:	e3530000 	cmp	r3, #0
  104bc4:	0a000002 	beq	104bd4 <alt_clk_pll_bypass_disable+0xe0>
  104bc8:	e51b300c 	ldr	r3, [fp, #-12]
  104bcc:	e3c33004 	bic	r3, r3, #4
  104bd0:	e50b300c 	str	r3, [fp, #-12]
  104bd4:	e55b300e 	ldrb	r3, [fp, #-14]
  104bd8:	e3530000 	cmp	r3, #0
  104bdc:	0a000002 	beq	104bec <alt_clk_pll_bypass_disable+0xf8>
  104be0:	e51b300c 	ldr	r3, [fp, #-12]
  104be4:	e3c33008 	bic	r3, r3, #8
  104be8:	e50b300c 	str	r3, [fp, #-12]
  104bec:	e55b300d 	ldrb	r3, [fp, #-13]
  104bf0:	e3530000 	cmp	r3, #0
  104bf4:	1a000002 	bne	104c04 <alt_clk_pll_bypass_disable+0x110>
  104bf8:	e55b300e 	ldrb	r3, [fp, #-14]
  104bfc:	e3530000 	cmp	r3, #0
  104c00:	0a000003 	beq	104c14 <alt_clk_pll_bypass_disable+0x120>
  104c04:	e3043060 	movw	r3, #16480	; 0x4060
  104c08:	e34f3fd0 	movt	r3, #65488	; 0xffd0
  104c0c:	e51b200c 	ldr	r2, [fp, #-12]
  104c10:	e5832000 	str	r2, [r3]
  104c14:	e3043040 	movw	r3, #16448	; 0x4040
  104c18:	e34f3fd0 	movt	r3, #65488	; 0xffd0
  104c1c:	e5933000 	ldr	r3, [r3]
  104c20:	e50b300c 	str	r3, [fp, #-12]
  104c24:	e3043040 	movw	r3, #16448	; 0x4040
  104c28:	e34f3fd0 	movt	r3, #65488	; 0xffd0
  104c2c:	e51b200c 	ldr	r2, [fp, #-12]
  104c30:	e3822401 	orr	r2, r2, #16777216	; 0x1000000
  104c34:	e5832000 	str	r2, [r3]
  104c38:	e3043040 	movw	r3, #16448	; 0x4040
  104c3c:	e34f3fd0 	movt	r3, #65488	; 0xffd0
  104c40:	e51b200c 	ldr	r2, [fp, #-12]
  104c44:	e3c22401 	bic	r2, r2, #16777216	; 0x1000000
  104c48:	e5832000 	str	r2, [r3]
  104c4c:	ebfffe86 	bl	10466c <alt_clk_plls_settle_wait>
  104c50:	e3043004 	movw	r3, #16388	; 0x4004
  104c54:	e34f3fd0 	movt	r3, #65488	; 0xffd0
  104c58:	e3042004 	movw	r2, #16388	; 0x4004
  104c5c:	e34f2fd0 	movt	r2, #65488	; 0xffd0
  104c60:	e5922000 	ldr	r2, [r2]
  104c64:	e3c22001 	bic	r2, r2, #1
  104c68:	e5832000 	str	r2, [r3]
  104c6c:	ebfffe7e 	bl	10466c <alt_clk_plls_settle_wait>
  104c70:	e50b0008 	str	r0, [fp, #-8]
  104c74:	e55b300d 	ldrb	r3, [fp, #-13]
  104c78:	e3530000 	cmp	r3, #0
  104c7c:	1a000002 	bne	104c8c <alt_clk_pll_bypass_disable+0x198>
  104c80:	e55b300e 	ldrb	r3, [fp, #-14]
  104c84:	e3530000 	cmp	r3, #0
  104c88:	0a000084 	beq	104ea0 <alt_clk_pll_bypass_disable+0x3ac>
  104c8c:	e3a0101e 	mov	r1, #30
  104c90:	e3040060 	movw	r0, #16480	; 0x4060
  104c94:	e34f0fd0 	movt	r0, #65488	; 0xffd0
  104c98:	ebfffe61 	bl	104624 <alt_clk_mgr_wait>
  104c9c:	e3043060 	movw	r3, #16480	; 0x4060
  104ca0:	e34f3fd0 	movt	r3, #65488	; 0xffd0
  104ca4:	e51b2014 	ldr	r2, [fp, #-20]	; 0xffffffec
  104ca8:	e5832000 	str	r2, [r3]
  104cac:	ea00007b 	b	104ea0 <alt_clk_pll_bypass_disable+0x3ac>
  104cb0:	e55b3015 	ldrb	r3, [fp, #-21]	; 0xffffffeb
  104cb4:	e353000a 	cmp	r3, #10
  104cb8:	1a00005a 	bne	104e28 <alt_clk_pll_bypass_disable+0x334>
  104cbc:	e3043070 	movw	r3, #16496	; 0x4070
  104cc0:	e34f3fd0 	movt	r3, #65488	; 0xffd0
  104cc4:	e5933000 	ldr	r3, [r3]
  104cc8:	e50b300c 	str	r3, [fp, #-12]
  104ccc:	e3043060 	movw	r3, #16480	; 0x4060
  104cd0:	e34f3fd0 	movt	r3, #65488	; 0xffd0
  104cd4:	e5933000 	ldr	r3, [r3]
  104cd8:	e50b3014 	str	r3, [fp, #-20]	; 0xffffffec
  104cdc:	e51b3014 	ldr	r3, [fp, #-20]	; 0xffffffec
  104ce0:	e2033004 	and	r3, r3, #4
  104ce4:	e3530000 	cmp	r3, #0
  104ce8:	0a000005 	beq	104d04 <alt_clk_pll_bypass_disable+0x210>
  104cec:	e51b300c 	ldr	r3, [fp, #-12]
  104cf0:	e2033001 	and	r3, r3, #1
  104cf4:	e3530000 	cmp	r3, #0
  104cf8:	0a000001 	beq	104d04 <alt_clk_pll_bypass_disable+0x210>
  104cfc:	e3a03001 	mov	r3, #1
  104d00:	e54b300d 	strb	r3, [fp, #-13]
  104d04:	e51b3014 	ldr	r3, [fp, #-20]	; 0xffffffec
  104d08:	e2033008 	and	r3, r3, #8
  104d0c:	e3530000 	cmp	r3, #0
  104d10:	0a000005 	beq	104d2c <alt_clk_pll_bypass_disable+0x238>
  104d14:	e51b300c 	ldr	r3, [fp, #-12]
  104d18:	e2033002 	and	r3, r3, #2
  104d1c:	e3530000 	cmp	r3, #0
  104d20:	0a000001 	beq	104d2c <alt_clk_pll_bypass_disable+0x238>
  104d24:	e3a03001 	mov	r3, #1
  104d28:	e54b300e 	strb	r3, [fp, #-14]
  104d2c:	e51b3014 	ldr	r3, [fp, #-20]	; 0xffffffec
  104d30:	e50b300c 	str	r3, [fp, #-12]
  104d34:	e55b300d 	ldrb	r3, [fp, #-13]
  104d38:	e3530000 	cmp	r3, #0
  104d3c:	0a000002 	beq	104d4c <alt_clk_pll_bypass_disable+0x258>
  104d40:	e51b300c 	ldr	r3, [fp, #-12]
  104d44:	e3c33004 	bic	r3, r3, #4
  104d48:	e50b300c 	str	r3, [fp, #-12]
  104d4c:	e55b300e 	ldrb	r3, [fp, #-14]
  104d50:	e3530000 	cmp	r3, #0
  104d54:	0a000002 	beq	104d64 <alt_clk_pll_bypass_disable+0x270>
  104d58:	e51b300c 	ldr	r3, [fp, #-12]
  104d5c:	e3c33008 	bic	r3, r3, #8
  104d60:	e50b300c 	str	r3, [fp, #-12]
  104d64:	e55b300d 	ldrb	r3, [fp, #-13]
  104d68:	e3530000 	cmp	r3, #0
  104d6c:	1a000002 	bne	104d7c <alt_clk_pll_bypass_disable+0x288>
  104d70:	e55b300e 	ldrb	r3, [fp, #-14]
  104d74:	e3530000 	cmp	r3, #0
  104d78:	0a000003 	beq	104d8c <alt_clk_pll_bypass_disable+0x298>
  104d7c:	e3043060 	movw	r3, #16480	; 0x4060
  104d80:	e34f3fd0 	movt	r3, #65488	; 0xffd0
  104d84:	e51b200c 	ldr	r2, [fp, #-12]
  104d88:	e5832000 	str	r2, [r3]
  104d8c:	e3043080 	movw	r3, #16512	; 0x4080
  104d90:	e34f3fd0 	movt	r3, #65488	; 0xffd0
  104d94:	e5933000 	ldr	r3, [r3]
  104d98:	e50b300c 	str	r3, [fp, #-12]
  104d9c:	e3043080 	movw	r3, #16512	; 0x4080
  104da0:	e34f3fd0 	movt	r3, #65488	; 0xffd0
  104da4:	e51b200c 	ldr	r2, [fp, #-12]
  104da8:	e3822401 	orr	r2, r2, #16777216	; 0x1000000
  104dac:	e5832000 	str	r2, [r3]
  104db0:	ebfffe2d 	bl	10466c <alt_clk_plls_settle_wait>
  104db4:	e3043080 	movw	r3, #16512	; 0x4080
  104db8:	e34f3fd0 	movt	r3, #65488	; 0xffd0
  104dbc:	e51b200c 	ldr	r2, [fp, #-12]
  104dc0:	e3c22401 	bic	r2, r2, #16777216	; 0x1000000
  104dc4:	e5832000 	str	r2, [r3]
  104dc8:	e3043004 	movw	r3, #16388	; 0x4004
  104dcc:	e34f3fd0 	movt	r3, #65488	; 0xffd0
  104dd0:	e3042004 	movw	r2, #16388	; 0x4004
  104dd4:	e34f2fd0 	movt	r2, #65488	; 0xffd0
  104dd8:	e5922000 	ldr	r2, [r2]
  104ddc:	e3c22008 	bic	r2, r2, #8
  104de0:	e5832000 	str	r2, [r3]
  104de4:	ebfffe20 	bl	10466c <alt_clk_plls_settle_wait>
  104de8:	e50b0008 	str	r0, [fp, #-8]
  104dec:	e55b300d 	ldrb	r3, [fp, #-13]
  104df0:	e3530000 	cmp	r3, #0
  104df4:	1a000002 	bne	104e04 <alt_clk_pll_bypass_disable+0x310>
  104df8:	e55b300e 	ldrb	r3, [fp, #-14]
  104dfc:	e3530000 	cmp	r3, #0
  104e00:	0a000026 	beq	104ea0 <alt_clk_pll_bypass_disable+0x3ac>
  104e04:	e3a0101e 	mov	r1, #30
  104e08:	e3040060 	movw	r0, #16480	; 0x4060
  104e0c:	e34f0fd0 	movt	r0, #65488	; 0xffd0
  104e10:	ebfffe03 	bl	104624 <alt_clk_mgr_wait>
  104e14:	e3043060 	movw	r3, #16480	; 0x4060
  104e18:	e34f3fd0 	movt	r3, #65488	; 0xffd0
  104e1c:	e51b2014 	ldr	r2, [fp, #-20]	; 0xffffffec
  104e20:	e5832000 	str	r2, [r3]
  104e24:	ea00001d 	b	104ea0 <alt_clk_pll_bypass_disable+0x3ac>
  104e28:	e55b3015 	ldrb	r3, [fp, #-21]	; 0xffffffeb
  104e2c:	e353000b 	cmp	r3, #11
  104e30:	1a00001a 	bne	104ea0 <alt_clk_pll_bypass_disable+0x3ac>
  104e34:	e30430c0 	movw	r3, #16576	; 0x40c0
  104e38:	e34f3fd0 	movt	r3, #65488	; 0xffd0
  104e3c:	e5933000 	ldr	r3, [r3]
  104e40:	e50b300c 	str	r3, [fp, #-12]
  104e44:	e30430c0 	movw	r3, #16576	; 0x40c0
  104e48:	e34f3fd0 	movt	r3, #65488	; 0xffd0
  104e4c:	e51b200c 	ldr	r2, [fp, #-12]
  104e50:	e3822401 	orr	r2, r2, #16777216	; 0x1000000
  104e54:	e5832000 	str	r2, [r3]
  104e58:	e30430c0 	movw	r3, #16576	; 0x40c0
  104e5c:	e34f3fd0 	movt	r3, #65488	; 0xffd0
  104e60:	e51b200c 	ldr	r2, [fp, #-12]
  104e64:	e3c22401 	bic	r2, r2, #16777216	; 0x1000000
  104e68:	e5832000 	str	r2, [r3]
  104e6c:	ebfffdfe 	bl	10466c <alt_clk_plls_settle_wait>
  104e70:	e3043004 	movw	r3, #16388	; 0x4004
  104e74:	e34f3fd0 	movt	r3, #65488	; 0xffd0
  104e78:	e3042004 	movw	r2, #16388	; 0x4004
  104e7c:	e34f2fd0 	movt	r2, #65488	; 0xffd0
  104e80:	e5922000 	ldr	r2, [r2]
  104e84:	e3c22004 	bic	r2, r2, #4
  104e88:	e5832000 	str	r2, [r3]
  104e8c:	ebfffdf6 	bl	10466c <alt_clk_plls_settle_wait>
  104e90:	e50b0008 	str	r0, [fp, #-8]
  104e94:	ea000001 	b	104ea0 <alt_clk_pll_bypass_disable+0x3ac>
  104e98:	e3e03000 	mvn	r3, #0
  104e9c:	e50b3008 	str	r3, [fp, #-8]
  104ea0:	e51b3008 	ldr	r3, [fp, #-8]
  104ea4:	e1a00003 	mov	r0, r3
  104ea8:	e24bd004 	sub	sp, fp, #4
  104eac:	e8bd8800 	pop	{fp, pc}

00104eb0 <alt_clk_pll_bypass_enable>:
  104eb0:	e92d4800 	push	{fp, lr}
  104eb4:	e28db004 	add	fp, sp, #4
  104eb8:	e24dd018 	sub	sp, sp, #24
  104ebc:	e1a03000 	mov	r3, r0
  104ec0:	e1a02001 	mov	r2, r1
  104ec4:	e54b3015 	strb	r3, [fp, #-21]	; 0xffffffeb
  104ec8:	e1a03002 	mov	r3, r2
  104ecc:	e54b3016 	strb	r3, [fp, #-22]	; 0xffffffea
  104ed0:	e3e03008 	mvn	r3, #8
  104ed4:	e50b3008 	str	r3, [fp, #-8]
  104ed8:	e3a03000 	mov	r3, #0
  104edc:	e54b300d 	strb	r3, [fp, #-13]
  104ee0:	e3a03000 	mov	r3, #0
  104ee4:	e54b300e 	strb	r3, [fp, #-14]
  104ee8:	e55b3015 	ldrb	r3, [fp, #-21]	; 0xffffffeb
  104eec:	e3530009 	cmp	r3, #9
  104ef0:	1a000051 	bne	10503c <alt_clk_pll_bypass_enable+0x18c>
  104ef4:	e55b3016 	ldrb	r3, [fp, #-22]	; 0xffffffea
  104ef8:	e2233001 	eor	r3, r3, #1
  104efc:	e6ef3073 	uxtb	r3, r3
  104f00:	e3530000 	cmp	r3, #0
  104f04:	0a000049 	beq	105030 <alt_clk_pll_bypass_enable+0x180>
  104f08:	e3043070 	movw	r3, #16496	; 0x4070
  104f0c:	e34f3fd0 	movt	r3, #65488	; 0xffd0
  104f10:	e5933000 	ldr	r3, [r3]
  104f14:	e50b300c 	str	r3, [fp, #-12]
  104f18:	e3043060 	movw	r3, #16480	; 0x4060
  104f1c:	e34f3fd0 	movt	r3, #65488	; 0xffd0
  104f20:	e5933000 	ldr	r3, [r3]
  104f24:	e50b3014 	str	r3, [fp, #-20]	; 0xffffffec
  104f28:	e51b3014 	ldr	r3, [fp, #-20]	; 0xffffffec
  104f2c:	e2033004 	and	r3, r3, #4
  104f30:	e3530000 	cmp	r3, #0
  104f34:	0a000005 	beq	104f50 <alt_clk_pll_bypass_enable+0xa0>
  104f38:	e51b300c 	ldr	r3, [fp, #-12]
  104f3c:	e2033001 	and	r3, r3, #1
  104f40:	e3530000 	cmp	r3, #0
  104f44:	1a000001 	bne	104f50 <alt_clk_pll_bypass_enable+0xa0>
  104f48:	e3a03001 	mov	r3, #1
  104f4c:	e54b300d 	strb	r3, [fp, #-13]
  104f50:	e51b3014 	ldr	r3, [fp, #-20]	; 0xffffffec
  104f54:	e2033008 	and	r3, r3, #8
  104f58:	e3530000 	cmp	r3, #0
  104f5c:	0a000005 	beq	104f78 <alt_clk_pll_bypass_enable+0xc8>
  104f60:	e51b300c 	ldr	r3, [fp, #-12]
  104f64:	e2033002 	and	r3, r3, #2
  104f68:	e3530000 	cmp	r3, #0
  104f6c:	1a000001 	bne	104f78 <alt_clk_pll_bypass_enable+0xc8>
  104f70:	e3a03001 	mov	r3, #1
  104f74:	e54b300e 	strb	r3, [fp, #-14]
  104f78:	e51b3014 	ldr	r3, [fp, #-20]	; 0xffffffec
  104f7c:	e50b300c 	str	r3, [fp, #-12]
  104f80:	e55b300d 	ldrb	r3, [fp, #-13]
  104f84:	e3530000 	cmp	r3, #0
  104f88:	0a000002 	beq	104f98 <alt_clk_pll_bypass_enable+0xe8>
  104f8c:	e51b300c 	ldr	r3, [fp, #-12]
  104f90:	e3c33004 	bic	r3, r3, #4
  104f94:	e50b300c 	str	r3, [fp, #-12]
  104f98:	e55b300e 	ldrb	r3, [fp, #-14]
  104f9c:	e3530000 	cmp	r3, #0
  104fa0:	0a000002 	beq	104fb0 <alt_clk_pll_bypass_enable+0x100>
  104fa4:	e51b300c 	ldr	r3, [fp, #-12]
  104fa8:	e3c33008 	bic	r3, r3, #8
  104fac:	e50b300c 	str	r3, [fp, #-12]
  104fb0:	e55b300d 	ldrb	r3, [fp, #-13]
  104fb4:	e3530000 	cmp	r3, #0
  104fb8:	1a000002 	bne	104fc8 <alt_clk_pll_bypass_enable+0x118>
  104fbc:	e55b300e 	ldrb	r3, [fp, #-14]
  104fc0:	e3530000 	cmp	r3, #0
  104fc4:	0a000003 	beq	104fd8 <alt_clk_pll_bypass_enable+0x128>
  104fc8:	e3043060 	movw	r3, #16480	; 0x4060
  104fcc:	e34f3fd0 	movt	r3, #65488	; 0xffd0
  104fd0:	e51b200c 	ldr	r2, [fp, #-12]
  104fd4:	e5832000 	str	r2, [r3]
  104fd8:	e3043004 	movw	r3, #16388	; 0x4004
  104fdc:	e34f3fd0 	movt	r3, #65488	; 0xffd0
  104fe0:	e3042004 	movw	r2, #16388	; 0x4004
  104fe4:	e34f2fd0 	movt	r2, #65488	; 0xffd0
  104fe8:	e5922000 	ldr	r2, [r2]
  104fec:	e3822001 	orr	r2, r2, #1
  104ff0:	e5832000 	str	r2, [r3]
  104ff4:	ebfffd9c 	bl	10466c <alt_clk_plls_settle_wait>
  104ff8:	e50b0008 	str	r0, [fp, #-8]
  104ffc:	e55b300d 	ldrb	r3, [fp, #-13]
  105000:	e3530000 	cmp	r3, #0
  105004:	1a000002 	bne	105014 <alt_clk_pll_bypass_enable+0x164>
  105008:	e55b300e 	ldrb	r3, [fp, #-14]
  10500c:	e3530000 	cmp	r3, #0
  105010:	0a000003 	beq	105024 <alt_clk_pll_bypass_enable+0x174>
  105014:	e3043060 	movw	r3, #16480	; 0x4060
  105018:	e34f3fd0 	movt	r3, #65488	; 0xffd0
  10501c:	e51b2014 	ldr	r2, [fp, #-20]	; 0xffffffec
  105020:	e5832000 	str	r2, [r3]
  105024:	e3a03000 	mov	r3, #0
  105028:	e50b3008 	str	r3, [fp, #-8]
  10502c:	ea000073 	b	105200 <alt_clk_pll_bypass_enable+0x350>
  105030:	e3e03008 	mvn	r3, #8
  105034:	e50b3008 	str	r3, [fp, #-8]
  105038:	ea000070 	b	105200 <alt_clk_pll_bypass_enable+0x350>
  10503c:	e55b3015 	ldrb	r3, [fp, #-21]	; 0xffffffeb
  105040:	e353000a 	cmp	r3, #10
  105044:	1a000056 	bne	1051a4 <alt_clk_pll_bypass_enable+0x2f4>
  105048:	e3043070 	movw	r3, #16496	; 0x4070
  10504c:	e34f3fd0 	movt	r3, #65488	; 0xffd0
  105050:	e5933000 	ldr	r3, [r3]
  105054:	e50b300c 	str	r3, [fp, #-12]
  105058:	e3043060 	movw	r3, #16480	; 0x4060
  10505c:	e34f3fd0 	movt	r3, #65488	; 0xffd0
  105060:	e5933000 	ldr	r3, [r3]
  105064:	e50b3014 	str	r3, [fp, #-20]	; 0xffffffec
  105068:	e51b3014 	ldr	r3, [fp, #-20]	; 0xffffffec
  10506c:	e2033004 	and	r3, r3, #4
  105070:	e3530000 	cmp	r3, #0
  105074:	0a000005 	beq	105090 <alt_clk_pll_bypass_enable+0x1e0>
  105078:	e51b300c 	ldr	r3, [fp, #-12]
  10507c:	e2033001 	and	r3, r3, #1
  105080:	e3530000 	cmp	r3, #0
  105084:	0a000001 	beq	105090 <alt_clk_pll_bypass_enable+0x1e0>
  105088:	e3a03001 	mov	r3, #1
  10508c:	e54b300d 	strb	r3, [fp, #-13]
  105090:	e51b3014 	ldr	r3, [fp, #-20]	; 0xffffffec
  105094:	e2033008 	and	r3, r3, #8
  105098:	e3530000 	cmp	r3, #0
  10509c:	0a000005 	beq	1050b8 <alt_clk_pll_bypass_enable+0x208>
  1050a0:	e51b300c 	ldr	r3, [fp, #-12]
  1050a4:	e2033002 	and	r3, r3, #2
  1050a8:	e3530000 	cmp	r3, #0
  1050ac:	0a000001 	beq	1050b8 <alt_clk_pll_bypass_enable+0x208>
  1050b0:	e3a03001 	mov	r3, #1
  1050b4:	e54b300e 	strb	r3, [fp, #-14]
  1050b8:	e51b3014 	ldr	r3, [fp, #-20]	; 0xffffffec
  1050bc:	e50b300c 	str	r3, [fp, #-12]
  1050c0:	e55b300d 	ldrb	r3, [fp, #-13]
  1050c4:	e3530000 	cmp	r3, #0
  1050c8:	0a000002 	beq	1050d8 <alt_clk_pll_bypass_enable+0x228>
  1050cc:	e51b300c 	ldr	r3, [fp, #-12]
  1050d0:	e3c33004 	bic	r3, r3, #4
  1050d4:	e50b300c 	str	r3, [fp, #-12]
  1050d8:	e55b300e 	ldrb	r3, [fp, #-14]
  1050dc:	e3530000 	cmp	r3, #0
  1050e0:	0a000002 	beq	1050f0 <alt_clk_pll_bypass_enable+0x240>
  1050e4:	e51b300c 	ldr	r3, [fp, #-12]
  1050e8:	e3c33008 	bic	r3, r3, #8
  1050ec:	e50b300c 	str	r3, [fp, #-12]
  1050f0:	e55b300d 	ldrb	r3, [fp, #-13]
  1050f4:	e3530000 	cmp	r3, #0
  1050f8:	1a000002 	bne	105108 <alt_clk_pll_bypass_enable+0x258>
  1050fc:	e55b300e 	ldrb	r3, [fp, #-14]
  105100:	e3530000 	cmp	r3, #0
  105104:	0a000003 	beq	105118 <alt_clk_pll_bypass_enable+0x268>
  105108:	e3043060 	movw	r3, #16480	; 0x4060
  10510c:	e34f3fd0 	movt	r3, #65488	; 0xffd0
  105110:	e51b200c 	ldr	r2, [fp, #-12]
  105114:	e5832000 	str	r2, [r3]
  105118:	e3043004 	movw	r3, #16388	; 0x4004
  10511c:	e34f3fd0 	movt	r3, #65488	; 0xffd0
  105120:	e5933000 	ldr	r3, [r3]
  105124:	e3c33018 	bic	r3, r3, #24
  105128:	e50b300c 	str	r3, [fp, #-12]
  10512c:	e55b3016 	ldrb	r3, [fp, #-22]	; 0xffffffea
  105130:	e3530000 	cmp	r3, #0
  105134:	0a000001 	beq	105140 <alt_clk_pll_bypass_enable+0x290>
  105138:	e3a03018 	mov	r3, #24
  10513c:	ea000000 	b	105144 <alt_clk_pll_bypass_enable+0x294>
  105140:	e3a03008 	mov	r3, #8
  105144:	e51b200c 	ldr	r2, [fp, #-12]
  105148:	e1823003 	orr	r3, r2, r3
  10514c:	e50b300c 	str	r3, [fp, #-12]
  105150:	e3043004 	movw	r3, #16388	; 0x4004
  105154:	e34f3fd0 	movt	r3, #65488	; 0xffd0
  105158:	e51b200c 	ldr	r2, [fp, #-12]
  10515c:	e5832000 	str	r2, [r3]
  105160:	e3a0101e 	mov	r1, #30
  105164:	e3040060 	movw	r0, #16480	; 0x4060
  105168:	e34f0fd0 	movt	r0, #65488	; 0xffd0
  10516c:	ebfffd2c 	bl	104624 <alt_clk_mgr_wait>
  105170:	e55b300d 	ldrb	r3, [fp, #-13]
  105174:	e3530000 	cmp	r3, #0
  105178:	1a000002 	bne	105188 <alt_clk_pll_bypass_enable+0x2d8>
  10517c:	e55b300e 	ldrb	r3, [fp, #-14]
  105180:	e3530000 	cmp	r3, #0
  105184:	0a000003 	beq	105198 <alt_clk_pll_bypass_enable+0x2e8>
  105188:	e3043060 	movw	r3, #16480	; 0x4060
  10518c:	e34f3fd0 	movt	r3, #65488	; 0xffd0
  105190:	e51b2014 	ldr	r2, [fp, #-20]	; 0xffffffec
  105194:	e5832000 	str	r2, [r3]
  105198:	e3a03000 	mov	r3, #0
  10519c:	e50b3008 	str	r3, [fp, #-8]
  1051a0:	ea000016 	b	105200 <alt_clk_pll_bypass_enable+0x350>
  1051a4:	e55b3015 	ldrb	r3, [fp, #-21]	; 0xffffffeb
  1051a8:	e353000b 	cmp	r3, #11
  1051ac:	1a000013 	bne	105200 <alt_clk_pll_bypass_enable+0x350>
  1051b0:	e3043004 	movw	r3, #16388	; 0x4004
  1051b4:	e34f3fd0 	movt	r3, #65488	; 0xffd0
  1051b8:	e5933000 	ldr	r3, [r3]
  1051bc:	e3c33006 	bic	r3, r3, #6
  1051c0:	e50b300c 	str	r3, [fp, #-12]
  1051c4:	e55b3016 	ldrb	r3, [fp, #-22]	; 0xffffffea
  1051c8:	e3530000 	cmp	r3, #0
  1051cc:	0a000001 	beq	1051d8 <alt_clk_pll_bypass_enable+0x328>
  1051d0:	e3a03006 	mov	r3, #6
  1051d4:	ea000000 	b	1051dc <alt_clk_pll_bypass_enable+0x32c>
  1051d8:	e3a03002 	mov	r3, #2
  1051dc:	e51b200c 	ldr	r2, [fp, #-12]
  1051e0:	e1823003 	orr	r3, r2, r3
  1051e4:	e50b300c 	str	r3, [fp, #-12]
  1051e8:	e3043004 	movw	r3, #16388	; 0x4004
  1051ec:	e34f3fd0 	movt	r3, #65488	; 0xffd0
  1051f0:	e51b200c 	ldr	r2, [fp, #-12]
  1051f4:	e5832000 	str	r2, [r3]
  1051f8:	e3a03000 	mov	r3, #0
  1051fc:	e50b3008 	str	r3, [fp, #-8]
  105200:	e51b3008 	ldr	r3, [fp, #-8]
  105204:	e1a00003 	mov	r0, r3
  105208:	e24bd004 	sub	sp, fp, #4
  10520c:	e8bd8800 	pop	{fp, pc}

00105210 <alt_clk_pll_is_bypassed>:
  105210:	e52db004 	push	{fp}		; (str fp, [sp, #-4]!)
  105214:	e28db000 	add	fp, sp, #0
  105218:	e24dd014 	sub	sp, sp, #20
  10521c:	e1a03000 	mov	r3, r0
  105220:	e54b300d 	strb	r3, [fp, #-13]
  105224:	e3e03008 	mvn	r3, #8
  105228:	e50b3008 	str	r3, [fp, #-8]
  10522c:	e55b300d 	ldrb	r3, [fp, #-13]
  105230:	e3530009 	cmp	r3, #9
  105234:	1a000010 	bne	10527c <alt_clk_pll_is_bypassed+0x6c>
  105238:	e3a03901 	mov	r3, #16384	; 0x4000
  10523c:	e34f3fd0 	movt	r3, #65488	; 0xffd0
  105240:	e5933000 	ldr	r3, [r3]
  105244:	e2033001 	and	r3, r3, #1
  105248:	e3530000 	cmp	r3, #0
  10524c:	1a000005 	bne	105268 <alt_clk_pll_is_bypassed+0x58>
  105250:	e3043004 	movw	r3, #16388	; 0x4004
  105254:	e34f3fd0 	movt	r3, #65488	; 0xffd0
  105258:	e5933000 	ldr	r3, [r3]
  10525c:	e2033001 	and	r3, r3, #1
  105260:	e3530000 	cmp	r3, #0
  105264:	0a000001 	beq	105270 <alt_clk_pll_is_bypassed+0x60>
  105268:	e3a03001 	mov	r3, #1
  10526c:	ea000000 	b	105274 <alt_clk_pll_is_bypassed+0x64>
  105270:	e3a03000 	mov	r3, #0
  105274:	e50b3008 	str	r3, [fp, #-8]
  105278:	ea000026 	b	105318 <alt_clk_pll_is_bypassed+0x108>
  10527c:	e55b300d 	ldrb	r3, [fp, #-13]
  105280:	e353000a 	cmp	r3, #10
  105284:	1a000010 	bne	1052cc <alt_clk_pll_is_bypassed+0xbc>
  105288:	e3a03901 	mov	r3, #16384	; 0x4000
  10528c:	e34f3fd0 	movt	r3, #65488	; 0xffd0
  105290:	e5933000 	ldr	r3, [r3]
  105294:	e2033001 	and	r3, r3, #1
  105298:	e3530000 	cmp	r3, #0
  10529c:	1a000005 	bne	1052b8 <alt_clk_pll_is_bypassed+0xa8>
  1052a0:	e3043004 	movw	r3, #16388	; 0x4004
  1052a4:	e34f3fd0 	movt	r3, #65488	; 0xffd0
  1052a8:	e5933000 	ldr	r3, [r3]
  1052ac:	e2033008 	and	r3, r3, #8
  1052b0:	e3530000 	cmp	r3, #0
  1052b4:	0a000001 	beq	1052c0 <alt_clk_pll_is_bypassed+0xb0>
  1052b8:	e3a03001 	mov	r3, #1
  1052bc:	ea000000 	b	1052c4 <alt_clk_pll_is_bypassed+0xb4>
  1052c0:	e3a03000 	mov	r3, #0
  1052c4:	e50b3008 	str	r3, [fp, #-8]
  1052c8:	ea000012 	b	105318 <alt_clk_pll_is_bypassed+0x108>
  1052cc:	e55b300d 	ldrb	r3, [fp, #-13]
  1052d0:	e353000b 	cmp	r3, #11
  1052d4:	1a00000f 	bne	105318 <alt_clk_pll_is_bypassed+0x108>
  1052d8:	e3a03901 	mov	r3, #16384	; 0x4000
  1052dc:	e34f3fd0 	movt	r3, #65488	; 0xffd0
  1052e0:	e5933000 	ldr	r3, [r3]
  1052e4:	e2033001 	and	r3, r3, #1
  1052e8:	e3530000 	cmp	r3, #0
  1052ec:	1a000005 	bne	105308 <alt_clk_pll_is_bypassed+0xf8>
  1052f0:	e3043004 	movw	r3, #16388	; 0x4004
  1052f4:	e34f3fd0 	movt	r3, #65488	; 0xffd0
  1052f8:	e5933000 	ldr	r3, [r3]
  1052fc:	e2033002 	and	r3, r3, #2
  105300:	e3530000 	cmp	r3, #0
  105304:	0a000001 	beq	105310 <alt_clk_pll_is_bypassed+0x100>
  105308:	e3a03001 	mov	r3, #1
  10530c:	ea000000 	b	105314 <alt_clk_pll_is_bypassed+0x104>
  105310:	e3a03000 	mov	r3, #0
  105314:	e50b3008 	str	r3, [fp, #-8]
  105318:	e51b3008 	ldr	r3, [fp, #-8]
  10531c:	e1a00003 	mov	r0, r3
  105320:	e24bd000 	sub	sp, fp, #0
  105324:	e49db004 	pop	{fp}		; (ldr fp, [sp], #4)
  105328:	e12fff1e 	bx	lr

0010532c <alt_clk_pll_source_get>:
  10532c:	e52db004 	push	{fp}		; (str fp, [sp, #-4]!)
  105330:	e28db000 	add	fp, sp, #0
  105334:	e24dd014 	sub	sp, sp, #20
  105338:	e1a03000 	mov	r3, r0
  10533c:	e54b300d 	strb	r3, [fp, #-13]
  105340:	e3a0304b 	mov	r3, #75	; 0x4b
  105344:	e54b3005 	strb	r3, [fp, #-5]
  105348:	e55b300d 	ldrb	r3, [fp, #-13]
  10534c:	e3530009 	cmp	r3, #9
  105350:	1a000002 	bne	105360 <alt_clk_pll_source_get+0x34>
  105354:	e3a03000 	mov	r3, #0
  105358:	e54b3005 	strb	r3, [fp, #-5]
  10535c:	ea000034 	b	105434 <alt_clk_pll_source_get+0x108>
  105360:	e55b300d 	ldrb	r3, [fp, #-13]
  105364:	e353000a 	cmp	r3, #10
  105368:	1a000017 	bne	1053cc <alt_clk_pll_source_get+0xa0>
  10536c:	e3043080 	movw	r3, #16512	; 0x4080
  105370:	e34f3fd0 	movt	r3, #65488	; 0xffd0
  105374:	e5933000 	ldr	r3, [r3]
  105378:	e1a03b23 	lsr	r3, r3, #22
  10537c:	e2033003 	and	r3, r3, #3
  105380:	e50b300c 	str	r3, [fp, #-12]
  105384:	e51b300c 	ldr	r3, [fp, #-12]
  105388:	e3530000 	cmp	r3, #0
  10538c:	1a000002 	bne	10539c <alt_clk_pll_source_get+0x70>
  105390:	e3a03000 	mov	r3, #0
  105394:	e54b3005 	strb	r3, [fp, #-5]
  105398:	ea000025 	b	105434 <alt_clk_pll_source_get+0x108>
  10539c:	e51b300c 	ldr	r3, [fp, #-12]
  1053a0:	e3530001 	cmp	r3, #1
  1053a4:	1a000002 	bne	1053b4 <alt_clk_pll_source_get+0x88>
  1053a8:	e3a03001 	mov	r3, #1
  1053ac:	e54b3005 	strb	r3, [fp, #-5]
  1053b0:	ea00001f 	b	105434 <alt_clk_pll_source_get+0x108>
  1053b4:	e51b300c 	ldr	r3, [fp, #-12]
  1053b8:	e3530002 	cmp	r3, #2
  1053bc:	1a00001c 	bne	105434 <alt_clk_pll_source_get+0x108>
  1053c0:	e3a03002 	mov	r3, #2
  1053c4:	e54b3005 	strb	r3, [fp, #-5]
  1053c8:	ea000019 	b	105434 <alt_clk_pll_source_get+0x108>
  1053cc:	e55b300d 	ldrb	r3, [fp, #-13]
  1053d0:	e353000b 	cmp	r3, #11
  1053d4:	1a000016 	bne	105434 <alt_clk_pll_source_get+0x108>
  1053d8:	e30430c0 	movw	r3, #16576	; 0x40c0
  1053dc:	e34f3fd0 	movt	r3, #65488	; 0xffd0
  1053e0:	e5933000 	ldr	r3, [r3]
  1053e4:	e1a03b23 	lsr	r3, r3, #22
  1053e8:	e2033003 	and	r3, r3, #3
  1053ec:	e50b300c 	str	r3, [fp, #-12]
  1053f0:	e51b300c 	ldr	r3, [fp, #-12]
  1053f4:	e3530000 	cmp	r3, #0
  1053f8:	1a000002 	bne	105408 <alt_clk_pll_source_get+0xdc>
  1053fc:	e3a03000 	mov	r3, #0
  105400:	e54b3005 	strb	r3, [fp, #-5]
  105404:	ea00000a 	b	105434 <alt_clk_pll_source_get+0x108>
  105408:	e51b300c 	ldr	r3, [fp, #-12]
  10540c:	e3530001 	cmp	r3, #1
  105410:	1a000002 	bne	105420 <alt_clk_pll_source_get+0xf4>
  105414:	e3a03001 	mov	r3, #1
  105418:	e54b3005 	strb	r3, [fp, #-5]
  10541c:	ea000004 	b	105434 <alt_clk_pll_source_get+0x108>
  105420:	e51b300c 	ldr	r3, [fp, #-12]
  105424:	e3530002 	cmp	r3, #2
  105428:	1a000001 	bne	105434 <alt_clk_pll_source_get+0x108>
  10542c:	e3a03003 	mov	r3, #3
  105430:	e54b3005 	strb	r3, [fp, #-5]
  105434:	e55b3005 	ldrb	r3, [fp, #-5]
  105438:	e1a00003 	mov	r0, r3
  10543c:	e24bd000 	sub	sp, fp, #0
  105440:	e49db004 	pop	{fp}		; (ldr fp, [sp], #4)
  105444:	e12fff1e 	bx	lr

00105448 <alt_clk_clock_disable>:
  105448:	e92d4800 	push	{fp, lr}
  10544c:	e28db004 	add	fp, sp, #4
  105450:	e24dd010 	sub	sp, sp, #16
  105454:	e1a03000 	mov	r3, r0
  105458:	e54b300d 	strb	r3, [fp, #-13]
  10545c:	e3a03000 	mov	r3, #0
  105460:	e50b3008 	str	r3, [fp, #-8]
  105464:	e55b300d 	ldrb	r3, [fp, #-13]
  105468:	e2433009 	sub	r3, r3, #9
  10546c:	e3530037 	cmp	r3, #55	; 0x37
  105470:	979ff103 	ldrls	pc, [pc, r3, lsl #2]
  105474:	ea00010b 	b	1058a8 <alt_clk_clock_disable+0x460>
  105478:	00105558 	.word	0x00105558
  10547c:	00105558 	.word	0x00105558
  105480:	00105558 	.word	0x00105558
  105484:	001058a8 	.word	0x001058a8
  105488:	001058a8 	.word	0x001058a8
  10548c:	001058a8 	.word	0x001058a8
  105490:	001058a8 	.word	0x001058a8
  105494:	001058a8 	.word	0x001058a8
  105498:	001058a8 	.word	0x001058a8
  10549c:	001058a8 	.word	0x001058a8
  1054a0:	001058a8 	.word	0x001058a8
  1054a4:	001058a8 	.word	0x001058a8
  1054a8:	001058a8 	.word	0x001058a8
  1054ac:	001058a8 	.word	0x001058a8
  1054b0:	00105590 	.word	0x00105590
  1054b4:	001058a8 	.word	0x001058a8
  1054b8:	00105570 	.word	0x00105570
  1054bc:	001055b0 	.word	0x001055b0
  1054c0:	001055d0 	.word	0x001055d0
  1054c4:	001058a8 	.word	0x001058a8
  1054c8:	001055f0 	.word	0x001055f0
  1054cc:	00105630 	.word	0x00105630
  1054d0:	00105650 	.word	0x00105650
  1054d4:	00105610 	.word	0x00105610
  1054d8:	001058a8 	.word	0x001058a8
  1054dc:	001058a8 	.word	0x001058a8
  1054e0:	00105670 	.word	0x00105670
  1054e4:	00105690 	.word	0x00105690
  1054e8:	001058a8 	.word	0x001058a8
  1054ec:	001058a8 	.word	0x001058a8
  1054f0:	001058a8 	.word	0x001058a8
  1054f4:	001058a8 	.word	0x001058a8
  1054f8:	001058a8 	.word	0x001058a8
  1054fc:	001058a8 	.word	0x001058a8
  105500:	0010589c 	.word	0x0010589c
  105504:	001056f0 	.word	0x001056f0
  105508:	001057fc 	.word	0x001057fc
  10550c:	001057b0 	.word	0x001057b0
  105510:	0010589c 	.word	0x0010589c
  105514:	00105790 	.word	0x00105790
  105518:	001056b0 	.word	0x001056b0
  10551c:	001056d0 	.word	0x001056d0
  105520:	00105710 	.word	0x00105710
  105524:	00105730 	.word	0x00105730
  105528:	00105750 	.word	0x00105750
  10552c:	00105770 	.word	0x00105770
  105530:	001058a8 	.word	0x001058a8
  105534:	001058a8 	.word	0x001058a8
  105538:	001058a8 	.word	0x001058a8
  10553c:	001058a8 	.word	0x001058a8
  105540:	001058a8 	.word	0x001058a8
  105544:	001058a8 	.word	0x001058a8
  105548:	0010581c 	.word	0x0010581c
  10554c:	0010583c 	.word	0x0010583c
  105550:	0010585c 	.word	0x0010585c
  105554:	0010587c 	.word	0x0010587c
  105558:	e55b300d 	ldrb	r3, [fp, #-13]
  10555c:	e3a01000 	mov	r1, #0
  105560:	e1a00003 	mov	r0, r3
  105564:	ebfffe51 	bl	104eb0 <alt_clk_pll_bypass_enable>
  105568:	e50b0008 	str	r0, [fp, #-8]
  10556c:	ea0000d0 	b	1058b4 <alt_clk_clock_disable+0x46c>
  105570:	e3043060 	movw	r3, #16480	; 0x4060
  105574:	e34f3fd0 	movt	r3, #65488	; 0xffd0
  105578:	e3042060 	movw	r2, #16480	; 0x4060
  10557c:	e34f2fd0 	movt	r2, #65488	; 0xffd0
  105580:	e5922000 	ldr	r2, [r2]
  105584:	e3c22001 	bic	r2, r2, #1
  105588:	e5832000 	str	r2, [r3]
  10558c:	ea0000c8 	b	1058b4 <alt_clk_clock_disable+0x46c>
  105590:	e3043060 	movw	r3, #16480	; 0x4060
  105594:	e34f3fd0 	movt	r3, #65488	; 0xffd0
  105598:	e3042060 	movw	r2, #16480	; 0x4060
  10559c:	e34f2fd0 	movt	r2, #65488	; 0xffd0
  1055a0:	e5922000 	ldr	r2, [r2]
  1055a4:	e3c22002 	bic	r2, r2, #2
  1055a8:	e5832000 	str	r2, [r3]
  1055ac:	ea0000c0 	b	1058b4 <alt_clk_clock_disable+0x46c>
  1055b0:	e3043060 	movw	r3, #16480	; 0x4060
  1055b4:	e34f3fd0 	movt	r3, #65488	; 0xffd0
  1055b8:	e3042060 	movw	r2, #16480	; 0x4060
  1055bc:	e34f2fd0 	movt	r2, #65488	; 0xffd0
  1055c0:	e5922000 	ldr	r2, [r2]
  1055c4:	e3c22004 	bic	r2, r2, #4
  1055c8:	e5832000 	str	r2, [r3]
  1055cc:	ea0000b8 	b	1058b4 <alt_clk_clock_disable+0x46c>
  1055d0:	e3043060 	movw	r3, #16480	; 0x4060
  1055d4:	e34f3fd0 	movt	r3, #65488	; 0xffd0
  1055d8:	e3042060 	movw	r2, #16480	; 0x4060
  1055dc:	e34f2fd0 	movt	r2, #65488	; 0xffd0
  1055e0:	e5922000 	ldr	r2, [r2]
  1055e4:	e3c22008 	bic	r2, r2, #8
  1055e8:	e5832000 	str	r2, [r3]
  1055ec:	ea0000b0 	b	1058b4 <alt_clk_clock_disable+0x46c>
  1055f0:	e3043060 	movw	r3, #16480	; 0x4060
  1055f4:	e34f3fd0 	movt	r3, #65488	; 0xffd0
  1055f8:	e3042060 	movw	r2, #16480	; 0x4060
  1055fc:	e34f2fd0 	movt	r2, #65488	; 0xffd0
  105600:	e5922000 	ldr	r2, [r2]
  105604:	e3c22010 	bic	r2, r2, #16
  105608:	e5832000 	str	r2, [r3]
  10560c:	ea0000a8 	b	1058b4 <alt_clk_clock_disable+0x46c>
  105610:	e3043060 	movw	r3, #16480	; 0x4060
  105614:	e34f3fd0 	movt	r3, #65488	; 0xffd0
  105618:	e3042060 	movw	r2, #16480	; 0x4060
  10561c:	e34f2fd0 	movt	r2, #65488	; 0xffd0
  105620:	e5922000 	ldr	r2, [r2]
  105624:	e3c22020 	bic	r2, r2, #32
  105628:	e5832000 	str	r2, [r3]
  10562c:	ea0000a0 	b	1058b4 <alt_clk_clock_disable+0x46c>
  105630:	e3043060 	movw	r3, #16480	; 0x4060
  105634:	e34f3fd0 	movt	r3, #65488	; 0xffd0
  105638:	e3042060 	movw	r2, #16480	; 0x4060
  10563c:	e34f2fd0 	movt	r2, #65488	; 0xffd0
  105640:	e5922000 	ldr	r2, [r2]
  105644:	e3c22040 	bic	r2, r2, #64	; 0x40
  105648:	e5832000 	str	r2, [r3]
  10564c:	ea000098 	b	1058b4 <alt_clk_clock_disable+0x46c>
  105650:	e3043060 	movw	r3, #16480	; 0x4060
  105654:	e34f3fd0 	movt	r3, #65488	; 0xffd0
  105658:	e3042060 	movw	r2, #16480	; 0x4060
  10565c:	e34f2fd0 	movt	r2, #65488	; 0xffd0
  105660:	e5922000 	ldr	r2, [r2]
  105664:	e3c22080 	bic	r2, r2, #128	; 0x80
  105668:	e5832000 	str	r2, [r3]
  10566c:	ea000090 	b	1058b4 <alt_clk_clock_disable+0x46c>
  105670:	e3043060 	movw	r3, #16480	; 0x4060
  105674:	e34f3fd0 	movt	r3, #65488	; 0xffd0
  105678:	e3042060 	movw	r2, #16480	; 0x4060
  10567c:	e34f2fd0 	movt	r2, #65488	; 0xffd0
  105680:	e5922000 	ldr	r2, [r2]
  105684:	e3c22c01 	bic	r2, r2, #256	; 0x100
  105688:	e5832000 	str	r2, [r3]
  10568c:	ea000088 	b	1058b4 <alt_clk_clock_disable+0x46c>
  105690:	e3043060 	movw	r3, #16480	; 0x4060
  105694:	e34f3fd0 	movt	r3, #65488	; 0xffd0
  105698:	e3042060 	movw	r2, #16480	; 0x4060
  10569c:	e34f2fd0 	movt	r2, #65488	; 0xffd0
  1056a0:	e5922000 	ldr	r2, [r2]
  1056a4:	e3c22c02 	bic	r2, r2, #512	; 0x200
  1056a8:	e5832000 	str	r2, [r3]
  1056ac:	ea000080 	b	1058b4 <alt_clk_clock_disable+0x46c>
  1056b0:	e30430a0 	movw	r3, #16544	; 0x40a0
  1056b4:	e34f3fd0 	movt	r3, #65488	; 0xffd0
  1056b8:	e30420a0 	movw	r2, #16544	; 0x40a0
  1056bc:	e34f2fd0 	movt	r2, #65488	; 0xffd0
  1056c0:	e5922000 	ldr	r2, [r2]
  1056c4:	e3c22001 	bic	r2, r2, #1
  1056c8:	e5832000 	str	r2, [r3]
  1056cc:	ea000078 	b	1058b4 <alt_clk_clock_disable+0x46c>
  1056d0:	e30430a0 	movw	r3, #16544	; 0x40a0
  1056d4:	e34f3fd0 	movt	r3, #65488	; 0xffd0
  1056d8:	e30420a0 	movw	r2, #16544	; 0x40a0
  1056dc:	e34f2fd0 	movt	r2, #65488	; 0xffd0
  1056e0:	e5922000 	ldr	r2, [r2]
  1056e4:	e3c22002 	bic	r2, r2, #2
  1056e8:	e5832000 	str	r2, [r3]
  1056ec:	ea000070 	b	1058b4 <alt_clk_clock_disable+0x46c>
  1056f0:	e30430a0 	movw	r3, #16544	; 0x40a0
  1056f4:	e34f3fd0 	movt	r3, #65488	; 0xffd0
  1056f8:	e30420a0 	movw	r2, #16544	; 0x40a0
  1056fc:	e34f2fd0 	movt	r2, #65488	; 0xffd0
  105700:	e5922000 	ldr	r2, [r2]
  105704:	e3c22008 	bic	r2, r2, #8
  105708:	e5832000 	str	r2, [r3]
  10570c:	ea000068 	b	1058b4 <alt_clk_clock_disable+0x46c>
  105710:	e30430a0 	movw	r3, #16544	; 0x40a0
  105714:	e34f3fd0 	movt	r3, #65488	; 0xffd0
  105718:	e30420a0 	movw	r2, #16544	; 0x40a0
  10571c:	e34f2fd0 	movt	r2, #65488	; 0xffd0
  105720:	e5922000 	ldr	r2, [r2]
  105724:	e3c22010 	bic	r2, r2, #16
  105728:	e5832000 	str	r2, [r3]
  10572c:	ea000060 	b	1058b4 <alt_clk_clock_disable+0x46c>
  105730:	e30430a0 	movw	r3, #16544	; 0x40a0
  105734:	e34f3fd0 	movt	r3, #65488	; 0xffd0
  105738:	e30420a0 	movw	r2, #16544	; 0x40a0
  10573c:	e34f2fd0 	movt	r2, #65488	; 0xffd0
  105740:	e5922000 	ldr	r2, [r2]
  105744:	e3c22020 	bic	r2, r2, #32
  105748:	e5832000 	str	r2, [r3]
  10574c:	ea000058 	b	1058b4 <alt_clk_clock_disable+0x46c>
  105750:	e30430a0 	movw	r3, #16544	; 0x40a0
  105754:	e34f3fd0 	movt	r3, #65488	; 0xffd0
  105758:	e30420a0 	movw	r2, #16544	; 0x40a0
  10575c:	e34f2fd0 	movt	r2, #65488	; 0xffd0
  105760:	e5922000 	ldr	r2, [r2]
  105764:	e3c22040 	bic	r2, r2, #64	; 0x40
  105768:	e5832000 	str	r2, [r3]
  10576c:	ea000050 	b	1058b4 <alt_clk_clock_disable+0x46c>
  105770:	e30430a0 	movw	r3, #16544	; 0x40a0
  105774:	e34f3fd0 	movt	r3, #65488	; 0xffd0
  105778:	e30420a0 	movw	r2, #16544	; 0x40a0
  10577c:	e34f2fd0 	movt	r2, #65488	; 0xffd0
  105780:	e5922000 	ldr	r2, [r2]
  105784:	e3c22080 	bic	r2, r2, #128	; 0x80
  105788:	e5832000 	str	r2, [r3]
  10578c:	ea000048 	b	1058b4 <alt_clk_clock_disable+0x46c>
  105790:	e30430a0 	movw	r3, #16544	; 0x40a0
  105794:	e34f3fd0 	movt	r3, #65488	; 0xffd0
  105798:	e30420a0 	movw	r2, #16544	; 0x40a0
  10579c:	e34f2fd0 	movt	r2, #65488	; 0xffd0
  1057a0:	e5922000 	ldr	r2, [r2]
  1057a4:	e3c22c01 	bic	r2, r2, #256	; 0x100
  1057a8:	e5832000 	str	r2, [r3]
  1057ac:	ea000040 	b	1058b4 <alt_clk_clock_disable+0x46c>
  1057b0:	e30430a0 	movw	r3, #16544	; 0x40a0
  1057b4:	e34f3fd0 	movt	r3, #65488	; 0xffd0
  1057b8:	e30420a0 	movw	r2, #16544	; 0x40a0
  1057bc:	e34f2fd0 	movt	r2, #65488	; 0xffd0
  1057c0:	e5922000 	ldr	r2, [r2]
  1057c4:	e3c22b01 	bic	r2, r2, #1024	; 0x400
  1057c8:	e5832000 	str	r2, [r3]
  1057cc:	e3a01008 	mov	r1, #8
  1057d0:	e30400a0 	movw	r0, #16544	; 0x40a0
  1057d4:	e34f0fd0 	movt	r0, #65488	; 0xffd0
  1057d8:	ebfffb91 	bl	104624 <alt_clk_mgr_wait>
  1057dc:	e30430a0 	movw	r3, #16544	; 0x40a0
  1057e0:	e34f3fd0 	movt	r3, #65488	; 0xffd0
  1057e4:	e30420a0 	movw	r2, #16544	; 0x40a0
  1057e8:	e34f2fd0 	movt	r2, #65488	; 0xffd0
  1057ec:	e5922000 	ldr	r2, [r2]
  1057f0:	e3c22c02 	bic	r2, r2, #512	; 0x200
  1057f4:	e5832000 	str	r2, [r3]
  1057f8:	ea00002d 	b	1058b4 <alt_clk_clock_disable+0x46c>
  1057fc:	e30430a0 	movw	r3, #16544	; 0x40a0
  105800:	e34f3fd0 	movt	r3, #65488	; 0xffd0
  105804:	e30420a0 	movw	r2, #16544	; 0x40a0
  105808:	e34f2fd0 	movt	r2, #65488	; 0xffd0
  10580c:	e5922000 	ldr	r2, [r2]
  105810:	e3c22b02 	bic	r2, r2, #2048	; 0x800
  105814:	e5832000 	str	r2, [r3]
  105818:	ea000025 	b	1058b4 <alt_clk_clock_disable+0x46c>
  10581c:	e30430d8 	movw	r3, #16600	; 0x40d8
  105820:	e34f3fd0 	movt	r3, #65488	; 0xffd0
  105824:	e30420d8 	movw	r2, #16600	; 0x40d8
  105828:	e34f2fd0 	movt	r2, #65488	; 0xffd0
  10582c:	e5922000 	ldr	r2, [r2]
  105830:	e3c22001 	bic	r2, r2, #1
  105834:	e5832000 	str	r2, [r3]
  105838:	ea00001d 	b	1058b4 <alt_clk_clock_disable+0x46c>
  10583c:	e30430d8 	movw	r3, #16600	; 0x40d8
  105840:	e34f3fd0 	movt	r3, #65488	; 0xffd0
  105844:	e30420d8 	movw	r2, #16600	; 0x40d8
  105848:	e34f2fd0 	movt	r2, #65488	; 0xffd0
  10584c:	e5922000 	ldr	r2, [r2]
  105850:	e3c22002 	bic	r2, r2, #2
  105854:	e5832000 	str	r2, [r3]
  105858:	ea000015 	b	1058b4 <alt_clk_clock_disable+0x46c>
  10585c:	e30430d8 	movw	r3, #16600	; 0x40d8
  105860:	e34f3fd0 	movt	r3, #65488	; 0xffd0
  105864:	e30420d8 	movw	r2, #16600	; 0x40d8
  105868:	e34f2fd0 	movt	r2, #65488	; 0xffd0
  10586c:	e5922000 	ldr	r2, [r2]
  105870:	e3c22004 	bic	r2, r2, #4
  105874:	e5832000 	str	r2, [r3]
  105878:	ea00000d 	b	1058b4 <alt_clk_clock_disable+0x46c>
  10587c:	e30430d8 	movw	r3, #16600	; 0x40d8
  105880:	e34f3fd0 	movt	r3, #65488	; 0xffd0
  105884:	e30420d8 	movw	r2, #16600	; 0x40d8
  105888:	e34f2fd0 	movt	r2, #65488	; 0xffd0
  10588c:	e5922000 	ldr	r2, [r2]
  105890:	e3c22008 	bic	r2, r2, #8
  105894:	e5832000 	str	r2, [r3]
  105898:	ea000005 	b	1058b4 <alt_clk_clock_disable+0x46c>
  10589c:	e3e0300d 	mvn	r3, #13
  1058a0:	e50b3008 	str	r3, [fp, #-8]
  1058a4:	ea000002 	b	1058b4 <alt_clk_clock_disable+0x46c>
  1058a8:	e3e03008 	mvn	r3, #8
  1058ac:	e50b3008 	str	r3, [fp, #-8]
  1058b0:	e320f000 	nop	{0}
  1058b4:	e51b3008 	ldr	r3, [fp, #-8]
  1058b8:	e1a00003 	mov	r0, r3
  1058bc:	e24bd004 	sub	sp, fp, #4
  1058c0:	e8bd8800 	pop	{fp, pc}

001058c4 <alt_clk_clock_enable>:
  1058c4:	e92d4800 	push	{fp, lr}
  1058c8:	e28db004 	add	fp, sp, #4
  1058cc:	e24dd010 	sub	sp, sp, #16
  1058d0:	e1a03000 	mov	r3, r0
  1058d4:	e54b300d 	strb	r3, [fp, #-13]
  1058d8:	e3a03000 	mov	r3, #0
  1058dc:	e50b3008 	str	r3, [fp, #-8]
  1058e0:	e55b300d 	ldrb	r3, [fp, #-13]
  1058e4:	e2433009 	sub	r3, r3, #9
  1058e8:	e3530037 	cmp	r3, #55	; 0x37
  1058ec:	979ff103 	ldrls	pc, [pc, r3, lsl #2]
  1058f0:	ea00011b 	b	105d64 <alt_clk_clock_enable+0x4a0>
  1058f4:	001059d4 	.word	0x001059d4
  1058f8:	001059d4 	.word	0x001059d4
  1058fc:	001059d4 	.word	0x001059d4
  105900:	00105d64 	.word	0x00105d64
  105904:	00105d64 	.word	0x00105d64
  105908:	00105d64 	.word	0x00105d64
  10590c:	00105d64 	.word	0x00105d64
  105910:	00105d64 	.word	0x00105d64
  105914:	00105d64 	.word	0x00105d64
  105918:	00105d64 	.word	0x00105d64
  10591c:	00105d64 	.word	0x00105d64
  105920:	00105d64 	.word	0x00105d64
  105924:	00105d64 	.word	0x00105d64
  105928:	00105d64 	.word	0x00105d64
  10592c:	00105a08 	.word	0x00105a08
  105930:	00105d64 	.word	0x00105d64
  105934:	001059e8 	.word	0x001059e8
  105938:	00105a28 	.word	0x00105a28
  10593c:	00105a48 	.word	0x00105a48
  105940:	00105d64 	.word	0x00105d64
  105944:	00105a68 	.word	0x00105a68
  105948:	00105aa8 	.word	0x00105aa8
  10594c:	00105ac8 	.word	0x00105ac8
  105950:	00105a88 	.word	0x00105a88
  105954:	00105d64 	.word	0x00105d64
  105958:	00105d64 	.word	0x00105d64
  10595c:	00105ae8 	.word	0x00105ae8
  105960:	00105b08 	.word	0x00105b08
  105964:	00105d64 	.word	0x00105d64
  105968:	00105d64 	.word	0x00105d64
  10596c:	00105d64 	.word	0x00105d64
  105970:	00105d64 	.word	0x00105d64
  105974:	00105d64 	.word	0x00105d64
  105978:	00105d64 	.word	0x00105d64
  10597c:	00105b68 	.word	0x00105b68
  105980:	00105b88 	.word	0x00105b88
  105984:	00105cc4 	.word	0x00105cc4
  105988:	00105c48 	.word	0x00105c48
  10598c:	00105c78 	.word	0x00105c78
  105990:	00105c28 	.word	0x00105c28
  105994:	00105b28 	.word	0x00105b28
  105998:	00105b48 	.word	0x00105b48
  10599c:	00105ba8 	.word	0x00105ba8
  1059a0:	00105bc8 	.word	0x00105bc8
  1059a4:	00105be8 	.word	0x00105be8
  1059a8:	00105c08 	.word	0x00105c08
  1059ac:	00105d64 	.word	0x00105d64
  1059b0:	00105d64 	.word	0x00105d64
  1059b4:	00105d64 	.word	0x00105d64
  1059b8:	00105d64 	.word	0x00105d64
  1059bc:	00105d64 	.word	0x00105d64
  1059c0:	00105d64 	.word	0x00105d64
  1059c4:	00105ce4 	.word	0x00105ce4
  1059c8:	00105d04 	.word	0x00105d04
  1059cc:	00105d24 	.word	0x00105d24
  1059d0:	00105d44 	.word	0x00105d44
  1059d4:	e55b300d 	ldrb	r3, [fp, #-13]
  1059d8:	e1a00003 	mov	r0, r3
  1059dc:	ebfffc44 	bl	104af4 <alt_clk_pll_bypass_disable>
  1059e0:	e50b0008 	str	r0, [fp, #-8]
  1059e4:	ea0000e1 	b	105d70 <alt_clk_clock_enable+0x4ac>
  1059e8:	e3043060 	movw	r3, #16480	; 0x4060
  1059ec:	e34f3fd0 	movt	r3, #65488	; 0xffd0
  1059f0:	e3042060 	movw	r2, #16480	; 0x4060
  1059f4:	e34f2fd0 	movt	r2, #65488	; 0xffd0
  1059f8:	e5922000 	ldr	r2, [r2]
  1059fc:	e3822001 	orr	r2, r2, #1
  105a00:	e5832000 	str	r2, [r3]
  105a04:	ea0000d9 	b	105d70 <alt_clk_clock_enable+0x4ac>
  105a08:	e3043060 	movw	r3, #16480	; 0x4060
  105a0c:	e34f3fd0 	movt	r3, #65488	; 0xffd0
  105a10:	e3042060 	movw	r2, #16480	; 0x4060
  105a14:	e34f2fd0 	movt	r2, #65488	; 0xffd0
  105a18:	e5922000 	ldr	r2, [r2]
  105a1c:	e3822002 	orr	r2, r2, #2
  105a20:	e5832000 	str	r2, [r3]
  105a24:	ea0000d1 	b	105d70 <alt_clk_clock_enable+0x4ac>
  105a28:	e3043060 	movw	r3, #16480	; 0x4060
  105a2c:	e34f3fd0 	movt	r3, #65488	; 0xffd0
  105a30:	e3042060 	movw	r2, #16480	; 0x4060
  105a34:	e34f2fd0 	movt	r2, #65488	; 0xffd0
  105a38:	e5922000 	ldr	r2, [r2]
  105a3c:	e3822004 	orr	r2, r2, #4
  105a40:	e5832000 	str	r2, [r3]
  105a44:	ea0000c9 	b	105d70 <alt_clk_clock_enable+0x4ac>
  105a48:	e3043060 	movw	r3, #16480	; 0x4060
  105a4c:	e34f3fd0 	movt	r3, #65488	; 0xffd0
  105a50:	e3042060 	movw	r2, #16480	; 0x4060
  105a54:	e34f2fd0 	movt	r2, #65488	; 0xffd0
  105a58:	e5922000 	ldr	r2, [r2]
  105a5c:	e3822008 	orr	r2, r2, #8
  105a60:	e5832000 	str	r2, [r3]
  105a64:	ea0000c1 	b	105d70 <alt_clk_clock_enable+0x4ac>
  105a68:	e3043060 	movw	r3, #16480	; 0x4060
  105a6c:	e34f3fd0 	movt	r3, #65488	; 0xffd0
  105a70:	e3042060 	movw	r2, #16480	; 0x4060
  105a74:	e34f2fd0 	movt	r2, #65488	; 0xffd0
  105a78:	e5922000 	ldr	r2, [r2]
  105a7c:	e3822010 	orr	r2, r2, #16
  105a80:	e5832000 	str	r2, [r3]
  105a84:	ea0000b9 	b	105d70 <alt_clk_clock_enable+0x4ac>
  105a88:	e3043060 	movw	r3, #16480	; 0x4060
  105a8c:	e34f3fd0 	movt	r3, #65488	; 0xffd0
  105a90:	e3042060 	movw	r2, #16480	; 0x4060
  105a94:	e34f2fd0 	movt	r2, #65488	; 0xffd0
  105a98:	e5922000 	ldr	r2, [r2]
  105a9c:	e3822020 	orr	r2, r2, #32
  105aa0:	e5832000 	str	r2, [r3]
  105aa4:	ea0000b1 	b	105d70 <alt_clk_clock_enable+0x4ac>
  105aa8:	e3043060 	movw	r3, #16480	; 0x4060
  105aac:	e34f3fd0 	movt	r3, #65488	; 0xffd0
  105ab0:	e3042060 	movw	r2, #16480	; 0x4060
  105ab4:	e34f2fd0 	movt	r2, #65488	; 0xffd0
  105ab8:	e5922000 	ldr	r2, [r2]
  105abc:	e3822040 	orr	r2, r2, #64	; 0x40
  105ac0:	e5832000 	str	r2, [r3]
  105ac4:	ea0000a9 	b	105d70 <alt_clk_clock_enable+0x4ac>
  105ac8:	e3043060 	movw	r3, #16480	; 0x4060
  105acc:	e34f3fd0 	movt	r3, #65488	; 0xffd0
  105ad0:	e3042060 	movw	r2, #16480	; 0x4060
  105ad4:	e34f2fd0 	movt	r2, #65488	; 0xffd0
  105ad8:	e5922000 	ldr	r2, [r2]
  105adc:	e3822080 	orr	r2, r2, #128	; 0x80
  105ae0:	e5832000 	str	r2, [r3]
  105ae4:	ea0000a1 	b	105d70 <alt_clk_clock_enable+0x4ac>
  105ae8:	e3043060 	movw	r3, #16480	; 0x4060
  105aec:	e34f3fd0 	movt	r3, #65488	; 0xffd0
  105af0:	e3042060 	movw	r2, #16480	; 0x4060
  105af4:	e34f2fd0 	movt	r2, #65488	; 0xffd0
  105af8:	e5922000 	ldr	r2, [r2]
  105afc:	e3822c01 	orr	r2, r2, #256	; 0x100
  105b00:	e5832000 	str	r2, [r3]
  105b04:	ea000099 	b	105d70 <alt_clk_clock_enable+0x4ac>
  105b08:	e3043060 	movw	r3, #16480	; 0x4060
  105b0c:	e34f3fd0 	movt	r3, #65488	; 0xffd0
  105b10:	e3042060 	movw	r2, #16480	; 0x4060
  105b14:	e34f2fd0 	movt	r2, #65488	; 0xffd0
  105b18:	e5922000 	ldr	r2, [r2]
  105b1c:	e3822c02 	orr	r2, r2, #512	; 0x200
  105b20:	e5832000 	str	r2, [r3]
  105b24:	ea000091 	b	105d70 <alt_clk_clock_enable+0x4ac>
  105b28:	e30430a0 	movw	r3, #16544	; 0x40a0
  105b2c:	e34f3fd0 	movt	r3, #65488	; 0xffd0
  105b30:	e30420a0 	movw	r2, #16544	; 0x40a0
  105b34:	e34f2fd0 	movt	r2, #65488	; 0xffd0
  105b38:	e5922000 	ldr	r2, [r2]
  105b3c:	e3822001 	orr	r2, r2, #1
  105b40:	e5832000 	str	r2, [r3]
  105b44:	ea000089 	b	105d70 <alt_clk_clock_enable+0x4ac>
  105b48:	e30430a0 	movw	r3, #16544	; 0x40a0
  105b4c:	e34f3fd0 	movt	r3, #65488	; 0xffd0
  105b50:	e30420a0 	movw	r2, #16544	; 0x40a0
  105b54:	e34f2fd0 	movt	r2, #65488	; 0xffd0
  105b58:	e5922000 	ldr	r2, [r2]
  105b5c:	e3822002 	orr	r2, r2, #2
  105b60:	e5832000 	str	r2, [r3]
  105b64:	ea000081 	b	105d70 <alt_clk_clock_enable+0x4ac>
  105b68:	e30430a0 	movw	r3, #16544	; 0x40a0
  105b6c:	e34f3fd0 	movt	r3, #65488	; 0xffd0
  105b70:	e30420a0 	movw	r2, #16544	; 0x40a0
  105b74:	e34f2fd0 	movt	r2, #65488	; 0xffd0
  105b78:	e5922000 	ldr	r2, [r2]
  105b7c:	e3822004 	orr	r2, r2, #4
  105b80:	e5832000 	str	r2, [r3]
  105b84:	ea000079 	b	105d70 <alt_clk_clock_enable+0x4ac>
  105b88:	e30430a0 	movw	r3, #16544	; 0x40a0
  105b8c:	e34f3fd0 	movt	r3, #65488	; 0xffd0
  105b90:	e30420a0 	movw	r2, #16544	; 0x40a0
  105b94:	e34f2fd0 	movt	r2, #65488	; 0xffd0
  105b98:	e5922000 	ldr	r2, [r2]
  105b9c:	e3822008 	orr	r2, r2, #8
  105ba0:	e5832000 	str	r2, [r3]
  105ba4:	ea000071 	b	105d70 <alt_clk_clock_enable+0x4ac>
  105ba8:	e30430a0 	movw	r3, #16544	; 0x40a0
  105bac:	e34f3fd0 	movt	r3, #65488	; 0xffd0
  105bb0:	e30420a0 	movw	r2, #16544	; 0x40a0
  105bb4:	e34f2fd0 	movt	r2, #65488	; 0xffd0
  105bb8:	e5922000 	ldr	r2, [r2]
  105bbc:	e3822010 	orr	r2, r2, #16
  105bc0:	e5832000 	str	r2, [r3]
  105bc4:	ea000069 	b	105d70 <alt_clk_clock_enable+0x4ac>
  105bc8:	e30430a0 	movw	r3, #16544	; 0x40a0
  105bcc:	e34f3fd0 	movt	r3, #65488	; 0xffd0
  105bd0:	e30420a0 	movw	r2, #16544	; 0x40a0
  105bd4:	e34f2fd0 	movt	r2, #65488	; 0xffd0
  105bd8:	e5922000 	ldr	r2, [r2]
  105bdc:	e3822020 	orr	r2, r2, #32
  105be0:	e5832000 	str	r2, [r3]
  105be4:	ea000061 	b	105d70 <alt_clk_clock_enable+0x4ac>
  105be8:	e30430a0 	movw	r3, #16544	; 0x40a0
  105bec:	e34f3fd0 	movt	r3, #65488	; 0xffd0
  105bf0:	e30420a0 	movw	r2, #16544	; 0x40a0
  105bf4:	e34f2fd0 	movt	r2, #65488	; 0xffd0
  105bf8:	e5922000 	ldr	r2, [r2]
  105bfc:	e3822040 	orr	r2, r2, #64	; 0x40
  105c00:	e5832000 	str	r2, [r3]
  105c04:	ea000059 	b	105d70 <alt_clk_clock_enable+0x4ac>
  105c08:	e30430a0 	movw	r3, #16544	; 0x40a0
  105c0c:	e34f3fd0 	movt	r3, #65488	; 0xffd0
  105c10:	e30420a0 	movw	r2, #16544	; 0x40a0
  105c14:	e34f2fd0 	movt	r2, #65488	; 0xffd0
  105c18:	e5922000 	ldr	r2, [r2]
  105c1c:	e3822080 	orr	r2, r2, #128	; 0x80
  105c20:	e5832000 	str	r2, [r3]
  105c24:	ea000051 	b	105d70 <alt_clk_clock_enable+0x4ac>
  105c28:	e30430a0 	movw	r3, #16544	; 0x40a0
  105c2c:	e34f3fd0 	movt	r3, #65488	; 0xffd0
  105c30:	e30420a0 	movw	r2, #16544	; 0x40a0
  105c34:	e34f2fd0 	movt	r2, #65488	; 0xffd0
  105c38:	e5922000 	ldr	r2, [r2]
  105c3c:	e3822c01 	orr	r2, r2, #256	; 0x100
  105c40:	e5832000 	str	r2, [r3]
  105c44:	ea000049 	b	105d70 <alt_clk_clock_enable+0x4ac>
  105c48:	e30430a0 	movw	r3, #16544	; 0x40a0
  105c4c:	e34f3fd0 	movt	r3, #65488	; 0xffd0
  105c50:	e30420a0 	movw	r2, #16544	; 0x40a0
  105c54:	e34f2fd0 	movt	r2, #65488	; 0xffd0
  105c58:	e5922000 	ldr	r2, [r2]
  105c5c:	e3822c02 	orr	r2, r2, #512	; 0x200
  105c60:	e5832000 	str	r2, [r3]
  105c64:	e3a01008 	mov	r1, #8
  105c68:	e30400a0 	movw	r0, #16544	; 0x40a0
  105c6c:	e34f0fd0 	movt	r0, #65488	; 0xffd0
  105c70:	ebfffa6b 	bl	104624 <alt_clk_mgr_wait>
  105c74:	ea00003d 	b	105d70 <alt_clk_clock_enable+0x4ac>
  105c78:	e30430a0 	movw	r3, #16544	; 0x40a0
  105c7c:	e34f3fd0 	movt	r3, #65488	; 0xffd0
  105c80:	e30420a0 	movw	r2, #16544	; 0x40a0
  105c84:	e34f2fd0 	movt	r2, #65488	; 0xffd0
  105c88:	e5922000 	ldr	r2, [r2]
  105c8c:	e3822c02 	orr	r2, r2, #512	; 0x200
  105c90:	e5832000 	str	r2, [r3]
  105c94:	e3a01008 	mov	r1, #8
  105c98:	e30400a0 	movw	r0, #16544	; 0x40a0
  105c9c:	e34f0fd0 	movt	r0, #65488	; 0xffd0
  105ca0:	ebfffa5f 	bl	104624 <alt_clk_mgr_wait>
  105ca4:	e30430a0 	movw	r3, #16544	; 0x40a0
  105ca8:	e34f3fd0 	movt	r3, #65488	; 0xffd0
  105cac:	e30420a0 	movw	r2, #16544	; 0x40a0
  105cb0:	e34f2fd0 	movt	r2, #65488	; 0xffd0
  105cb4:	e5922000 	ldr	r2, [r2]
  105cb8:	e3822b01 	orr	r2, r2, #1024	; 0x400
  105cbc:	e5832000 	str	r2, [r3]
  105cc0:	ea00002a 	b	105d70 <alt_clk_clock_enable+0x4ac>
  105cc4:	e30430a0 	movw	r3, #16544	; 0x40a0
  105cc8:	e34f3fd0 	movt	r3, #65488	; 0xffd0
  105ccc:	e30420a0 	movw	r2, #16544	; 0x40a0
  105cd0:	e34f2fd0 	movt	r2, #65488	; 0xffd0
  105cd4:	e5922000 	ldr	r2, [r2]
  105cd8:	e3822b02 	orr	r2, r2, #2048	; 0x800
  105cdc:	e5832000 	str	r2, [r3]
  105ce0:	ea000022 	b	105d70 <alt_clk_clock_enable+0x4ac>
  105ce4:	e30430d8 	movw	r3, #16600	; 0x40d8
  105ce8:	e34f3fd0 	movt	r3, #65488	; 0xffd0
  105cec:	e30420d8 	movw	r2, #16600	; 0x40d8
  105cf0:	e34f2fd0 	movt	r2, #65488	; 0xffd0
  105cf4:	e5922000 	ldr	r2, [r2]
  105cf8:	e3822001 	orr	r2, r2, #1
  105cfc:	e5832000 	str	r2, [r3]
  105d00:	ea00001a 	b	105d70 <alt_clk_clock_enable+0x4ac>
  105d04:	e30430d8 	movw	r3, #16600	; 0x40d8
  105d08:	e34f3fd0 	movt	r3, #65488	; 0xffd0
  105d0c:	e30420d8 	movw	r2, #16600	; 0x40d8
  105d10:	e34f2fd0 	movt	r2, #65488	; 0xffd0
  105d14:	e5922000 	ldr	r2, [r2]
  105d18:	e3822002 	orr	r2, r2, #2
  105d1c:	e5832000 	str	r2, [r3]
  105d20:	ea000012 	b	105d70 <alt_clk_clock_enable+0x4ac>
  105d24:	e30430d8 	movw	r3, #16600	; 0x40d8
  105d28:	e34f3fd0 	movt	r3, #65488	; 0xffd0
  105d2c:	e30420d8 	movw	r2, #16600	; 0x40d8
  105d30:	e34f2fd0 	movt	r2, #65488	; 0xffd0
  105d34:	e5922000 	ldr	r2, [r2]
  105d38:	e3822004 	orr	r2, r2, #4
  105d3c:	e5832000 	str	r2, [r3]
  105d40:	ea00000a 	b	105d70 <alt_clk_clock_enable+0x4ac>
  105d44:	e30430d8 	movw	r3, #16600	; 0x40d8
  105d48:	e34f3fd0 	movt	r3, #65488	; 0xffd0
  105d4c:	e30420d8 	movw	r2, #16600	; 0x40d8
  105d50:	e34f2fd0 	movt	r2, #65488	; 0xffd0
  105d54:	e5922000 	ldr	r2, [r2]
  105d58:	e3822008 	orr	r2, r2, #8
  105d5c:	e5832000 	str	r2, [r3]
  105d60:	ea000002 	b	105d70 <alt_clk_clock_enable+0x4ac>
  105d64:	e3e03008 	mvn	r3, #8
  105d68:	e50b3008 	str	r3, [fp, #-8]
  105d6c:	e320f000 	nop	{0}
  105d70:	e51b3008 	ldr	r3, [fp, #-8]
  105d74:	e1a00003 	mov	r0, r3
  105d78:	e24bd004 	sub	sp, fp, #4
  105d7c:	e8bd8800 	pop	{fp, pc}

00105d80 <alt_clk_is_enabled>:
  105d80:	e92d4800 	push	{fp, lr}
  105d84:	e28db004 	add	fp, sp, #4
  105d88:	e24dd010 	sub	sp, sp, #16
  105d8c:	e1a03000 	mov	r3, r0
  105d90:	e54b300d 	strb	r3, [fp, #-13]
  105d94:	e3e03008 	mvn	r3, #8
  105d98:	e50b3008 	str	r3, [fp, #-8]
  105d9c:	e55b300d 	ldrb	r3, [fp, #-13]
  105da0:	e2433009 	sub	r3, r3, #9
  105da4:	e3530037 	cmp	r3, #55	; 0x37
  105da8:	979ff103 	ldrls	pc, [pc, r3, lsl #2]
  105dac:	ea000148 	b	1062d4 <alt_clk_is_enabled+0x554>
  105db0:	00105e90 	.word	0x00105e90
  105db4:	00105e90 	.word	0x00105e90
  105db8:	00105e90 	.word	0x00105e90
  105dbc:	001062d4 	.word	0x001062d4
  105dc0:	00105eb8 	.word	0x00105eb8
  105dc4:	00105eb8 	.word	0x00105eb8
  105dc8:	00105eb8 	.word	0x00105eb8
  105dcc:	00105eb8 	.word	0x00105eb8
  105dd0:	00105eb8 	.word	0x00105eb8
  105dd4:	00105eb8 	.word	0x00105eb8
  105dd8:	00105eb8 	.word	0x00105eb8
  105ddc:	00105eb8 	.word	0x00105eb8
  105de0:	00105eb8 	.word	0x00105eb8
  105de4:	00105eb8 	.word	0x00105eb8
  105de8:	00105eec 	.word	0x00105eec
  105dec:	00105eb8 	.word	0x00105eb8
  105df0:	00105ec4 	.word	0x00105ec4
  105df4:	00105f14 	.word	0x00105f14
  105df8:	00105f3c 	.word	0x00105f3c
  105dfc:	00105eb8 	.word	0x00105eb8
  105e00:	00105f64 	.word	0x00105f64
  105e04:	00105fb4 	.word	0x00105fb4
  105e08:	00105fdc 	.word	0x00105fdc
  105e0c:	00105f8c 	.word	0x00105f8c
  105e10:	00105eb8 	.word	0x00105eb8
  105e14:	00105eb8 	.word	0x00105eb8
  105e18:	00106004 	.word	0x00106004
  105e1c:	0010602c 	.word	0x0010602c
  105e20:	00105eb8 	.word	0x00105eb8
  105e24:	00105eb8 	.word	0x00105eb8
  105e28:	00105eb8 	.word	0x00105eb8
  105e2c:	00105eb8 	.word	0x00105eb8
  105e30:	00105eb8 	.word	0x00105eb8
  105e34:	00105eb8 	.word	0x00105eb8
  105e38:	001060a4 	.word	0x001060a4
  105e3c:	001060cc 	.word	0x001060cc
  105e40:	0010620c 	.word	0x0010620c
  105e44:	001061bc 	.word	0x001061bc
  105e48:	001061e4 	.word	0x001061e4
  105e4c:	00106194 	.word	0x00106194
  105e50:	00106054 	.word	0x00106054
  105e54:	0010607c 	.word	0x0010607c
  105e58:	001060f4 	.word	0x001060f4
  105e5c:	0010611c 	.word	0x0010611c
  105e60:	00106144 	.word	0x00106144
  105e64:	0010616c 	.word	0x0010616c
  105e68:	00105eb8 	.word	0x00105eb8
  105e6c:	00105eb8 	.word	0x00105eb8
  105e70:	00105eb8 	.word	0x00105eb8
  105e74:	001062d4 	.word	0x001062d4
  105e78:	001062d4 	.word	0x001062d4
  105e7c:	00105eb8 	.word	0x00105eb8
  105e80:	00106234 	.word	0x00106234
  105e84:	0010625c 	.word	0x0010625c
  105e88:	00106284 	.word	0x00106284
  105e8c:	001062ac 	.word	0x001062ac
  105e90:	e55b300d 	ldrb	r3, [fp, #-13]
  105e94:	e1a00003 	mov	r0, r3
  105e98:	ebfffcdc 	bl	105210 <alt_clk_pll_is_bypassed>
  105e9c:	e1a03000 	mov	r3, r0
  105ea0:	e3530001 	cmp	r3, #1
  105ea4:	13a03001 	movne	r3, #1
  105ea8:	03a03000 	moveq	r3, #0
  105eac:	e6ef3073 	uxtb	r3, r3
  105eb0:	e50b3008 	str	r3, [fp, #-8]
  105eb4:	ea000109 	b	1062e0 <alt_clk_is_enabled+0x560>
  105eb8:	e3e03008 	mvn	r3, #8
  105ebc:	e50b3008 	str	r3, [fp, #-8]
  105ec0:	ea000106 	b	1062e0 <alt_clk_is_enabled+0x560>
  105ec4:	e3043060 	movw	r3, #16480	; 0x4060
  105ec8:	e34f3fd0 	movt	r3, #65488	; 0xffd0
  105ecc:	e5933000 	ldr	r3, [r3]
  105ed0:	e2033001 	and	r3, r3, #1
  105ed4:	e3530000 	cmp	r3, #0
  105ed8:	13a03001 	movne	r3, #1
  105edc:	03a03000 	moveq	r3, #0
  105ee0:	e6ef3073 	uxtb	r3, r3
  105ee4:	e50b3008 	str	r3, [fp, #-8]
  105ee8:	ea0000fc 	b	1062e0 <alt_clk_is_enabled+0x560>
  105eec:	e3043060 	movw	r3, #16480	; 0x4060
  105ef0:	e34f3fd0 	movt	r3, #65488	; 0xffd0
  105ef4:	e5933000 	ldr	r3, [r3]
  105ef8:	e2033002 	and	r3, r3, #2
  105efc:	e3530000 	cmp	r3, #0
  105f00:	13a03001 	movne	r3, #1
  105f04:	03a03000 	moveq	r3, #0
  105f08:	e6ef3073 	uxtb	r3, r3
  105f0c:	e50b3008 	str	r3, [fp, #-8]
  105f10:	ea0000f2 	b	1062e0 <alt_clk_is_enabled+0x560>
  105f14:	e3043060 	movw	r3, #16480	; 0x4060
  105f18:	e34f3fd0 	movt	r3, #65488	; 0xffd0
  105f1c:	e5933000 	ldr	r3, [r3]
  105f20:	e2033004 	and	r3, r3, #4
  105f24:	e3530000 	cmp	r3, #0
  105f28:	13a03001 	movne	r3, #1
  105f2c:	03a03000 	moveq	r3, #0
  105f30:	e6ef3073 	uxtb	r3, r3
  105f34:	e50b3008 	str	r3, [fp, #-8]
  105f38:	ea0000e8 	b	1062e0 <alt_clk_is_enabled+0x560>
  105f3c:	e3043060 	movw	r3, #16480	; 0x4060
  105f40:	e34f3fd0 	movt	r3, #65488	; 0xffd0
  105f44:	e5933000 	ldr	r3, [r3]
  105f48:	e2033008 	and	r3, r3, #8
  105f4c:	e3530000 	cmp	r3, #0
  105f50:	13a03001 	movne	r3, #1
  105f54:	03a03000 	moveq	r3, #0
  105f58:	e6ef3073 	uxtb	r3, r3
  105f5c:	e50b3008 	str	r3, [fp, #-8]
  105f60:	ea0000de 	b	1062e0 <alt_clk_is_enabled+0x560>
  105f64:	e3043060 	movw	r3, #16480	; 0x4060
  105f68:	e34f3fd0 	movt	r3, #65488	; 0xffd0
  105f6c:	e5933000 	ldr	r3, [r3]
  105f70:	e2033010 	and	r3, r3, #16
  105f74:	e3530000 	cmp	r3, #0
  105f78:	13a03001 	movne	r3, #1
  105f7c:	03a03000 	moveq	r3, #0
  105f80:	e6ef3073 	uxtb	r3, r3
  105f84:	e50b3008 	str	r3, [fp, #-8]
  105f88:	ea0000d4 	b	1062e0 <alt_clk_is_enabled+0x560>
  105f8c:	e3043060 	movw	r3, #16480	; 0x4060
  105f90:	e34f3fd0 	movt	r3, #65488	; 0xffd0
  105f94:	e5933000 	ldr	r3, [r3]
  105f98:	e2033020 	and	r3, r3, #32
  105f9c:	e3530000 	cmp	r3, #0
  105fa0:	13a03001 	movne	r3, #1
  105fa4:	03a03000 	moveq	r3, #0
  105fa8:	e6ef3073 	uxtb	r3, r3
  105fac:	e50b3008 	str	r3, [fp, #-8]
  105fb0:	ea0000ca 	b	1062e0 <alt_clk_is_enabled+0x560>
  105fb4:	e3043060 	movw	r3, #16480	; 0x4060
  105fb8:	e34f3fd0 	movt	r3, #65488	; 0xffd0
  105fbc:	e5933000 	ldr	r3, [r3]
  105fc0:	e2033040 	and	r3, r3, #64	; 0x40
  105fc4:	e3530000 	cmp	r3, #0
  105fc8:	13a03001 	movne	r3, #1
  105fcc:	03a03000 	moveq	r3, #0
  105fd0:	e6ef3073 	uxtb	r3, r3
  105fd4:	e50b3008 	str	r3, [fp, #-8]
  105fd8:	ea0000c0 	b	1062e0 <alt_clk_is_enabled+0x560>
  105fdc:	e3043060 	movw	r3, #16480	; 0x4060
  105fe0:	e34f3fd0 	movt	r3, #65488	; 0xffd0
  105fe4:	e5933000 	ldr	r3, [r3]
  105fe8:	e2033080 	and	r3, r3, #128	; 0x80
  105fec:	e3530000 	cmp	r3, #0
  105ff0:	13a03001 	movne	r3, #1
  105ff4:	03a03000 	moveq	r3, #0
  105ff8:	e6ef3073 	uxtb	r3, r3
  105ffc:	e50b3008 	str	r3, [fp, #-8]
  106000:	ea0000b6 	b	1062e0 <alt_clk_is_enabled+0x560>
  106004:	e3043060 	movw	r3, #16480	; 0x4060
  106008:	e34f3fd0 	movt	r3, #65488	; 0xffd0
  10600c:	e5933000 	ldr	r3, [r3]
  106010:	e2033c01 	and	r3, r3, #256	; 0x100
  106014:	e3530000 	cmp	r3, #0
