
src/hwlib.axf:     file format elf32-littlearm


Disassembly of section .text:

00100040 <__cs3_interrupt_vector>:
  100040:	18 f0 9f e5 18 f0 9f e5 18 f0 9f e5 18 f0 9f e5     ................
  100050:	18 f0 9f e5 18 f0 9f e5 18 f0 9f e5 18 f0 9f e5     ................
  100060:	80 00 10 00 f4 1a 12 00 f8 1a 12 00 fc 1a 12 00     ................
  100070:	00 1b 12 00 f0 1a 12 00 04 1b 12 00 08 1b 12 00     ................

00100080 <__cs3_reset>:
  100080:	ea000022 	b	100110 <_start>

00100084 <__cs3_start_c>:
  100084:	e3008002 	movw	r8, #2
  100088:	e92d4080 	push	{r7, lr}
  10008c:	e3408000 	movt	r8, #0
  100090:	e3580000 	cmp	r8, #0
  100094:	0a00001c 	beq	10010c <__cs3_start_c+0x88>
  100098:	e302eb8c 	movw	lr, #11148	; 0x2b8c
  10009c:	e2488001 	sub	r8, r8, #1
  1000a0:	e3a04000 	mov	r4, #0
  1000a4:	e3a05000 	mov	r5, #0
  1000a8:	e340e012 	movt	lr, #18
  1000ac:	e99e1005 	ldmib	lr, {r0, r2, ip}
  1000b0:	e1500002 	cmp	r0, r2
  1000b4:	0082200c 	addeq	r2, r2, ip
  1000b8:	0a000007 	beq	1000dc <__cs3_start_c+0x58>
  1000bc:	e35c0000 	cmp	ip, #0
  1000c0:	0a000005 	beq	1000dc <__cs3_start_c+0x58>
  1000c4:	e1a03000 	mov	r3, r0
  1000c8:	e0c360d8 	ldrd	r6, [r3], #8
  1000cc:	e0431000 	sub	r1, r3, r0
  1000d0:	e0c260f8 	strd	r6, [r2], #8
  1000d4:	e151000c 	cmp	r1, ip
  1000d8:	1afffffa 	bne	1000c8 <__cs3_start_c+0x44>
  1000dc:	e59e0010 	ldr	r0, [lr, #16]
  1000e0:	e3500000 	cmp	r0, #0
  1000e4:	11a03002 	movne	r3, r2
  1000e8:	0a000003 	beq	1000fc <__cs3_start_c+0x78>
  1000ec:	e0c340f8 	strd	r4, [r3], #8
  1000f0:	e0431002 	sub	r1, r3, r2
  1000f4:	e1500001 	cmp	r0, r1
  1000f8:	1afffffb 	bne	1000ec <__cs3_start_c+0x68>
  1000fc:	e2488001 	sub	r8, r8, #1
  100100:	e28ee014 	add	lr, lr, #20
  100104:	e3780001 	cmn	r8, #1
  100108:	1affffe7 	bne	1000ac <__cs3_start_c+0x28>
  10010c:	eb00862a 	bl	1219bc <__cs3_premain>

00100110 <_start>:
  100110:	e51fd000 	ldr	sp, [pc, #-0]	; 100118 <_start+0x8>
  100114:	eaffffda 	b	100084 <__cs3_start_c>
  100118:	01100040 	.word	0x01100040

0010011c <deregister_tm_clones>:
  10011c:	e59f3024 	ldr	r3, [pc, #36]	; 100148 <deregister_tm_clones+0x2c>
  100120:	e30c0aa0 	movw	r0, #51872	; 0xcaa0
  100124:	e3400012 	movt	r0, #18
  100128:	e0433000 	sub	r3, r3, r0
  10012c:	e3530006 	cmp	r3, #6
  100130:	912fff1e 	bxls	lr
  100134:	e3003000 	movw	r3, #0
  100138:	e3403000 	movt	r3, #0
  10013c:	e3530000 	cmp	r3, #0
  100140:	012fff1e 	bxeq	lr
  100144:	e12fff13 	bx	r3
  100148:	0012caa3 	.word	0x0012caa3

0010014c <register_tm_clones>:
  10014c:	e30c3aa0 	movw	r3, #51872	; 0xcaa0
  100150:	e30c0aa0 	movw	r0, #51872	; 0xcaa0
  100154:	e3403012 	movt	r3, #18
  100158:	e3400012 	movt	r0, #18
  10015c:	e0431000 	sub	r1, r3, r0
  100160:	e1a01141 	asr	r1, r1, #2
  100164:	e0811fa1 	add	r1, r1, r1, lsr #31
  100168:	e1b010c1 	asrs	r1, r1, #1
  10016c:	012fff1e 	bxeq	lr
  100170:	e3003000 	movw	r3, #0
  100174:	e3403000 	movt	r3, #0
  100178:	e3530000 	cmp	r3, #0
  10017c:	012fff1e 	bxeq	lr
  100180:	e12fff13 	bx	r3

00100184 <__do_global_dtors_aux>:
  100184:	e92d4010 	push	{r4, lr}
  100188:	e30c4aa0 	movw	r4, #51872	; 0xcaa0
  10018c:	e3404012 	movt	r4, #18
  100190:	e5d43000 	ldrb	r3, [r4]
  100194:	e3530000 	cmp	r3, #0
  100198:	18bd8010 	popne	{r4, pc}
  10019c:	ebffffde 	bl	10011c <deregister_tm_clones>
  1001a0:	e3003000 	movw	r3, #0
  1001a4:	e3403000 	movt	r3, #0
  1001a8:	e3530000 	cmp	r3, #0
  1001ac:	0a000002 	beq	1001bc <__do_global_dtors_aux+0x38>
  1001b0:	e3010b90 	movw	r0, #7056	; 0x1b90
  1001b4:	e3400012 	movt	r0, #18
  1001b8:	e320f000 	nop	{0}
  1001bc:	e3a03001 	mov	r3, #1
  1001c0:	e5c43000 	strb	r3, [r4]
  1001c4:	e8bd8010 	pop	{r4, pc}

001001c8 <frame_dummy>:
  1001c8:	e3003000 	movw	r3, #0
  1001cc:	e92d4010 	push	{r4, lr}
  1001d0:	e3403000 	movt	r3, #0
  1001d4:	e3530000 	cmp	r3, #0
  1001d8:	0a000004 	beq	1001f0 <frame_dummy+0x28>
  1001dc:	e30c1aa4 	movw	r1, #51876	; 0xcaa4
  1001e0:	e3010b90 	movw	r0, #7056	; 0x1b90
  1001e4:	e3401012 	movt	r1, #18
  1001e8:	e3400012 	movt	r0, #18
  1001ec:	e320f000 	nop	{0}
  1001f0:	e3040000 	movw	r0, #16384	; 0x4000
  1001f4:	e3400012 	movt	r0, #18
  1001f8:	e5903000 	ldr	r3, [r0]
  1001fc:	e3530000 	cmp	r3, #0
  100200:	1a000001 	bne	10020c <frame_dummy+0x44>
  100204:	e8bd4010 	pop	{r4, lr}
  100208:	eaffffcf 	b	10014c <register_tm_clones>
  10020c:	e3003000 	movw	r3, #0
  100210:	e3403000 	movt	r3, #0
  100214:	e3530000 	cmp	r3, #0
  100218:	0afffff9 	beq	100204 <frame_dummy+0x3c>
  10021c:	e12fff33 	blx	r3
  100220:	eafffff7 	b	100204 <frame_dummy+0x3c>

00100224 <main>:
  100224:	e92d4800 	push	{fp, lr}
  100228:	e28db004 	add	fp, sp, #4
  10022c:	e24dd058 	sub	sp, sp, #88	; 0x58
  100230:	e50b0048 	str	r0, [fp, #-72]	; 0xffffffb8
  100234:	e50b104c 	str	r1, [fp, #-76]	; 0xffffffb4
  100238:	e3010ba0 	movw	r0, #7072	; 0x1ba0
  10023c:	e3400012 	movt	r0, #18
  100240:	eb0063c3 	bl	119154 <puts>
  100244:	eb000084 	bl	10045c <cache_fun>
  100248:	e3a03004 	mov	r3, #4
  10024c:	e14b30be 	strh	r3, [fp, #-14]
  100250:	e3a03000 	mov	r3, #0
  100254:	e50b300c 	str	r3, [fp, #-12]
  100258:	e3a03000 	mov	r3, #0
  10025c:	e54b301c 	strb	r3, [fp, #-28]	; 0xffffffe4
  100260:	e24b3028 	sub	r3, fp, #40	; 0x28
  100264:	e3a02000 	mov	r2, #0
  100268:	e5832000 	str	r2, [r3]
  10026c:	e5832004 	str	r2, [r3, #4]
  100270:	e5832008 	str	r2, [r3, #8]
  100274:	e3a03000 	mov	r3, #0
  100278:	e34f3f25 	movt	r3, #65317	; 0xff25
  10027c:	e50b3028 	str	r3, [fp, #-40]	; 0xffffffd8
  100280:	e3a03002 	mov	r3, #2
  100284:	e54b3020 	strb	r3, [fp, #-32]	; 0xffffffe0
  100288:	e24b3018 	sub	r3, fp, #24
  10028c:	e3041028 	movw	r1, #16424	; 0x4028
  100290:	e3401012 	movt	r1, #18
  100294:	e1a00003 	mov	r0, r3
  100298:	eb0008ec 	bl	102650 <ad7606_serial_init>
  10029c:	e51b3018 	ldr	r3, [fp, #-24]	; 0xffffffe8
  1002a0:	e5933000 	ldr	r3, [r3]
  1002a4:	e24b2028 	sub	r2, fp, #40	; 0x28
  1002a8:	e1a01002 	mov	r1, r2
  1002ac:	e1a00003 	mov	r0, r3
  1002b0:	eb001165 	bl	10484c <spi_engine_offload_init>
  1002b4:	e3043008 	movw	r3, #16392	; 0x4008
  1002b8:	e3403012 	movt	r3, #18
  1002bc:	e50b303c 	str	r3, [fp, #-60]	; 0xffffffc4
  1002c0:	e3a03003 	mov	r3, #3
  1002c4:	e50b3038 	str	r3, [fp, #-56]	; 0xffffffc8
  1002c8:	e51b3034 	ldr	r3, [fp, #-52]	; 0xffffffcc
  1002cc:	e55b201c 	ldrb	r2, [fp, #-28]	; 0xffffffe4
  1002d0:	e5c32000 	strb	r2, [r3]
  1002d4:	e24b3040 	sub	r3, fp, #64	; 0x40
  1002d8:	e1a01003 	mov	r1, r3
  1002dc:	e3a00b01 	mov	r0, #1024	; 0x400
  1002e0:	eb0048ee 	bl	1126a0 <align_malloc>
  1002e4:	e50b0014 	str	r0, [fp, #-20]	; 0xffffffec
  1002e8:	e3a02b01 	mov	r2, #1024	; 0x400
  1002ec:	e3a01000 	mov	r1, #0
  1002f0:	e51b0014 	ldr	r0, [fp, #-20]	; 0xffffffec
  1002f4:	eb0062ee 	bl	118eb4 <memset>
  1002f8:	e51b3014 	ldr	r3, [fp, #-20]	; 0xffffffec
  1002fc:	e50b302c 	str	r3, [fp, #-44]	; 0xffffffd4
  100300:	e51b302c 	ldr	r3, [fp, #-44]	; 0xffffffd4
  100304:	e1a01003 	mov	r1, r3
  100308:	e3010bc8 	movw	r0, #7112	; 0x1bc8
  10030c:	e3400012 	movt	r0, #18
  100310:	eb006341 	bl	11901c <printf>
  100314:	e3a02082 	mov	r2, #130	; 0x82
  100318:	e3001444 	movw	r1, #1092	; 0x444
  10031c:	e3a00000 	mov	r0, #0
  100320:	e34f0f24 	movt	r0, #65316	; 0xff24
  100324:	eb001358 	bl	10508c <axi_io_write>
  100328:	e3a02003 	mov	r2, #3
  10032c:	e3a01d11 	mov	r1, #1088	; 0x440
  100330:	e3a00000 	mov	r0, #0
  100334:	e34f0f24 	movt	r0, #65316	; 0xff24
  100338:	eb001353 	bl	10508c <axi_io_write>
  10033c:	e51b3018 	ldr	r3, [fp, #-24]	; 0xffffffe8
  100340:	e593c000 	ldr	ip, [r3]
  100344:	e3a03b01 	mov	r3, #1024	; 0x400
  100348:	e58d3008 	str	r3, [sp, #8]
  10034c:	e1a0200d 	mov	r2, sp
  100350:	e24b3030 	sub	r3, fp, #48	; 0x30
  100354:	e8930003 	ldm	r3, {r0, r1}
  100358:	e8820003 	stm	r2, {r0, r1}
  10035c:	e24b303c 	sub	r3, fp, #60	; 0x3c
  100360:	e893000e 	ldm	r3, {r1, r2, r3}
  100364:	e1a0000c 	mov	r0, ip
  100368:	eb00117d 	bl	104964 <spi_engine_offload_transfer>
  10036c:	e51b302c 	ldr	r3, [fp, #-44]	; 0xffffffd4
  100370:	e3a01902 	mov	r1, #32768	; 0x8000
  100374:	e1a00003 	mov	r0, r3
  100378:	eb00490f 	bl	1127bc <alt_cache_system_invalidate>
  10037c:	e51b3014 	ldr	r3, [fp, #-20]	; 0xffffffec
  100380:	e50b300c 	str	r3, [fp, #-12]
  100384:	e3010c10 	movw	r0, #7184	; 0x1c10
  100388:	e3400012 	movt	r0, #18
  10038c:	eb006322 	bl	11901c <printf>
  100390:	e3a03000 	mov	r3, #0
  100394:	e14b30b6 	strh	r3, [fp, #-6]
  100398:	ea00001d 	b	100414 <main+0x1f0>
  10039c:	e15b30b6 	ldrh	r3, [fp, #-6]
  1003a0:	e15b20be 	ldrh	r2, [fp, #-14]
  1003a4:	e1a01002 	mov	r1, r2
  1003a8:	e1a00003 	mov	r0, r3
  1003ac:	eb00604b 	bl	1184e0 <__aeabi_uidivmod>
  1003b0:	e1a03001 	mov	r3, r1
  1003b4:	e6ff3073 	uxth	r3, r3
  1003b8:	e3530000 	cmp	r3, #0
  1003bc:	1a000002 	bne	1003cc <main+0x1a8>
  1003c0:	e3010c30 	movw	r0, #7216	; 0x1c30
  1003c4:	e3400012 	movt	r0, #18
  1003c8:	eb006313 	bl	11901c <printf>
  1003cc:	e51b300c 	ldr	r3, [fp, #-12]
  1003d0:	e5933000 	ldr	r3, [r3]
  1003d4:	e6ff3073 	uxth	r3, r3
  1003d8:	e1a01003 	mov	r1, r3
  1003dc:	e51b300c 	ldr	r3, [fp, #-12]
  1003e0:	e5933000 	ldr	r3, [r3]
  1003e4:	e1a03823 	lsr	r3, r3, #16
  1003e8:	e6ff3073 	uxth	r3, r3
  1003ec:	e1a02003 	mov	r2, r3
  1003f0:	e3010c34 	movw	r0, #7220	; 0x1c34
  1003f4:	e3400012 	movt	r0, #18
  1003f8:	eb006307 	bl	11901c <printf>
  1003fc:	e51b300c 	ldr	r3, [fp, #-12]
  100400:	e2833004 	add	r3, r3, #4
  100404:	e50b300c 	str	r3, [fp, #-12]
  100408:	e15b30b6 	ldrh	r3, [fp, #-6]
  10040c:	e2833001 	add	r3, r3, #1
  100410:	e14b30b6 	strh	r3, [fp, #-6]
  100414:	e15b30b6 	ldrh	r3, [fp, #-6]
  100418:	e3530b01 	cmp	r3, #1024	; 0x400
  10041c:	3affffde 	bcc	10039c <main+0x178>
  100420:	e3010c30 	movw	r0, #7216	; 0x1c30
  100424:	e3400012 	movt	r0, #18
  100428:	eb0062fb 	bl	11901c <printf>
  10042c:	e3a02000 	mov	r2, #0
  100430:	e3a01d11 	mov	r1, #1088	; 0x440
  100434:	e3a00000 	mov	r0, #0
  100438:	e34f0f24 	movt	r0, #65316	; 0xff24
  10043c:	eb001312 	bl	10508c <axi_io_write>
  100440:	e3010c40 	movw	r0, #7232	; 0x1c40
  100444:	e3400012 	movt	r0, #18
  100448:	eb006341 	bl	119154 <puts>
  10044c:	e3a03000 	mov	r3, #0
  100450:	e1a00003 	mov	r0, r3
  100454:	e24bd004 	sub	sp, fp, #4
  100458:	e8bd8800 	pop	{fp, pc}

0010045c <cache_fun>:
  10045c:	e92d4800 	push	{fp, lr}
  100460:	e28db004 	add	fp, sp, #4
  100464:	e3a00009 	mov	r0, #9
  100468:	eb000001 	bl	100474 <cache_configuration>
  10046c:	e320f000 	nop	{0}
  100470:	e8bd8800 	pop	{fp, pc}

00100474 <cache_configuration>:
  100474:	e92d4800 	push	{fp, lr}
  100478:	e28db004 	add	fp, sp, #4
  10047c:	e24dd008 	sub	sp, sp, #8
  100480:	e50b0008 	str	r0, [fp, #-8]
  100484:	e51b3008 	ldr	r3, [fp, #-8]
  100488:	e3530000 	cmp	r3, #0
  10048c:	ca000003 	bgt	1004a0 <cache_configuration+0x2c>
  100490:	e3010c5c 	movw	r0, #7260	; 0x1c5c
  100494:	e3400012 	movt	r0, #18
  100498:	eb0062df 	bl	11901c <printf>
  10049c:	ea0000a2 	b	10072c <cache_configuration+0x2b8>
  1004a0:	e51b3008 	ldr	r3, [fp, #-8]
  1004a4:	e3530001 	cmp	r3, #1
  1004a8:	ca000004 	bgt	1004c0 <cache_configuration+0x4c>
  1004ac:	e3010c78 	movw	r0, #7288	; 0x1c78
  1004b0:	e3400012 	movt	r0, #18
  1004b4:	eb0062d8 	bl	11901c <printf>
  1004b8:	eb00137c 	bl	1052b0 <enable_MMU>
  1004bc:	ea00009a 	b	10072c <cache_configuration+0x2b8>
  1004c0:	e51b3008 	ldr	r3, [fp, #-8]
  1004c4:	e3530002 	cmp	r3, #2
  1004c8:	ca000005 	bgt	1004e4 <cache_configuration+0x70>
  1004cc:	e3010c98 	movw	r0, #7320	; 0x1c98
  1004d0:	e3400012 	movt	r0, #18
  1004d4:	eb0062d0 	bl	11901c <printf>
  1004d8:	eb001374 	bl	1052b0 <enable_MMU>
  1004dc:	eb0013bf 	bl	1053e0 <initialize_L2C>
  1004e0:	ea000091 	b	10072c <cache_configuration+0x2b8>
  1004e4:	e51b3008 	ldr	r3, [fp, #-8]
  1004e8:	e3530003 	cmp	r3, #3
  1004ec:	ca000006 	bgt	10050c <cache_configuration+0x98>
  1004f0:	e3010cc4 	movw	r0, #7364	; 0x1cc4
  1004f4:	e3400012 	movt	r0, #18
  1004f8:	eb0062c7 	bl	11901c <printf>
  1004fc:	eb00136b 	bl	1052b0 <enable_MMU>
  100500:	eb0013b6 	bl	1053e0 <initialize_L2C>
  100504:	eb001419 	bl	105570 <enable_SCU>
  100508:	ea000087 	b	10072c <cache_configuration+0x2b8>
  10050c:	e51b3008 	ldr	r3, [fp, #-8]
  100510:	e3530004 	cmp	r3, #4
  100514:	ca000007 	bgt	100538 <cache_configuration+0xc4>
  100518:	e3010cf8 	movw	r0, #7416	; 0x1cf8
  10051c:	e3400012 	movt	r0, #18
  100520:	eb0062bd 	bl	11901c <printf>
  100524:	eb001361 	bl	1052b0 <enable_MMU>
  100528:	eb0013ac 	bl	1053e0 <initialize_L2C>
  10052c:	eb00140f 	bl	105570 <enable_SCU>
  100530:	eb0013d0 	bl	105478 <enable_L1_I>
  100534:	ea00007c 	b	10072c <cache_configuration+0x2b8>
  100538:	e51b3008 	ldr	r3, [fp, #-8]
  10053c:	e3530005 	cmp	r3, #5
  100540:	ca000008 	bgt	100568 <cache_configuration+0xf4>
  100544:	e3010d10 	movw	r0, #7440	; 0x1d10
  100548:	e3400012 	movt	r0, #18
  10054c:	eb0062b2 	bl	11901c <printf>
  100550:	eb001356 	bl	1052b0 <enable_MMU>
  100554:	eb0013a1 	bl	1053e0 <initialize_L2C>
  100558:	eb001404 	bl	105570 <enable_SCU>
  10055c:	eb0013c5 	bl	105478 <enable_L1_I>
  100560:	eb0013c8 	bl	105488 <enable_branch_prediction>
  100564:	ea000070 	b	10072c <cache_configuration+0x2b8>
  100568:	e51b3008 	ldr	r3, [fp, #-8]
  10056c:	e3530006 	cmp	r3, #6
  100570:	ca000009 	bgt	10059c <cache_configuration+0x128>
  100574:	e3010d40 	movw	r0, #7488	; 0x1d40
  100578:	e3400012 	movt	r0, #18
  10057c:	eb0062a6 	bl	11901c <printf>
  100580:	eb00134a 	bl	1052b0 <enable_MMU>
  100584:	eb001395 	bl	1053e0 <initialize_L2C>
  100588:	eb0013f8 	bl	105570 <enable_SCU>
  10058c:	eb0013b5 	bl	105468 <enable_L1_D>
  100590:	eb0013b8 	bl	105478 <enable_L1_I>
  100594:	eb0013bb 	bl	105488 <enable_branch_prediction>
  100598:	ea000063 	b	10072c <cache_configuration+0x2b8>
  10059c:	e51b3008 	ldr	r3, [fp, #-8]
  1005a0:	e3530007 	cmp	r3, #7
  1005a4:	ca00000a 	bgt	1005d4 <cache_configuration+0x160>
  1005a8:	e3010d74 	movw	r0, #7540	; 0x1d74
  1005ac:	e3400012 	movt	r0, #18
  1005b0:	eb006299 	bl	11901c <printf>
  1005b4:	eb00133d 	bl	1052b0 <enable_MMU>
  1005b8:	eb001388 	bl	1053e0 <initialize_L2C>
  1005bc:	eb0013d7 	bl	105520 <enable_L1_D_side_prefetch>
  1005c0:	eb0013ea 	bl	105570 <enable_SCU>
  1005c4:	eb0013a7 	bl	105468 <enable_L1_D>
  1005c8:	eb0013aa 	bl	105478 <enable_L1_I>
  1005cc:	eb0013ad 	bl	105488 <enable_branch_prediction>
  1005d0:	ea000055 	b	10072c <cache_configuration+0x2b8>
  1005d4:	e51b3008 	ldr	r3, [fp, #-8]
  1005d8:	e3530008 	cmp	r3, #8
  1005dc:	ca000008 	bgt	100604 <cache_configuration+0x190>
  1005e0:	e3010dc0 	movw	r0, #7616	; 0x1dc0
  1005e4:	e3400012 	movt	r0, #18
  1005e8:	eb00628b 	bl	11901c <printf>
  1005ec:	eb00132f 	bl	1052b0 <enable_MMU>
  1005f0:	eb00137a 	bl	1053e0 <initialize_L2C>
  1005f4:	eb0013c9 	bl	105520 <enable_L1_D_side_prefetch>
  1005f8:	eb0013dc 	bl	105570 <enable_SCU>
  1005fc:	eb001390 	bl	105444 <enable_caches>
  100600:	ea000049 	b	10072c <cache_configuration+0x2b8>
  100604:	e51b3008 	ldr	r3, [fp, #-8]
  100608:	e3530009 	cmp	r3, #9
  10060c:	ca000009 	bgt	100638 <cache_configuration+0x1c4>
  100610:	e3010e0c 	movw	r0, #7692	; 0x1e0c
  100614:	e3400012 	movt	r0, #18
  100618:	eb00627f 	bl	11901c <printf>
  10061c:	eb001323 	bl	1052b0 <enable_MMU>
  100620:	eb00136e 	bl	1053e0 <initialize_L2C>
  100624:	eb0013bd 	bl	105520 <enable_L1_D_side_prefetch>
  100628:	eb0013c0 	bl	105530 <enable_L2_prefetch_hint>
  10062c:	eb0013cf 	bl	105570 <enable_SCU>
  100630:	eb001383 	bl	105444 <enable_caches>
  100634:	ea00003c 	b	10072c <cache_configuration+0x2b8>
  100638:	e51b3008 	ldr	r3, [fp, #-8]
  10063c:	e353000a 	cmp	r3, #10
  100640:	ca00000a 	bgt	100670 <cache_configuration+0x1fc>
  100644:	e3010e40 	movw	r0, #7744	; 0x1e40
  100648:	e3400012 	movt	r0, #18
  10064c:	eb006272 	bl	11901c <printf>
  100650:	eb001316 	bl	1052b0 <enable_MMU>
  100654:	eb001361 	bl	1053e0 <initialize_L2C>
  100658:	eb0013b0 	bl	105520 <enable_L1_D_side_prefetch>
  10065c:	eb0013b3 	bl	105530 <enable_L2_prefetch_hint>
  100660:	eb0013c2 	bl	105570 <enable_SCU>
  100664:	eb0013a1 	bl	1054f0 <enable_write_full_line_zeros>
  100668:	eb001375 	bl	105444 <enable_caches>
  10066c:	ea00002e 	b	10072c <cache_configuration+0x2b8>
  100670:	e51b3008 	ldr	r3, [fp, #-8]
  100674:	e353000b 	cmp	r3, #11
  100678:	ca00000b 	bgt	1006ac <cache_configuration+0x238>
  10067c:	e3010e7c 	movw	r0, #7804	; 0x1e7c
  100680:	e3400012 	movt	r0, #18
  100684:	eb006264 	bl	11901c <printf>
  100688:	eb001308 	bl	1052b0 <enable_MMU>
  10068c:	eb001353 	bl	1053e0 <initialize_L2C>
  100690:	eb0013a2 	bl	105520 <enable_L1_D_side_prefetch>
  100694:	eb0013a5 	bl	105530 <enable_L2_prefetch_hint>
  100698:	eb0013b4 	bl	105570 <enable_SCU>
  10069c:	eb0013b8 	bl	105584 <enable_L2_speculative_linefill>
  1006a0:	eb001392 	bl	1054f0 <enable_write_full_line_zeros>
  1006a4:	eb001366 	bl	105444 <enable_caches>
  1006a8:	ea00001f 	b	10072c <cache_configuration+0x2b8>
  1006ac:	e51b3008 	ldr	r3, [fp, #-8]
  1006b0:	e353000c 	cmp	r3, #12
  1006b4:	ca00000c 	bgt	1006ec <cache_configuration+0x278>
  1006b8:	e3010ec8 	movw	r0, #7880	; 0x1ec8
  1006bc:	e3400012 	movt	r0, #18
  1006c0:	eb006255 	bl	11901c <printf>
  1006c4:	eb0012f9 	bl	1052b0 <enable_MMU>
  1006c8:	eb001344 	bl	1053e0 <initialize_L2C>
  1006cc:	eb001393 	bl	105520 <enable_L1_D_side_prefetch>
  1006d0:	eb001396 	bl	105530 <enable_L2_prefetch_hint>
  1006d4:	eb0013a5 	bl	105570 <enable_SCU>
  1006d8:	eb0013a9 	bl	105584 <enable_L2_speculative_linefill>
  1006dc:	eb001383 	bl	1054f0 <enable_write_full_line_zeros>
  1006e0:	eb001379 	bl	1054cc <enable_early_BRESP>
  1006e4:	eb001356 	bl	105444 <enable_caches>
  1006e8:	ea00000f 	b	10072c <cache_configuration+0x2b8>
  1006ec:	e51b3008 	ldr	r3, [fp, #-8]
  1006f0:	e353000d 	cmp	r3, #13
  1006f4:	ca00000c 	bgt	10072c <cache_configuration+0x2b8>
  1006f8:	e3010f08 	movw	r0, #7944	; 0x1f08
  1006fc:	e3400012 	movt	r0, #18
  100700:	eb006245 	bl	11901c <printf>
  100704:	eb0012e9 	bl	1052b0 <enable_MMU>
  100708:	eb001334 	bl	1053e0 <initialize_L2C>
  10070c:	eb001383 	bl	105520 <enable_L1_D_side_prefetch>
  100710:	eb001386 	bl	105530 <enable_L2_prefetch_hint>
  100714:	eb001395 	bl	105570 <enable_SCU>
  100718:	eb001399 	bl	105584 <enable_L2_speculative_linefill>
  10071c:	eb001373 	bl	1054f0 <enable_write_full_line_zeros>
  100720:	eb001369 	bl	1054cc <enable_early_BRESP>
  100724:	eb00135f 	bl	1054a8 <enable_store_buffer_device_limitation>
  100728:	eb001345 	bl	105444 <enable_caches>
  10072c:	e320f000 	nop	{0}
  100730:	e24bd004 	sub	sp, fp, #4
  100734:	e8bd8800 	pop	{fp, pc}

00100738 <ad7606_spi_reg_read>:
  100738:	e92d4800 	push	{fp, lr}
  10073c:	e28db004 	add	fp, sp, #4
  100740:	e24dd020 	sub	sp, sp, #32
  100744:	e50b0018 	str	r0, [fp, #-24]	; 0xffffffe8
  100748:	e1a03001 	mov	r3, r1
  10074c:	e50b2020 	str	r2, [fp, #-32]	; 0xffffffe0
  100750:	e54b3019 	strb	r3, [fp, #-25]	; 0xffffffe7
  100754:	e3a03004 	mov	r3, #4
  100758:	e50b3008 	str	r3, [fp, #-8]
  10075c:	e51b3018 	ldr	r3, [fp, #-24]	; 0xffffffe8
  100760:	e5d3302a 	ldrb	r3, [r3, #42]	; 0x2a
  100764:	e2233001 	eor	r3, r3, #1
  100768:	e6ef3073 	uxtb	r3, r3
  10076c:	e3530000 	cmp	r3, #0
  100770:	0a000001 	beq	10077c <ad7606_spi_reg_read+0x44>
  100774:	e3e03085 	mvn	r3, #133	; 0x85
  100778:	ea000020 	b	100800 <ad7606_spi_reg_read+0xc8>
  10077c:	e15b31d9 	ldrsb	r3, [fp, #-25]	; 0xffffffe7
  100780:	e203303f 	and	r3, r3, #63	; 0x3f
  100784:	e6af3073 	sxtb	r3, r3
  100788:	e3833040 	orr	r3, r3, #64	; 0x40
  10078c:	e6af3073 	sxtb	r3, r3
  100790:	e6ef3073 	uxtb	r3, r3
  100794:	e54b3010 	strb	r3, [fp, #-16]
  100798:	e3a03000 	mov	r3, #0
  10079c:	e54b300f 	strb	r3, [fp, #-15]
  1007a0:	e3a03000 	mov	r3, #0
  1007a4:	e54b300e 	strb	r3, [fp, #-14]
  1007a8:	e3a03000 	mov	r3, #0
  1007ac:	e54b300d 	strb	r3, [fp, #-13]
  1007b0:	e51b3018 	ldr	r3, [fp, #-24]	; 0xffffffe8
  1007b4:	e5933000 	ldr	r3, [r3]
  1007b8:	e51b2008 	ldr	r2, [fp, #-8]
  1007bc:	e6ff2072 	uxth	r2, r2
  1007c0:	e24b1010 	sub	r1, fp, #16
  1007c4:	e1a00003 	mov	r0, r3
  1007c8:	eb0009b9 	bl	102eb4 <spi_write_and_read>
  1007cc:	e50b000c 	str	r0, [fp, #-12]
  1007d0:	e51b300c 	ldr	r3, [fp, #-12]
  1007d4:	e3530000 	cmp	r3, #0
  1007d8:	aa000001 	bge	1007e4 <ad7606_spi_reg_read+0xac>
  1007dc:	e51b300c 	ldr	r3, [fp, #-12]
  1007e0:	ea000006 	b	100800 <ad7606_spi_reg_read+0xc8>
  1007e4:	e51b3020 	ldr	r3, [fp, #-32]	; 0xffffffe0
  1007e8:	e3530000 	cmp	r3, #0
  1007ec:	0a000002 	beq	1007fc <ad7606_spi_reg_read+0xc4>
  1007f0:	e55b200d 	ldrb	r2, [fp, #-13]
  1007f4:	e51b3020 	ldr	r3, [fp, #-32]	; 0xffffffe0
  1007f8:	e5c32000 	strb	r2, [r3]
  1007fc:	e51b300c 	ldr	r3, [fp, #-12]
  100800:	e1a00003 	mov	r0, r3
  100804:	e24bd004 	sub	sp, fp, #4
  100808:	e8bd8800 	pop	{fp, pc}

0010080c <ad7606_spi_reg_write>:
  10080c:	e92d4800 	push	{fp, lr}
  100810:	e28db004 	add	fp, sp, #4
  100814:	e24dd018 	sub	sp, sp, #24
  100818:	e50b0018 	str	r0, [fp, #-24]	; 0xffffffe8
  10081c:	e1a03001 	mov	r3, r1
  100820:	e54b3019 	strb	r3, [fp, #-25]	; 0xffffffe7
  100824:	e1a03002 	mov	r3, r2
  100828:	e54b301a 	strb	r3, [fp, #-26]	; 0xffffffe6
  10082c:	e3a03004 	mov	r3, #4
  100830:	e50b3008 	str	r3, [fp, #-8]
  100834:	e51b3018 	ldr	r3, [fp, #-24]	; 0xffffffe8
  100838:	e5d3302a 	ldrb	r3, [r3, #42]	; 0x2a
  10083c:	e2233001 	eor	r3, r3, #1
  100840:	e6ef3073 	uxtb	r3, r3
  100844:	e3530000 	cmp	r3, #0
  100848:	0a000001 	beq	100854 <ad7606_spi_reg_write+0x48>
  10084c:	e3e03085 	mvn	r3, #133	; 0x85
  100850:	ea00001c 	b	1008c8 <ad7606_spi_reg_write+0xbc>
  100854:	e15b31d9 	ldrsb	r3, [fp, #-25]	; 0xffffffe7
  100858:	e203303f 	and	r3, r3, #63	; 0x3f
  10085c:	e6af3073 	sxtb	r3, r3
  100860:	e3833040 	orr	r3, r3, #64	; 0x40
  100864:	e6af3073 	sxtb	r3, r3
  100868:	e6ef3073 	uxtb	r3, r3
  10086c:	e54b3010 	strb	r3, [fp, #-16]
  100870:	e3a03000 	mov	r3, #0
  100874:	e54b300f 	strb	r3, [fp, #-15]
  100878:	e55b3019 	ldrb	r3, [fp, #-25]	; 0xffffffe7
  10087c:	e203303f 	and	r3, r3, #63	; 0x3f
  100880:	e6ef3073 	uxtb	r3, r3
  100884:	e54b300e 	strb	r3, [fp, #-14]
  100888:	e55b301a 	ldrb	r3, [fp, #-26]	; 0xffffffe6
  10088c:	e54b300d 	strb	r3, [fp, #-13]
  100890:	e51b3018 	ldr	r3, [fp, #-24]	; 0xffffffe8
  100894:	e5933000 	ldr	r3, [r3]
  100898:	e51b2008 	ldr	r2, [fp, #-8]
  10089c:	e6ff2072 	uxth	r2, r2
  1008a0:	e24b1010 	sub	r1, fp, #16
  1008a4:	e1a00003 	mov	r0, r3
  1008a8:	eb000981 	bl	102eb4 <spi_write_and_read>
  1008ac:	e50b000c 	str	r0, [fp, #-12]
  1008b0:	e51b300c 	ldr	r3, [fp, #-12]
  1008b4:	e3530000 	cmp	r3, #0
  1008b8:	aa000001 	bge	1008c4 <ad7606_spi_reg_write+0xb8>
  1008bc:	e51b300c 	ldr	r3, [fp, #-12]
  1008c0:	ea000000 	b	1008c8 <ad7606_spi_reg_write+0xbc>
  1008c4:	e51b300c 	ldr	r3, [fp, #-12]
  1008c8:	e1a00003 	mov	r0, r3
  1008cc:	e24bd004 	sub	sp, fp, #4
  1008d0:	e8bd8800 	pop	{fp, pc}

001008d4 <ad7606_par_reg_read>:
  1008d4:	e92d4800 	push	{fp, lr}
  1008d8:	e28db004 	add	fp, sp, #4
  1008dc:	e24dd010 	sub	sp, sp, #16
  1008e0:	e50b0010 	str	r0, [fp, #-16]
  1008e4:	e50b1014 	str	r1, [fp, #-20]	; 0xffffffec
  1008e8:	e51b3010 	ldr	r3, [fp, #-16]
  1008ec:	e59330c8 	ldr	r3, [r3, #200]	; 0xc8
  1008f0:	e3a02000 	mov	r2, #0
  1008f4:	e3001448 	movw	r1, #1096	; 0x448
  1008f8:	e1a00003 	mov	r0, r3
  1008fc:	eb0011e2 	bl	10508c <axi_io_write>
  100900:	e51b3014 	ldr	r3, [fp, #-20]	; 0xffffffec
  100904:	e1a03403 	lsl	r3, r3, #8
  100908:	e6ff3073 	uxth	r3, r3
  10090c:	e3833902 	orr	r3, r3, #32768	; 0x8000
  100910:	e50b3008 	str	r3, [fp, #-8]
  100914:	e51b3010 	ldr	r3, [fp, #-16]
  100918:	e59330c8 	ldr	r3, [r3, #200]	; 0xc8
  10091c:	e51b2008 	ldr	r2, [fp, #-8]
  100920:	e3a01e45 	mov	r1, #1104	; 0x450
  100924:	e1a00003 	mov	r0, r3
  100928:	eb0011d7 	bl	10508c <axi_io_write>
  10092c:	e3a03000 	mov	r3, #0
  100930:	e50b3008 	str	r3, [fp, #-8]
  100934:	e51b3010 	ldr	r3, [fp, #-16]
  100938:	e59330c8 	ldr	r3, [r3, #200]	; 0xc8
  10093c:	e24b2008 	sub	r2, fp, #8
  100940:	e300144c 	movw	r1, #1100	; 0x44c
  100944:	e1a00003 	mov	r0, r3
  100948:	eb0011be 	bl	105048 <axi_io_read>
  10094c:	e51b3008 	ldr	r3, [fp, #-8]
  100950:	e6ef3073 	uxtb	r3, r3
  100954:	e1a00003 	mov	r0, r3
  100958:	e24bd004 	sub	sp, fp, #4
  10095c:	e8bd8800 	pop	{fp, pc}

00100960 <ad7606_par_reg_write>:
  100960:	e92d4800 	push	{fp, lr}
  100964:	e28db004 	add	fp, sp, #4
  100968:	e24dd018 	sub	sp, sp, #24
  10096c:	e50b0010 	str	r0, [fp, #-16]
  100970:	e50b1014 	str	r1, [fp, #-20]	; 0xffffffec
  100974:	e50b2018 	str	r2, [fp, #-24]	; 0xffffffe8
  100978:	e51b3010 	ldr	r3, [fp, #-16]
  10097c:	e59330c8 	ldr	r3, [r3, #200]	; 0xc8
  100980:	e3a02000 	mov	r2, #0
  100984:	e3001448 	movw	r1, #1096	; 0x448
  100988:	e1a00003 	mov	r0, r3
  10098c:	eb0011be 	bl	10508c <axi_io_write>
  100990:	e51b3014 	ldr	r3, [fp, #-20]	; 0xffffffec
  100994:	e1a03403 	lsl	r3, r3, #8
  100998:	e2032c7f 	and	r2, r3, #32512	; 0x7f00
  10099c:	e51b3018 	ldr	r3, [fp, #-24]	; 0xffffffe8
  1009a0:	e6ef3073 	uxtb	r3, r3
  1009a4:	e1823003 	orr	r3, r2, r3
  1009a8:	e50b3008 	str	r3, [fp, #-8]
  1009ac:	e51b3010 	ldr	r3, [fp, #-16]
  1009b0:	e59330c8 	ldr	r3, [r3, #200]	; 0xc8
  1009b4:	e51b2008 	ldr	r2, [fp, #-8]
  1009b8:	e3a01e45 	mov	r1, #1104	; 0x450
  1009bc:	e1a00003 	mov	r0, r3
  1009c0:	eb0011b1 	bl	10508c <axi_io_write>
  1009c4:	e3a03000 	mov	r3, #0
  1009c8:	e1a00003 	mov	r0, r3
  1009cc:	e24bd004 	sub	sp, fp, #4
  1009d0:	e8bd8800 	pop	{fp, pc}

001009d4 <ad7606_par_data_read>:
  1009d4:	e92d4800 	push	{fp, lr}
  1009d8:	e28db004 	add	fp, sp, #4
  1009dc:	e24dd030 	sub	sp, sp, #48	; 0x30
  1009e0:	e50b0028 	str	r0, [fp, #-40]	; 0xffffffd8
  1009e4:	e50b102c 	str	r1, [fp, #-44]	; 0xffffffd4
  1009e8:	e50b2030 	str	r2, [fp, #-48]	; 0xffffffd0
  1009ec:	e50b3034 	str	r3, [fp, #-52]	; 0xffffffcc
  1009f0:	e3a03000 	mov	r3, #0
  1009f4:	e50b3008 	str	r3, [fp, #-8]
  1009f8:	e24b3010 	sub	r3, fp, #16
  1009fc:	e1a01003 	mov	r1, r3
  100a00:	e51b0034 	ldr	r0, [fp, #-52]	; 0xffffffcc
  100a04:	eb004725 	bl	1126a0 <align_malloc>
  100a08:	e50b000c 	str	r0, [fp, #-12]
  100a0c:	e51b2034 	ldr	r2, [fp, #-52]	; 0xffffffcc
  100a10:	e3a01000 	mov	r1, #0
  100a14:	e51b000c 	ldr	r0, [fp, #-12]
  100a18:	eb006125 	bl	118eb4 <memset>
  100a1c:	e30231d0 	movw	r3, #8656	; 0x21d0
  100a20:	e3403012 	movt	r3, #18
  100a24:	e50b3024 	str	r3, [fp, #-36]	; 0xffffffdc
  100a28:	e51b302c 	ldr	r3, [fp, #-44]	; 0xffffffd4
  100a2c:	e50b3020 	str	r3, [fp, #-32]	; 0xffffffe0
  100a30:	e3a03000 	mov	r3, #0
  100a34:	e50b3018 	str	r3, [fp, #-24]	; 0xffffffe8
  100a38:	e3a03000 	mov	r3, #0
  100a3c:	e54b301c 	strb	r3, [fp, #-28]	; 0xffffffe4
  100a40:	e24b2024 	sub	r2, fp, #36	; 0x24
  100a44:	e24b3014 	sub	r3, fp, #20
  100a48:	e1a01002 	mov	r1, r2
  100a4c:	e1a00003 	mov	r0, r3
  100a50:	eb00112c 	bl	104f08 <axi_dmac_init>
  100a54:	e3a01000 	mov	r1, #0
  100a58:	e51b0028 	ldr	r0, [fp, #-40]	; 0xffffffd8
  100a5c:	eb00004d 	bl	100b98 <register_adc_mode_switch>
  100a60:	e51b3028 	ldr	r3, [fp, #-40]	; 0xffffffd8
  100a64:	e59330c8 	ldr	r3, [r3, #200]	; 0xc8
  100a68:	e3a020d0 	mov	r2, #208	; 0xd0
  100a6c:	e3001444 	movw	r1, #1092	; 0x444
  100a70:	e1a00003 	mov	r0, r3
  100a74:	eb001184 	bl	10508c <axi_io_write>
  100a78:	e51b3028 	ldr	r3, [fp, #-40]	; 0xffffffd8
  100a7c:	e59330c8 	ldr	r3, [r3, #200]	; 0xc8
  100a80:	e3a02003 	mov	r2, #3
  100a84:	e3a01d11 	mov	r1, #1088	; 0x440
  100a88:	e1a00003 	mov	r0, r3
  100a8c:	eb00117e 	bl	10508c <axi_io_write>
  100a90:	e51b3028 	ldr	r3, [fp, #-40]	; 0xffffffd8
  100a94:	e59330c8 	ldr	r3, [r3, #200]	; 0xc8
  100a98:	e3a02003 	mov	r2, #3
  100a9c:	e3001448 	movw	r1, #1096	; 0x448
  100aa0:	e1a00003 	mov	r0, r3
  100aa4:	eb001178 	bl	10508c <axi_io_write>
  100aa8:	e51b0014 	ldr	r0, [fp, #-20]	; 0xffffffec
  100aac:	e51b100c 	ldr	r1, [fp, #-12]
  100ab0:	e51b3030 	ldr	r3, [fp, #-48]	; 0xffffffd0
  100ab4:	e1a03283 	lsl	r3, r3, #5
  100ab8:	e1a02003 	mov	r2, r3
  100abc:	eb00107c 	bl	104cb4 <axi_dmac_transfer>
  100ac0:	e51b300c 	ldr	r3, [fp, #-12]
  100ac4:	e50b3008 	str	r3, [fp, #-8]
  100ac8:	e51b3008 	ldr	r3, [fp, #-8]
  100acc:	e1a00003 	mov	r0, r3
  100ad0:	e24bd004 	sub	sp, fp, #4
  100ad4:	e8bd8800 	pop	{fp, pc}

00100ad8 <ad7606_par_data_write>:
  100ad8:	e92d4800 	push	{fp, lr}
  100adc:	e28db004 	add	fp, sp, #4
  100ae0:	e24dd008 	sub	sp, sp, #8
  100ae4:	e50b0008 	str	r0, [fp, #-8]
  100ae8:	e51b3008 	ldr	r3, [fp, #-8]
  100aec:	e59330c8 	ldr	r3, [r3, #200]	; 0xc8
  100af0:	e3a02000 	mov	r2, #0
  100af4:	e3a01d11 	mov	r1, #1088	; 0x440
  100af8:	e1a00003 	mov	r0, r3
  100afc:	eb001162 	bl	10508c <axi_io_write>
  100b00:	e3a01001 	mov	r1, #1
  100b04:	e51b0008 	ldr	r0, [fp, #-8]
  100b08:	eb000022 	bl	100b98 <register_adc_mode_switch>
  100b0c:	e3a03000 	mov	r3, #0
  100b10:	e1a00003 	mov	r0, r3
  100b14:	e24bd004 	sub	sp, fp, #4
  100b18:	e8bd8800 	pop	{fp, pc}

00100b1c <ad7606_par_write_mask>:
  100b1c:	e92d4800 	push	{fp, lr}
  100b20:	e28db004 	add	fp, sp, #4
  100b24:	e24dd018 	sub	sp, sp, #24
  100b28:	e50b0010 	str	r0, [fp, #-16]
  100b2c:	e50b1014 	str	r1, [fp, #-20]	; 0xffffffec
  100b30:	e50b2018 	str	r2, [fp, #-24]	; 0xffffffe8
  100b34:	e50b301c 	str	r3, [fp, #-28]	; 0xffffffe4
  100b38:	e3a03000 	mov	r3, #0
  100b3c:	e50b3008 	str	r3, [fp, #-8]
  100b40:	e51b1014 	ldr	r1, [fp, #-20]	; 0xffffffec
  100b44:	e51b0010 	ldr	r0, [fp, #-16]
  100b48:	ebffff61 	bl	1008d4 <ad7606_par_reg_read>
  100b4c:	e1a03000 	mov	r3, r0
  100b50:	e50b3008 	str	r3, [fp, #-8]
  100b54:	e51b3018 	ldr	r3, [fp, #-24]	; 0xffffffe8
  100b58:	e1e03003 	mvn	r3, r3
  100b5c:	e51b2008 	ldr	r2, [fp, #-8]
  100b60:	e0033002 	and	r3, r3, r2
  100b64:	e50b3008 	str	r3, [fp, #-8]
  100b68:	e51b2008 	ldr	r2, [fp, #-8]
  100b6c:	e51b301c 	ldr	r3, [fp, #-28]	; 0xffffffe4
  100b70:	e1823003 	orr	r3, r2, r3
  100b74:	e50b3008 	str	r3, [fp, #-8]
  100b78:	e51b2008 	ldr	r2, [fp, #-8]
  100b7c:	e51b1014 	ldr	r1, [fp, #-20]	; 0xffffffec
  100b80:	e51b0010 	ldr	r0, [fp, #-16]
  100b84:	ebffff75 	bl	100960 <ad7606_par_reg_write>
  100b88:	e1a03000 	mov	r3, r0
  100b8c:	e1a00003 	mov	r0, r3
  100b90:	e24bd004 	sub	sp, fp, #4
  100b94:	e8bd8800 	pop	{fp, pc}

00100b98 <register_adc_mode_switch>:
  100b98:	e92d4800 	push	{fp, lr}
  100b9c:	e28db004 	add	fp, sp, #4
  100ba0:	e24dd010 	sub	sp, sp, #16
  100ba4:	e50b0010 	str	r0, [fp, #-16]
  100ba8:	e1a03001 	mov	r3, r1
  100bac:	e54b3011 	strb	r3, [fp, #-17]	; 0xffffffef
  100bb0:	e51b3010 	ldr	r3, [fp, #-16]
  100bb4:	e59330c8 	ldr	r3, [r3, #200]	; 0xc8
  100bb8:	e3a02000 	mov	r2, #0
  100bbc:	e3001448 	movw	r1, #1096	; 0x448
  100bc0:	e1a00003 	mov	r0, r3
  100bc4:	eb001130 	bl	10508c <axi_io_write>
  100bc8:	e55b3011 	ldrb	r3, [fp, #-17]	; 0xffffffef
  100bcc:	e3530000 	cmp	r3, #0
  100bd0:	0a00000c 	beq	100c08 <register_adc_mode_switch+0x70>
  100bd4:	e51b3010 	ldr	r3, [fp, #-16]
  100bd8:	e59330c8 	ldr	r3, [r3, #200]	; 0xc8
  100bdc:	e3a020af 	mov	r2, #175	; 0xaf
  100be0:	e3a01e45 	mov	r1, #1104	; 0x450
  100be4:	e1a00003 	mov	r0, r3
  100be8:	eb001127 	bl	10508c <axi_io_write>
  100bec:	e51b3010 	ldr	r3, [fp, #-16]
  100bf0:	e59330c8 	ldr	r3, [r3, #200]	; 0xc8
  100bf4:	e24b2008 	sub	r2, fp, #8
  100bf8:	e300144c 	movw	r1, #1100	; 0x44c
  100bfc:	e1a00003 	mov	r0, r3
  100c00:	eb001110 	bl	105048 <axi_io_read>
  100c04:	ea000005 	b	100c20 <register_adc_mode_switch+0x88>
  100c08:	e51b3010 	ldr	r3, [fp, #-16]
  100c0c:	e59330c8 	ldr	r3, [r3, #200]	; 0xc8
  100c10:	e3a02000 	mov	r2, #0
  100c14:	e3a01e45 	mov	r1, #1104	; 0x450
  100c18:	e1a00003 	mov	r0, r3
  100c1c:	eb00111a 	bl	10508c <axi_io_write>
  100c20:	e3a03000 	mov	r3, #0
  100c24:	e1a00003 	mov	r0, r3
  100c28:	e24bd004 	sub	sp, fp, #4
  100c2c:	e8bd8800 	pop	{fp, pc}

00100c30 <ad7606_spi_write_mask>:
  100c30:	e92d4800 	push	{fp, lr}
  100c34:	e28db004 	add	fp, sp, #4
  100c38:	e24dd018 	sub	sp, sp, #24
  100c3c:	e50b0010 	str	r0, [fp, #-16]
  100c40:	e50b1014 	str	r1, [fp, #-20]	; 0xffffffec
  100c44:	e50b2018 	str	r2, [fp, #-24]	; 0xffffffe8
  100c48:	e50b301c 	str	r3, [fp, #-28]	; 0xffffffe4
  100c4c:	e51b3014 	ldr	r3, [fp, #-20]	; 0xffffffec
  100c50:	e6ef3073 	uxtb	r3, r3
  100c54:	e24b2009 	sub	r2, fp, #9
  100c58:	e1a01003 	mov	r1, r3
  100c5c:	e51b0010 	ldr	r0, [fp, #-16]
  100c60:	ebfffeb4 	bl	100738 <ad7606_spi_reg_read>
  100c64:	e50b0008 	str	r0, [fp, #-8]
  100c68:	e51b3008 	ldr	r3, [fp, #-8]
  100c6c:	e3530000 	cmp	r3, #0
  100c70:	aa000001 	bge	100c7c <ad7606_spi_write_mask+0x4c>
  100c74:	e51b3008 	ldr	r3, [fp, #-8]
  100c78:	ea000014 	b	100cd0 <ad7606_spi_write_mask+0xa0>
  100c7c:	e51b3018 	ldr	r3, [fp, #-24]	; 0xffffffe8
  100c80:	e6ef3073 	uxtb	r3, r3
  100c84:	e1e03003 	mvn	r3, r3
  100c88:	e6ef2073 	uxtb	r2, r3
  100c8c:	e55b3009 	ldrb	r3, [fp, #-9]
  100c90:	e0033002 	and	r3, r3, r2
  100c94:	e6ef3073 	uxtb	r3, r3
  100c98:	e54b3009 	strb	r3, [fp, #-9]
  100c9c:	e51b301c 	ldr	r3, [fp, #-28]	; 0xffffffe4
  100ca0:	e6ef2073 	uxtb	r2, r3
  100ca4:	e55b3009 	ldrb	r3, [fp, #-9]
  100ca8:	e1823003 	orr	r3, r2, r3
  100cac:	e6ef3073 	uxtb	r3, r3
  100cb0:	e54b3009 	strb	r3, [fp, #-9]
  100cb4:	e51b3014 	ldr	r3, [fp, #-20]	; 0xffffffec
  100cb8:	e6ef3073 	uxtb	r3, r3
  100cbc:	e55b2009 	ldrb	r2, [fp, #-9]
  100cc0:	e1a01003 	mov	r1, r3
  100cc4:	e51b0010 	ldr	r0, [fp, #-16]
  100cc8:	ebfffecf 	bl	10080c <ad7606_spi_reg_write>
  100ccc:	e1a03000 	mov	r3, r0
  100cd0:	e1a00003 	mov	r0, r3
  100cd4:	e24bd004 	sub	sp, fp, #4
  100cd8:	e8bd8800 	pop	{fp, pc}

00100cdc <cpy18b32b>:
  100cdc:	e52db004 	push	{fp}		; (str fp, [sp, #-4]!)
  100ce0:	e28db000 	add	fp, sp, #0
  100ce4:	e24dd01c 	sub	sp, sp, #28
  100ce8:	e50b0010 	str	r0, [fp, #-16]
  100cec:	e50b1014 	str	r1, [fp, #-20]	; 0xffffffec
  100cf0:	e50b2018 	str	r2, [fp, #-24]	; 0xffffffe8
  100cf4:	e51b1014 	ldr	r1, [fp, #-20]	; 0xffffffec
  100cf8:	e3083e39 	movw	r3, #36409	; 0x8e39
  100cfc:	e34338e3 	movt	r3, #14563	; 0x38e3
  100d00:	e0832391 	umull	r2, r3, r1, r3
  100d04:	e1a020a3 	lsr	r2, r3, #1
  100d08:	e1a03002 	mov	r3, r2
  100d0c:	e1a03183 	lsl	r3, r3, #3
  100d10:	e0833002 	add	r3, r3, r2
  100d14:	e0412003 	sub	r2, r1, r3
  100d18:	e3520000 	cmp	r2, #0
  100d1c:	0a000001 	beq	100d28 <cpy18b32b+0x4c>
  100d20:	e3e03015 	mvn	r3, #21
  100d24:	ea00007c 	b	100f1c <cpy18b32b+0x240>
  100d28:	e3a03000 	mov	r3, #0
  100d2c:	e50b3008 	str	r3, [fp, #-8]
  100d30:	ea000074 	b	100f08 <cpy18b32b+0x22c>
  100d34:	e51b2008 	ldr	r2, [fp, #-8]
  100d38:	e3083e39 	movw	r3, #36409	; 0x8e39
  100d3c:	e34338e3 	movt	r3, #14563	; 0x38e3
  100d40:	e0832392 	umull	r2, r3, r2, r3
  100d44:	e1a030a3 	lsr	r3, r3, #1
  100d48:	e1a03103 	lsl	r3, r3, #2
  100d4c:	e50b300c 	str	r3, [fp, #-12]
  100d50:	e51b300c 	ldr	r3, [fp, #-12]
  100d54:	e1a03103 	lsl	r3, r3, #2
  100d58:	e51b2018 	ldr	r2, [fp, #-24]	; 0xffffffe8
  100d5c:	e0823003 	add	r3, r2, r3
  100d60:	e51b1010 	ldr	r1, [fp, #-16]
  100d64:	e51b2008 	ldr	r2, [fp, #-8]
  100d68:	e0812002 	add	r2, r1, r2
  100d6c:	e5d22000 	ldrb	r2, [r2]
  100d70:	e1a01502 	lsl	r1, r2, #10
  100d74:	e51b2008 	ldr	r2, [fp, #-8]
  100d78:	e2822001 	add	r2, r2, #1
  100d7c:	e51b0010 	ldr	r0, [fp, #-16]
  100d80:	e0802002 	add	r2, r0, r2
  100d84:	e5d22000 	ldrb	r2, [r2]
  100d88:	e1a02102 	lsl	r2, r2, #2
  100d8c:	e1812002 	orr	r2, r1, r2
  100d90:	e51b1008 	ldr	r1, [fp, #-8]
  100d94:	e2811002 	add	r1, r1, #2
  100d98:	e51b0010 	ldr	r0, [fp, #-16]
  100d9c:	e0801001 	add	r1, r0, r1
  100da0:	e5d11000 	ldrb	r1, [r1]
  100da4:	e1a01321 	lsr	r1, r1, #6
  100da8:	e6ef1071 	uxtb	r1, r1
  100dac:	e1822001 	orr	r2, r2, r1
  100db0:	e5832000 	str	r2, [r3]
  100db4:	e51b300c 	ldr	r3, [fp, #-12]
  100db8:	e2833001 	add	r3, r3, #1
  100dbc:	e1a03103 	lsl	r3, r3, #2
  100dc0:	e51b2018 	ldr	r2, [fp, #-24]	; 0xffffffe8
  100dc4:	e0823003 	add	r3, r2, r3
  100dc8:	e51b2008 	ldr	r2, [fp, #-8]
  100dcc:	e2822002 	add	r2, r2, #2
  100dd0:	e51b1010 	ldr	r1, [fp, #-16]
  100dd4:	e0812002 	add	r2, r1, r2
  100dd8:	e5d22000 	ldrb	r2, [r2]
  100ddc:	e1a02602 	lsl	r2, r2, #12
  100de0:	e2021a3f 	and	r1, r2, #258048	; 0x3f000
  100de4:	e51b2008 	ldr	r2, [fp, #-8]
  100de8:	e2822003 	add	r2, r2, #3
  100dec:	e51b0010 	ldr	r0, [fp, #-16]
  100df0:	e0802002 	add	r2, r0, r2
  100df4:	e5d22000 	ldrb	r2, [r2]
  100df8:	e1a02202 	lsl	r2, r2, #4
  100dfc:	e1812002 	orr	r2, r1, r2
  100e00:	e51b1008 	ldr	r1, [fp, #-8]
  100e04:	e2811004 	add	r1, r1, #4
  100e08:	e51b0010 	ldr	r0, [fp, #-16]
  100e0c:	e0801001 	add	r1, r0, r1
  100e10:	e5d11000 	ldrb	r1, [r1]
  100e14:	e1a01221 	lsr	r1, r1, #4
  100e18:	e6ef1071 	uxtb	r1, r1
  100e1c:	e1822001 	orr	r2, r2, r1
  100e20:	e5832000 	str	r2, [r3]
  100e24:	e51b300c 	ldr	r3, [fp, #-12]
  100e28:	e2833002 	add	r3, r3, #2
  100e2c:	e1a03103 	lsl	r3, r3, #2
  100e30:	e51b2018 	ldr	r2, [fp, #-24]	; 0xffffffe8
  100e34:	e0823003 	add	r3, r2, r3
  100e38:	e51b2008 	ldr	r2, [fp, #-8]
  100e3c:	e2822004 	add	r2, r2, #4
  100e40:	e51b1010 	ldr	r1, [fp, #-16]
  100e44:	e0812002 	add	r2, r1, r2
  100e48:	e5d22000 	ldrb	r2, [r2]
  100e4c:	e1a02702 	lsl	r2, r2, #14
  100e50:	e202190f 	and	r1, r2, #245760	; 0x3c000
  100e54:	e51b2008 	ldr	r2, [fp, #-8]
  100e58:	e2822005 	add	r2, r2, #5
  100e5c:	e51b0010 	ldr	r0, [fp, #-16]
  100e60:	e0802002 	add	r2, r0, r2
  100e64:	e5d22000 	ldrb	r2, [r2]
  100e68:	e1a02302 	lsl	r2, r2, #6
  100e6c:	e1812002 	orr	r2, r1, r2
  100e70:	e51b1008 	ldr	r1, [fp, #-8]
  100e74:	e2811006 	add	r1, r1, #6
  100e78:	e51b0010 	ldr	r0, [fp, #-16]
  100e7c:	e0801001 	add	r1, r0, r1
  100e80:	e5d11000 	ldrb	r1, [r1]
  100e84:	e1a01121 	lsr	r1, r1, #2
  100e88:	e6ef1071 	uxtb	r1, r1
  100e8c:	e1822001 	orr	r2, r2, r1
  100e90:	e5832000 	str	r2, [r3]
  100e94:	e51b300c 	ldr	r3, [fp, #-12]
  100e98:	e2833003 	add	r3, r3, #3
  100e9c:	e1a03103 	lsl	r3, r3, #2
  100ea0:	e51b2018 	ldr	r2, [fp, #-24]	; 0xffffffe8
  100ea4:	e0823003 	add	r3, r2, r3
  100ea8:	e51b2008 	ldr	r2, [fp, #-8]
  100eac:	e2822006 	add	r2, r2, #6
  100eb0:	e51b1010 	ldr	r1, [fp, #-16]
  100eb4:	e0812002 	add	r2, r1, r2
  100eb8:	e5d22000 	ldrb	r2, [r2]
  100ebc:	e1a02802 	lsl	r2, r2, #16
  100ec0:	e2021803 	and	r1, r2, #196608	; 0x30000
  100ec4:	e51b2008 	ldr	r2, [fp, #-8]
  100ec8:	e2822007 	add	r2, r2, #7
  100ecc:	e51b0010 	ldr	r0, [fp, #-16]
  100ed0:	e0802002 	add	r2, r0, r2
  100ed4:	e5d22000 	ldrb	r2, [r2]
  100ed8:	e1a02402 	lsl	r2, r2, #8
  100edc:	e1812002 	orr	r2, r1, r2
  100ee0:	e51b1008 	ldr	r1, [fp, #-8]
  100ee4:	e2811008 	add	r1, r1, #8
  100ee8:	e51b0010 	ldr	r0, [fp, #-16]
  100eec:	e0801001 	add	r1, r0, r1
  100ef0:	e5d11000 	ldrb	r1, [r1]
  100ef4:	e1822001 	orr	r2, r2, r1
  100ef8:	e5832000 	str	r2, [r3]
  100efc:	e51b3008 	ldr	r3, [fp, #-8]
  100f00:	e2833009 	add	r3, r3, #9
  100f04:	e50b3008 	str	r3, [fp, #-8]
  100f08:	e51b2008 	ldr	r2, [fp, #-8]
  100f0c:	e51b3014 	ldr	r3, [fp, #-20]	; 0xffffffec
  100f10:	e1520003 	cmp	r2, r3
  100f14:	3affff86 	bcc	100d34 <cpy18b32b+0x58>
  100f18:	e3a03000 	mov	r3, #0
  100f1c:	e1a00003 	mov	r0, r3
  100f20:	e24bd000 	sub	sp, fp, #0
  100f24:	e49db004 	pop	{fp}		; (ldr fp, [sp], #4)
  100f28:	e12fff1e 	bx	lr

00100f2c <cpy26b32b>:
  100f2c:	e52db004 	push	{fp}		; (str fp, [sp, #-4]!)
  100f30:	e28db000 	add	fp, sp, #0
  100f34:	e24dd01c 	sub	sp, sp, #28
  100f38:	e50b0010 	str	r0, [fp, #-16]
  100f3c:	e50b1014 	str	r1, [fp, #-20]	; 0xffffffec
  100f40:	e50b2018 	str	r2, [fp, #-24]	; 0xffffffe8
  100f44:	e51b1014 	ldr	r1, [fp, #-20]	; 0xffffffec
  100f48:	e30e3c4f 	movw	r3, #60495	; 0xec4f
  100f4c:	e3443ec4 	movt	r3, #20164	; 0x4ec4
  100f50:	e0832391 	umull	r2, r3, r1, r3
  100f54:	e1a02123 	lsr	r2, r3, #2
  100f58:	e1a03002 	mov	r3, r2
  100f5c:	e1a03083 	lsl	r3, r3, #1
  100f60:	e0833002 	add	r3, r3, r2
  100f64:	e1a03103 	lsl	r3, r3, #2
  100f68:	e0833002 	add	r3, r3, r2
  100f6c:	e0412003 	sub	r2, r1, r3
  100f70:	e3520000 	cmp	r2, #0
  100f74:	0a000001 	beq	100f80 <cpy26b32b+0x54>
  100f78:	e3e03015 	mvn	r3, #21
  100f7c:	ea000098 	b	1011e4 <cpy26b32b+0x2b8>
  100f80:	e3a03000 	mov	r3, #0
  100f84:	e50b3008 	str	r3, [fp, #-8]
  100f88:	ea000090 	b	1011d0 <cpy26b32b+0x2a4>
  100f8c:	e51b2008 	ldr	r2, [fp, #-8]
  100f90:	e30e3c4f 	movw	r3, #60495	; 0xec4f
  100f94:	e3443ec4 	movt	r3, #20164	; 0x4ec4
  100f98:	e0832392 	umull	r2, r3, r2, r3
  100f9c:	e1a03123 	lsr	r3, r3, #2
  100fa0:	e1a03103 	lsl	r3, r3, #2
  100fa4:	e50b300c 	str	r3, [fp, #-12]
  100fa8:	e51b300c 	ldr	r3, [fp, #-12]
  100fac:	e1a03103 	lsl	r3, r3, #2
  100fb0:	e51b2018 	ldr	r2, [fp, #-24]	; 0xffffffe8
  100fb4:	e0823003 	add	r3, r2, r3
  100fb8:	e51b1010 	ldr	r1, [fp, #-16]
  100fbc:	e51b2008 	ldr	r2, [fp, #-8]
  100fc0:	e0812002 	add	r2, r1, r2
  100fc4:	e5d22000 	ldrb	r2, [r2]
  100fc8:	e1a01902 	lsl	r1, r2, #18
  100fcc:	e51b2008 	ldr	r2, [fp, #-8]
  100fd0:	e2822001 	add	r2, r2, #1
  100fd4:	e51b0010 	ldr	r0, [fp, #-16]
  100fd8:	e0802002 	add	r2, r0, r2
  100fdc:	e5d22000 	ldrb	r2, [r2]
  100fe0:	e1a02502 	lsl	r2, r2, #10
  100fe4:	e1811002 	orr	r1, r1, r2
  100fe8:	e51b2008 	ldr	r2, [fp, #-8]
  100fec:	e2822002 	add	r2, r2, #2
  100ff0:	e51b0010 	ldr	r0, [fp, #-16]
  100ff4:	e0802002 	add	r2, r0, r2
  100ff8:	e5d22000 	ldrb	r2, [r2]
  100ffc:	e1a02102 	lsl	r2, r2, #2
  101000:	e1812002 	orr	r2, r1, r2
  101004:	e51b1008 	ldr	r1, [fp, #-8]
  101008:	e2811003 	add	r1, r1, #3
  10100c:	e51b0010 	ldr	r0, [fp, #-16]
  101010:	e0801001 	add	r1, r0, r1
  101014:	e5d11000 	ldrb	r1, [r1]
  101018:	e1a01321 	lsr	r1, r1, #6
  10101c:	e6ef1071 	uxtb	r1, r1
  101020:	e1822001 	orr	r2, r2, r1
  101024:	e5832000 	str	r2, [r3]
  101028:	e51b300c 	ldr	r3, [fp, #-12]
  10102c:	e2833001 	add	r3, r3, #1
  101030:	e1a03103 	lsl	r3, r3, #2
  101034:	e51b2018 	ldr	r2, [fp, #-24]	; 0xffffffe8
  101038:	e0823003 	add	r3, r2, r3
  10103c:	e51b2008 	ldr	r2, [fp, #-8]
  101040:	e2822003 	add	r2, r2, #3
  101044:	e51b1010 	ldr	r1, [fp, #-16]
  101048:	e0812002 	add	r2, r1, r2
  10104c:	e5d22000 	ldrb	r2, [r2]
  101050:	e1a02a02 	lsl	r2, r2, #20
  101054:	e202163f 	and	r1, r2, #66060288	; 0x3f00000
  101058:	e51b2008 	ldr	r2, [fp, #-8]
  10105c:	e2822004 	add	r2, r2, #4
  101060:	e51b0010 	ldr	r0, [fp, #-16]
  101064:	e0802002 	add	r2, r0, r2
  101068:	e5d22000 	ldrb	r2, [r2]
  10106c:	e1a02602 	lsl	r2, r2, #12
  101070:	e1811002 	orr	r1, r1, r2
  101074:	e51b2008 	ldr	r2, [fp, #-8]
  101078:	e2822005 	add	r2, r2, #5
  10107c:	e51b0010 	ldr	r0, [fp, #-16]
  101080:	e0802002 	add	r2, r0, r2
  101084:	e5d22000 	ldrb	r2, [r2]
  101088:	e1a02202 	lsl	r2, r2, #4
  10108c:	e1812002 	orr	r2, r1, r2
  101090:	e51b1008 	ldr	r1, [fp, #-8]
  101094:	e2811006 	add	r1, r1, #6
  101098:	e51b0010 	ldr	r0, [fp, #-16]
  10109c:	e0801001 	add	r1, r0, r1
  1010a0:	e5d11000 	ldrb	r1, [r1]
  1010a4:	e1a01221 	lsr	r1, r1, #4
  1010a8:	e6ef1071 	uxtb	r1, r1
  1010ac:	e1822001 	orr	r2, r2, r1
  1010b0:	e5832000 	str	r2, [r3]
  1010b4:	e51b300c 	ldr	r3, [fp, #-12]
  1010b8:	e2833002 	add	r3, r3, #2
  1010bc:	e1a03103 	lsl	r3, r3, #2
  1010c0:	e51b2018 	ldr	r2, [fp, #-24]	; 0xffffffe8
  1010c4:	e0823003 	add	r3, r2, r3
  1010c8:	e51b2008 	ldr	r2, [fp, #-8]
  1010cc:	e2822006 	add	r2, r2, #6
  1010d0:	e51b1010 	ldr	r1, [fp, #-16]
  1010d4:	e0812002 	add	r2, r1, r2
  1010d8:	e5d22000 	ldrb	r2, [r2]
  1010dc:	e1a02b02 	lsl	r2, r2, #22
  1010e0:	e202150f 	and	r1, r2, #62914560	; 0x3c00000
  1010e4:	e51b2008 	ldr	r2, [fp, #-8]
  1010e8:	e2822007 	add	r2, r2, #7
  1010ec:	e51b0010 	ldr	r0, [fp, #-16]
  1010f0:	e0802002 	add	r2, r0, r2
  1010f4:	e5d22000 	ldrb	r2, [r2]
  1010f8:	e1a02702 	lsl	r2, r2, #14
  1010fc:	e1811002 	orr	r1, r1, r2
  101100:	e51b2008 	ldr	r2, [fp, #-8]
  101104:	e2822008 	add	r2, r2, #8
  101108:	e51b0010 	ldr	r0, [fp, #-16]
  10110c:	e0802002 	add	r2, r0, r2
  101110:	e5d22000 	ldrb	r2, [r2]
  101114:	e1a02302 	lsl	r2, r2, #6
  101118:	e1812002 	orr	r2, r1, r2
  10111c:	e51b1008 	ldr	r1, [fp, #-8]
  101120:	e2811009 	add	r1, r1, #9
  101124:	e51b0010 	ldr	r0, [fp, #-16]
  101128:	e0801001 	add	r1, r0, r1
  10112c:	e5d11000 	ldrb	r1, [r1]
  101130:	e1a01121 	lsr	r1, r1, #2
  101134:	e6ef1071 	uxtb	r1, r1
  101138:	e1822001 	orr	r2, r2, r1
  10113c:	e5832000 	str	r2, [r3]
  101140:	e51b300c 	ldr	r3, [fp, #-12]
  101144:	e2833003 	add	r3, r3, #3
  101148:	e1a03103 	lsl	r3, r3, #2
  10114c:	e51b2018 	ldr	r2, [fp, #-24]	; 0xffffffe8
  101150:	e0823003 	add	r3, r2, r3
  101154:	e51b2008 	ldr	r2, [fp, #-8]
  101158:	e2822009 	add	r2, r2, #9
  10115c:	e51b1010 	ldr	r1, [fp, #-16]
  101160:	e0812002 	add	r2, r1, r2
  101164:	e5d22000 	ldrb	r2, [r2]
  101168:	e1a02c02 	lsl	r2, r2, #24
  10116c:	e2021403 	and	r1, r2, #50331648	; 0x3000000
  101170:	e51b2008 	ldr	r2, [fp, #-8]
  101174:	e282200a 	add	r2, r2, #10
  101178:	e51b0010 	ldr	r0, [fp, #-16]
  10117c:	e0802002 	add	r2, r0, r2
  101180:	e5d22000 	ldrb	r2, [r2]
  101184:	e1a02802 	lsl	r2, r2, #16
  101188:	e1811002 	orr	r1, r1, r2
  10118c:	e51b2008 	ldr	r2, [fp, #-8]
  101190:	e282200b 	add	r2, r2, #11
  101194:	e51b0010 	ldr	r0, [fp, #-16]
  101198:	e0802002 	add	r2, r0, r2
  10119c:	e5d22000 	ldrb	r2, [r2]
  1011a0:	e1a02402 	lsl	r2, r2, #8
  1011a4:	e1812002 	orr	r2, r1, r2
  1011a8:	e51b1008 	ldr	r1, [fp, #-8]
  1011ac:	e281100c 	add	r1, r1, #12
  1011b0:	e51b0010 	ldr	r0, [fp, #-16]
  1011b4:	e0801001 	add	r1, r0, r1
  1011b8:	e5d11000 	ldrb	r1, [r1]
  1011bc:	e1822001 	orr	r2, r2, r1
  1011c0:	e5832000 	str	r2, [r3]
  1011c4:	e51b3008 	ldr	r3, [fp, #-8]
  1011c8:	e283300d 	add	r3, r3, #13
  1011cc:	e50b3008 	str	r3, [fp, #-8]
  1011d0:	e51b2008 	ldr	r2, [fp, #-8]
  1011d4:	e51b3014 	ldr	r3, [fp, #-20]	; 0xffffffec
  1011d8:	e1520003 	cmp	r2, r3
  1011dc:	3affff6a 	bcc	100f8c <cpy26b32b+0x60>
  1011e0:	e3a03000 	mov	r3, #0
  1011e4:	e1a00003 	mov	r0, r3
  1011e8:	e24bd000 	sub	sp, fp, #0
  1011ec:	e49db004 	pop	{fp}		; (ldr fp, [sp], #4)
  1011f0:	e12fff1e 	bx	lr

001011f4 <ad7606_convst>:
  1011f4:	e92d4800 	push	{fp, lr}
  1011f8:	e28db004 	add	fp, sp, #4
  1011fc:	e24dd010 	sub	sp, sp, #16
  101200:	e50b0010 	str	r0, [fp, #-16]
  101204:	e51b3010 	ldr	r3, [fp, #-16]
  101208:	e5d3302b 	ldrb	r3, [r3, #43]	; 0x2b
  10120c:	e3530000 	cmp	r3, #0
  101210:	0a00000c 	beq	101248 <ad7606_convst+0x54>
  101214:	e3a02000 	mov	r2, #0
  101218:	e3a01000 	mov	r1, #0
  10121c:	e51b0010 	ldr	r0, [fp, #-16]
  101220:	ebfffd79 	bl	10080c <ad7606_spi_reg_write>
  101224:	e50b0008 	str	r0, [fp, #-8]
  101228:	e51b3008 	ldr	r3, [fp, #-8]
  10122c:	e3530000 	cmp	r3, #0
  101230:	aa000001 	bge	10123c <ad7606_convst+0x48>
  101234:	e51b3008 	ldr	r3, [fp, #-8]
  101238:	ea000015 	b	101294 <ad7606_convst+0xa0>
  10123c:	e51b3010 	ldr	r3, [fp, #-16]
  101240:	e3a02000 	mov	r2, #0
  101244:	e5c3202b 	strb	r2, [r3, #43]	; 0x2b
  101248:	e51b3010 	ldr	r3, [fp, #-16]
  10124c:	e5933008 	ldr	r3, [r3, #8]
  101250:	e3a01000 	mov	r1, #0
  101254:	e1a00003 	mov	r0, r3
  101258:	eb000963 	bl	1037ec <gpio_set_value>
  10125c:	e50b0008 	str	r0, [fp, #-8]
  101260:	e51b3008 	ldr	r3, [fp, #-8]
  101264:	e3530000 	cmp	r3, #0
  101268:	aa000001 	bge	101274 <ad7606_convst+0x80>
  10126c:	e51b3008 	ldr	r3, [fp, #-8]
  101270:	ea000007 	b	101294 <ad7606_convst+0xa0>
  101274:	e3a00001 	mov	r0, #1
  101278:	eb00071f 	bl	102efc <udelay>
  10127c:	e51b3010 	ldr	r3, [fp, #-16]
  101280:	e5933008 	ldr	r3, [r3, #8]
  101284:	e3a01001 	mov	r1, #1
  101288:	e1a00003 	mov	r0, r3
  10128c:	eb000956 	bl	1037ec <gpio_set_value>
  101290:	e1a03000 	mov	r3, r0
  101294:	e1a00003 	mov	r0, r3
  101298:	e24bd004 	sub	sp, fp, #4
  10129c:	e8bd8800 	pop	{fp, pc}

001012a0 <ad7606_spi_data_read>:
  1012a0:	e92d4800 	push	{fp, lr}
  1012a4:	e28db004 	add	fp, sp, #4
  1012a8:	e24dd018 	sub	sp, sp, #24
  1012ac:	e50b0018 	str	r0, [fp, #-24]	; 0xffffffe8
  1012b0:	e50b101c 	str	r1, [fp, #-28]	; 0xffffffe4
  1012b4:	e51b3018 	ldr	r3, [fp, #-24]	; 0xffffffe8
  1012b8:	e5d33028 	ldrb	r3, [r3, #40]	; 0x28
  1012bc:	e1a01003 	mov	r1, r3
  1012c0:	e30220e4 	movw	r2, #8420	; 0x20e4
  1012c4:	e3402012 	movt	r2, #18
  1012c8:	e1a03001 	mov	r3, r1
  1012cc:	e1a03083 	lsl	r3, r3, #1
  1012d0:	e0833001 	add	r3, r3, r1
  1012d4:	e1a03183 	lsl	r3, r3, #3
  1012d8:	e0823003 	add	r3, r2, r3
  1012dc:	e2833001 	add	r3, r3, #1
  1012e0:	e5d33000 	ldrb	r3, [r3]
  1012e4:	e54b300d 	strb	r3, [fp, #-13]
  1012e8:	e51b3018 	ldr	r3, [fp, #-24]	; 0xffffffe8
  1012ec:	e5d33030 	ldrb	r3, [r3, #48]	; 0x30
  1012f0:	e3530000 	cmp	r3, #0
  1012f4:	0a000001 	beq	101300 <ad7606_spi_data_read+0x60>
  1012f8:	e3a03008 	mov	r3, #8
  1012fc:	ea000000 	b	101304 <ad7606_spi_data_read+0x64>
  101300:	e3a03000 	mov	r3, #0
  101304:	e54b300e 	strb	r3, [fp, #-14]
  101308:	e51b3018 	ldr	r3, [fp, #-24]	; 0xffffffe8
  10130c:	e5d33028 	ldrb	r3, [r3, #40]	; 0x28
  101310:	e1a01003 	mov	r1, r3
  101314:	e30220e4 	movw	r2, #8420	; 0x20e4
  101318:	e3402012 	movt	r2, #18
  10131c:	e1a03001 	mov	r3, r1
  101320:	e1a03083 	lsl	r3, r3, #1
  101324:	e0833001 	add	r3, r3, r1
  101328:	e1a03183 	lsl	r3, r3, #3
  10132c:	e0823003 	add	r3, r2, r3
  101330:	e5d33000 	ldrb	r3, [r3]
  101334:	e54b300f 	strb	r3, [fp, #-15]
  101338:	e55b300f 	ldrb	r3, [fp, #-15]
  10133c:	e55b100d 	ldrb	r1, [fp, #-13]
  101340:	e55b200e 	ldrb	r2, [fp, #-14]
  101344:	e0812002 	add	r2, r1, r2
  101348:	e0030392 	mul	r3, r2, r3
  10134c:	e50b3014 	str	r3, [fp, #-20]	; 0xffffffec
  101350:	e51b3014 	ldr	r3, [fp, #-20]	; 0xffffffec
  101354:	e1a031a3 	lsr	r3, r3, #3
  101358:	e50b3014 	str	r3, [fp, #-20]	; 0xffffffec
  10135c:	e51b3018 	ldr	r3, [fp, #-24]	; 0xffffffe8
  101360:	e28330ac 	add	r3, r3, #172	; 0xac
  101364:	e51b2014 	ldr	r2, [fp, #-20]	; 0xffffffec
  101368:	e3a01000 	mov	r1, #0
  10136c:	e1a00003 	mov	r0, r3
  101370:	eb005ecf 	bl	118eb4 <memset>
  101374:	e51b3018 	ldr	r3, [fp, #-24]	; 0xffffffe8
  101378:	e5930000 	ldr	r0, [r3]
  10137c:	e51b3018 	ldr	r3, [fp, #-24]	; 0xffffffe8
  101380:	e28330ac 	add	r3, r3, #172	; 0xac
  101384:	e51b2014 	ldr	r2, [fp, #-20]	; 0xffffffec
  101388:	e6ff2072 	uxth	r2, r2
  10138c:	e1a01003 	mov	r1, r3
  101390:	eb0006c7 	bl	102eb4 <spi_write_and_read>
  101394:	e50b0008 	str	r0, [fp, #-8]
  101398:	e51b3008 	ldr	r3, [fp, #-8]
  10139c:	e3530000 	cmp	r3, #0
  1013a0:	aa000001 	bge	1013ac <ad7606_spi_data_read+0x10c>
  1013a4:	e51b3008 	ldr	r3, [fp, #-8]
  1013a8:	ea000081 	b	1015b4 <ad7606_spi_data_read+0x314>
  1013ac:	e55b300d 	ldrb	r3, [fp, #-13]
  1013b0:	e3530010 	cmp	r3, #16
  1013b4:	0a000019 	beq	101420 <ad7606_spi_data_read+0x180>
  1013b8:	e3530012 	cmp	r3, #18
  1013bc:	1a000077 	bne	1015a0 <ad7606_spi_data_read+0x300>
  1013c0:	e51b3018 	ldr	r3, [fp, #-24]	; 0xffffffe8
  1013c4:	e5d33030 	ldrb	r3, [r3, #48]	; 0x30
  1013c8:	e3530000 	cmp	r3, #0
  1013cc:	0a000007 	beq	1013f0 <ad7606_spi_data_read+0x150>
  1013d0:	e51b3018 	ldr	r3, [fp, #-24]	; 0xffffffe8
  1013d4:	e28330ac 	add	r3, r3, #172	; 0xac
  1013d8:	e51b201c 	ldr	r2, [fp, #-28]	; 0xffffffe4
  1013dc:	e51b1014 	ldr	r1, [fp, #-20]	; 0xffffffec
  1013e0:	e1a00003 	mov	r0, r3
  1013e4:	ebfffed0 	bl	100f2c <cpy26b32b>
  1013e8:	e50b0008 	str	r0, [fp, #-8]
  1013ec:	ea000006 	b	10140c <ad7606_spi_data_read+0x16c>
  1013f0:	e51b3018 	ldr	r3, [fp, #-24]	; 0xffffffe8
  1013f4:	e28330ac 	add	r3, r3, #172	; 0xac
  1013f8:	e51b201c 	ldr	r2, [fp, #-28]	; 0xffffffe4
  1013fc:	e51b1014 	ldr	r1, [fp, #-20]	; 0xffffffec
  101400:	e1a00003 	mov	r0, r3
  101404:	ebfffe34 	bl	100cdc <cpy18b32b>
  101408:	e50b0008 	str	r0, [fp, #-8]
  10140c:	e51b3008 	ldr	r3, [fp, #-8]
  101410:	e3530000 	cmp	r3, #0
  101414:	aa000064 	bge	1015ac <ad7606_spi_data_read+0x30c>
  101418:	e51b3008 	ldr	r3, [fp, #-8]
  10141c:	ea000064 	b	1015b4 <ad7606_spi_data_read+0x314>
  101420:	e3a03000 	mov	r3, #0
  101424:	e50b300c 	str	r3, [fp, #-12]
  101428:	ea000057 	b	10158c <ad7606_spi_data_read+0x2ec>
  10142c:	e51b3018 	ldr	r3, [fp, #-24]	; 0xffffffe8
  101430:	e5d33030 	ldrb	r3, [r3, #48]	; 0x30
  101434:	e3530000 	cmp	r3, #0
  101438:	0a000034 	beq	101510 <ad7606_spi_data_read+0x270>
  10143c:	e51b300c 	ldr	r3, [fp, #-12]
  101440:	e1a03103 	lsl	r3, r3, #2
  101444:	e51b201c 	ldr	r2, [fp, #-28]	; 0xffffffe4
  101448:	e0821003 	add	r1, r2, r3
  10144c:	e51b200c 	ldr	r2, [fp, #-12]
  101450:	e1a03002 	mov	r3, r2
  101454:	e1a03083 	lsl	r3, r3, #1
  101458:	e0833002 	add	r3, r3, r2
  10145c:	e51b2018 	ldr	r2, [fp, #-24]	; 0xffffffe8
  101460:	e0823003 	add	r3, r2, r3
  101464:	e5d330ac 	ldrb	r3, [r3, #172]	; 0xac
  101468:	e1a03803 	lsl	r3, r3, #16
  10146c:	e5813000 	str	r3, [r1]
  101470:	e51b300c 	ldr	r3, [fp, #-12]
  101474:	e1a03103 	lsl	r3, r3, #2
  101478:	e51b201c 	ldr	r2, [fp, #-28]	; 0xffffffe4
  10147c:	e0821003 	add	r1, r2, r3
  101480:	e51b300c 	ldr	r3, [fp, #-12]
  101484:	e1a03103 	lsl	r3, r3, #2
  101488:	e51b201c 	ldr	r2, [fp, #-28]	; 0xffffffe4
  10148c:	e0823003 	add	r3, r2, r3
  101490:	e5930000 	ldr	r0, [r3]
  101494:	e51b200c 	ldr	r2, [fp, #-12]
  101498:	e1a03002 	mov	r3, r2
  10149c:	e1a03083 	lsl	r3, r3, #1
  1014a0:	e0833002 	add	r3, r3, r2
  1014a4:	e2833001 	add	r3, r3, #1
  1014a8:	e51b2018 	ldr	r2, [fp, #-24]	; 0xffffffe8
  1014ac:	e0823003 	add	r3, r2, r3
  1014b0:	e5d330ac 	ldrb	r3, [r3, #172]	; 0xac
  1014b4:	e1a03403 	lsl	r3, r3, #8
  1014b8:	e1803003 	orr	r3, r0, r3
  1014bc:	e5813000 	str	r3, [r1]
  1014c0:	e51b300c 	ldr	r3, [fp, #-12]
  1014c4:	e1a03103 	lsl	r3, r3, #2
  1014c8:	e51b201c 	ldr	r2, [fp, #-28]	; 0xffffffe4
  1014cc:	e0821003 	add	r1, r2, r3
  1014d0:	e51b300c 	ldr	r3, [fp, #-12]
  1014d4:	e1a03103 	lsl	r3, r3, #2
  1014d8:	e51b201c 	ldr	r2, [fp, #-28]	; 0xffffffe4
  1014dc:	e0823003 	add	r3, r2, r3
  1014e0:	e5930000 	ldr	r0, [r3]
  1014e4:	e51b200c 	ldr	r2, [fp, #-12]
  1014e8:	e1a03002 	mov	r3, r2
  1014ec:	e1a03083 	lsl	r3, r3, #1
  1014f0:	e0833002 	add	r3, r3, r2
  1014f4:	e2833002 	add	r3, r3, #2
  1014f8:	e51b2018 	ldr	r2, [fp, #-24]	; 0xffffffe8
  1014fc:	e0823003 	add	r3, r2, r3
  101500:	e5d330ac 	ldrb	r3, [r3, #172]	; 0xac
  101504:	e1803003 	orr	r3, r0, r3
  101508:	e5813000 	str	r3, [r1]
  10150c:	ea00001b 	b	101580 <ad7606_spi_data_read+0x2e0>
  101510:	e51b300c 	ldr	r3, [fp, #-12]
  101514:	e1a03103 	lsl	r3, r3, #2
  101518:	e51b201c 	ldr	r2, [fp, #-28]	; 0xffffffe4
  10151c:	e0823003 	add	r3, r2, r3
  101520:	e51b200c 	ldr	r2, [fp, #-12]
  101524:	e1a02082 	lsl	r2, r2, #1
  101528:	e51b1018 	ldr	r1, [fp, #-24]	; 0xffffffe8
  10152c:	e0812002 	add	r2, r1, r2
  101530:	e5d220ac 	ldrb	r2, [r2, #172]	; 0xac
  101534:	e1a02402 	lsl	r2, r2, #8
  101538:	e5832000 	str	r2, [r3]
  10153c:	e51b300c 	ldr	r3, [fp, #-12]
  101540:	e1a03103 	lsl	r3, r3, #2
  101544:	e51b201c 	ldr	r2, [fp, #-28]	; 0xffffffe4
  101548:	e0823003 	add	r3, r2, r3
  10154c:	e51b200c 	ldr	r2, [fp, #-12]
  101550:	e1a02102 	lsl	r2, r2, #2
  101554:	e51b101c 	ldr	r1, [fp, #-28]	; 0xffffffe4
  101558:	e0812002 	add	r2, r1, r2
  10155c:	e5922000 	ldr	r2, [r2]
  101560:	e51b100c 	ldr	r1, [fp, #-12]
  101564:	e1a01081 	lsl	r1, r1, #1
  101568:	e2811001 	add	r1, r1, #1
  10156c:	e51b0018 	ldr	r0, [fp, #-24]	; 0xffffffe8
  101570:	e0801001 	add	r1, r0, r1
  101574:	e5d110ac 	ldrb	r1, [r1, #172]	; 0xac
  101578:	e1822001 	orr	r2, r2, r1
  10157c:	e5832000 	str	r2, [r3]
  101580:	e51b300c 	ldr	r3, [fp, #-12]
  101584:	e2833001 	add	r3, r3, #1
  101588:	e50b300c 	str	r3, [fp, #-12]
  10158c:	e55b200f 	ldrb	r2, [fp, #-15]
  101590:	e51b300c 	ldr	r3, [fp, #-12]
  101594:	e1520003 	cmp	r2, r3
  101598:	caffffa3 	bgt	10142c <ad7606_spi_data_read+0x18c>
  10159c:	ea000003 	b	1015b0 <ad7606_spi_data_read+0x310>
  1015a0:	e3e03085 	mvn	r3, #133	; 0x85
  1015a4:	e50b3008 	str	r3, [fp, #-8]
  1015a8:	ea000000 	b	1015b0 <ad7606_spi_data_read+0x310>
  1015ac:	e320f000 	nop	{0}
  1015b0:	e51b3008 	ldr	r3, [fp, #-8]
  1015b4:	e1a00003 	mov	r0, r3
  1015b8:	e24bd004 	sub	sp, fp, #4
  1015bc:	e8bd8800 	pop	{fp, pc}

001015c0 <ad7606_read>:
  1015c0:	e92d4800 	push	{fp, lr}
  1015c4:	e28db004 	add	fp, sp, #4
  1015c8:	e24dd018 	sub	sp, sp, #24
  1015cc:	e50b0018 	str	r0, [fp, #-24]	; 0xffffffe8
  1015d0:	e50b101c 	str	r1, [fp, #-28]	; 0xffffffe4
  1015d4:	e3a03f51 	mov	r3, #324	; 0x144
  1015d8:	e50b3008 	str	r3, [fp, #-8]
  1015dc:	e51b0018 	ldr	r0, [fp, #-24]	; 0xffffffe8
  1015e0:	ebffff03 	bl	1011f4 <ad7606_convst>
  1015e4:	e50b000c 	str	r0, [fp, #-12]
  1015e8:	e51b300c 	ldr	r3, [fp, #-12]
  1015ec:	e3530000 	cmp	r3, #0
  1015f0:	aa000001 	bge	1015fc <ad7606_read+0x3c>
  1015f4:	e51b300c 	ldr	r3, [fp, #-12]
  1015f8:	ea000032 	b	1016c8 <ad7606_read+0x108>
  1015fc:	e51b3018 	ldr	r3, [fp, #-24]	; 0xffffffe8
  101600:	e593300c 	ldr	r3, [r3, #12]
  101604:	e3530000 	cmp	r3, #0
  101608:	0a00001e 	beq	101688 <ad7606_read+0xc8>
  10160c:	ea000013 	b	101660 <ad7606_read+0xa0>
  101610:	e51b3018 	ldr	r3, [fp, #-24]	; 0xffffffe8
  101614:	e593300c 	ldr	r3, [r3, #12]
  101618:	e24b200d 	sub	r2, fp, #13
  10161c:	e1a01002 	mov	r1, r2
  101620:	e1a00003 	mov	r0, r3
  101624:	eb000886 	bl	103844 <gpio_get_value>
  101628:	e50b000c 	str	r0, [fp, #-12]
  10162c:	e51b300c 	ldr	r3, [fp, #-12]
  101630:	e3530000 	cmp	r3, #0
  101634:	aa000001 	bge	101640 <ad7606_read+0x80>
  101638:	e51b300c 	ldr	r3, [fp, #-12]
  10163c:	ea000021 	b	1016c8 <ad7606_read+0x108>
  101640:	e55b300d 	ldrb	r3, [fp, #-13]
  101644:	e3530000 	cmp	r3, #0
  101648:	0a000008 	beq	101670 <ad7606_read+0xb0>
  10164c:	e3a00001 	mov	r0, #1
  101650:	eb000629 	bl	102efc <udelay>
  101654:	e51b3008 	ldr	r3, [fp, #-8]
  101658:	e2433001 	sub	r3, r3, #1
  10165c:	e50b3008 	str	r3, [fp, #-8]
  101660:	e51b3008 	ldr	r3, [fp, #-8]
  101664:	e3530000 	cmp	r3, #0
  101668:	1affffe8 	bne	101610 <ad7606_read+0x50>
  10166c:	ea000000 	b	101674 <ad7606_read+0xb4>
  101670:	e320f000 	nop	{0}
  101674:	e51b3008 	ldr	r3, [fp, #-8]
  101678:	e3530000 	cmp	r3, #0
  10167c:	1a00000d 	bne	1016b8 <ad7606_read+0xf8>
  101680:	e3e0303d 	mvn	r3, #61	; 0x3d
  101684:	ea00000f 	b	1016c8 <ad7606_read+0x108>
  101688:	e51b3018 	ldr	r3, [fp, #-24]	; 0xffffffe8
  10168c:	e5d33029 	ldrb	r3, [r3, #41]	; 0x29
  101690:	e7e33253 	ubfx	r3, r3, #4, #4
  101694:	e6ef3073 	uxtb	r3, r3
  101698:	e1a02003 	mov	r2, r3
  10169c:	e30231bc 	movw	r3, #8636	; 0x21bc
  1016a0:	e3403012 	movt	r3, #18
  1016a4:	e1a02082 	lsl	r2, r2, #1
  1016a8:	e0833002 	add	r3, r3, r2
  1016ac:	e1d330b0 	ldrh	r3, [r3]
  1016b0:	e1a00003 	mov	r0, r3
  1016b4:	eb000610 	bl	102efc <udelay>
  1016b8:	e51b101c 	ldr	r1, [fp, #-28]	; 0xffffffe4
  1016bc:	e51b0018 	ldr	r0, [fp, #-24]	; 0xffffffe8
  1016c0:	ebfffef6 	bl	1012a0 <ad7606_spi_data_read>
  1016c4:	e1a03000 	mov	r3, r0
  1016c8:	e1a00003 	mov	r0, r3
  1016cc:	e24bd004 	sub	sp, fp, #4
  1016d0:	e8bd8800 	pop	{fp, pc}

001016d4 <ad7606_reset_settings>:
  1016d4:	e52db004 	push	{fp}		; (str fp, [sp, #-4]!)
  1016d8:	e28db000 	add	fp, sp, #0
  1016dc:	e24dd014 	sub	sp, sp, #20
  1016e0:	e50b0010 	str	r0, [fp, #-16]
  1016e4:	e51b3010 	ldr	r3, [fp, #-16]
  1016e8:	e5d3302a 	ldrb	r3, [r3, #42]	; 0x2a
  1016ec:	e3530000 	cmp	r3, #0
  1016f0:	0a00000c 	beq	101728 <ad7606_reset_settings+0x54>
  1016f4:	e51b3010 	ldr	r3, [fp, #-16]
  1016f8:	e5d33028 	ldrb	r3, [r3, #40]	; 0x28
  1016fc:	e1a01003 	mov	r1, r3
  101700:	e30220e4 	movw	r2, #8420	; 0x20e4
  101704:	e3402012 	movt	r2, #18
  101708:	e1a03001 	mov	r3, r1
  10170c:	e1a03083 	lsl	r3, r3, #1
  101710:	e0833001 	add	r3, r3, r1
  101714:	e1a03183 	lsl	r3, r3, #3
  101718:	e0823003 	add	r3, r2, r3
  10171c:	e2833010 	add	r3, r3, #16
  101720:	e5933000 	ldr	r3, [r3]
  101724:	ea00000b 	b	101758 <ad7606_reset_settings+0x84>
  101728:	e51b3010 	ldr	r3, [fp, #-16]
  10172c:	e5d33028 	ldrb	r3, [r3, #40]	; 0x28
  101730:	e1a01003 	mov	r1, r3
  101734:	e30220e4 	movw	r2, #8420	; 0x20e4
  101738:	e3402012 	movt	r2, #18
  10173c:	e1a03001 	mov	r3, r1
  101740:	e1a03083 	lsl	r3, r3, #1
  101744:	e0833001 	add	r3, r3, r1
  101748:	e1a03183 	lsl	r3, r3, #3
  10174c:	e0823003 	add	r3, r2, r3
  101750:	e2833008 	add	r3, r3, #8
  101754:	e5933000 	ldr	r3, [r3]
  101758:	e50b300c 	str	r3, [fp, #-12]
  10175c:	e3a03000 	mov	r3, #0
  101760:	e50b3008 	str	r3, [fp, #-8]
  101764:	ea000032 	b	101834 <ad7606_reset_settings+0x160>
  101768:	e51b3010 	ldr	r3, [fp, #-16]
  10176c:	e5d3302a 	ldrb	r3, [r3, #42]	; 0x2a
  101770:	e3530000 	cmp	r3, #0
  101774:	0a00000d 	beq	1017b0 <ad7606_reset_settings+0xdc>
  101778:	e51b1010 	ldr	r1, [fp, #-16]
  10177c:	e51b2008 	ldr	r2, [fp, #-8]
  101780:	e1a03002 	mov	r3, r2
  101784:	e1a03083 	lsl	r3, r3, #1
  101788:	e0833002 	add	r3, r3, r2
  10178c:	e1a03103 	lsl	r3, r3, #2
  101790:	e0813003 	add	r3, r1, r3
  101794:	e2833048 	add	r3, r3, #72	; 0x48
  101798:	e51b200c 	ldr	r2, [fp, #-12]
  10179c:	e2833004 	add	r3, r3, #4
  1017a0:	e2822024 	add	r2, r2, #36	; 0x24
  1017a4:	e8920007 	ldm	r2, {r0, r1, r2}
  1017a8:	e8830007 	stm	r3, {r0, r1, r2}
  1017ac:	ea00000b 	b	1017e0 <ad7606_reset_settings+0x10c>
  1017b0:	e51b1010 	ldr	r1, [fp, #-16]
  1017b4:	e51b2008 	ldr	r2, [fp, #-8]
  1017b8:	e1a03002 	mov	r3, r2
  1017bc:	e1a03083 	lsl	r3, r3, #1
  1017c0:	e0833002 	add	r3, r3, r2
  1017c4:	e1a03103 	lsl	r3, r3, #2
  1017c8:	e0813003 	add	r3, r1, r3
  1017cc:	e2833048 	add	r3, r3, #72	; 0x48
  1017d0:	e51b200c 	ldr	r2, [fp, #-12]
  1017d4:	e2833004 	add	r3, r3, #4
  1017d8:	e8920007 	ldm	r2, {r0, r1, r2}
  1017dc:	e8830007 	stm	r3, {r0, r1, r2}
  1017e0:	e51b2010 	ldr	r2, [fp, #-16]
  1017e4:	e51b3008 	ldr	r3, [fp, #-8]
  1017e8:	e0823003 	add	r3, r2, r3
  1017ec:	e2833033 	add	r3, r3, #51	; 0x33
  1017f0:	e3a02000 	mov	r2, #0
  1017f4:	e5c32000 	strb	r2, [r3]
  1017f8:	e51b2010 	ldr	r2, [fp, #-16]
  1017fc:	e51b3008 	ldr	r3, [fp, #-8]
  101800:	e0823003 	add	r3, r2, r3
  101804:	e283303b 	add	r3, r3, #59	; 0x3b
  101808:	e3a02000 	mov	r2, #0
  10180c:	e5c32000 	strb	r2, [r3]
  101810:	e51b2010 	ldr	r2, [fp, #-16]
  101814:	e51b3008 	ldr	r3, [fp, #-8]
  101818:	e0823003 	add	r3, r2, r3
  10181c:	e2833043 	add	r3, r3, #67	; 0x43
  101820:	e3a02000 	mov	r2, #0
  101824:	e5c32000 	strb	r2, [r3]
  101828:	e51b3008 	ldr	r3, [fp, #-8]
  10182c:	e2833001 	add	r3, r3, #1
  101830:	e50b3008 	str	r3, [fp, #-8]
  101834:	e51b3010 	ldr	r3, [fp, #-16]
  101838:	e5d33032 	ldrb	r3, [r3, #50]	; 0x32
  10183c:	e1a02003 	mov	r2, r3
  101840:	e51b3008 	ldr	r3, [fp, #-8]
  101844:	e1520003 	cmp	r2, r3
  101848:	caffffc6 	bgt	101768 <ad7606_reset_settings+0x94>
  10184c:	e51b2010 	ldr	r2, [fp, #-16]
  101850:	e5d23029 	ldrb	r3, [r2, #41]	; 0x29
  101854:	e7c7321f 	bfc	r3, #4, #4
  101858:	e5c23029 	strb	r3, [r2, #41]	; 0x29
  10185c:	e51b2010 	ldr	r2, [fp, #-16]
  101860:	e5d23029 	ldrb	r3, [r2, #41]	; 0x29
  101864:	e7c3301f 	bfc	r3, #0, #4
  101868:	e5c23029 	strb	r3, [r2, #41]	; 0x29
  10186c:	e51b3010 	ldr	r3, [fp, #-16]
  101870:	e3a02000 	mov	r2, #0
  101874:	e5c3202d 	strb	r2, [r3, #45]	; 0x2d
  101878:	e51b3010 	ldr	r3, [fp, #-16]
  10187c:	e3a02001 	mov	r2, #1
  101880:	e5c3202e 	strb	r2, [r3, #46]	; 0x2e
  101884:	e51b3010 	ldr	r3, [fp, #-16]
  101888:	e3a02000 	mov	r2, #0
  10188c:	e5c3202f 	strb	r2, [r3, #47]	; 0x2f
  101890:	e51b3010 	ldr	r3, [fp, #-16]
  101894:	e3a02000 	mov	r2, #0
  101898:	e5c32030 	strb	r2, [r3, #48]	; 0x30
  10189c:	e51b2010 	ldr	r2, [fp, #-16]
  1018a0:	e5d23031 	ldrb	r3, [r2, #49]	; 0x31
  1018a4:	e7c0301f 	bfc	r3, #0, #1
  1018a8:	e5c23031 	strb	r3, [r2, #49]	; 0x31
  1018ac:	e51b2010 	ldr	r2, [fp, #-16]
  1018b0:	e5d23031 	ldrb	r3, [r2, #49]	; 0x31
  1018b4:	e7c1309f 	bfc	r3, #1, #1
  1018b8:	e5c23031 	strb	r3, [r2, #49]	; 0x31
  1018bc:	e51b2010 	ldr	r2, [fp, #-16]
  1018c0:	e5d23031 	ldrb	r3, [r2, #49]	; 0x31
  1018c4:	e7c2311f 	bfc	r3, #2, #1
  1018c8:	e5c23031 	strb	r3, [r2, #49]	; 0x31
  1018cc:	e51b2010 	ldr	r2, [fp, #-16]
  1018d0:	e5d23031 	ldrb	r3, [r2, #49]	; 0x31
  1018d4:	e7c3319f 	bfc	r3, #3, #1
  1018d8:	e5c23031 	strb	r3, [r2, #49]	; 0x31
  1018dc:	e51b2010 	ldr	r2, [fp, #-16]
  1018e0:	e5d23031 	ldrb	r3, [r2, #49]	; 0x31
  1018e4:	e7c4321f 	bfc	r3, #4, #1
  1018e8:	e5c23031 	strb	r3, [r2, #49]	; 0x31
  1018ec:	e51b2010 	ldr	r2, [fp, #-16]
  1018f0:	e5d23031 	ldrb	r3, [r2, #49]	; 0x31
  1018f4:	e7c5329f 	bfc	r3, #5, #1
  1018f8:	e5c23031 	strb	r3, [r2, #49]	; 0x31
  1018fc:	e51b2010 	ldr	r2, [fp, #-16]
  101900:	e5d23031 	ldrb	r3, [r2, #49]	; 0x31
  101904:	e7c6331f 	bfc	r3, #6, #1
  101908:	e5c23031 	strb	r3, [r2, #49]	; 0x31
  10190c:	e51b2010 	ldr	r2, [fp, #-16]
  101910:	e5d23031 	ldrb	r3, [r2, #49]	; 0x31
  101914:	e7c7339f 	bfc	r3, #7, #1
  101918:	e5c23031 	strb	r3, [r2, #49]	; 0x31
  10191c:	e51b3010 	ldr	r3, [fp, #-16]
  101920:	e3a02000 	mov	r2, #0
  101924:	e5c3202b 	strb	r2, [r3, #43]	; 0x2b
  101928:	e320f000 	nop	{0}
  10192c:	e24bd000 	sub	sp, fp, #0
  101930:	e49db004 	pop	{fp}		; (ldr fp, [sp], #4)
  101934:	e12fff1e 	bx	lr

00101938 <ad7606_reset>:
  101938:	e92d4800 	push	{fp, lr}
  10193c:	e28db004 	add	fp, sp, #4
  101940:	e24dd018 	sub	sp, sp, #24
  101944:	e50b0018 	str	r0, [fp, #-24]	; 0xffffffe8
  101948:	e3a03060 	mov	r3, #96	; 0x60
  10194c:	e34f3f22 	movt	r3, #65314	; 0xff22
  101950:	e50b3008 	str	r3, [fp, #-8]
  101954:	e3a03000 	mov	r3, #0
  101958:	e50b3014 	str	r3, [fp, #-20]	; 0xffffffec
  10195c:	e3a03004 	mov	r3, #4
  101960:	e50b300c 	str	r3, [fp, #-12]
  101964:	e3a03000 	mov	r3, #0
  101968:	e50b3010 	str	r3, [fp, #-16]
  10196c:	e24b3014 	sub	r3, fp, #20
  101970:	e1a02003 	mov	r2, r3
  101974:	e51b100c 	ldr	r1, [fp, #-12]
  101978:	e51b0008 	ldr	r0, [fp, #-8]
  10197c:	eb000db1 	bl	105048 <axi_io_read>
  101980:	e51b3014 	ldr	r3, [fp, #-20]	; 0xffffffec
  101984:	e3833008 	orr	r3, r3, #8
  101988:	e50b3014 	str	r3, [fp, #-20]	; 0xffffffec
  10198c:	e51b3014 	ldr	r3, [fp, #-20]	; 0xffffffec
  101990:	e1a02003 	mov	r2, r3
  101994:	e51b100c 	ldr	r1, [fp, #-12]
  101998:	e51b0008 	ldr	r0, [fp, #-8]
  10199c:	eb000dba 	bl	10508c <axi_io_write>
  1019a0:	e3a03000 	mov	r3, #0
  1019a4:	e50b3014 	str	r3, [fp, #-20]	; 0xffffffec
  1019a8:	e24b3014 	sub	r3, fp, #20
  1019ac:	e1a02003 	mov	r2, r3
  1019b0:	e51b1010 	ldr	r1, [fp, #-16]
  1019b4:	e51b0008 	ldr	r0, [fp, #-8]
  1019b8:	eb000da2 	bl	105048 <axi_io_read>
  1019bc:	e51b3014 	ldr	r3, [fp, #-20]	; 0xffffffec
  1019c0:	e3833008 	orr	r3, r3, #8
  1019c4:	e50b3014 	str	r3, [fp, #-20]	; 0xffffffec
  1019c8:	e51b3014 	ldr	r3, [fp, #-20]	; 0xffffffec
  1019cc:	e1a02003 	mov	r2, r3
  1019d0:	e51b1010 	ldr	r1, [fp, #-16]
  1019d4:	e51b0008 	ldr	r0, [fp, #-8]
  1019d8:	eb000dab 	bl	10508c <axi_io_write>
  1019dc:	e3a03000 	mov	r3, #0
  1019e0:	e50b3014 	str	r3, [fp, #-20]	; 0xffffffec
  1019e4:	e24b3014 	sub	r3, fp, #20
  1019e8:	e1a02003 	mov	r2, r3
  1019ec:	e51b1010 	ldr	r1, [fp, #-16]
  1019f0:	e51b0008 	ldr	r0, [fp, #-8]
  1019f4:	eb000d93 	bl	105048 <axi_io_read>
  1019f8:	e3a00003 	mov	r0, #3
  1019fc:	eb00053e 	bl	102efc <udelay>
  101a00:	e51b3014 	ldr	r3, [fp, #-20]	; 0xffffffec
  101a04:	e3c33008 	bic	r3, r3, #8
  101a08:	e50b3014 	str	r3, [fp, #-20]	; 0xffffffec
  101a0c:	e51b3014 	ldr	r3, [fp, #-20]	; 0xffffffec
  101a10:	e1a02003 	mov	r2, r3
  101a14:	e51b1010 	ldr	r1, [fp, #-16]
  101a18:	e51b0008 	ldr	r0, [fp, #-8]
  101a1c:	eb000d9a 	bl	10508c <axi_io_write>
  101a20:	e51b0018 	ldr	r0, [fp, #-24]	; 0xffffffe8
  101a24:	ebffff2a 	bl	1016d4 <ad7606_reset_settings>
  101a28:	e3a03000 	mov	r3, #0
  101a2c:	e1a00003 	mov	r0, r3
  101a30:	e24bd004 	sub	sp, fp, #4
  101a34:	e8bd8800 	pop	{fp, pc}

00101a38 <ad7606_set_oversampling>:
  101a38:	e92d4800 	push	{fp, lr}
  101a3c:	e28db004 	add	fp, sp, #4
  101a40:	e24dd018 	sub	sp, sp, #24
  101a44:	e50b0018 	str	r0, [fp, #-24]	; 0xffffffe8
  101a48:	e54b101c 	strb	r1, [fp, #-28]	; 0xffffffe4
  101a4c:	e51b3018 	ldr	r3, [fp, #-24]	; 0xffffffe8
  101a50:	e5d3302a 	ldrb	r3, [r3, #42]	; 0x2a
  101a54:	e3530000 	cmp	r3, #0
  101a58:	0a00002f 	beq	101b1c <ad7606_set_oversampling+0xe4>
  101a5c:	e3e03000 	mvn	r3, #0
  101a60:	e50b3008 	str	r3, [fp, #-8]
  101a64:	e51b3008 	ldr	r3, [fp, #-8]
  101a68:	e1a03e03 	lsl	r3, r3, #28
  101a6c:	e50b3008 	str	r3, [fp, #-8]
  101a70:	e51b3008 	ldr	r3, [fp, #-8]
  101a74:	e1a03e23 	lsr	r3, r3, #28
  101a78:	e50b3008 	str	r3, [fp, #-8]
  101a7c:	e51b2008 	ldr	r2, [fp, #-8]
  101a80:	e55b301c 	ldrb	r3, [fp, #-28]	; 0xffffffe4
  101a84:	e7e33253 	ubfx	r3, r3, #4, #4
  101a88:	e6ef3073 	uxtb	r3, r3
  101a8c:	e1a01003 	mov	r1, r3
  101a90:	e1a00002 	mov	r0, r2
  101a94:	eb0005a9 	bl	103140 <field_prep>
  101a98:	e1a03000 	mov	r3, r0
  101a9c:	e54b3009 	strb	r3, [fp, #-9]
  101aa0:	e3e03000 	mvn	r3, #0
  101aa4:	e50b3010 	str	r3, [fp, #-16]
  101aa8:	e51b3010 	ldr	r3, [fp, #-16]
  101aac:	e1a03e03 	lsl	r3, r3, #28
  101ab0:	e50b3010 	str	r3, [fp, #-16]
  101ab4:	e51b3010 	ldr	r3, [fp, #-16]
  101ab8:	e1a03c23 	lsr	r3, r3, #24
  101abc:	e50b3010 	str	r3, [fp, #-16]
  101ac0:	e51b2010 	ldr	r2, [fp, #-16]
  101ac4:	e55b301c 	ldrb	r3, [fp, #-28]	; 0xffffffe4
  101ac8:	e7e33053 	ubfx	r3, r3, #0, #4
  101acc:	e6ef3073 	uxtb	r3, r3
  101ad0:	e1a01003 	mov	r1, r3
  101ad4:	e1a00002 	mov	r0, r2
  101ad8:	eb000598 	bl	103140 <field_prep>
  101adc:	e1a03000 	mov	r3, r0
  101ae0:	e6ef2073 	uxtb	r2, r3
  101ae4:	e55b3009 	ldrb	r3, [fp, #-9]
  101ae8:	e1823003 	orr	r3, r2, r3
  101aec:	e54b3009 	strb	r3, [fp, #-9]
  101af0:	e55b3009 	ldrb	r3, [fp, #-9]
  101af4:	e1a02003 	mov	r2, r3
  101af8:	e3a01008 	mov	r1, #8
  101afc:	e51b0018 	ldr	r0, [fp, #-24]	; 0xffffffe8
  101b00:	ebfffb41 	bl	10080c <ad7606_spi_reg_write>
  101b04:	e50b0014 	str	r0, [fp, #-20]	; 0xffffffec
  101b08:	e51b3014 	ldr	r3, [fp, #-20]	; 0xffffffec
  101b0c:	e3530000 	cmp	r3, #0
  101b10:	aa00003e 	bge	101c10 <ad7606_set_oversampling+0x1d8>
  101b14:	e51b3014 	ldr	r3, [fp, #-20]	; 0xffffffec
  101b18:	ea000040 	b	101c20 <ad7606_set_oversampling+0x1e8>
  101b1c:	e55b301c 	ldrb	r3, [fp, #-28]	; 0xffffffe4
  101b20:	e7e33253 	ubfx	r3, r3, #4, #4
  101b24:	e6ef3073 	uxtb	r3, r3
  101b28:	e3530006 	cmp	r3, #6
  101b2c:	da000003 	ble	101b40 <ad7606_set_oversampling+0x108>
  101b30:	e55b301c 	ldrb	r3, [fp, #-28]	; 0xffffffe4
  101b34:	e3a02006 	mov	r2, #6
  101b38:	e7c73212 	bfi	r3, r2, #4, #4
  101b3c:	e54b301c 	strb	r3, [fp, #-28]	; 0xffffffe4
  101b40:	e51b3018 	ldr	r3, [fp, #-24]	; 0xffffffe8
  101b44:	e5932018 	ldr	r2, [r3, #24]
  101b48:	e55b301c 	ldrb	r3, [fp, #-28]	; 0xffffffe4
  101b4c:	e7e33253 	ubfx	r3, r3, #4, #4
  101b50:	e6ef3073 	uxtb	r3, r3
  101b54:	e2033001 	and	r3, r3, #1
  101b58:	e6ef3073 	uxtb	r3, r3
  101b5c:	e1a01003 	mov	r1, r3
  101b60:	e1a00002 	mov	r0, r2
  101b64:	eb000720 	bl	1037ec <gpio_set_value>
  101b68:	e50b0014 	str	r0, [fp, #-20]	; 0xffffffec
  101b6c:	e51b3014 	ldr	r3, [fp, #-20]	; 0xffffffec
  101b70:	e3530000 	cmp	r3, #0
  101b74:	aa000001 	bge	101b80 <ad7606_set_oversampling+0x148>
  101b78:	e51b3014 	ldr	r3, [fp, #-20]	; 0xffffffec
  101b7c:	ea000027 	b	101c20 <ad7606_set_oversampling+0x1e8>
  101b80:	e51b3018 	ldr	r3, [fp, #-24]	; 0xffffffe8
  101b84:	e593201c 	ldr	r2, [r3, #28]
  101b88:	e55b301c 	ldrb	r3, [fp, #-28]	; 0xffffffe4
  101b8c:	e7e33253 	ubfx	r3, r3, #4, #4
  101b90:	e6ef3073 	uxtb	r3, r3
  101b94:	e1a030c3 	asr	r3, r3, #1
  101b98:	e6ef3073 	uxtb	r3, r3
  101b9c:	e2033001 	and	r3, r3, #1
  101ba0:	e6ef3073 	uxtb	r3, r3
  101ba4:	e1a01003 	mov	r1, r3
  101ba8:	e1a00002 	mov	r0, r2
  101bac:	eb00070e 	bl	1037ec <gpio_set_value>
  101bb0:	e50b0014 	str	r0, [fp, #-20]	; 0xffffffec
  101bb4:	e51b3014 	ldr	r3, [fp, #-20]	; 0xffffffec
  101bb8:	e3530000 	cmp	r3, #0
  101bbc:	aa000001 	bge	101bc8 <ad7606_set_oversampling+0x190>
  101bc0:	e51b3014 	ldr	r3, [fp, #-20]	; 0xffffffec
  101bc4:	ea000015 	b	101c20 <ad7606_set_oversampling+0x1e8>
  101bc8:	e51b3018 	ldr	r3, [fp, #-24]	; 0xffffffe8
  101bcc:	e5932020 	ldr	r2, [r3, #32]
  101bd0:	e55b301c 	ldrb	r3, [fp, #-28]	; 0xffffffe4
  101bd4:	e7e33253 	ubfx	r3, r3, #4, #4
  101bd8:	e6ef3073 	uxtb	r3, r3
  101bdc:	e1a03143 	asr	r3, r3, #2
  101be0:	e6ef3073 	uxtb	r3, r3
  101be4:	e2033001 	and	r3, r3, #1
  101be8:	e6ef3073 	uxtb	r3, r3
  101bec:	e1a01003 	mov	r1, r3
  101bf0:	e1a00002 	mov	r0, r2
  101bf4:	eb0006fc 	bl	1037ec <gpio_set_value>
  101bf8:	e50b0014 	str	r0, [fp, #-20]	; 0xffffffec
  101bfc:	e51b3014 	ldr	r3, [fp, #-20]	; 0xffffffec
  101c00:	e3530000 	cmp	r3, #0
  101c04:	aa000001 	bge	101c10 <ad7606_set_oversampling+0x1d8>
  101c08:	e51b3014 	ldr	r3, [fp, #-20]	; 0xffffffec
  101c0c:	ea000003 	b	101c20 <ad7606_set_oversampling+0x1e8>
  101c10:	e51b3018 	ldr	r3, [fp, #-24]	; 0xffffffe8
  101c14:	e55b201c 	ldrb	r2, [fp, #-28]	; 0xffffffe4
  101c18:	e5c32029 	strb	r2, [r3, #41]	; 0x29
  101c1c:	e3a03000 	mov	r3, #0
  101c20:	e1a00003 	mov	r0, r3
  101c24:	e24bd004 	sub	sp, fp, #4
  101c28:	e8bd8800 	pop	{fp, pc}

00101c2c <ad7606_find_range>:
  101c2c:	e52db004 	push	{fp}		; (str fp, [sp, #-4]!)
  101c30:	e28db000 	add	fp, sp, #0
  101c34:	e24dd024 	sub	sp, sp, #36	; 0x24
  101c38:	e50b0018 	str	r0, [fp, #-24]	; 0xffffffe8
  101c3c:	e24b0024 	sub	r0, fp, #36	; 0x24
  101c40:	e880000e 	stm	r0, {r1, r2, r3}
  101c44:	e3e03000 	mvn	r3, #0
  101c48:	e54b3006 	strb	r3, [fp, #-6]
  101c4c:	e51b3018 	ldr	r3, [fp, #-24]	; 0xffffffe8
  101c50:	e5d3302a 	ldrb	r3, [r3, #42]	; 0x2a
  101c54:	e3530000 	cmp	r3, #0
  101c58:	0a00000c 	beq	101c90 <ad7606_find_range+0x64>
  101c5c:	e51b3018 	ldr	r3, [fp, #-24]	; 0xffffffe8
  101c60:	e5d33028 	ldrb	r3, [r3, #40]	; 0x28
  101c64:	e1a01003 	mov	r1, r3
  101c68:	e30220e4 	movw	r2, #8420	; 0x20e4
  101c6c:	e3402012 	movt	r2, #18
  101c70:	e1a03001 	mov	r3, r1
  101c74:	e1a03083 	lsl	r3, r3, #1
  101c78:	e0833001 	add	r3, r3, r1
  101c7c:	e1a03183 	lsl	r3, r3, #3
  101c80:	e0823003 	add	r3, r2, r3
  101c84:	e2833010 	add	r3, r3, #16
  101c88:	e5933000 	ldr	r3, [r3]
  101c8c:	ea00000b 	b	101cc0 <ad7606_find_range+0x94>
  101c90:	e51b3018 	ldr	r3, [fp, #-24]	; 0xffffffe8
  101c94:	e5d33028 	ldrb	r3, [r3, #40]	; 0x28
  101c98:	e1a01003 	mov	r1, r3
  101c9c:	e30220e4 	movw	r2, #8420	; 0x20e4
  101ca0:	e3402012 	movt	r2, #18
  101ca4:	e1a03001 	mov	r3, r1
  101ca8:	e1a03083 	lsl	r3, r3, #1
  101cac:	e0833001 	add	r3, r3, r1
  101cb0:	e1a03183 	lsl	r3, r3, #3
  101cb4:	e0823003 	add	r3, r2, r3
  101cb8:	e2833008 	add	r3, r3, #8
  101cbc:	e5933000 	ldr	r3, [r3]
  101cc0:	e50b300c 	str	r3, [fp, #-12]
  101cc4:	e51b3018 	ldr	r3, [fp, #-24]	; 0xffffffe8
  101cc8:	e5d3302a 	ldrb	r3, [r3, #42]	; 0x2a
  101ccc:	e3530000 	cmp	r3, #0
  101cd0:	0a00000c 	beq	101d08 <ad7606_find_range+0xdc>
  101cd4:	e51b3018 	ldr	r3, [fp, #-24]	; 0xffffffe8
  101cd8:	e5d33028 	ldrb	r3, [r3, #40]	; 0x28
  101cdc:	e1a01003 	mov	r1, r3
  101ce0:	e30220e4 	movw	r2, #8420	; 0x20e4
  101ce4:	e3402012 	movt	r2, #18
  101ce8:	e1a03001 	mov	r3, r1
  101cec:	e1a03083 	lsl	r3, r3, #1
  101cf0:	e0833001 	add	r3, r3, r1
  101cf4:	e1a03183 	lsl	r3, r3, #3
  101cf8:	e0823003 	add	r3, r2, r3
  101cfc:	e2833014 	add	r3, r3, #20
  101d00:	e5933000 	ldr	r3, [r3]
  101d04:	ea00000b 	b	101d38 <ad7606_find_range+0x10c>
  101d08:	e51b3018 	ldr	r3, [fp, #-24]	; 0xffffffe8
  101d0c:	e5d33028 	ldrb	r3, [r3, #40]	; 0x28
  101d10:	e1a01003 	mov	r1, r3
  101d14:	e30220e4 	movw	r2, #8420	; 0x20e4
  101d18:	e3402012 	movt	r2, #18
  101d1c:	e1a03001 	mov	r3, r1
  101d20:	e1a03083 	lsl	r3, r3, #1
  101d24:	e0833001 	add	r3, r3, r1
  101d28:	e1a03183 	lsl	r3, r3, #3
  101d2c:	e0823003 	add	r3, r2, r3
  101d30:	e283300c 	add	r3, r3, #12
  101d34:	e5933000 	ldr	r3, [r3]
  101d38:	e50b3010 	str	r3, [fp, #-16]
  101d3c:	e3a03000 	mov	r3, #0
  101d40:	e54b3005 	strb	r3, [fp, #-5]
  101d44:	ea00002e 	b	101e04 <ad7606_find_range+0x1d8>
  101d48:	e51b1024 	ldr	r1, [fp, #-36]	; 0xffffffdc
  101d4c:	e55b2005 	ldrb	r2, [fp, #-5]
  101d50:	e1a03002 	mov	r3, r2
  101d54:	e1a03083 	lsl	r3, r3, #1
  101d58:	e0833002 	add	r3, r3, r2
  101d5c:	e1a03103 	lsl	r3, r3, #2
  101d60:	e1a02003 	mov	r2, r3
  101d64:	e51b300c 	ldr	r3, [fp, #-12]
  101d68:	e0833002 	add	r3, r3, r2
  101d6c:	e5933000 	ldr	r3, [r3]
  101d70:	e1510003 	cmp	r1, r3
  101d74:	1a00001a 	bne	101de4 <ad7606_find_range+0x1b8>
  101d78:	e51b1020 	ldr	r1, [fp, #-32]	; 0xffffffe0
  101d7c:	e55b2005 	ldrb	r2, [fp, #-5]
  101d80:	e1a03002 	mov	r3, r2
  101d84:	e1a03083 	lsl	r3, r3, #1
  101d88:	e0833002 	add	r3, r3, r2
  101d8c:	e1a03103 	lsl	r3, r3, #2
  101d90:	e1a02003 	mov	r2, r3
  101d94:	e51b300c 	ldr	r3, [fp, #-12]
  101d98:	e0833002 	add	r3, r3, r2
  101d9c:	e5933004 	ldr	r3, [r3, #4]
  101da0:	e1510003 	cmp	r1, r3
  101da4:	1a000010 	bne	101dec <ad7606_find_range+0x1c0>
  101da8:	e55b101c 	ldrb	r1, [fp, #-28]	; 0xffffffe4
  101dac:	e55b2005 	ldrb	r2, [fp, #-5]
  101db0:	e1a03002 	mov	r3, r2
  101db4:	e1a03083 	lsl	r3, r3, #1
  101db8:	e0833002 	add	r3, r3, r2
  101dbc:	e1a03103 	lsl	r3, r3, #2
  101dc0:	e1a02003 	mov	r2, r3
  101dc4:	e51b300c 	ldr	r3, [fp, #-12]
  101dc8:	e0833002 	add	r3, r3, r2
  101dcc:	e5d33008 	ldrb	r3, [r3, #8]
  101dd0:	e1510003 	cmp	r1, r3
  101dd4:	1a000006 	bne	101df4 <ad7606_find_range+0x1c8>
  101dd8:	e55b3005 	ldrb	r3, [fp, #-5]
  101ddc:	e54b3006 	strb	r3, [fp, #-6]
  101de0:	ea00000b 	b	101e14 <ad7606_find_range+0x1e8>
  101de4:	e320f000 	nop	{0}
  101de8:	ea000002 	b	101df8 <ad7606_find_range+0x1cc>
  101dec:	e320f000 	nop	{0}
  101df0:	ea000000 	b	101df8 <ad7606_find_range+0x1cc>
  101df4:	e320f000 	nop	{0}
  101df8:	e55b3005 	ldrb	r3, [fp, #-5]
  101dfc:	e2833001 	add	r3, r3, #1
  101e00:	e54b3005 	strb	r3, [fp, #-5]
  101e04:	e55b2005 	ldrb	r2, [fp, #-5]
  101e08:	e51b3010 	ldr	r3, [fp, #-16]
  101e0c:	e1520003 	cmp	r2, r3
  101e10:	3affffcc 	bcc	101d48 <ad7606_find_range+0x11c>
  101e14:	e15b30d6 	ldrsb	r3, [fp, #-6]
  101e18:	e1a00003 	mov	r0, r3
  101e1c:	e24bd000 	sub	sp, fp, #0
  101e20:	e49db004 	pop	{fp}		; (ldr fp, [sp], #4)
  101e24:	e12fff1e 	bx	lr

00101e28 <ad7606_set_ch_range>:
  101e28:	e24dd008 	sub	sp, sp, #8
  101e2c:	e92d4800 	push	{fp, lr}
  101e30:	e28db004 	add	fp, sp, #4
  101e34:	e24dd018 	sub	sp, sp, #24
  101e38:	e50b0018 	str	r0, [fp, #-24]	; 0xffffffe8
  101e3c:	e1a00001 	mov	r0, r1
  101e40:	e28b1004 	add	r1, fp, #4
  101e44:	e881000c 	stm	r1, {r2, r3}
  101e48:	e1a03000 	mov	r3, r0
  101e4c:	e54b3019 	strb	r3, [fp, #-25]	; 0xffffffe7
  101e50:	e59b2004 	ldr	r2, [fp, #4]
  101e54:	e59b3008 	ldr	r3, [fp, #8]
  101e58:	e1520003 	cmp	r2, r3
  101e5c:	da000001 	ble	101e68 <ad7606_set_ch_range+0x40>
  101e60:	e3e03015 	mvn	r3, #21
  101e64:	ea000056 	b	101fc4 <ad7606_set_ch_range+0x19c>
  101e68:	e51b3018 	ldr	r3, [fp, #-24]	; 0xffffffe8
  101e6c:	e5d33032 	ldrb	r3, [r3, #50]	; 0x32
  101e70:	e55b2019 	ldrb	r2, [fp, #-25]	; 0xffffffe7
  101e74:	e1520003 	cmp	r2, r3
  101e78:	3a000001 	bcc	101e84 <ad7606_set_ch_range+0x5c>
  101e7c:	e3e03015 	mvn	r3, #21
  101e80:	ea00004f 	b	101fc4 <ad7606_set_ch_range+0x19c>
  101e84:	e28b3004 	add	r3, fp, #4
  101e88:	e893000e 	ldm	r3, {r1, r2, r3}
  101e8c:	e51b0018 	ldr	r0, [fp, #-24]	; 0xffffffe8
  101e90:	ebffff65 	bl	101c2c <ad7606_find_range>
  101e94:	e1a03000 	mov	r3, r0
  101e98:	e50b300c 	str	r3, [fp, #-12]
  101e9c:	e51b300c 	ldr	r3, [fp, #-12]
  101ea0:	e3530000 	cmp	r3, #0
  101ea4:	aa000001 	bge	101eb0 <ad7606_set_ch_range+0x88>
  101ea8:	e3e03015 	mvn	r3, #21
  101eac:	ea000044 	b	101fc4 <ad7606_set_ch_range+0x19c>
  101eb0:	e51b3018 	ldr	r3, [fp, #-24]	; 0xffffffe8
  101eb4:	e5d3302a 	ldrb	r3, [r3, #42]	; 0x2a
  101eb8:	e3530000 	cmp	r3, #0
  101ebc:	0a000026 	beq	101f5c <ad7606_set_ch_range+0x134>
  101ec0:	e55b3019 	ldrb	r3, [fp, #-25]	; 0xffffffe7
  101ec4:	e1a030a3 	lsr	r3, r3, #1
  101ec8:	e6ef3073 	uxtb	r3, r3
  101ecc:	e2833003 	add	r3, r3, #3
  101ed0:	e1a00003 	mov	r0, r3
  101ed4:	e3e03000 	mvn	r3, #0
  101ed8:	e50b3010 	str	r3, [fp, #-16]
  101edc:	e51b3010 	ldr	r3, [fp, #-16]
  101ee0:	e1a03e03 	lsl	r3, r3, #28
  101ee4:	e50b3010 	str	r3, [fp, #-16]
  101ee8:	e51b3010 	ldr	r3, [fp, #-16]
  101eec:	e1a03e23 	lsr	r3, r3, #28
  101ef0:	e50b3010 	str	r3, [fp, #-16]
  101ef4:	e51b2010 	ldr	r2, [fp, #-16]
  101ef8:	e55b3019 	ldrb	r3, [fp, #-25]	; 0xffffffe7
  101efc:	e2033001 	and	r3, r3, #1
  101f00:	e1a03103 	lsl	r3, r3, #2
  101f04:	e1a01312 	lsl	r1, r2, r3
  101f08:	e3e03000 	mvn	r3, #0
  101f0c:	e50b3014 	str	r3, [fp, #-20]	; 0xffffffec
  101f10:	e51b3014 	ldr	r3, [fp, #-20]	; 0xffffffec
  101f14:	e1a03e03 	lsl	r3, r3, #28
  101f18:	e50b3014 	str	r3, [fp, #-20]	; 0xffffffec
  101f1c:	e51b3014 	ldr	r3, [fp, #-20]	; 0xffffffec
  101f20:	e1a03e23 	lsr	r3, r3, #28
  101f24:	e50b3014 	str	r3, [fp, #-20]	; 0xffffffec
  101f28:	e51b2014 	ldr	r2, [fp, #-20]	; 0xffffffec
  101f2c:	e51b300c 	ldr	r3, [fp, #-12]
  101f30:	e0022003 	and	r2, r2, r3
  101f34:	e55b3019 	ldrb	r3, [fp, #-25]	; 0xffffffe7
  101f38:	e2033001 	and	r3, r3, #1
  101f3c:	e1a03103 	lsl	r3, r3, #2
  101f40:	e1a03312 	lsl	r3, r2, r3
  101f44:	e1a02001 	mov	r2, r1
  101f48:	e1a01000 	mov	r1, r0
  101f4c:	e51b0018 	ldr	r0, [fp, #-24]	; 0xffffffe8
  101f50:	ebfffb36 	bl	100c30 <ad7606_spi_write_mask>
  101f54:	e50b0008 	str	r0, [fp, #-8]
  101f58:	ea000007 	b	101f7c <ad7606_set_ch_range+0x154>
  101f5c:	e51b3018 	ldr	r3, [fp, #-24]	; 0xffffffe8
  101f60:	e5933014 	ldr	r3, [r3, #20]
  101f64:	e51b200c 	ldr	r2, [fp, #-12]
  101f68:	e6ef2072 	uxtb	r2, r2
  101f6c:	e1a01002 	mov	r1, r2
  101f70:	e1a00003 	mov	r0, r3
  101f74:	eb00061c 	bl	1037ec <gpio_set_value>
  101f78:	e50b0008 	str	r0, [fp, #-8]
  101f7c:	e51b3008 	ldr	r3, [fp, #-8]
  101f80:	e3530000 	cmp	r3, #0
  101f84:	0a000001 	beq	101f90 <ad7606_set_ch_range+0x168>
  101f88:	e51b3008 	ldr	r3, [fp, #-8]
  101f8c:	ea00000c 	b	101fc4 <ad7606_set_ch_range+0x19c>
  101f90:	e55b2019 	ldrb	r2, [fp, #-25]	; 0xffffffe7
  101f94:	e51b1018 	ldr	r1, [fp, #-24]	; 0xffffffe8
  101f98:	e1a03002 	mov	r3, r2
  101f9c:	e1a03083 	lsl	r3, r3, #1
  101fa0:	e0833002 	add	r3, r3, r2
  101fa4:	e1a03103 	lsl	r3, r3, #2
  101fa8:	e0813003 	add	r3, r1, r3
  101fac:	e2833048 	add	r3, r3, #72	; 0x48
  101fb0:	e2833004 	add	r3, r3, #4
  101fb4:	e28b2004 	add	r2, fp, #4
  101fb8:	e8920007 	ldm	r2, {r0, r1, r2}
  101fbc:	e8830007 	stm	r3, {r0, r1, r2}
  101fc0:	e51b3008 	ldr	r3, [fp, #-8]
  101fc4:	e1a00003 	mov	r0, r3
  101fc8:	e24bd004 	sub	sp, fp, #4
  101fcc:	e8bd4800 	pop	{fp, lr}
  101fd0:	e28dd008 	add	sp, sp, #8
  101fd4:	e12fff1e 	bx	lr

00101fd8 <ad7606_set_ch_offset>:
  101fd8:	e92d4800 	push	{fp, lr}
  101fdc:	e28db004 	add	fp, sp, #4
  101fe0:	e24dd010 	sub	sp, sp, #16
  101fe4:	e50b0010 	str	r0, [fp, #-16]
  101fe8:	e1a03001 	mov	r3, r1
  101fec:	e54b3011 	strb	r3, [fp, #-17]	; 0xffffffef
  101ff0:	e1a03002 	mov	r3, r2
  101ff4:	e54b3012 	strb	r3, [fp, #-18]	; 0xffffffee
  101ff8:	e55b3012 	ldrb	r3, [fp, #-18]	; 0xffffffee
  101ffc:	e2433080 	sub	r3, r3, #128	; 0x80
  102000:	e54b3005 	strb	r3, [fp, #-5]
  102004:	e51b3010 	ldr	r3, [fp, #-16]
  102008:	e5d33032 	ldrb	r3, [r3, #50]	; 0x32
  10200c:	e55b2011 	ldrb	r2, [fp, #-17]	; 0xffffffef
  102010:	e1520003 	cmp	r2, r3
  102014:	3a000001 	bcc	102020 <ad7606_set_ch_offset+0x48>
  102018:	e3e03015 	mvn	r3, #21
  10201c:	ea00001a 	b	10208c <ad7606_set_ch_offset+0xb4>
  102020:	e51b3010 	ldr	r3, [fp, #-16]
  102024:	e5d3302a 	ldrb	r3, [r3, #42]	; 0x2a
  102028:	e2233001 	eor	r3, r3, #1
  10202c:	e6ef3073 	uxtb	r3, r3
  102030:	e3530000 	cmp	r3, #0
  102034:	0a000001 	beq	102040 <ad7606_set_ch_offset+0x68>
  102038:	e3e03085 	mvn	r3, #133	; 0x85
  10203c:	ea000012 	b	10208c <ad7606_set_ch_offset+0xb4>
  102040:	e55b3011 	ldrb	r3, [fp, #-17]	; 0xffffffef
  102044:	e2833011 	add	r3, r3, #17
  102048:	e6ef3073 	uxtb	r3, r3
  10204c:	e55b2005 	ldrb	r2, [fp, #-5]
  102050:	e1a01003 	mov	r1, r3
  102054:	e51b0010 	ldr	r0, [fp, #-16]
  102058:	ebfff9eb 	bl	10080c <ad7606_spi_reg_write>
  10205c:	e50b000c 	str	r0, [fp, #-12]
  102060:	e51b300c 	ldr	r3, [fp, #-12]
  102064:	e3530000 	cmp	r3, #0
  102068:	aa000001 	bge	102074 <ad7606_set_ch_offset+0x9c>
  10206c:	e51b300c 	ldr	r3, [fp, #-12]
  102070:	ea000005 	b	10208c <ad7606_set_ch_offset+0xb4>
  102074:	e55b3011 	ldrb	r3, [fp, #-17]	; 0xffffffef
  102078:	e51b2010 	ldr	r2, [fp, #-16]
  10207c:	e0823003 	add	r3, r2, r3
  102080:	e55b2012 	ldrb	r2, [fp, #-18]	; 0xffffffee
  102084:	e5c32033 	strb	r2, [r3, #51]	; 0x33
  102088:	e51b300c 	ldr	r3, [fp, #-12]
  10208c:	e1a00003 	mov	r0, r3
  102090:	e24bd004 	sub	sp, fp, #4
  102094:	e8bd8800 	pop	{fp, pc}

00102098 <ad7606_set_ch_phase>:
  102098:	e92d4800 	push	{fp, lr}
  10209c:	e28db004 	add	fp, sp, #4
  1020a0:	e24dd010 	sub	sp, sp, #16
  1020a4:	e50b0010 	str	r0, [fp, #-16]
  1020a8:	e1a03001 	mov	r3, r1
  1020ac:	e54b3011 	strb	r3, [fp, #-17]	; 0xffffffef
  1020b0:	e1a03002 	mov	r3, r2
  1020b4:	e54b3012 	strb	r3, [fp, #-18]	; 0xffffffee
  1020b8:	e51b3010 	ldr	r3, [fp, #-16]
  1020bc:	e5d33032 	ldrb	r3, [r3, #50]	; 0x32
  1020c0:	e55b2011 	ldrb	r2, [fp, #-17]	; 0xffffffef
  1020c4:	e1520003 	cmp	r2, r3
  1020c8:	3a000001 	bcc	1020d4 <ad7606_set_ch_phase+0x3c>
  1020cc:	e3e03015 	mvn	r3, #21
  1020d0:	ea00001a 	b	102140 <ad7606_set_ch_phase+0xa8>
  1020d4:	e51b3010 	ldr	r3, [fp, #-16]
  1020d8:	e5d3302a 	ldrb	r3, [r3, #42]	; 0x2a
  1020dc:	e2233001 	eor	r3, r3, #1
  1020e0:	e6ef3073 	uxtb	r3, r3
  1020e4:	e3530000 	cmp	r3, #0
  1020e8:	0a000001 	beq	1020f4 <ad7606_set_ch_phase+0x5c>
  1020ec:	e3e03085 	mvn	r3, #133	; 0x85
  1020f0:	ea000012 	b	102140 <ad7606_set_ch_phase+0xa8>
  1020f4:	e55b3011 	ldrb	r3, [fp, #-17]	; 0xffffffef
  1020f8:	e2833019 	add	r3, r3, #25
  1020fc:	e6ef3073 	uxtb	r3, r3
  102100:	e55b2012 	ldrb	r2, [fp, #-18]	; 0xffffffee
  102104:	e1a01003 	mov	r1, r3
  102108:	e51b0010 	ldr	r0, [fp, #-16]
  10210c:	ebfff9be 	bl	10080c <ad7606_spi_reg_write>
  102110:	e50b0008 	str	r0, [fp, #-8]
  102114:	e51b3008 	ldr	r3, [fp, #-8]
  102118:	e3530000 	cmp	r3, #0
  10211c:	aa000001 	bge	102128 <ad7606_set_ch_phase+0x90>
  102120:	e51b3008 	ldr	r3, [fp, #-8]
  102124:	ea000005 	b	102140 <ad7606_set_ch_phase+0xa8>
  102128:	e55b3011 	ldrb	r3, [fp, #-17]	; 0xffffffef
  10212c:	e51b2010 	ldr	r2, [fp, #-16]
  102130:	e0823003 	add	r3, r2, r3
  102134:	e55b2012 	ldrb	r2, [fp, #-18]	; 0xffffffee
  102138:	e5c3203b 	strb	r2, [r3, #59]	; 0x3b
  10213c:	e51b3008 	ldr	r3, [fp, #-8]
  102140:	e1a00003 	mov	r0, r3
  102144:	e24bd004 	sub	sp, fp, #4
  102148:	e8bd8800 	pop	{fp, pc}

0010214c <ad7606_set_ch_gain>:
  10214c:	e92d4800 	push	{fp, lr}
  102150:	e28db004 	add	fp, sp, #4
  102154:	e24dd010 	sub	sp, sp, #16
  102158:	e50b0010 	str	r0, [fp, #-16]
  10215c:	e1a03001 	mov	r3, r1
  102160:	e54b3011 	strb	r3, [fp, #-17]	; 0xffffffef
  102164:	e1a03002 	mov	r3, r2
  102168:	e54b3012 	strb	r3, [fp, #-18]	; 0xffffffee
  10216c:	e51b3010 	ldr	r3, [fp, #-16]
  102170:	e5d33032 	ldrb	r3, [r3, #50]	; 0x32
  102174:	e55b2011 	ldrb	r2, [fp, #-17]	; 0xffffffef
  102178:	e1520003 	cmp	r2, r3
  10217c:	3a000001 	bcc	102188 <ad7606_set_ch_gain+0x3c>
  102180:	e3e03015 	mvn	r3, #21
  102184:	ea000029 	b	102230 <ad7606_set_ch_gain+0xe4>
  102188:	e51b3010 	ldr	r3, [fp, #-16]
  10218c:	e5d3302a 	ldrb	r3, [r3, #42]	; 0x2a
  102190:	e2233001 	eor	r3, r3, #1
  102194:	e6ef3073 	uxtb	r3, r3
  102198:	e3530000 	cmp	r3, #0
  10219c:	0a000001 	beq	1021a8 <ad7606_set_ch_gain+0x5c>
  1021a0:	e3e03085 	mvn	r3, #133	; 0x85
  1021a4:	ea000021 	b	102230 <ad7606_set_ch_gain+0xe4>
  1021a8:	e3e03000 	mvn	r3, #0
  1021ac:	e50b3008 	str	r3, [fp, #-8]
  1021b0:	e51b3008 	ldr	r3, [fp, #-8]
  1021b4:	e1a03d03 	lsl	r3, r3, #26
  1021b8:	e50b3008 	str	r3, [fp, #-8]
  1021bc:	e51b3008 	ldr	r3, [fp, #-8]
  1021c0:	e1a03d23 	lsr	r3, r3, #26
  1021c4:	e50b3008 	str	r3, [fp, #-8]
  1021c8:	e51b3008 	ldr	r3, [fp, #-8]
  1021cc:	e55b2012 	ldrb	r2, [fp, #-18]	; 0xffffffee
  1021d0:	e1a01002 	mov	r1, r2
  1021d4:	e1a00003 	mov	r0, r3
  1021d8:	eb0003e7 	bl	10317c <field_get>
  1021dc:	e1a03000 	mov	r3, r0
  1021e0:	e54b3012 	strb	r3, [fp, #-18]	; 0xffffffee
  1021e4:	e55b3011 	ldrb	r3, [fp, #-17]	; 0xffffffef
  1021e8:	e2833009 	add	r3, r3, #9
  1021ec:	e6ef3073 	uxtb	r3, r3
  1021f0:	e55b2012 	ldrb	r2, [fp, #-18]	; 0xffffffee
  1021f4:	e1a01003 	mov	r1, r3
  1021f8:	e51b0010 	ldr	r0, [fp, #-16]
  1021fc:	ebfff982 	bl	10080c <ad7606_spi_reg_write>
  102200:	e50b000c 	str	r0, [fp, #-12]
  102204:	e51b300c 	ldr	r3, [fp, #-12]
  102208:	e3530000 	cmp	r3, #0
  10220c:	aa000001 	bge	102218 <ad7606_set_ch_gain+0xcc>
  102210:	e51b300c 	ldr	r3, [fp, #-12]
  102214:	ea000005 	b	102230 <ad7606_set_ch_gain+0xe4>
  102218:	e55b3011 	ldrb	r3, [fp, #-17]	; 0xffffffef
  10221c:	e51b2010 	ldr	r2, [fp, #-16]
  102220:	e0823003 	add	r3, r2, r3
  102224:	e55b2012 	ldrb	r2, [fp, #-18]	; 0xffffffee
  102228:	e5c32043 	strb	r2, [r3, #67]	; 0x43
  10222c:	e51b300c 	ldr	r3, [fp, #-12]
  102230:	e1a00003 	mov	r0, r3
  102234:	e24bd004 	sub	sp, fp, #4
  102238:	e8bd8800 	pop	{fp, pc}

0010223c <ad7606_set_config>:
  10223c:	e92d4800 	push	{fp, lr}
  102240:	e28db004 	add	fp, sp, #4
  102244:	e24dd018 	sub	sp, sp, #24
  102248:	e50b0018 	str	r0, [fp, #-24]	; 0xffffffe8
  10224c:	e50b101c 	str	r1, [fp, #-28]	; 0xffffffe4
  102250:	e3a03000 	mov	r3, #0
  102254:	e54b300b 	strb	r3, [fp, #-11]
  102258:	e51b3018 	ldr	r3, [fp, #-24]	; 0xffffffe8
  10225c:	e5d3302a 	ldrb	r3, [r3, #42]	; 0x2a
  102260:	e3530000 	cmp	r3, #0
  102264:	0a000047 	beq	102388 <ad7606_set_config+0x14c>
  102268:	e3e03000 	mvn	r3, #0
  10226c:	e50b3010 	str	r3, [fp, #-16]
  102270:	e51b3010 	ldr	r3, [fp, #-16]
  102274:	e1a03f03 	lsl	r3, r3, #30
  102278:	e50b3010 	str	r3, [fp, #-16]
  10227c:	e51b3010 	ldr	r3, [fp, #-16]
  102280:	e1a03f23 	lsr	r3, r3, #30
  102284:	e50b3010 	str	r3, [fp, #-16]
  102288:	e51b3010 	ldr	r3, [fp, #-16]
  10228c:	e55b201c 	ldrb	r2, [fp, #-28]	; 0xffffffe4
  102290:	e1a01002 	mov	r1, r2
  102294:	e1a00003 	mov	r0, r3
  102298:	eb0003a8 	bl	103140 <field_prep>
  10229c:	e1a03000 	mov	r3, r0
  1022a0:	e6ef2073 	uxtb	r2, r3
  1022a4:	e55b300b 	ldrb	r3, [fp, #-11]
  1022a8:	e1823003 	orr	r3, r2, r3
  1022ac:	e54b300b 	strb	r3, [fp, #-11]
  1022b0:	e55b201b 	ldrb	r2, [fp, #-27]	; 0xffffffe5
  1022b4:	e51b3018 	ldr	r3, [fp, #-24]	; 0xffffffe8
  1022b8:	e5d3302c 	ldrb	r3, [r3, #44]	; 0x2c
  1022bc:	e1520003 	cmp	r2, r3
  1022c0:	9a000001 	bls	1022cc <ad7606_set_config+0x90>
  1022c4:	e3e03015 	mvn	r3, #21
  1022c8:	ea000064 	b	102460 <ad7606_set_config+0x224>
  1022cc:	e3e03000 	mvn	r3, #0
  1022d0:	e50b3014 	str	r3, [fp, #-20]	; 0xffffffec
  1022d4:	e51b3014 	ldr	r3, [fp, #-20]	; 0xffffffec
  1022d8:	e1a03f03 	lsl	r3, r3, #30
  1022dc:	e50b3014 	str	r3, [fp, #-20]	; 0xffffffec
  1022e0:	e51b3014 	ldr	r3, [fp, #-20]	; 0xffffffec
  1022e4:	e1a03da3 	lsr	r3, r3, #27
  1022e8:	e50b3014 	str	r3, [fp, #-20]	; 0xffffffec
  1022ec:	e51b3014 	ldr	r3, [fp, #-20]	; 0xffffffec
  1022f0:	e55b201b 	ldrb	r2, [fp, #-27]	; 0xffffffe5
  1022f4:	e1a01002 	mov	r1, r2
  1022f8:	e1a00003 	mov	r0, r3
  1022fc:	eb00038f 	bl	103140 <field_prep>
  102300:	e1a03000 	mov	r3, r0
  102304:	e6ef2073 	uxtb	r2, r3
  102308:	e55b300b 	ldrb	r3, [fp, #-11]
  10230c:	e1823003 	orr	r3, r2, r3
  102310:	e54b300b 	strb	r3, [fp, #-11]
  102314:	e55b301a 	ldrb	r3, [fp, #-26]	; 0xffffffe6
  102318:	e1a01003 	mov	r1, r3
  10231c:	e3a00020 	mov	r0, #32
  102320:	eb000386 	bl	103140 <field_prep>
  102324:	e1a03000 	mov	r3, r0
  102328:	e6ef2073 	uxtb	r2, r3
  10232c:	e55b300b 	ldrb	r3, [fp, #-11]
  102330:	e1823003 	orr	r3, r2, r3
  102334:	e54b300b 	strb	r3, [fp, #-11]
  102338:	e55b3019 	ldrb	r3, [fp, #-25]	; 0xffffffe7
  10233c:	e1a01003 	mov	r1, r3
  102340:	e3a00040 	mov	r0, #64	; 0x40
  102344:	eb00037d 	bl	103140 <field_prep>
  102348:	e1a03000 	mov	r3, r0
  10234c:	e6ef2073 	uxtb	r2, r3
  102350:	e55b300b 	ldrb	r3, [fp, #-11]
  102354:	e1823003 	orr	r3, r2, r3
  102358:	e54b300b 	strb	r3, [fp, #-11]
  10235c:	e55b300b 	ldrb	r3, [fp, #-11]
  102360:	e1a02003 	mov	r2, r3
  102364:	e3a01002 	mov	r1, #2
  102368:	e51b0018 	ldr	r0, [fp, #-24]	; 0xffffffe8
  10236c:	ebfff926 	bl	10080c <ad7606_spi_reg_write>
  102370:	e50b0008 	str	r0, [fp, #-8]
  102374:	e51b3008 	ldr	r3, [fp, #-8]
  102378:	e3530000 	cmp	r3, #0
  10237c:	0a000031 	beq	102448 <ad7606_set_config+0x20c>
  102380:	e51b3008 	ldr	r3, [fp, #-8]
  102384:	ea000035 	b	102460 <ad7606_set_config+0x224>
  102388:	e55b301c 	ldrb	r3, [fp, #-28]	; 0xffffffe4
  10238c:	e3530001 	cmp	r3, #1
  102390:	0a000008 	beq	1023b8 <ad7606_set_config+0x17c>
  102394:	e3530003 	cmp	r3, #3
  102398:	0a00000b 	beq	1023cc <ad7606_set_config+0x190>
  10239c:	e3530000 	cmp	r3, #0
  1023a0:	1a00000e 	bne	1023e0 <ad7606_set_config+0x1a4>
  1023a4:	e3a03000 	mov	r3, #0
  1023a8:	e54b3009 	strb	r3, [fp, #-9]
  1023ac:	e3a03001 	mov	r3, #1
  1023b0:	e54b300a 	strb	r3, [fp, #-10]
  1023b4:	ea00000b 	b	1023e8 <ad7606_set_config+0x1ac>
  1023b8:	e3a03000 	mov	r3, #0
  1023bc:	e54b3009 	strb	r3, [fp, #-9]
  1023c0:	e3a03000 	mov	r3, #0
  1023c4:	e54b300a 	strb	r3, [fp, #-10]
  1023c8:	ea000006 	b	1023e8 <ad7606_set_config+0x1ac>
  1023cc:	e3a03001 	mov	r3, #1
  1023d0:	e54b3009 	strb	r3, [fp, #-9]
  1023d4:	e3a03000 	mov	r3, #0
  1023d8:	e54b300a 	strb	r3, [fp, #-10]
  1023dc:	ea000001 	b	1023e8 <ad7606_set_config+0x1ac>
  1023e0:	e3e03015 	mvn	r3, #21
  1023e4:	ea00001d 	b	102460 <ad7606_set_config+0x224>
  1023e8:	e51b3018 	ldr	r3, [fp, #-24]	; 0xffffffe8
  1023ec:	e5933010 	ldr	r3, [r3, #16]
  1023f0:	e55b200a 	ldrb	r2, [fp, #-10]
  1023f4:	e1a01002 	mov	r1, r2
  1023f8:	e1a00003 	mov	r0, r3
  1023fc:	eb0004fa 	bl	1037ec <gpio_set_value>
  102400:	e50b0008 	str	r0, [fp, #-8]
  102404:	e51b3008 	ldr	r3, [fp, #-8]
  102408:	e3530000 	cmp	r3, #0
  10240c:	0a000001 	beq	102418 <ad7606_set_config+0x1dc>
  102410:	e51b3008 	ldr	r3, [fp, #-8]
  102414:	ea000011 	b	102460 <ad7606_set_config+0x224>
  102418:	e51b3018 	ldr	r3, [fp, #-24]	; 0xffffffe8
  10241c:	e5933014 	ldr	r3, [r3, #20]
  102420:	e55b2009 	ldrb	r2, [fp, #-9]
  102424:	e1a01002 	mov	r1, r2
  102428:	e1a00003 	mov	r0, r3
  10242c:	eb0004ee 	bl	1037ec <gpio_set_value>
  102430:	e50b0008 	str	r0, [fp, #-8]
  102434:	e51b3008 	ldr	r3, [fp, #-8]
  102438:	e3530000 	cmp	r3, #0
  10243c:	0a000001 	beq	102448 <ad7606_set_config+0x20c>
  102440:	e51b3008 	ldr	r3, [fp, #-8]
  102444:	ea000005 	b	102460 <ad7606_set_config+0x224>
  102448:	e51b3018 	ldr	r3, [fp, #-24]	; 0xffffffe8
  10244c:	e283302d 	add	r3, r3, #45	; 0x2d
  102450:	e24b201c 	sub	r2, fp, #28
  102454:	e5920000 	ldr	r0, [r2]
  102458:	e5830000 	str	r0, [r3]
  10245c:	e51b3008 	ldr	r3, [fp, #-8]
  102460:	e1a00003 	mov	r0, r3
  102464:	e24bd004 	sub	sp, fp, #4
  102468:	e8bd8800 	pop	{fp, pc}

0010246c <ad7606_set_digital_diag>:
  10246c:	e92d4800 	push	{fp, lr}
  102470:	e28db004 	add	fp, sp, #4
  102474:	e24dd010 	sub	sp, sp, #16
  102478:	e50b0010 	str	r0, [fp, #-16]
  10247c:	e54b1014 	strb	r1, [fp, #-20]	; 0xffffffec
  102480:	e3a03000 	mov	r3, #0
  102484:	e54b3005 	strb	r3, [fp, #-5]
  102488:	e51b3010 	ldr	r3, [fp, #-16]
  10248c:	e5d3302a 	ldrb	r3, [r3, #42]	; 0x2a
  102490:	e2233001 	eor	r3, r3, #1
  102494:	e6ef3073 	uxtb	r3, r3
  102498:	e3530000 	cmp	r3, #0
  10249c:	0a000001 	beq	1024a8 <ad7606_set_digital_diag+0x3c>
  1024a0:	e3e03085 	mvn	r3, #133	; 0x85
  1024a4:	ea000066 	b	102644 <ad7606_set_digital_diag+0x1d8>
  1024a8:	e55b3014 	ldrb	r3, [fp, #-20]	; 0xffffffec
  1024ac:	e7e03053 	ubfx	r3, r3, #0, #1
  1024b0:	e6ef3073 	uxtb	r3, r3
  1024b4:	e1a01003 	mov	r1, r3
  1024b8:	e3a00001 	mov	r0, #1
  1024bc:	eb00031f 	bl	103140 <field_prep>
  1024c0:	e1a03000 	mov	r3, r0
  1024c4:	e6ef2073 	uxtb	r2, r3
  1024c8:	e55b3005 	ldrb	r3, [fp, #-5]
  1024cc:	e1823003 	orr	r3, r2, r3
  1024d0:	e54b3005 	strb	r3, [fp, #-5]
  1024d4:	e55b3014 	ldrb	r3, [fp, #-20]	; 0xffffffec
  1024d8:	e7e030d3 	ubfx	r3, r3, #1, #1
  1024dc:	e6ef3073 	uxtb	r3, r3
  1024e0:	e1a01003 	mov	r1, r3
  1024e4:	e3a00002 	mov	r0, #2
  1024e8:	eb000314 	bl	103140 <field_prep>
  1024ec:	e1a03000 	mov	r3, r0
  1024f0:	e6ef2073 	uxtb	r2, r3
  1024f4:	e55b3005 	ldrb	r3, [fp, #-5]
  1024f8:	e1823003 	orr	r3, r2, r3
  1024fc:	e54b3005 	strb	r3, [fp, #-5]
  102500:	e55b3014 	ldrb	r3, [fp, #-20]	; 0xffffffec
  102504:	e7e03153 	ubfx	r3, r3, #2, #1
  102508:	e6ef3073 	uxtb	r3, r3
  10250c:	e1a01003 	mov	r1, r3
  102510:	e3a00004 	mov	r0, #4
  102514:	eb000309 	bl	103140 <field_prep>
  102518:	e1a03000 	mov	r3, r0
  10251c:	e6ef2073 	uxtb	r2, r3
  102520:	e55b3005 	ldrb	r3, [fp, #-5]
  102524:	e1823003 	orr	r3, r2, r3
  102528:	e54b3005 	strb	r3, [fp, #-5]
  10252c:	e55b3014 	ldrb	r3, [fp, #-20]	; 0xffffffec
  102530:	e7e031d3 	ubfx	r3, r3, #3, #1
  102534:	e6ef3073 	uxtb	r3, r3
  102538:	e1a01003 	mov	r1, r3
  10253c:	e3a00008 	mov	r0, #8
  102540:	eb0002fe 	bl	103140 <field_prep>
  102544:	e1a03000 	mov	r3, r0
  102548:	e6ef2073 	uxtb	r2, r3
  10254c:	e55b3005 	ldrb	r3, [fp, #-5]
  102550:	e1823003 	orr	r3, r2, r3
  102554:	e54b3005 	strb	r3, [fp, #-5]
  102558:	e55b3014 	ldrb	r3, [fp, #-20]	; 0xffffffec
  10255c:	e7e03253 	ubfx	r3, r3, #4, #1
  102560:	e6ef3073 	uxtb	r3, r3
  102564:	e1a01003 	mov	r1, r3
  102568:	e3a00010 	mov	r0, #16
  10256c:	eb0002f3 	bl	103140 <field_prep>
  102570:	e1a03000 	mov	r3, r0
  102574:	e6ef2073 	uxtb	r2, r3
  102578:	e55b3005 	ldrb	r3, [fp, #-5]
  10257c:	e1823003 	orr	r3, r2, r3
  102580:	e54b3005 	strb	r3, [fp, #-5]
  102584:	e55b3014 	ldrb	r3, [fp, #-20]	; 0xffffffec
  102588:	e7e032d3 	ubfx	r3, r3, #5, #1
  10258c:	e6ef3073 	uxtb	r3, r3
  102590:	e1a01003 	mov	r1, r3
  102594:	e3a00020 	mov	r0, #32
  102598:	eb0002e8 	bl	103140 <field_prep>
  10259c:	e1a03000 	mov	r3, r0
  1025a0:	e6ef2073 	uxtb	r2, r3
  1025a4:	e55b3005 	ldrb	r3, [fp, #-5]
  1025a8:	e1823003 	orr	r3, r2, r3
  1025ac:	e54b3005 	strb	r3, [fp, #-5]
  1025b0:	e55b3014 	ldrb	r3, [fp, #-20]	; 0xffffffec
  1025b4:	e7e03353 	ubfx	r3, r3, #6, #1
  1025b8:	e6ef3073 	uxtb	r3, r3
  1025bc:	e1a01003 	mov	r1, r3
  1025c0:	e3a00040 	mov	r0, #64	; 0x40
  1025c4:	eb0002dd 	bl	103140 <field_prep>
  1025c8:	e1a03000 	mov	r3, r0
  1025cc:	e6ef2073 	uxtb	r2, r3
  1025d0:	e55b3005 	ldrb	r3, [fp, #-5]
  1025d4:	e1823003 	orr	r3, r2, r3
  1025d8:	e54b3005 	strb	r3, [fp, #-5]
  1025dc:	e55b3014 	ldrb	r3, [fp, #-20]	; 0xffffffec
  1025e0:	e7e033d3 	ubfx	r3, r3, #7, #1
  1025e4:	e6ef3073 	uxtb	r3, r3
  1025e8:	e1a01003 	mov	r1, r3
  1025ec:	e3a00080 	mov	r0, #128	; 0x80
  1025f0:	eb0002d2 	bl	103140 <field_prep>
  1025f4:	e1a03000 	mov	r3, r0
  1025f8:	e6ef2073 	uxtb	r2, r3
  1025fc:	e55b3005 	ldrb	r3, [fp, #-5]
  102600:	e1823003 	orr	r3, r2, r3
  102604:	e54b3005 	strb	r3, [fp, #-5]
  102608:	e55b3005 	ldrb	r3, [fp, #-5]
  10260c:	e1a02003 	mov	r2, r3
  102610:	e3a01021 	mov	r1, #33	; 0x21
  102614:	e51b0010 	ldr	r0, [fp, #-16]
  102618:	ebfff87b 	bl	10080c <ad7606_spi_reg_write>
  10261c:	e50b000c 	str	r0, [fp, #-12]
  102620:	e51b300c 	ldr	r3, [fp, #-12]
  102624:	e3530000 	cmp	r3, #0
  102628:	aa000001 	bge	102634 <ad7606_set_digital_diag+0x1c8>
  10262c:	e51b300c 	ldr	r3, [fp, #-12]
  102630:	ea000003 	b	102644 <ad7606_set_digital_diag+0x1d8>
  102634:	e51b3010 	ldr	r3, [fp, #-16]
  102638:	e55b2014 	ldrb	r2, [fp, #-20]	; 0xffffffec
  10263c:	e5c32031 	strb	r2, [r3, #49]	; 0x31
  102640:	e51b300c 	ldr	r3, [fp, #-12]
  102644:	e1a00003 	mov	r0, r3
  102648:	e24bd004 	sub	sp, fp, #4
  10264c:	e8bd8800 	pop	{fp, pc}

00102650 <ad7606_serial_init>:
  102650:	e92d4810 	push	{r4, fp, lr}
  102654:	e28db008 	add	fp, sp, #8
  102658:	e24dd034 	sub	sp, sp, #52	; 0x34
  10265c:	e50b0030 	str	r0, [fp, #-48]	; 0xffffffd0
  102660:	e50b1034 	str	r1, [fp, #-52]	; 0xffffffcc
  102664:	e30201dc 	movw	r0, #8668	; 0x21dc
  102668:	e3400012 	movt	r0, #18
  10266c:	eb005ab8 	bl	119154 <puts>
  102670:	e3a010cc 	mov	r1, #204	; 0xcc
  102674:	e3a00001 	mov	r0, #1
  102678:	eb0057f6 	bl	118658 <calloc>
  10267c:	e1a03000 	mov	r3, r0
  102680:	e50b3018 	str	r3, [fp, #-24]	; 0xffffffe8
  102684:	e51b3018 	ldr	r3, [fp, #-24]	; 0xffffffe8
  102688:	e3530000 	cmp	r3, #0
  10268c:	1a000001 	bne	102698 <ad7606_serial_init+0x48>
  102690:	e3e0300b 	mvn	r3, #11
  102694:	ea000144 	b	102bac <ad7606_serial_init+0x55c>
  102698:	e51b3034 	ldr	r3, [fp, #-52]	; 0xffffffcc
  10269c:	e5d32034 	ldrb	r2, [r3, #52]	; 0x34
  1026a0:	e51b3018 	ldr	r3, [fp, #-24]	; 0xffffffe8
  1026a4:	e5c32028 	strb	r2, [r3, #40]	; 0x28
  1026a8:	e51b3018 	ldr	r3, [fp, #-24]	; 0xffffffe8
  1026ac:	e5d33028 	ldrb	r3, [r3, #40]	; 0x28
  1026b0:	e1a01003 	mov	r1, r3
  1026b4:	e30220e4 	movw	r2, #8420	; 0x20e4
  1026b8:	e3402012 	movt	r2, #18
  1026bc:	e1a03001 	mov	r3, r1
  1026c0:	e1a03083 	lsl	r3, r3, #1
  1026c4:	e0833001 	add	r3, r3, r1
  1026c8:	e1a03183 	lsl	r3, r3, #3
  1026cc:	e0823003 	add	r3, r2, r3
  1026d0:	e5d32000 	ldrb	r2, [r3]
  1026d4:	e51b3018 	ldr	r3, [fp, #-24]	; 0xffffffe8
  1026d8:	e5c32032 	strb	r2, [r3, #50]	; 0x32
  1026dc:	e51b3018 	ldr	r3, [fp, #-24]	; 0xffffffe8
  1026e0:	e5d33028 	ldrb	r3, [r3, #40]	; 0x28
  1026e4:	e1a01003 	mov	r1, r3
  1026e8:	e30220e4 	movw	r2, #8420	; 0x20e4
  1026ec:	e3402012 	movt	r2, #18
  1026f0:	e1a03001 	mov	r3, r1
  1026f4:	e1a03083 	lsl	r3, r3, #1
  1026f8:	e0833001 	add	r3, r3, r1
  1026fc:	e1a03183 	lsl	r3, r3, #3
  102700:	e0823003 	add	r3, r2, r3
  102704:	e2833002 	add	r3, r3, #2
  102708:	e5d32000 	ldrb	r2, [r3]
  10270c:	e51b3018 	ldr	r3, [fp, #-24]	; 0xffffffe8
  102710:	e5c3202c 	strb	r2, [r3, #44]	; 0x2c
  102714:	e51b3018 	ldr	r3, [fp, #-24]	; 0xffffffe8
  102718:	e5d33028 	ldrb	r3, [r3, #40]	; 0x28
  10271c:	e1a01003 	mov	r1, r3
  102720:	e30220e4 	movw	r2, #8420	; 0x20e4
  102724:	e3402012 	movt	r2, #18
  102728:	e1a03001 	mov	r3, r1
  10272c:	e1a03083 	lsl	r3, r3, #1
  102730:	e0833001 	add	r3, r3, r1
  102734:	e1a03183 	lsl	r3, r3, #3
  102738:	e0823003 	add	r3, r2, r3
  10273c:	e2833004 	add	r3, r3, #4
  102740:	e5d33000 	ldrb	r3, [r3]
  102744:	e3530000 	cmp	r3, #0
  102748:	0a000003 	beq	10275c <ad7606_serial_init+0x10c>
  10274c:	e51b3034 	ldr	r3, [fp, #-52]	; 0xffffffcc
  102750:	e5d32036 	ldrb	r2, [r3, #54]	; 0x36
  102754:	e51b3018 	ldr	r3, [fp, #-24]	; 0xffffffe8
  102758:	e5c3202a 	strb	r2, [r3, #42]	; 0x2a
  10275c:	e51b0018 	ldr	r0, [fp, #-24]	; 0xffffffe8
  102760:	ebfffc74 	bl	101938 <ad7606_reset>
  102764:	e50b0014 	str	r0, [fp, #-20]	; 0xffffffec
  102768:	e51b3014 	ldr	r3, [fp, #-20]	; 0xffffffec
  10276c:	e3530000 	cmp	r3, #0
  102770:	ba0000f4 	blt	102b48 <ad7606_serial_init+0x4f8>
  102774:	e3a000fd 	mov	r0, #253	; 0xfd
  102778:	eb0001df 	bl	102efc <udelay>
  10277c:	e51b3018 	ldr	r3, [fp, #-24]	; 0xffffffe8
  102780:	e51b2034 	ldr	r2, [fp, #-52]	; 0xffffffcc
  102784:	e1a01002 	mov	r1, r2
  102788:	e1a00003 	mov	r0, r3
  10278c:	eb00019d 	bl	102e08 <spi_init>
  102790:	e50b0014 	str	r0, [fp, #-20]	; 0xffffffec
  102794:	e51b3014 	ldr	r3, [fp, #-20]	; 0xffffffec
  102798:	e3530000 	cmp	r3, #0
  10279c:	ba0000eb 	blt	102b50 <ad7606_serial_init+0x500>
  1027a0:	e51b3018 	ldr	r3, [fp, #-24]	; 0xffffffe8
  1027a4:	e5d3302a 	ldrb	r3, [r3, #42]	; 0x2a
  1027a8:	e3530000 	cmp	r3, #0
  1027ac:	0a0000bf 	beq	102ab0 <ad7606_serial_init+0x460>
  1027b0:	e24b3025 	sub	r3, fp, #37	; 0x25
  1027b4:	e1a02003 	mov	r2, r3
  1027b8:	e3a0102f 	mov	r1, #47	; 0x2f
  1027bc:	e51b0018 	ldr	r0, [fp, #-24]	; 0xffffffe8
  1027c0:	ebfff7dc 	bl	100738 <ad7606_spi_reg_read>
  1027c4:	e50b0014 	str	r0, [fp, #-20]	; 0xffffffec
  1027c8:	e51b3014 	ldr	r3, [fp, #-20]	; 0xffffffec
  1027cc:	e3530000 	cmp	r3, #0
  1027d0:	ba0000e0 	blt	102b58 <ad7606_serial_init+0x508>
  1027d4:	e51b3018 	ldr	r3, [fp, #-24]	; 0xffffffe8
  1027d8:	e5d33028 	ldrb	r3, [r3, #40]	; 0x28
  1027dc:	e1a01003 	mov	r1, r3
  1027e0:	e30220e4 	movw	r2, #8420	; 0x20e4
  1027e4:	e3402012 	movt	r2, #18
  1027e8:	e1a03001 	mov	r3, r1
  1027ec:	e1a03083 	lsl	r3, r3, #1
  1027f0:	e0833001 	add	r3, r3, r1
  1027f4:	e1a03183 	lsl	r3, r3, #3
  1027f8:	e0823003 	add	r3, r2, r3
  1027fc:	e2833005 	add	r3, r3, #5
  102800:	e5d33000 	ldrb	r3, [r3]
  102804:	e54b3019 	strb	r3, [fp, #-25]	; 0xffffffe7
  102808:	e3e03000 	mvn	r3, #0
  10280c:	e50b3020 	str	r3, [fp, #-32]	; 0xffffffe0
  102810:	e51b3020 	ldr	r3, [fp, #-32]	; 0xffffffe0
  102814:	e1a03e03 	lsl	r3, r3, #28
  102818:	e50b3020 	str	r3, [fp, #-32]	; 0xffffffe0
  10281c:	e51b3020 	ldr	r3, [fp, #-32]	; 0xffffffe0
  102820:	e1a03c23 	lsr	r3, r3, #24
  102824:	e50b3020 	str	r3, [fp, #-32]	; 0xffffffe0
  102828:	e51b3020 	ldr	r3, [fp, #-32]	; 0xffffffe0
  10282c:	e55b2025 	ldrb	r2, [fp, #-37]	; 0xffffffdb
  102830:	e1a01002 	mov	r1, r2
  102834:	e1a00003 	mov	r0, r3
  102838:	eb00024f 	bl	10317c <field_get>
  10283c:	e1a02000 	mov	r2, r0
  102840:	e55b3019 	ldrb	r3, [fp, #-25]	; 0xffffffe7
  102844:	e1520003 	cmp	r2, r3
  102848:	0a000016 	beq	1028a8 <ad7606_serial_init+0x258>
  10284c:	e55b4019 	ldrb	r4, [fp, #-25]	; 0xffffffe7
  102850:	e3e03000 	mvn	r3, #0
  102854:	e50b3024 	str	r3, [fp, #-36]	; 0xffffffdc
  102858:	e51b3024 	ldr	r3, [fp, #-36]	; 0xffffffdc
  10285c:	e1a03e03 	lsl	r3, r3, #28
  102860:	e50b3024 	str	r3, [fp, #-36]	; 0xffffffdc
  102864:	e51b3024 	ldr	r3, [fp, #-36]	; 0xffffffdc
  102868:	e1a03c23 	lsr	r3, r3, #24
  10286c:	e50b3024 	str	r3, [fp, #-36]	; 0xffffffdc
  102870:	e51b3024 	ldr	r3, [fp, #-36]	; 0xffffffdc
  102874:	e55b2025 	ldrb	r2, [fp, #-37]	; 0xffffffdb
  102878:	e1a01002 	mov	r1, r2
  10287c:	e1a00003 	mov	r0, r3
  102880:	eb00023d 	bl	10317c <field_get>
  102884:	e1a03000 	mov	r3, r0
  102888:	e1a02003 	mov	r2, r3
  10288c:	e1a01004 	mov	r1, r4
  102890:	e30201f4 	movw	r0, #8692	; 0x21f4
  102894:	e3400012 	movt	r0, #18
  102898:	eb0059df 	bl	11901c <printf>
  10289c:	e3e03012 	mvn	r3, #18
  1028a0:	e50b3014 	str	r3, [fp, #-20]	; 0xffffffec
  1028a4:	ea0000ba 	b	102b94 <ad7606_serial_init+0x544>
  1028a8:	e51b3034 	ldr	r3, [fp, #-52]	; 0xffffffcc
  1028ac:	e5d3103b 	ldrb	r1, [r3, #59]	; 0x3b
  1028b0:	e51b0018 	ldr	r0, [fp, #-24]	; 0xffffffe8
  1028b4:	ebfffeec 	bl	10246c <ad7606_set_digital_diag>
  1028b8:	e50b0014 	str	r0, [fp, #-20]	; 0xffffffec
  1028bc:	e51b3014 	ldr	r3, [fp, #-20]	; 0xffffffec
  1028c0:	e3530000 	cmp	r3, #0
  1028c4:	ba0000a5 	blt	102b60 <ad7606_serial_init+0x510>
  1028c8:	e51b3034 	ldr	r3, [fp, #-52]	; 0xffffffcc
  1028cc:	e5933037 	ldr	r3, [r3, #55]	; 0x37
  1028d0:	e1a02003 	mov	r2, r3
  1028d4:	e1a01002 	mov	r1, r2
  1028d8:	e51b0018 	ldr	r0, [fp, #-24]	; 0xffffffe8
  1028dc:	ebfffe56 	bl	10223c <ad7606_set_config>
  1028e0:	e50b0014 	str	r0, [fp, #-20]	; 0xffffffec
  1028e4:	e51b3014 	ldr	r3, [fp, #-20]	; 0xffffffec
  1028e8:	e3530000 	cmp	r3, #0
  1028ec:	ba00009d 	blt	102b68 <ad7606_serial_init+0x518>
  1028f0:	e3a03000 	mov	r3, #0
  1028f4:	e50b3010 	str	r3, [fp, #-16]
  1028f8:	ea000017 	b	10295c <ad7606_serial_init+0x30c>
  1028fc:	e51b3010 	ldr	r3, [fp, #-16]
  102900:	e6ef0073 	uxtb	r0, r3
  102904:	e51b1034 	ldr	r1, [fp, #-52]	; 0xffffffcc
  102908:	e51b2010 	ldr	r2, [fp, #-16]
  10290c:	e1a03002 	mov	r3, r2
  102910:	e1a03083 	lsl	r3, r3, #1
  102914:	e0833002 	add	r3, r3, r2
  102918:	e1a03103 	lsl	r3, r3, #2
  10291c:	e0813003 	add	r3, r1, r3
  102920:	e2833050 	add	r3, r3, #80	; 0x50
  102924:	e593200c 	ldr	r2, [r3, #12]
  102928:	e58d2000 	str	r2, [sp]
  10292c:	e2833004 	add	r3, r3, #4
  102930:	e893000c 	ldm	r3, {r2, r3}
  102934:	e1a01000 	mov	r1, r0
  102938:	e51b0018 	ldr	r0, [fp, #-24]	; 0xffffffe8
  10293c:	ebfffd39 	bl	101e28 <ad7606_set_ch_range>
  102940:	e50b0014 	str	r0, [fp, #-20]	; 0xffffffec
  102944:	e51b3014 	ldr	r3, [fp, #-20]	; 0xffffffec
  102948:	e3530000 	cmp	r3, #0
  10294c:	ba000087 	blt	102b70 <ad7606_serial_init+0x520>
  102950:	e51b3010 	ldr	r3, [fp, #-16]
  102954:	e2833001 	add	r3, r3, #1
  102958:	e50b3010 	str	r3, [fp, #-16]
  10295c:	e51b3018 	ldr	r3, [fp, #-24]	; 0xffffffe8
  102960:	e5d33032 	ldrb	r3, [r3, #50]	; 0x32
  102964:	e1a02003 	mov	r2, r3
  102968:	e51b3010 	ldr	r3, [fp, #-16]
  10296c:	e1520003 	cmp	r2, r3
  102970:	caffffe1 	bgt	1028fc <ad7606_serial_init+0x2ac>
  102974:	e3a03000 	mov	r3, #0
  102978:	e50b3010 	str	r3, [fp, #-16]
  10297c:	ea000010 	b	1029c4 <ad7606_serial_init+0x374>
  102980:	e51b3010 	ldr	r3, [fp, #-16]
  102984:	e6ef1073 	uxtb	r1, r3
  102988:	e51b2034 	ldr	r2, [fp, #-52]	; 0xffffffcc
  10298c:	e51b3010 	ldr	r3, [fp, #-16]
  102990:	e0823003 	add	r3, r2, r3
  102994:	e283303c 	add	r3, r3, #60	; 0x3c
  102998:	e1d330d0 	ldrsb	r3, [r3]
  10299c:	e1a02003 	mov	r2, r3
  1029a0:	e51b0018 	ldr	r0, [fp, #-24]	; 0xffffffe8
  1029a4:	ebfffd8b 	bl	101fd8 <ad7606_set_ch_offset>
  1029a8:	e50b0014 	str	r0, [fp, #-20]	; 0xffffffec
  1029ac:	e51b3014 	ldr	r3, [fp, #-20]	; 0xffffffec
  1029b0:	e3530000 	cmp	r3, #0
  1029b4:	ba00006f 	blt	102b78 <ad7606_serial_init+0x528>
  1029b8:	e51b3010 	ldr	r3, [fp, #-16]
  1029bc:	e2833001 	add	r3, r3, #1
  1029c0:	e50b3010 	str	r3, [fp, #-16]
  1029c4:	e51b3018 	ldr	r3, [fp, #-24]	; 0xffffffe8
  1029c8:	e5d33032 	ldrb	r3, [r3, #50]	; 0x32
  1029cc:	e1a02003 	mov	r2, r3
  1029d0:	e51b3010 	ldr	r3, [fp, #-16]
  1029d4:	e1520003 	cmp	r2, r3
  1029d8:	caffffe8 	bgt	102980 <ad7606_serial_init+0x330>
  1029dc:	e3a03000 	mov	r3, #0
  1029e0:	e50b3010 	str	r3, [fp, #-16]
  1029e4:	ea000010 	b	102a2c <ad7606_serial_init+0x3dc>
  1029e8:	e51b3010 	ldr	r3, [fp, #-16]
  1029ec:	e6ef1073 	uxtb	r1, r3
  1029f0:	e51b2034 	ldr	r2, [fp, #-52]	; 0xffffffcc
  1029f4:	e51b3010 	ldr	r3, [fp, #-16]
  1029f8:	e0823003 	add	r3, r2, r3
  1029fc:	e2833044 	add	r3, r3, #68	; 0x44
  102a00:	e5d33000 	ldrb	r3, [r3]
  102a04:	e1a02003 	mov	r2, r3
  102a08:	e51b0018 	ldr	r0, [fp, #-24]	; 0xffffffe8
  102a0c:	ebfffda1 	bl	102098 <ad7606_set_ch_phase>
  102a10:	e50b0014 	str	r0, [fp, #-20]	; 0xffffffec
  102a14:	e51b3014 	ldr	r3, [fp, #-20]	; 0xffffffec
  102a18:	e3530000 	cmp	r3, #0
  102a1c:	ba000057 	blt	102b80 <ad7606_serial_init+0x530>
  102a20:	e51b3010 	ldr	r3, [fp, #-16]
  102a24:	e2833001 	add	r3, r3, #1
  102a28:	e50b3010 	str	r3, [fp, #-16]
  102a2c:	e51b3018 	ldr	r3, [fp, #-24]	; 0xffffffe8
  102a30:	e5d33032 	ldrb	r3, [r3, #50]	; 0x32
  102a34:	e1a02003 	mov	r2, r3
  102a38:	e51b3010 	ldr	r3, [fp, #-16]
  102a3c:	e1520003 	cmp	r2, r3
  102a40:	caffffe8 	bgt	1029e8 <ad7606_serial_init+0x398>
  102a44:	e3a03000 	mov	r3, #0
  102a48:	e50b3010 	str	r3, [fp, #-16]
  102a4c:	ea000010 	b	102a94 <ad7606_serial_init+0x444>
  102a50:	e51b3010 	ldr	r3, [fp, #-16]
  102a54:	e6ef1073 	uxtb	r1, r3
  102a58:	e51b2034 	ldr	r2, [fp, #-52]	; 0xffffffcc
  102a5c:	e51b3010 	ldr	r3, [fp, #-16]
  102a60:	e0823003 	add	r3, r2, r3
  102a64:	e283304c 	add	r3, r3, #76	; 0x4c
  102a68:	e5d33000 	ldrb	r3, [r3]
  102a6c:	e1a02003 	mov	r2, r3
  102a70:	e51b0018 	ldr	r0, [fp, #-24]	; 0xffffffe8
  102a74:	ebfffdb4 	bl	10214c <ad7606_set_ch_gain>
  102a78:	e50b0014 	str	r0, [fp, #-20]	; 0xffffffec
  102a7c:	e51b3014 	ldr	r3, [fp, #-20]	; 0xffffffec
  102a80:	e3530000 	cmp	r3, #0
  102a84:	ba00003f 	blt	102b88 <ad7606_serial_init+0x538>
  102a88:	e51b3010 	ldr	r3, [fp, #-16]
  102a8c:	e2833001 	add	r3, r3, #1
  102a90:	e50b3010 	str	r3, [fp, #-16]
  102a94:	e51b3018 	ldr	r3, [fp, #-24]	; 0xffffffe8
  102a98:	e5d33032 	ldrb	r3, [r3, #50]	; 0x32
  102a9c:	e1a02003 	mov	r2, r3
  102aa0:	e51b3010 	ldr	r3, [fp, #-16]
  102aa4:	e1520003 	cmp	r2, r3
  102aa8:	caffffe8 	bgt	102a50 <ad7606_serial_init+0x400>
  102aac:	ea00000b 	b	102ae0 <ad7606_serial_init+0x490>
  102ab0:	e51b3034 	ldr	r3, [fp, #-52]	; 0xffffffcc
  102ab4:	e593205c 	ldr	r2, [r3, #92]	; 0x5c
  102ab8:	e58d2000 	str	r2, [sp]
  102abc:	e2833054 	add	r3, r3, #84	; 0x54
  102ac0:	e893000c 	ldm	r3, {r2, r3}
  102ac4:	e3a01000 	mov	r1, #0
  102ac8:	e51b0018 	ldr	r0, [fp, #-24]	; 0xffffffe8
  102acc:	ebfffcd5 	bl	101e28 <ad7606_set_ch_range>
  102ad0:	e50b0014 	str	r0, [fp, #-20]	; 0xffffffec
  102ad4:	e51b3014 	ldr	r3, [fp, #-20]	; 0xffffffec
  102ad8:	e3530000 	cmp	r3, #0
  102adc:	ba00002b 	blt	102b90 <ad7606_serial_init+0x540>
  102ae0:	e51b3018 	ldr	r3, [fp, #-24]	; 0xffffffe8
  102ae4:	e5d33028 	ldrb	r3, [r3, #40]	; 0x28
  102ae8:	e1a01003 	mov	r1, r3
  102aec:	e30220e4 	movw	r2, #8420	; 0x20e4
  102af0:	e3402012 	movt	r2, #18
  102af4:	e1a03001 	mov	r3, r1
  102af8:	e1a03083 	lsl	r3, r3, #1
  102afc:	e0833001 	add	r3, r3, r1
  102b00:	e1a03183 	lsl	r3, r3, #3
  102b04:	e0823003 	add	r3, r2, r3
  102b08:	e2833003 	add	r3, r3, #3
  102b0c:	e5d33000 	ldrb	r3, [r3]
  102b10:	e3530000 	cmp	r3, #0
  102b14:	0a000003 	beq	102b28 <ad7606_serial_init+0x4d8>
  102b18:	e51b3034 	ldr	r3, [fp, #-52]	; 0xffffffcc
  102b1c:	e5d31035 	ldrb	r1, [r3, #53]	; 0x35
  102b20:	e51b0018 	ldr	r0, [fp, #-24]	; 0xffffffe8
  102b24:	ebfffbc3 	bl	101a38 <ad7606_set_oversampling>
  102b28:	e51b3030 	ldr	r3, [fp, #-48]	; 0xffffffd0
  102b2c:	e51b2018 	ldr	r2, [fp, #-24]	; 0xffffffe8
  102b30:	e5832000 	str	r2, [r3]
  102b34:	e3020230 	movw	r0, #8752	; 0x2230
  102b38:	e3400012 	movt	r0, #18
  102b3c:	eb005984 	bl	119154 <puts>
  102b40:	e51b3014 	ldr	r3, [fp, #-20]	; 0xffffffec
  102b44:	ea000018 	b	102bac <ad7606_serial_init+0x55c>
  102b48:	e320f000 	nop	{0}
  102b4c:	ea000010 	b	102b94 <ad7606_serial_init+0x544>
  102b50:	e320f000 	nop	{0}
  102b54:	ea00000e 	b	102b94 <ad7606_serial_init+0x544>
  102b58:	e320f000 	nop	{0}
  102b5c:	ea00000c 	b	102b94 <ad7606_serial_init+0x544>
  102b60:	e320f000 	nop	{0}
  102b64:	ea00000a 	b	102b94 <ad7606_serial_init+0x544>
  102b68:	e320f000 	nop	{0}
  102b6c:	ea000008 	b	102b94 <ad7606_serial_init+0x544>
  102b70:	e320f000 	nop	{0}
  102b74:	ea000006 	b	102b94 <ad7606_serial_init+0x544>
  102b78:	e320f000 	nop	{0}
  102b7c:	ea000004 	b	102b94 <ad7606_serial_init+0x544>
  102b80:	e320f000 	nop	{0}
  102b84:	ea000002 	b	102b94 <ad7606_serial_init+0x544>
  102b88:	e320f000 	nop	{0}
  102b8c:	ea000000 	b	102b94 <ad7606_serial_init+0x544>
  102b90:	e320f000 	nop	{0}
  102b94:	e3020250 	movw	r0, #8784	; 0x2250
  102b98:	e3400012 	movt	r0, #18
  102b9c:	eb00596c 	bl	119154 <puts>
  102ba0:	e51b0018 	ldr	r0, [fp, #-24]	; 0xffffffe8
  102ba4:	eb000064 	bl	102d3c <ad7606_remove>
  102ba8:	e51b3014 	ldr	r3, [fp, #-20]	; 0xffffffec
  102bac:	e1a00003 	mov	r0, r3
  102bb0:	e24bd008 	sub	sp, fp, #8
  102bb4:	e8bd8810 	pop	{r4, fp, pc}

00102bb8 <ad7606_parallel_init>:
  102bb8:	e92d4800 	push	{fp, lr}
  102bbc:	e28db004 	add	fp, sp, #4
  102bc0:	e24dd010 	sub	sp, sp, #16
  102bc4:	e50b0010 	str	r0, [fp, #-16]
  102bc8:	e50b1014 	str	r1, [fp, #-20]	; 0xffffffec
  102bcc:	e3020270 	movw	r0, #8816	; 0x2270
  102bd0:	e3400012 	movt	r0, #18
  102bd4:	eb00595e 	bl	119154 <puts>
  102bd8:	e3a010cc 	mov	r1, #204	; 0xcc
  102bdc:	e3a00001 	mov	r0, #1
  102be0:	eb00569c 	bl	118658 <calloc>
  102be4:	e1a03000 	mov	r3, r0
  102be8:	e50b3008 	str	r3, [fp, #-8]
  102bec:	e51b3008 	ldr	r3, [fp, #-8]
  102bf0:	e3530000 	cmp	r3, #0
  102bf4:	1a000001 	bne	102c00 <ad7606_parallel_init+0x48>
  102bf8:	e3e0300b 	mvn	r3, #11
  102bfc:	ea00004b 	b	102d30 <ad7606_parallel_init+0x178>
  102c00:	e51b3014 	ldr	r3, [fp, #-20]	; 0xffffffec
  102c04:	e5d32034 	ldrb	r2, [r3, #52]	; 0x34
  102c08:	e51b3008 	ldr	r3, [fp, #-8]
  102c0c:	e5c32028 	strb	r2, [r3, #40]	; 0x28
  102c10:	e51b3008 	ldr	r3, [fp, #-8]
  102c14:	e5d33028 	ldrb	r3, [r3, #40]	; 0x28
  102c18:	e1a01003 	mov	r1, r3
  102c1c:	e30220e4 	movw	r2, #8420	; 0x20e4
  102c20:	e3402012 	movt	r2, #18
  102c24:	e1a03001 	mov	r3, r1
  102c28:	e1a03083 	lsl	r3, r3, #1
  102c2c:	e0833001 	add	r3, r3, r1
  102c30:	e1a03183 	lsl	r3, r3, #3
  102c34:	e0823003 	add	r3, r2, r3
  102c38:	e5d32000 	ldrb	r2, [r3]
  102c3c:	e51b3008 	ldr	r3, [fp, #-8]
  102c40:	e5c32032 	strb	r2, [r3, #50]	; 0x32
  102c44:	e51b3008 	ldr	r3, [fp, #-8]
  102c48:	e5d33028 	ldrb	r3, [r3, #40]	; 0x28
  102c4c:	e1a01003 	mov	r1, r3
  102c50:	e30220e4 	movw	r2, #8420	; 0x20e4
  102c54:	e3402012 	movt	r2, #18
  102c58:	e1a03001 	mov	r3, r1
  102c5c:	e1a03083 	lsl	r3, r3, #1
  102c60:	e0833001 	add	r3, r3, r1
  102c64:	e1a03183 	lsl	r3, r3, #3
  102c68:	e0823003 	add	r3, r2, r3
  102c6c:	e2833002 	add	r3, r3, #2
  102c70:	e5d32000 	ldrb	r2, [r3]
  102c74:	e51b3008 	ldr	r3, [fp, #-8]
  102c78:	e5c3202c 	strb	r2, [r3, #44]	; 0x2c
  102c7c:	e51b3008 	ldr	r3, [fp, #-8]
  102c80:	e5d33028 	ldrb	r3, [r3, #40]	; 0x28
  102c84:	e1a01003 	mov	r1, r3
  102c88:	e30220e4 	movw	r2, #8420	; 0x20e4
  102c8c:	e3402012 	movt	r2, #18
  102c90:	e1a03001 	mov	r3, r1
  102c94:	e1a03083 	lsl	r3, r3, #1
  102c98:	e0833001 	add	r3, r3, r1
  102c9c:	e1a03183 	lsl	r3, r3, #3
  102ca0:	e0823003 	add	r3, r2, r3
  102ca4:	e2833004 	add	r3, r3, #4
  102ca8:	e5d33000 	ldrb	r3, [r3]
  102cac:	e3530000 	cmp	r3, #0
  102cb0:	0a000003 	beq	102cc4 <ad7606_parallel_init+0x10c>
  102cb4:	e51b3014 	ldr	r3, [fp, #-20]	; 0xffffffec
  102cb8:	e5d32036 	ldrb	r2, [r3, #54]	; 0x36
  102cbc:	e51b3008 	ldr	r3, [fp, #-8]
  102cc0:	e5c3202a 	strb	r2, [r3, #42]	; 0x2a
  102cc4:	e51b3014 	ldr	r3, [fp, #-20]	; 0xffffffec
  102cc8:	e59320b4 	ldr	r2, [r3, #180]	; 0xb4
  102ccc:	e51b3008 	ldr	r3, [fp, #-8]
  102cd0:	e58320c8 	str	r2, [r3, #200]	; 0xc8
  102cd4:	e51b0008 	ldr	r0, [fp, #-8]
  102cd8:	ebfffb16 	bl	101938 <ad7606_reset>
  102cdc:	e50b000c 	str	r0, [fp, #-12]
  102ce0:	e51b300c 	ldr	r3, [fp, #-12]
  102ce4:	e3530000 	cmp	r3, #0
  102ce8:	ba000009 	blt	102d14 <ad7606_parallel_init+0x15c>
  102cec:	e3a000fd 	mov	r0, #253	; 0xfd
  102cf0:	eb000081 	bl	102efc <udelay>
  102cf4:	e51b3010 	ldr	r3, [fp, #-16]
  102cf8:	e51b2008 	ldr	r2, [fp, #-8]
  102cfc:	e5832000 	str	r2, [r3]
  102d00:	e3020230 	movw	r0, #8752	; 0x2230
  102d04:	e3400012 	movt	r0, #18
  102d08:	eb005911 	bl	119154 <puts>
  102d0c:	e51b300c 	ldr	r3, [fp, #-12]
  102d10:	ea000006 	b	102d30 <ad7606_parallel_init+0x178>
  102d14:	e320f000 	nop	{0}
  102d18:	e3020250 	movw	r0, #8784	; 0x2250
  102d1c:	e3400012 	movt	r0, #18
  102d20:	eb00590b 	bl	119154 <puts>
  102d24:	e51b0008 	ldr	r0, [fp, #-8]
  102d28:	eb000003 	bl	102d3c <ad7606_remove>
  102d2c:	e51b300c 	ldr	r3, [fp, #-12]
  102d30:	e1a00003 	mov	r0, r3
  102d34:	e24bd004 	sub	sp, fp, #4
  102d38:	e8bd8800 	pop	{fp, pc}

00102d3c <ad7606_remove>:
  102d3c:	e92d4800 	push	{fp, lr}
  102d40:	e28db004 	add	fp, sp, #4
  102d44:	e24dd010 	sub	sp, sp, #16
  102d48:	e50b0010 	str	r0, [fp, #-16]
  102d4c:	e51b3010 	ldr	r3, [fp, #-16]
  102d50:	e5933004 	ldr	r3, [r3, #4]
  102d54:	e1a00003 	mov	r0, r3
  102d58:	eb000255 	bl	1036b4 <gpio_remove>
  102d5c:	e51b3010 	ldr	r3, [fp, #-16]
  102d60:	e5933008 	ldr	r3, [r3, #8]
  102d64:	e1a00003 	mov	r0, r3
  102d68:	eb000251 	bl	1036b4 <gpio_remove>
  102d6c:	e51b3010 	ldr	r3, [fp, #-16]
  102d70:	e593300c 	ldr	r3, [r3, #12]
  102d74:	e1a00003 	mov	r0, r3
  102d78:	eb00024d 	bl	1036b4 <gpio_remove>
  102d7c:	e51b3010 	ldr	r3, [fp, #-16]
  102d80:	e5933010 	ldr	r3, [r3, #16]
  102d84:	e1a00003 	mov	r0, r3
  102d88:	eb000249 	bl	1036b4 <gpio_remove>
  102d8c:	e51b3010 	ldr	r3, [fp, #-16]
  102d90:	e5933014 	ldr	r3, [r3, #20]
  102d94:	e1a00003 	mov	r0, r3
  102d98:	eb000245 	bl	1036b4 <gpio_remove>
  102d9c:	e51b3010 	ldr	r3, [fp, #-16]
  102da0:	e5933018 	ldr	r3, [r3, #24]
  102da4:	e1a00003 	mov	r0, r3
  102da8:	eb000241 	bl	1036b4 <gpio_remove>
  102dac:	e51b3010 	ldr	r3, [fp, #-16]
  102db0:	e593301c 	ldr	r3, [r3, #28]
  102db4:	e1a00003 	mov	r0, r3
  102db8:	eb00023d 	bl	1036b4 <gpio_remove>
  102dbc:	e51b3010 	ldr	r3, [fp, #-16]
  102dc0:	e5933020 	ldr	r3, [r3, #32]
  102dc4:	e1a00003 	mov	r0, r3
  102dc8:	eb000239 	bl	1036b4 <gpio_remove>
  102dcc:	e51b3010 	ldr	r3, [fp, #-16]
  102dd0:	e5933024 	ldr	r3, [r3, #36]	; 0x24
  102dd4:	e1a00003 	mov	r0, r3
  102dd8:	eb000235 	bl	1036b4 <gpio_remove>
  102ddc:	e51b3010 	ldr	r3, [fp, #-16]
  102de0:	e5933000 	ldr	r3, [r3]
  102de4:	e1a00003 	mov	r0, r3
  102de8:	eb000024 	bl	102e80 <spi_remove>
  102dec:	e50b0008 	str	r0, [fp, #-8]
  102df0:	e51b0010 	ldr	r0, [fp, #-16]
  102df4:	eb00564d 	bl	118730 <free>
  102df8:	e51b3008 	ldr	r3, [fp, #-8]
  102dfc:	e1a00003 	mov	r0, r3
  102e00:	e24bd004 	sub	sp, fp, #4
  102e04:	e8bd8800 	pop	{fp, pc}

00102e08 <spi_init>:
  102e08:	e92d4800 	push	{fp, lr}
  102e0c:	e28db004 	add	fp, sp, #4
  102e10:	e24dd008 	sub	sp, sp, #8
  102e14:	e50b0008 	str	r0, [fp, #-8]
  102e18:	e50b100c 	str	r1, [fp, #-12]
  102e1c:	e51b300c 	ldr	r3, [fp, #-12]
  102e20:	e3530000 	cmp	r3, #0
  102e24:	1a000001 	bne	102e30 <spi_init+0x28>
  102e28:	e3e03000 	mvn	r3, #0
  102e2c:	ea000010 	b	102e74 <spi_init+0x6c>
  102e30:	e51b300c 	ldr	r3, [fp, #-12]
  102e34:	e5933008 	ldr	r3, [r3, #8]
  102e38:	e5933000 	ldr	r3, [r3]
  102e3c:	e51b100c 	ldr	r1, [fp, #-12]
  102e40:	e51b0008 	ldr	r0, [fp, #-8]
  102e44:	e12fff33 	blx	r3
  102e48:	e1a03000 	mov	r3, r0
  102e4c:	e3530000 	cmp	r3, #0
  102e50:	0a000001 	beq	102e5c <spi_init+0x54>
  102e54:	e3e03000 	mvn	r3, #0
  102e58:	ea000005 	b	102e74 <spi_init+0x6c>
  102e5c:	e51b3008 	ldr	r3, [fp, #-8]
  102e60:	e5933000 	ldr	r3, [r3]
  102e64:	e51b200c 	ldr	r2, [fp, #-12]
  102e68:	e5922008 	ldr	r2, [r2, #8]
  102e6c:	e5832008 	str	r2, [r3, #8]
  102e70:	e3a03000 	mov	r3, #0
  102e74:	e1a00003 	mov	r0, r3
  102e78:	e24bd004 	sub	sp, fp, #4
  102e7c:	e8bd8800 	pop	{fp, pc}

00102e80 <spi_remove>:
  102e80:	e92d4800 	push	{fp, lr}
  102e84:	e28db004 	add	fp, sp, #4
  102e88:	e24dd008 	sub	sp, sp, #8
  102e8c:	e50b0008 	str	r0, [fp, #-8]
  102e90:	e51b3008 	ldr	r3, [fp, #-8]
  102e94:	e5933008 	ldr	r3, [r3, #8]
  102e98:	e5933008 	ldr	r3, [r3, #8]
  102e9c:	e51b0008 	ldr	r0, [fp, #-8]
  102ea0:	e12fff33 	blx	r3
  102ea4:	e1a03000 	mov	r3, r0
  102ea8:	e1a00003 	mov	r0, r3
  102eac:	e24bd004 	sub	sp, fp, #4
  102eb0:	e8bd8800 	pop	{fp, pc}

00102eb4 <spi_write_and_read>:
  102eb4:	e92d4800 	push	{fp, lr}
  102eb8:	e28db004 	add	fp, sp, #4
  102ebc:	e24dd010 	sub	sp, sp, #16
  102ec0:	e50b0008 	str	r0, [fp, #-8]
  102ec4:	e50b100c 	str	r1, [fp, #-12]
  102ec8:	e1a03002 	mov	r3, r2
  102ecc:	e14b30be 	strh	r3, [fp, #-14]
  102ed0:	e51b3008 	ldr	r3, [fp, #-8]
  102ed4:	e5933008 	ldr	r3, [r3, #8]
  102ed8:	e5933004 	ldr	r3, [r3, #4]
  102edc:	e15b20be 	ldrh	r2, [fp, #-14]
  102ee0:	e51b100c 	ldr	r1, [fp, #-12]
  102ee4:	e51b0008 	ldr	r0, [fp, #-8]
  102ee8:	e12fff33 	blx	r3
  102eec:	e1a03000 	mov	r3, r0
  102ef0:	e1a00003 	mov	r0, r3
  102ef4:	e24bd004 	sub	sp, fp, #4
  102ef8:	e8bd8800 	pop	{fp, pc}

00102efc <udelay>:
  102efc:	e92d4800 	push	{fp, lr}
  102f00:	e28db004 	add	fp, sp, #4
  102f04:	e24dd010 	sub	sp, sp, #16
  102f08:	e50b0010 	str	r0, [fp, #-16]
  102f0c:	e3a00003 	mov	r0, #3
  102f10:	eb0046f0 	bl	114ad8 <alt_gpt_counter_get>
  102f14:	e50b0008 	str	r0, [fp, #-8]
  102f18:	e51b3010 	ldr	r3, [fp, #-16]
  102f1c:	e3a02ffa 	mov	r2, #1000	; 0x3e8
  102f20:	e0030392 	mul	r3, r2, r3
  102f24:	e1a02003 	mov	r2, r3
  102f28:	e51b1008 	ldr	r1, [fp, #-8]
  102f2c:	e3a00003 	mov	r0, #3
  102f30:	eb0047f8 	bl	114f18 <alt_gpt_delay_ns>
  102f34:	e320f000 	nop	{0}
  102f38:	e24bd004 	sub	sp, fp, #4
  102f3c:	e8bd8800 	pop	{fp, pc}

00102f40 <mdelay>:
  102f40:	e92d4800 	push	{fp, lr}
  102f44:	e28db004 	add	fp, sp, #4
  102f48:	e24dd010 	sub	sp, sp, #16
  102f4c:	e50b0010 	str	r0, [fp, #-16]
  102f50:	e3a00003 	mov	r0, #3
  102f54:	eb0046df 	bl	114ad8 <alt_gpt_counter_get>
  102f58:	e50b0008 	str	r0, [fp, #-8]
  102f5c:	e51b2010 	ldr	r2, [fp, #-16]
  102f60:	e3043240 	movw	r3, #16960	; 0x4240
  102f64:	e340300f 	movt	r3, #15
  102f68:	e0030293 	mul	r3, r3, r2
  102f6c:	e1a02003 	mov	r2, r3
  102f70:	e51b1008 	ldr	r1, [fp, #-8]
  102f74:	e3a00003 	mov	r0, #3
  102f78:	eb0047e6 	bl	114f18 <alt_gpt_delay_ns>
  102f7c:	e320f000 	nop	{0}
  102f80:	e24bd004 	sub	sp, fp, #4
  102f84:	e8bd8800 	pop	{fp, pc}

00102f88 <find_first_set_bit>:
  102f88:	e52db004 	push	{fp}		; (str fp, [sp, #-4]!)
  102f8c:	e28db000 	add	fp, sp, #0
  102f90:	e24dd014 	sub	sp, sp, #20
  102f94:	e50b0010 	str	r0, [fp, #-16]
  102f98:	e3a03000 	mov	r3, #0
  102f9c:	e50b3008 	str	r3, [fp, #-8]
  102fa0:	ea00000b 	b	102fd4 <find_first_set_bit+0x4c>
  102fa4:	e51b3010 	ldr	r3, [fp, #-16]
  102fa8:	e2033001 	and	r3, r3, #1
  102fac:	e3530000 	cmp	r3, #0
  102fb0:	0a000001 	beq	102fbc <find_first_set_bit+0x34>
  102fb4:	e51b3008 	ldr	r3, [fp, #-8]
  102fb8:	ea000009 	b	102fe4 <find_first_set_bit+0x5c>
  102fbc:	e51b3010 	ldr	r3, [fp, #-16]
  102fc0:	e1a030a3 	lsr	r3, r3, #1
  102fc4:	e50b3010 	str	r3, [fp, #-16]
  102fc8:	e51b3008 	ldr	r3, [fp, #-8]
  102fcc:	e2833001 	add	r3, r3, #1
  102fd0:	e50b3008 	str	r3, [fp, #-8]
  102fd4:	e51b3010 	ldr	r3, [fp, #-16]
  102fd8:	e3530000 	cmp	r3, #0
  102fdc:	1afffff0 	bne	102fa4 <find_first_set_bit+0x1c>
  102fe0:	e3a03020 	mov	r3, #32
  102fe4:	e1a00003 	mov	r0, r3
  102fe8:	e24bd000 	sub	sp, fp, #0
  102fec:	e49db004 	pop	{fp}		; (ldr fp, [sp], #4)
  102ff0:	e12fff1e 	bx	lr

00102ff4 <find_last_set_bit>:
  102ff4:	e52db004 	push	{fp}		; (str fp, [sp, #-4]!)
  102ff8:	e28db000 	add	fp, sp, #0
  102ffc:	e24dd014 	sub	sp, sp, #20
  103000:	e50b0010 	str	r0, [fp, #-16]
  103004:	e3a03000 	mov	r3, #0
  103008:	e50b3008 	str	r3, [fp, #-8]
  10300c:	e3a03020 	mov	r3, #32
  103010:	e50b300c 	str	r3, [fp, #-12]
  103014:	ea00000b 	b	103048 <find_last_set_bit+0x54>
  103018:	e51b3010 	ldr	r3, [fp, #-16]
  10301c:	e2033001 	and	r3, r3, #1
  103020:	e3530000 	cmp	r3, #0
  103024:	0a000001 	beq	103030 <find_last_set_bit+0x3c>
  103028:	e51b3008 	ldr	r3, [fp, #-8]
  10302c:	e50b300c 	str	r3, [fp, #-12]
  103030:	e51b3010 	ldr	r3, [fp, #-16]
  103034:	e1a030a3 	lsr	r3, r3, #1
  103038:	e50b3010 	str	r3, [fp, #-16]
  10303c:	e51b3008 	ldr	r3, [fp, #-8]
  103040:	e2833001 	add	r3, r3, #1
  103044:	e50b3008 	str	r3, [fp, #-8]
  103048:	e51b3010 	ldr	r3, [fp, #-16]
  10304c:	e3530000 	cmp	r3, #0
  103050:	1afffff0 	bne	103018 <find_last_set_bit+0x24>
  103054:	e51b300c 	ldr	r3, [fp, #-12]
  103058:	e1a00003 	mov	r0, r3
  10305c:	e24bd000 	sub	sp, fp, #0
  103060:	e49db004 	pop	{fp}		; (ldr fp, [sp], #4)
  103064:	e12fff1e 	bx	lr

00103068 <find_closest>:
  103068:	e52db004 	push	{fp}		; (str fp, [sp, #-4]!)
  10306c:	e28db000 	add	fp, sp, #0
  103070:	e24dd024 	sub	sp, sp, #36	; 0x24
  103074:	e50b0018 	str	r0, [fp, #-24]	; 0xffffffe8
  103078:	e50b101c 	str	r1, [fp, #-28]	; 0xffffffe4
  10307c:	e50b2020 	str	r2, [fp, #-32]	; 0xffffffe0
  103080:	e51b301c 	ldr	r3, [fp, #-28]	; 0xffffffe4
  103084:	e5932000 	ldr	r2, [r3]
  103088:	e51b3018 	ldr	r3, [fp, #-24]	; 0xffffffe8
  10308c:	e0423003 	sub	r3, r2, r3
  103090:	e3530000 	cmp	r3, #0
  103094:	b2633000 	rsblt	r3, r3, #0
  103098:	e50b3008 	str	r3, [fp, #-8]
  10309c:	e3a03000 	mov	r3, #0
  1030a0:	e50b300c 	str	r3, [fp, #-12]
  1030a4:	e3a03001 	mov	r3, #1
  1030a8:	e50b3010 	str	r3, [fp, #-16]
  1030ac:	ea00001a 	b	10311c <find_closest+0xb4>
  1030b0:	e51b3010 	ldr	r3, [fp, #-16]
  1030b4:	e1a03103 	lsl	r3, r3, #2
  1030b8:	e51b201c 	ldr	r2, [fp, #-28]	; 0xffffffe4
  1030bc:	e0823003 	add	r3, r2, r3
  1030c0:	e5932000 	ldr	r2, [r3]
  1030c4:	e51b3018 	ldr	r3, [fp, #-24]	; 0xffffffe8
  1030c8:	e0423003 	sub	r3, r2, r3
  1030cc:	e0232fc3 	eor	r2, r3, r3, asr #31
  1030d0:	e0422fc3 	sub	r2, r2, r3, asr #31
  1030d4:	e51b3008 	ldr	r3, [fp, #-8]
  1030d8:	e1520003 	cmp	r2, r3
  1030dc:	aa00000b 	bge	103110 <find_closest+0xa8>
  1030e0:	e51b3010 	ldr	r3, [fp, #-16]
  1030e4:	e1a03103 	lsl	r3, r3, #2
  1030e8:	e51b201c 	ldr	r2, [fp, #-28]	; 0xffffffe4
  1030ec:	e0823003 	add	r3, r2, r3
  1030f0:	e5932000 	ldr	r2, [r3]
  1030f4:	e51b3018 	ldr	r3, [fp, #-24]	; 0xffffffe8
  1030f8:	e0423003 	sub	r3, r2, r3
  1030fc:	e3530000 	cmp	r3, #0
  103100:	b2633000 	rsblt	r3, r3, #0
  103104:	e50b3008 	str	r3, [fp, #-8]
  103108:	e51b3010 	ldr	r3, [fp, #-16]
  10310c:	e50b300c 	str	r3, [fp, #-12]
  103110:	e51b3010 	ldr	r3, [fp, #-16]
  103114:	e2833001 	add	r3, r3, #1
  103118:	e50b3010 	str	r3, [fp, #-16]
  10311c:	e51b2010 	ldr	r2, [fp, #-16]
  103120:	e51b3020 	ldr	r3, [fp, #-32]	; 0xffffffe0
  103124:	e1520003 	cmp	r2, r3
  103128:	3affffe0 	bcc	1030b0 <find_closest+0x48>
  10312c:	e51b300c 	ldr	r3, [fp, #-12]
  103130:	e1a00003 	mov	r0, r3
  103134:	e24bd000 	sub	sp, fp, #0
  103138:	e49db004 	pop	{fp}		; (ldr fp, [sp], #4)
  10313c:	e12fff1e 	bx	lr

00103140 <field_prep>:
  103140:	e92d4800 	push	{fp, lr}
  103144:	e28db004 	add	fp, sp, #4
  103148:	e24dd008 	sub	sp, sp, #8
  10314c:	e50b0008 	str	r0, [fp, #-8]
  103150:	e50b100c 	str	r1, [fp, #-12]
  103154:	e51b0008 	ldr	r0, [fp, #-8]
  103158:	ebffff8a 	bl	102f88 <find_first_set_bit>
  10315c:	e1a02000 	mov	r2, r0
  103160:	e51b300c 	ldr	r3, [fp, #-12]
  103164:	e1a02213 	lsl	r2, r3, r2
  103168:	e51b3008 	ldr	r3, [fp, #-8]
  10316c:	e0033002 	and	r3, r3, r2
  103170:	e1a00003 	mov	r0, r3
  103174:	e24bd004 	sub	sp, fp, #4
  103178:	e8bd8800 	pop	{fp, pc}

0010317c <field_get>:
  10317c:	e92d4810 	push	{r4, fp, lr}
  103180:	e28db008 	add	fp, sp, #8
  103184:	e24dd00c 	sub	sp, sp, #12
  103188:	e50b0010 	str	r0, [fp, #-16]
  10318c:	e50b1014 	str	r1, [fp, #-20]	; 0xffffffec
  103190:	e51b2014 	ldr	r2, [fp, #-20]	; 0xffffffec
  103194:	e51b3010 	ldr	r3, [fp, #-16]
  103198:	e0024003 	and	r4, r2, r3
  10319c:	e51b0010 	ldr	r0, [fp, #-16]
  1031a0:	ebffff78 	bl	102f88 <find_first_set_bit>
  1031a4:	e1a03000 	mov	r3, r0
  1031a8:	e1a03334 	lsr	r3, r4, r3
  1031ac:	e1a00003 	mov	r0, r3
  1031b0:	e24bd008 	sub	sp, fp, #8
  1031b4:	e8bd8810 	pop	{r4, fp, pc}

001031b8 <log_base_2>:
  1031b8:	e92d4800 	push	{fp, lr}
  1031bc:	e28db004 	add	fp, sp, #4
  1031c0:	e24dd008 	sub	sp, sp, #8
  1031c4:	e50b0008 	str	r0, [fp, #-8]
  1031c8:	e51b0008 	ldr	r0, [fp, #-8]
  1031cc:	ebffff88 	bl	102ff4 <find_last_set_bit>
  1031d0:	e1a03000 	mov	r3, r0
  1031d4:	e1a00003 	mov	r0, r3
  1031d8:	e24bd004 	sub	sp, fp, #4
  1031dc:	e8bd8800 	pop	{fp, pc}

001031e0 <greatest_common_divisor>:
  1031e0:	e92d4800 	push	{fp, lr}
  1031e4:	e28db004 	add	fp, sp, #4
  1031e8:	e24dd010 	sub	sp, sp, #16
  1031ec:	e50b0010 	str	r0, [fp, #-16]
  1031f0:	e50b1014 	str	r1, [fp, #-20]	; 0xffffffec
  1031f4:	e3a03001 	mov	r3, #1
  1031f8:	e50b300c 	str	r3, [fp, #-12]
  1031fc:	e51b3010 	ldr	r3, [fp, #-16]
  103200:	e3530000 	cmp	r3, #0
  103204:	0a000002 	beq	103214 <greatest_common_divisor+0x34>
  103208:	e51b3014 	ldr	r3, [fp, #-20]	; 0xffffffec
  10320c:	e3530000 	cmp	r3, #0
  103210:	1a000005 	bne	10322c <greatest_common_divisor+0x4c>
  103214:	e51b2014 	ldr	r2, [fp, #-20]	; 0xffffffec
  103218:	e51b3010 	ldr	r3, [fp, #-16]
  10321c:	e1520003 	cmp	r2, r3
  103220:	21a03002 	movcs	r3, r2
  103224:	31a03003 	movcc	r3, r3
  103228:	ea00001e 	b	1032a8 <greatest_common_divisor+0xc8>
  10322c:	e3a03001 	mov	r3, #1
  103230:	e50b3008 	str	r3, [fp, #-8]
  103234:	ea000012 	b	103284 <greatest_common_divisor+0xa4>
  103238:	e51b3010 	ldr	r3, [fp, #-16]
  10323c:	e51b1008 	ldr	r1, [fp, #-8]
  103240:	e1a00003 	mov	r0, r3
  103244:	eb0054a5 	bl	1184e0 <__aeabi_uidivmod>
  103248:	e1a03001 	mov	r3, r1
  10324c:	e3530000 	cmp	r3, #0
  103250:	1a000008 	bne	103278 <greatest_common_divisor+0x98>
  103254:	e51b3014 	ldr	r3, [fp, #-20]	; 0xffffffec
  103258:	e51b1008 	ldr	r1, [fp, #-8]
  10325c:	e1a00003 	mov	r0, r3
  103260:	eb00549e 	bl	1184e0 <__aeabi_uidivmod>
  103264:	e1a03001 	mov	r3, r1
  103268:	e3530000 	cmp	r3, #0
  10326c:	1a000001 	bne	103278 <greatest_common_divisor+0x98>
  103270:	e51b3008 	ldr	r3, [fp, #-8]
  103274:	e50b300c 	str	r3, [fp, #-12]
  103278:	e51b3008 	ldr	r3, [fp, #-8]
  10327c:	e2833001 	add	r3, r3, #1
  103280:	e50b3008 	str	r3, [fp, #-8]
  103284:	e51b2008 	ldr	r2, [fp, #-8]
  103288:	e51b3010 	ldr	r3, [fp, #-16]
  10328c:	e1520003 	cmp	r2, r3
  103290:	8a000003 	bhi	1032a4 <greatest_common_divisor+0xc4>
  103294:	e51b2008 	ldr	r2, [fp, #-8]
  103298:	e51b3014 	ldr	r3, [fp, #-20]	; 0xffffffec
  10329c:	e1520003 	cmp	r2, r3
  1032a0:	9affffe4 	bls	103238 <greatest_common_divisor+0x58>
  1032a4:	e51b300c 	ldr	r3, [fp, #-12]
  1032a8:	e1a00003 	mov	r0, r3
  1032ac:	e24bd004 	sub	sp, fp, #4
  1032b0:	e8bd8800 	pop	{fp, pc}

001032b4 <rational_best_approximation>:
  1032b4:	e92d4800 	push	{fp, lr}
  1032b8:	e28db004 	add	fp, sp, #4
  1032bc:	e24dd018 	sub	sp, sp, #24
  1032c0:	e50b0010 	str	r0, [fp, #-16]
  1032c4:	e50b1014 	str	r1, [fp, #-20]	; 0xffffffec
  1032c8:	e50b2018 	str	r2, [fp, #-24]	; 0xffffffe8
  1032cc:	e50b301c 	str	r3, [fp, #-28]	; 0xffffffe4
  1032d0:	e51b1014 	ldr	r1, [fp, #-20]	; 0xffffffec
  1032d4:	e51b0010 	ldr	r0, [fp, #-16]
  1032d8:	ebffffc0 	bl	1031e0 <greatest_common_divisor>
  1032dc:	e50b0008 	str	r0, [fp, #-8]
  1032e0:	e51b1008 	ldr	r1, [fp, #-8]
  1032e4:	e51b0010 	ldr	r0, [fp, #-16]
  1032e8:	eb005401 	bl	1182f4 <__aeabi_uidiv>
  1032ec:	e1a03000 	mov	r3, r0
  1032f0:	e1a02003 	mov	r2, r3
  1032f4:	e59b3004 	ldr	r3, [fp, #4]
  1032f8:	e5832000 	str	r2, [r3]
  1032fc:	e51b1008 	ldr	r1, [fp, #-8]
  103300:	e51b0014 	ldr	r0, [fp, #-20]	; 0xffffffec
  103304:	eb0053fa 	bl	1182f4 <__aeabi_uidiv>
  103308:	e1a03000 	mov	r3, r0
  10330c:	e1a02003 	mov	r2, r3
  103310:	e59b3008 	ldr	r3, [fp, #8]
  103314:	e5832000 	str	r2, [r3]
  103318:	e59b3004 	ldr	r3, [fp, #4]
  10331c:	e5932000 	ldr	r2, [r3]
  103320:	e51b3018 	ldr	r3, [fp, #-24]	; 0xffffffe8
  103324:	e1520003 	cmp	r2, r3
  103328:	8a000004 	bhi	103340 <rational_best_approximation+0x8c>
  10332c:	e59b3008 	ldr	r3, [fp, #8]
  103330:	e5932000 	ldr	r2, [r3]
  103334:	e51b301c 	ldr	r3, [fp, #-28]	; 0xffffffe4
  103338:	e1520003 	cmp	r2, r3
  10333c:	9a000005 	bls	103358 <rational_best_approximation+0xa4>
  103340:	e59b3004 	ldr	r3, [fp, #4]
  103344:	e3a02000 	mov	r2, #0
  103348:	e5832000 	str	r2, [r3]
  10334c:	e59b3008 	ldr	r3, [fp, #8]
  103350:	e3a02000 	mov	r2, #0
  103354:	e5832000 	str	r2, [r3]
  103358:	e320f000 	nop	{0}
  10335c:	e24bd004 	sub	sp, fp, #4
  103360:	e8bd8800 	pop	{fp, pc}

00103364 <hweight8>:
  103364:	e52db004 	push	{fp}		; (str fp, [sp, #-4]!)
  103368:	e28db000 	add	fp, sp, #0
  10336c:	e24dd014 	sub	sp, sp, #20
  103370:	e50b0010 	str	r0, [fp, #-16]
  103374:	e3a03000 	mov	r3, #0
  103378:	e50b3008 	str	r3, [fp, #-8]
  10337c:	ea000009 	b	1033a8 <hweight8+0x44>
  103380:	e51b3010 	ldr	r3, [fp, #-16]
  103384:	e2033001 	and	r3, r3, #1
  103388:	e3530000 	cmp	r3, #0
  10338c:	0a000002 	beq	10339c <hweight8+0x38>
  103390:	e51b3008 	ldr	r3, [fp, #-8]
  103394:	e2833001 	add	r3, r3, #1
  103398:	e50b3008 	str	r3, [fp, #-8]
  10339c:	e51b3010 	ldr	r3, [fp, #-16]
  1033a0:	e1a030a3 	lsr	r3, r3, #1
  1033a4:	e50b3010 	str	r3, [fp, #-16]
  1033a8:	e51b3010 	ldr	r3, [fp, #-16]
  1033ac:	e3530000 	cmp	r3, #0
  1033b0:	1afffff2 	bne	103380 <hweight8+0x1c>
  1033b4:	e51b3008 	ldr	r3, [fp, #-8]
  1033b8:	e1a00003 	mov	r0, r3
  1033bc:	e24bd000 	sub	sp, fp, #0
  1033c0:	e49db004 	pop	{fp}		; (ldr fp, [sp], #4)
  1033c4:	e12fff1e 	bx	lr

001033c8 <do_div>:
  1033c8:	e92d4800 	push	{fp, lr}
  1033cc:	e28db004 	add	fp, sp, #4
  1033d0:	e24dd018 	sub	sp, sp, #24
  1033d4:	e50b0010 	str	r0, [fp, #-16]
  1033d8:	e14b21fc 	strd	r2, [fp, #-28]	; 0xffffffe4
  1033dc:	f2c00010 	vmov.i32	d16, #0	; 0x00000000
  1033e0:	ed4b0b03 	vstr	d16, [fp, #-12]
  1033e4:	e51b3010 	ldr	r3, [fp, #-16]
  1033e8:	e1c300d0 	ldrd	r0, [r3]
  1033ec:	e14b21dc 	ldrd	r2, [fp, #-28]	; 0xffffffe4
  1033f0:	eb005443 	bl	118504 <__aeabi_uldivmod>
  1033f4:	e14b20fc 	strd	r2, [fp, #-12]
  1033f8:	e51b3010 	ldr	r3, [fp, #-16]
  1033fc:	e1c300d0 	ldrd	r0, [r3]
  103400:	e14b21dc 	ldrd	r2, [fp, #-28]	; 0xffffffe4
  103404:	eb00543e 	bl	118504 <__aeabi_uldivmod>
  103408:	e1a02000 	mov	r2, r0
  10340c:	e1a03001 	mov	r3, r1
  103410:	e51b1010 	ldr	r1, [fp, #-16]
  103414:	e1c120f0 	strd	r2, [r1]
  103418:	e14b20dc 	ldrd	r2, [fp, #-12]
  10341c:	e1a00002 	mov	r0, r2
  103420:	e1a01003 	mov	r1, r3
  103424:	e24bd004 	sub	sp, fp, #4
  103428:	e8bd8800 	pop	{fp, pc}

0010342c <div64_u64_rem>:
  10342c:	e92d4800 	push	{fp, lr}
  103430:	e28db004 	add	fp, sp, #4
  103434:	e24dd010 	sub	sp, sp, #16
  103438:	e14b00fc 	strd	r0, [fp, #-12]
  10343c:	e14b21f4 	strd	r2, [fp, #-20]	; 0xffffffec
  103440:	e14b00dc 	ldrd	r0, [fp, #-12]
  103444:	e14b21d4 	ldrd	r2, [fp, #-20]	; 0xffffffec
  103448:	eb00542d 	bl	118504 <__aeabi_uldivmod>
  10344c:	e59b1004 	ldr	r1, [fp, #4]
  103450:	e1c120f0 	strd	r2, [r1]
  103454:	e14b21d4 	ldrd	r2, [fp, #-20]	; 0xffffffec
  103458:	e14b00dc 	ldrd	r0, [fp, #-12]
  10345c:	eb005428 	bl	118504 <__aeabi_uldivmod>
  103460:	e1a02000 	mov	r2, r0
  103464:	e1a03001 	mov	r3, r1
  103468:	e1a00002 	mov	r0, r2
  10346c:	e1a01003 	mov	r1, r3
  103470:	e24bd004 	sub	sp, fp, #4
  103474:	e8bd8800 	pop	{fp, pc}

00103478 <div_u64_rem>:
  103478:	e92d4800 	push	{fp, lr}
  10347c:	e28db004 	add	fp, sp, #4
  103480:	e24dd010 	sub	sp, sp, #16
  103484:	e14b00fc 	strd	r0, [fp, #-12]
  103488:	e50b2010 	str	r2, [fp, #-16]
  10348c:	e50b3014 	str	r3, [fp, #-20]	; 0xffffffec
  103490:	e51b3010 	ldr	r3, [fp, #-16]
  103494:	e1a02003 	mov	r2, r3
  103498:	e3a03000 	mov	r3, #0
  10349c:	e24b100c 	sub	r1, fp, #12
  1034a0:	e1a00001 	mov	r0, r1
  1034a4:	ebffffc7 	bl	1033c8 <do_div>
  1034a8:	e1a02000 	mov	r2, r0
  1034ac:	e1a03001 	mov	r3, r1
  1034b0:	e51b3014 	ldr	r3, [fp, #-20]	; 0xffffffec
  1034b4:	e5832000 	str	r2, [r3]
  1034b8:	e14b20dc 	ldrd	r2, [fp, #-12]
  1034bc:	e1a00002 	mov	r0, r2
  1034c0:	e1a01003 	mov	r1, r3
  1034c4:	e24bd004 	sub	sp, fp, #4
  1034c8:	e8bd8800 	pop	{fp, pc}

001034cc <div_u64>:
  1034cc:	e92d4800 	push	{fp, lr}
  1034d0:	e28db004 	add	fp, sp, #4
  1034d4:	e24dd018 	sub	sp, sp, #24
  1034d8:	e14b01f4 	strd	r0, [fp, #-20]	; 0xffffffec
  1034dc:	e50b2018 	str	r2, [fp, #-24]	; 0xffffffe8
  1034e0:	e24b3008 	sub	r3, fp, #8
  1034e4:	e51b2018 	ldr	r2, [fp, #-24]	; 0xffffffe8
  1034e8:	e14b01d4 	ldrd	r0, [fp, #-20]	; 0xffffffec
  1034ec:	ebffffe1 	bl	103478 <div_u64_rem>
  1034f0:	e1a02000 	mov	r2, r0
  1034f4:	e1a03001 	mov	r3, r1
  1034f8:	e1a00002 	mov	r0, r2
  1034fc:	e1a01003 	mov	r1, r3
  103500:	e24bd004 	sub	sp, fp, #4
  103504:	e8bd8800 	pop	{fp, pc}

00103508 <str_to_int32>:
  103508:	e92d4800 	push	{fp, lr}
  10350c:	e28db004 	add	fp, sp, #4
  103510:	e24dd010 	sub	sp, sp, #16
  103514:	e50b0010 	str	r0, [fp, #-16]
  103518:	e24b300c 	sub	r3, fp, #12
  10351c:	e3a02000 	mov	r2, #0
  103520:	e1a01003 	mov	r1, r3
  103524:	e51b0010 	ldr	r0, [fp, #-16]
  103528:	eb005804 	bl	119540 <strtol>
  10352c:	e50b0008 	str	r0, [fp, #-8]
  103530:	e51b200c 	ldr	r2, [fp, #-12]
  103534:	e51b3010 	ldr	r3, [fp, #-16]
  103538:	e1520003 	cmp	r2, r3
  10353c:	1a000001 	bne	103548 <str_to_int32+0x40>
  103540:	e3e03015 	mvn	r3, #21
  103544:	ea000000 	b	10354c <str_to_int32+0x44>
  103548:	e51b3008 	ldr	r3, [fp, #-8]
  10354c:	e1a00003 	mov	r0, r3
  103550:	e24bd004 	sub	sp, fp, #4
  103554:	e8bd8800 	pop	{fp, pc}

00103558 <srt_to_uint32>:
  103558:	e92d4800 	push	{fp, lr}
  10355c:	e28db004 	add	fp, sp, #4
  103560:	e24dd010 	sub	sp, sp, #16
  103564:	e50b0010 	str	r0, [fp, #-16]
  103568:	e24b300c 	sub	r3, fp, #12
  10356c:	e3a02000 	mov	r2, #0
  103570:	e1a01003 	mov	r1, r3
  103574:	e51b0010 	ldr	r0, [fp, #-16]
  103578:	eb00589e 	bl	1197f8 <strtoul>
  10357c:	e50b0008 	str	r0, [fp, #-8]
  103580:	e51b200c 	ldr	r2, [fp, #-12]
  103584:	e51b3010 	ldr	r3, [fp, #-16]
  103588:	e1520003 	cmp	r2, r3
  10358c:	1a000001 	bne	103598 <srt_to_uint32+0x40>
  103590:	e3e03015 	mvn	r3, #21
  103594:	ea000000 	b	10359c <srt_to_uint32+0x44>
  103598:	e51b3008 	ldr	r3, [fp, #-8]
  10359c:	e1a00003 	mov	r0, r3
  1035a0:	e24bd004 	sub	sp, fp, #4
  1035a4:	e8bd8800 	pop	{fp, pc}

001035a8 <gpio_get>:
  1035a8:	e92d4800 	push	{fp, lr}
  1035ac:	e28db004 	add	fp, sp, #4
  1035b0:	e24dd008 	sub	sp, sp, #8
  1035b4:	e50b0008 	str	r0, [fp, #-8]
  1035b8:	e50b100c 	str	r1, [fp, #-12]
  1035bc:	e51b300c 	ldr	r3, [fp, #-12]
  1035c0:	e3530000 	cmp	r3, #0
  1035c4:	1a000001 	bne	1035d0 <gpio_get+0x28>
  1035c8:	e3e03000 	mvn	r3, #0
  1035cc:	ea000010 	b	103614 <gpio_get+0x6c>
  1035d0:	e51b300c 	ldr	r3, [fp, #-12]
  1035d4:	e5933004 	ldr	r3, [r3, #4]
  1035d8:	e5933000 	ldr	r3, [r3]
  1035dc:	e51b100c 	ldr	r1, [fp, #-12]
  1035e0:	e51b0008 	ldr	r0, [fp, #-8]
  1035e4:	e12fff33 	blx	r3
  1035e8:	e1a03000 	mov	r3, r0
  1035ec:	e3530000 	cmp	r3, #0
  1035f0:	0a000001 	beq	1035fc <gpio_get+0x54>
  1035f4:	e3e03000 	mvn	r3, #0
  1035f8:	ea000005 	b	103614 <gpio_get+0x6c>
  1035fc:	e51b3008 	ldr	r3, [fp, #-8]
  103600:	e5933000 	ldr	r3, [r3]
  103604:	e51b200c 	ldr	r2, [fp, #-12]
  103608:	e5922004 	ldr	r2, [r2, #4]
  10360c:	e5832004 	str	r2, [r3, #4]
  103610:	e3a03000 	mov	r3, #0
  103614:	e1a00003 	mov	r0, r3
  103618:	e24bd004 	sub	sp, fp, #4
  10361c:	e8bd8800 	pop	{fp, pc}

00103620 <gpio_get_optional>:
  103620:	e92d4800 	push	{fp, lr}
  103624:	e28db004 	add	fp, sp, #4
  103628:	e24dd008 	sub	sp, sp, #8
  10362c:	e50b0008 	str	r0, [fp, #-8]
  103630:	e50b100c 	str	r1, [fp, #-12]
  103634:	e51b300c 	ldr	r3, [fp, #-12]
  103638:	e3530000 	cmp	r3, #0
  10363c:	0a000003 	beq	103650 <gpio_get_optional+0x30>
  103640:	e51b300c 	ldr	r3, [fp, #-12]
  103644:	e5933000 	ldr	r3, [r3]
  103648:	e3730001 	cmn	r3, #1
  10364c:	1a000004 	bne	103664 <gpio_get_optional+0x44>
  103650:	e51b3008 	ldr	r3, [fp, #-8]
  103654:	e3a02000 	mov	r2, #0
  103658:	e5832000 	str	r2, [r3]
  10365c:	e3a03000 	mov	r3, #0
  103660:	ea000010 	b	1036a8 <gpio_get_optional+0x88>
  103664:	e51b300c 	ldr	r3, [fp, #-12]
  103668:	e5933004 	ldr	r3, [r3, #4]
  10366c:	e5933004 	ldr	r3, [r3, #4]
  103670:	e51b100c 	ldr	r1, [fp, #-12]
  103674:	e51b0008 	ldr	r0, [fp, #-8]
  103678:	e12fff33 	blx	r3
  10367c:	e1a03000 	mov	r3, r0
  103680:	e3530000 	cmp	r3, #0
  103684:	0a000001 	beq	103690 <gpio_get_optional+0x70>
  103688:	e3e03000 	mvn	r3, #0
  10368c:	ea000005 	b	1036a8 <gpio_get_optional+0x88>
  103690:	e51b3008 	ldr	r3, [fp, #-8]
  103694:	e5933000 	ldr	r3, [r3]
  103698:	e51b200c 	ldr	r2, [fp, #-12]
  10369c:	e5922004 	ldr	r2, [r2, #4]
  1036a0:	e5832004 	str	r2, [r3, #4]
  1036a4:	e3a03000 	mov	r3, #0
  1036a8:	e1a00003 	mov	r0, r3
  1036ac:	e24bd004 	sub	sp, fp, #4
  1036b0:	e8bd8800 	pop	{fp, pc}

001036b4 <gpio_remove>:
  1036b4:	e92d4800 	push	{fp, lr}
  1036b8:	e28db004 	add	fp, sp, #4
  1036bc:	e24dd008 	sub	sp, sp, #8
  1036c0:	e50b0008 	str	r0, [fp, #-8]
  1036c4:	e51b3008 	ldr	r3, [fp, #-8]
  1036c8:	e3530000 	cmp	r3, #0
  1036cc:	0a000006 	beq	1036ec <gpio_remove+0x38>
  1036d0:	e51b3008 	ldr	r3, [fp, #-8]
  1036d4:	e5933004 	ldr	r3, [r3, #4]
  1036d8:	e5933008 	ldr	r3, [r3, #8]
  1036dc:	e51b0008 	ldr	r0, [fp, #-8]
  1036e0:	e12fff33 	blx	r3
  1036e4:	e1a03000 	mov	r3, r0
  1036e8:	ea000000 	b	1036f0 <gpio_remove+0x3c>
  1036ec:	e3a03000 	mov	r3, #0
  1036f0:	e1a00003 	mov	r0, r3
  1036f4:	e24bd004 	sub	sp, fp, #4
  1036f8:	e8bd8800 	pop	{fp, pc}

001036fc <gpio_direction_input>:
  1036fc:	e92d4800 	push	{fp, lr}
  103700:	e28db004 	add	fp, sp, #4
  103704:	e24dd008 	sub	sp, sp, #8
  103708:	e50b0008 	str	r0, [fp, #-8]
  10370c:	e51b3008 	ldr	r3, [fp, #-8]
  103710:	e3530000 	cmp	r3, #0
  103714:	0a000006 	beq	103734 <gpio_direction_input+0x38>
  103718:	e51b3008 	ldr	r3, [fp, #-8]
  10371c:	e5933004 	ldr	r3, [r3, #4]
  103720:	e593300c 	ldr	r3, [r3, #12]
  103724:	e51b0008 	ldr	r0, [fp, #-8]
  103728:	e12fff33 	blx	r3
  10372c:	e1a03000 	mov	r3, r0
  103730:	ea000000 	b	103738 <gpio_direction_input+0x3c>
  103734:	e3a03000 	mov	r3, #0
  103738:	e1a00003 	mov	r0, r3
  10373c:	e24bd004 	sub	sp, fp, #4
  103740:	e8bd8800 	pop	{fp, pc}

00103744 <gpio_direction_output>:
  103744:	e92d4800 	push	{fp, lr}
  103748:	e28db004 	add	fp, sp, #4
  10374c:	e24dd008 	sub	sp, sp, #8
  103750:	e50b0008 	str	r0, [fp, #-8]
  103754:	e1a03001 	mov	r3, r1
  103758:	e54b3009 	strb	r3, [fp, #-9]
  10375c:	e51b3008 	ldr	r3, [fp, #-8]
  103760:	e3530000 	cmp	r3, #0
  103764:	0a000008 	beq	10378c <gpio_direction_output+0x48>
  103768:	e51b3008 	ldr	r3, [fp, #-8]
  10376c:	e5933004 	ldr	r3, [r3, #4]
  103770:	e5933010 	ldr	r3, [r3, #16]
  103774:	e55b2009 	ldrb	r2, [fp, #-9]
  103778:	e1a01002 	mov	r1, r2
  10377c:	e51b0008 	ldr	r0, [fp, #-8]
  103780:	e12fff33 	blx	r3
  103784:	e1a03000 	mov	r3, r0
  103788:	ea000000 	b	103790 <gpio_direction_output+0x4c>
  10378c:	e3a03000 	mov	r3, #0
  103790:	e1a00003 	mov	r0, r3
  103794:	e24bd004 	sub	sp, fp, #4
  103798:	e8bd8800 	pop	{fp, pc}

0010379c <gpio_get_direction>:
  10379c:	e92d4800 	push	{fp, lr}
  1037a0:	e28db004 	add	fp, sp, #4
  1037a4:	e24dd008 	sub	sp, sp, #8
  1037a8:	e50b0008 	str	r0, [fp, #-8]
  1037ac:	e50b100c 	str	r1, [fp, #-12]
  1037b0:	e51b3008 	ldr	r3, [fp, #-8]
  1037b4:	e3530000 	cmp	r3, #0
  1037b8:	0a000007 	beq	1037dc <gpio_get_direction+0x40>
  1037bc:	e51b3008 	ldr	r3, [fp, #-8]
  1037c0:	e5933004 	ldr	r3, [r3, #4]
  1037c4:	e5933014 	ldr	r3, [r3, #20]
  1037c8:	e51b100c 	ldr	r1, [fp, #-12]
  1037cc:	e51b0008 	ldr	r0, [fp, #-8]
  1037d0:	e12fff33 	blx	r3
  1037d4:	e1a03000 	mov	r3, r0
  1037d8:	ea000000 	b	1037e0 <gpio_get_direction+0x44>
  1037dc:	e3a03000 	mov	r3, #0
  1037e0:	e1a00003 	mov	r0, r3
  1037e4:	e24bd004 	sub	sp, fp, #4
  1037e8:	e8bd8800 	pop	{fp, pc}

001037ec <gpio_set_value>:
  1037ec:	e92d4800 	push	{fp, lr}
  1037f0:	e28db004 	add	fp, sp, #4
  1037f4:	e24dd008 	sub	sp, sp, #8
  1037f8:	e50b0008 	str	r0, [fp, #-8]
  1037fc:	e1a03001 	mov	r3, r1
  103800:	e54b3009 	strb	r3, [fp, #-9]
  103804:	e51b3008 	ldr	r3, [fp, #-8]
  103808:	e3530000 	cmp	r3, #0
  10380c:	0a000008 	beq	103834 <gpio_set_value+0x48>
  103810:	e51b3008 	ldr	r3, [fp, #-8]
  103814:	e5933004 	ldr	r3, [r3, #4]
  103818:	e5933018 	ldr	r3, [r3, #24]
  10381c:	e55b2009 	ldrb	r2, [fp, #-9]
  103820:	e1a01002 	mov	r1, r2
  103824:	e51b0008 	ldr	r0, [fp, #-8]
  103828:	e12fff33 	blx	r3
  10382c:	e1a03000 	mov	r3, r0
  103830:	ea000000 	b	103838 <gpio_set_value+0x4c>
  103834:	e3a03000 	mov	r3, #0
  103838:	e1a00003 	mov	r0, r3
  10383c:	e24bd004 	sub	sp, fp, #4
  103840:	e8bd8800 	pop	{fp, pc}

00103844 <gpio_get_value>:
  103844:	e92d4800 	push	{fp, lr}
  103848:	e28db004 	add	fp, sp, #4
  10384c:	e24dd008 	sub	sp, sp, #8
  103850:	e50b0008 	str	r0, [fp, #-8]
  103854:	e50b100c 	str	r1, [fp, #-12]
  103858:	e51b3008 	ldr	r3, [fp, #-8]
  10385c:	e3530000 	cmp	r3, #0
  103860:	0a000007 	beq	103884 <gpio_get_value+0x40>
  103864:	e51b3008 	ldr	r3, [fp, #-8]
  103868:	e5933004 	ldr	r3, [r3, #4]
  10386c:	e593301c 	ldr	r3, [r3, #28]
  103870:	e51b100c 	ldr	r1, [fp, #-12]
  103874:	e51b0008 	ldr	r0, [fp, #-8]
  103878:	e12fff33 	blx	r3
  10387c:	e1a03000 	mov	r3, r0
  103880:	ea000000 	b	103888 <gpio_get_value+0x44>
  103884:	e3a03000 	mov	r3, #0
  103888:	e1a00003 	mov	r0, r3
  10388c:	e24bd004 	sub	sp, fp, #4
  103890:	e8bd8800 	pop	{fp, pc}

00103894 <spi_engine_write>:
  103894:	e92d4800 	push	{fp, lr}
  103898:	e28db004 	add	fp, sp, #4
  10389c:	e24dd010 	sub	sp, sp, #16
  1038a0:	e50b0008 	str	r0, [fp, #-8]
  1038a4:	e50b100c 	str	r1, [fp, #-12]
  1038a8:	e50b2010 	str	r2, [fp, #-16]
  1038ac:	e51b3008 	ldr	r3, [fp, #-8]
  1038b0:	e5933014 	ldr	r3, [r3, #20]
  1038b4:	e51b2010 	ldr	r2, [fp, #-16]
  1038b8:	e51b100c 	ldr	r1, [fp, #-12]
  1038bc:	e1a00003 	mov	r0, r3
  1038c0:	eb0005f1 	bl	10508c <axi_io_write>
  1038c4:	e3a03000 	mov	r3, #0
  1038c8:	e1a00003 	mov	r0, r3
  1038cc:	e24bd004 	sub	sp, fp, #4
  1038d0:	e8bd8800 	pop	{fp, pc}

001038d4 <spi_engine_read>:
  1038d4:	e92d4800 	push	{fp, lr}
  1038d8:	e28db004 	add	fp, sp, #4
  1038dc:	e24dd010 	sub	sp, sp, #16
  1038e0:	e50b0008 	str	r0, [fp, #-8]
  1038e4:	e50b100c 	str	r1, [fp, #-12]
  1038e8:	e50b2010 	str	r2, [fp, #-16]
  1038ec:	e51b3008 	ldr	r3, [fp, #-8]
  1038f0:	e5933014 	ldr	r3, [r3, #20]
  1038f4:	e51b2010 	ldr	r2, [fp, #-16]
  1038f8:	e51b100c 	ldr	r1, [fp, #-12]
  1038fc:	e1a00003 	mov	r0, r3
  103900:	eb0005d0 	bl	105048 <axi_io_read>
  103904:	e3a03000 	mov	r3, #0
  103908:	e1a00003 	mov	r0, r3
  10390c:	e24bd004 	sub	sp, fp, #4
  103910:	e8bd8800 	pop	{fp, pc}

00103914 <spi_engine_set_transfer_width>:
  103914:	e52db004 	push	{fp}		; (str fp, [sp, #-4]!)
  103918:	e28db000 	add	fp, sp, #0
  10391c:	e24dd014 	sub	sp, sp, #20
  103920:	e50b0010 	str	r0, [fp, #-16]
  103924:	e1a03001 	mov	r3, r1
  103928:	e54b3011 	strb	r3, [fp, #-17]	; 0xffffffef
  10392c:	e51b3010 	ldr	r3, [fp, #-16]
  103930:	e593300c 	ldr	r3, [r3, #12]
  103934:	e50b3008 	str	r3, [fp, #-8]
  103938:	e51b3008 	ldr	r3, [fp, #-8]
  10393c:	e5d33029 	ldrb	r3, [r3, #41]	; 0x29
  103940:	e55b2011 	ldrb	r2, [fp, #-17]	; 0xffffffef
  103944:	e1520003 	cmp	r2, r3
  103948:	9a000004 	bls	103960 <spi_engine_set_transfer_width+0x4c>
  10394c:	e51b3008 	ldr	r3, [fp, #-8]
  103950:	e5d32029 	ldrb	r2, [r3, #41]	; 0x29
  103954:	e51b3008 	ldr	r3, [fp, #-8]
  103958:	e5c32028 	strb	r2, [r3, #40]	; 0x28
  10395c:	ea000002 	b	10396c <spi_engine_set_transfer_width+0x58>
  103960:	e51b3008 	ldr	r3, [fp, #-8]
  103964:	e55b2011 	ldrb	r2, [fp, #-17]	; 0xffffffef
  103968:	e5c32028 	strb	r2, [r3, #40]	; 0x28
  10396c:	e3a03000 	mov	r3, #0
  103970:	e1a00003 	mov	r0, r3
  103974:	e24bd000 	sub	sp, fp, #0
  103978:	e49db004 	pop	{fp}		; (ldr fp, [sp], #4)
  10397c:	e12fff1e 	bx	lr

00103980 <spi_engine_set_speed>:
  103980:	e92d4800 	push	{fp, lr}
  103984:	e28db004 	add	fp, sp, #4
  103988:	e24dd010 	sub	sp, sp, #16
  10398c:	e50b0010 	str	r0, [fp, #-16]
  103990:	e50b1014 	str	r1, [fp, #-20]	; 0xffffffec
  103994:	e51b3010 	ldr	r3, [fp, #-16]
  103998:	e593300c 	ldr	r3, [r3, #12]
  10399c:	e50b3008 	str	r3, [fp, #-8]
  1039a0:	e51b3008 	ldr	r3, [fp, #-8]
  1039a4:	e5932000 	ldr	r2, [r3]
  1039a8:	e51b3014 	ldr	r3, [fp, #-20]	; 0xffffffec
  1039ac:	e1a03083 	lsl	r3, r3, #1
  1039b0:	e1a01003 	mov	r1, r3
  1039b4:	e1a00002 	mov	r0, r2
  1039b8:	eb00524d 	bl	1182f4 <__aeabi_uidiv>
  1039bc:	e1a03000 	mov	r3, r0
  1039c0:	e2432001 	sub	r2, r3, #1
  1039c4:	e51b3008 	ldr	r3, [fp, #-8]
  1039c8:	e5832024 	str	r2, [r3, #36]	; 0x24
  1039cc:	e320f000 	nop	{0}
  1039d0:	e24bd004 	sub	sp, fp, #4
  1039d4:	e8bd8800 	pop	{fp, pc}

001039d8 <spi_get_words_number>:
  1039d8:	e92d4800 	push	{fp, lr}
  1039dc:	e28db004 	add	fp, sp, #4
  1039e0:	e24dd010 	sub	sp, sp, #16
  1039e4:	e50b0010 	str	r0, [fp, #-16]
  1039e8:	e1a03001 	mov	r3, r1
  1039ec:	e54b3011 	strb	r3, [fp, #-17]	; 0xffffffef
  1039f0:	e51b3010 	ldr	r3, [fp, #-16]
  1039f4:	e5d33028 	ldrb	r3, [r3, #40]	; 0x28
  1039f8:	e1a031a3 	lsr	r3, r3, #3
  1039fc:	e54b3006 	strb	r3, [fp, #-6]
  103a00:	e55b3011 	ldrb	r3, [fp, #-17]	; 0xffffffef
  103a04:	e55b2006 	ldrb	r2, [fp, #-6]
  103a08:	e1a01002 	mov	r1, r2
  103a0c:	e1a00003 	mov	r0, r3
  103a10:	eb005237 	bl	1182f4 <__aeabi_uidiv>
  103a14:	e1a03000 	mov	r3, r0
  103a18:	e54b3005 	strb	r3, [fp, #-5]
  103a1c:	e55b3011 	ldrb	r3, [fp, #-17]	; 0xffffffef
  103a20:	e55b2006 	ldrb	r2, [fp, #-6]
  103a24:	e1a01002 	mov	r1, r2
  103a28:	e1a00003 	mov	r0, r3
  103a2c:	eb0052ab 	bl	1184e0 <__aeabi_uidivmod>
  103a30:	e1a03001 	mov	r3, r1
  103a34:	e6ef3073 	uxtb	r3, r3
  103a38:	e3530000 	cmp	r3, #0
  103a3c:	0a000002 	beq	103a4c <spi_get_words_number+0x74>
  103a40:	e55b3005 	ldrb	r3, [fp, #-5]
  103a44:	e2833001 	add	r3, r3, #1
  103a48:	e54b3005 	strb	r3, [fp, #-5]
  103a4c:	e55b3005 	ldrb	r3, [fp, #-5]
  103a50:	e1a00003 	mov	r0, r3
  103a54:	e24bd004 	sub	sp, fp, #4
  103a58:	e8bd8800 	pop	{fp, pc}

00103a5c <spi_get_word_lenght>:
  103a5c:	e52db004 	push	{fp}		; (str fp, [sp, #-4]!)
  103a60:	e28db000 	add	fp, sp, #0
  103a64:	e24dd014 	sub	sp, sp, #20
  103a68:	e50b0010 	str	r0, [fp, #-16]
  103a6c:	e51b3010 	ldr	r3, [fp, #-16]
  103a70:	e5d33028 	ldrb	r3, [r3, #40]	; 0x28
  103a74:	e1a031a3 	lsr	r3, r3, #3
  103a78:	e54b3005 	strb	r3, [fp, #-5]
  103a7c:	e55b3005 	ldrb	r3, [fp, #-5]
  103a80:	e1a00003 	mov	r0, r3
  103a84:	e24bd000 	sub	sp, fp, #0
  103a88:	e49db004 	pop	{fp}		; (ldr fp, [sp], #4)
  103a8c:	e12fff1e 	bx	lr

00103a90 <spi_get_sleep_div>:
  103a90:	e92d4800 	push	{fp, lr}
  103a94:	e28db004 	add	fp, sp, #4
  103a98:	e24dd018 	sub	sp, sp, #24
  103a9c:	e50b0010 	str	r0, [fp, #-16]
  103aa0:	e50b1014 	str	r1, [fp, #-20]	; 0xffffffec
  103aa4:	e50b2018 	str	r2, [fp, #-24]	; 0xffffffe8
  103aa8:	e51b3010 	ldr	r3, [fp, #-16]
  103aac:	e593300c 	ldr	r3, [r3, #12]
  103ab0:	e50b3008 	str	r3, [fp, #-8]
  103ab4:	e51b3010 	ldr	r3, [fp, #-16]
  103ab8:	e5932000 	ldr	r2, [r3]
  103abc:	e30d3e83 	movw	r3, #56963	; 0xde83
  103ac0:	e344331b 	movt	r3, #17179	; 0x431b
  103ac4:	e0832392 	umull	r2, r3, r2, r3
  103ac8:	e1a03923 	lsr	r3, r3, #18
  103acc:	e51b2014 	ldr	r2, [fp, #-20]	; 0xffffffec
  103ad0:	e0020392 	mul	r2, r2, r3
  103ad4:	e3043dd3 	movw	r3, #19923	; 0x4dd3
  103ad8:	e3413062 	movt	r3, #4194	; 0x1062
  103adc:	e0832392 	umull	r2, r3, r2, r3
  103ae0:	e1a02323 	lsr	r2, r3, #6
  103ae4:	e51b3008 	ldr	r3, [fp, #-8]
  103ae8:	e5933024 	ldr	r3, [r3, #36]	; 0x24
  103aec:	e2833001 	add	r3, r3, #1
  103af0:	e1a03083 	lsl	r3, r3, #1
  103af4:	e1a01003 	mov	r1, r3
  103af8:	e1a00002 	mov	r0, r2
  103afc:	eb0051fc 	bl	1182f4 <__aeabi_uidiv>
  103b00:	e1a03000 	mov	r3, r0
  103b04:	e2432001 	sub	r2, r3, #1
  103b08:	e51b3018 	ldr	r3, [fp, #-24]	; 0xffffffe8
  103b0c:	e5832000 	str	r2, [r3]
  103b10:	e3a03000 	mov	r3, #0
  103b14:	e1a00003 	mov	r0, r3
  103b18:	e24bd004 	sub	sp, fp, #4
  103b1c:	e8bd8800 	pop	{fp, pc}

00103b20 <spi_engine_queue_new_cmd>:
  103b20:	e92d4800 	push	{fp, lr}
  103b24:	e28db004 	add	fp, sp, #4
  103b28:	e24dd010 	sub	sp, sp, #16
  103b2c:	e50b0010 	str	r0, [fp, #-16]
  103b30:	e50b1014 	str	r1, [fp, #-20]	; 0xffffffec
  103b34:	e3a00008 	mov	r0, #8
  103b38:	eb0052f6 	bl	118718 <malloc>
  103b3c:	e1a03000 	mov	r3, r0
  103b40:	e50b3008 	str	r3, [fp, #-8]
  103b44:	e51b3008 	ldr	r3, [fp, #-8]
  103b48:	e3530000 	cmp	r3, #0
  103b4c:	1a000001 	bne	103b58 <spi_engine_queue_new_cmd+0x38>
  103b50:	e3e03000 	mvn	r3, #0
  103b54:	ea000009 	b	103b80 <spi_engine_queue_new_cmd+0x60>
  103b58:	e51b3008 	ldr	r3, [fp, #-8]
  103b5c:	e51b2014 	ldr	r2, [fp, #-20]	; 0xffffffec
  103b60:	e5832000 	str	r2, [r3]
  103b64:	e51b3008 	ldr	r3, [fp, #-8]
  103b68:	e3a02000 	mov	r2, #0
  103b6c:	e5832004 	str	r2, [r3, #4]
  103b70:	e51b3010 	ldr	r3, [fp, #-16]
  103b74:	e51b2008 	ldr	r2, [fp, #-8]
  103b78:	e5832000 	str	r2, [r3]
  103b7c:	e3a03000 	mov	r3, #0
  103b80:	e1a00003 	mov	r0, r3
  103b84:	e24bd004 	sub	sp, fp, #4
  103b88:	e8bd8800 	pop	{fp, pc}

00103b8c <spi_engine_queue_add_cmd>:
  103b8c:	e92d4800 	push	{fp, lr}
  103b90:	e28db004 	add	fp, sp, #4
  103b94:	e24dd010 	sub	sp, sp, #16
  103b98:	e50b0010 	str	r0, [fp, #-16]
  103b9c:	e50b1014 	str	r1, [fp, #-20]	; 0xffffffec
  103ba0:	e3a03000 	mov	r3, #0
  103ba4:	e50b300c 	str	r3, [fp, #-12]
  103ba8:	e51b3010 	ldr	r3, [fp, #-16]
  103bac:	e5933000 	ldr	r3, [r3]
  103bb0:	e50b3008 	str	r3, [fp, #-8]
  103bb4:	ea000002 	b	103bc4 <spi_engine_queue_add_cmd+0x38>
  103bb8:	e51b3008 	ldr	r3, [fp, #-8]
  103bbc:	e5933004 	ldr	r3, [r3, #4]
  103bc0:	e50b3008 	str	r3, [fp, #-8]
  103bc4:	e51b3008 	ldr	r3, [fp, #-8]
  103bc8:	e5933004 	ldr	r3, [r3, #4]
  103bcc:	e3530000 	cmp	r3, #0
  103bd0:	1afffff8 	bne	103bb8 <spi_engine_queue_add_cmd+0x2c>
  103bd4:	e24b300c 	sub	r3, fp, #12
  103bd8:	e51b1014 	ldr	r1, [fp, #-20]	; 0xffffffec
  103bdc:	e1a00003 	mov	r0, r3
  103be0:	ebffffce 	bl	103b20 <spi_engine_queue_new_cmd>
  103be4:	e51b200c 	ldr	r2, [fp, #-12]
  103be8:	e51b3008 	ldr	r3, [fp, #-8]
  103bec:	e5832004 	str	r2, [r3, #4]
  103bf0:	e320f000 	nop	{0}
  103bf4:	e24bd004 	sub	sp, fp, #4
  103bf8:	e8bd8800 	pop	{fp, pc}

00103bfc <spi_engine_queue_append_cmd>:
  103bfc:	e92d4800 	push	{fp, lr}
  103c00:	e28db004 	add	fp, sp, #4
  103c04:	e24dd010 	sub	sp, sp, #16
  103c08:	e50b0010 	str	r0, [fp, #-16]
  103c0c:	e50b1014 	str	r1, [fp, #-20]	; 0xffffffec
  103c10:	e3a03000 	mov	r3, #0
  103c14:	e50b3008 	str	r3, [fp, #-8]
  103c18:	e24b3008 	sub	r3, fp, #8
  103c1c:	e51b1014 	ldr	r1, [fp, #-20]	; 0xffffffec
  103c20:	e1a00003 	mov	r0, r3
  103c24:	ebffffbd 	bl	103b20 <spi_engine_queue_new_cmd>
  103c28:	e51b3008 	ldr	r3, [fp, #-8]
  103c2c:	e51b2010 	ldr	r2, [fp, #-16]
  103c30:	e5922000 	ldr	r2, [r2]
  103c34:	e5832004 	str	r2, [r3, #4]
  103c38:	e51b2008 	ldr	r2, [fp, #-8]
  103c3c:	e51b3010 	ldr	r3, [fp, #-16]
  103c40:	e5832000 	str	r2, [r3]
  103c44:	e320f000 	nop	{0}
  103c48:	e24bd004 	sub	sp, fp, #4
  103c4c:	e8bd8800 	pop	{fp, pc}

00103c50 <spi_engine_queue_get_cmd>:
  103c50:	e92d4800 	push	{fp, lr}
  103c54:	e28db004 	add	fp, sp, #4
  103c58:	e24dd010 	sub	sp, sp, #16
  103c5c:	e50b0010 	str	r0, [fp, #-16]
  103c60:	e50b1014 	str	r1, [fp, #-20]	; 0xffffffec
  103c64:	e51b3010 	ldr	r3, [fp, #-16]
  103c68:	e5933000 	ldr	r3, [r3]
  103c6c:	e3530000 	cmp	r3, #0
  103c70:	1a000001 	bne	103c7c <spi_engine_queue_get_cmd+0x2c>
  103c74:	e3e03000 	mvn	r3, #0
  103c78:	ea00001a 	b	103ce8 <spi_engine_queue_get_cmd+0x98>
  103c7c:	e51b3010 	ldr	r3, [fp, #-16]
  103c80:	e5933000 	ldr	r3, [r3]
  103c84:	e50b3008 	str	r3, [fp, #-8]
  103c88:	e51b3008 	ldr	r3, [fp, #-8]
  103c8c:	e5932000 	ldr	r2, [r3]
  103c90:	e51b3014 	ldr	r3, [fp, #-20]	; 0xffffffec
  103c94:	e5832000 	str	r2, [r3]
  103c98:	e51b3010 	ldr	r3, [fp, #-16]
  103c9c:	e5933000 	ldr	r3, [r3]
  103ca0:	e5933004 	ldr	r3, [r3, #4]
  103ca4:	e3530000 	cmp	r3, #0
  103ca8:	0a000006 	beq	103cc8 <spi_engine_queue_get_cmd+0x78>
  103cac:	e51b3008 	ldr	r3, [fp, #-8]
  103cb0:	e5932004 	ldr	r2, [r3, #4]
  103cb4:	e51b3010 	ldr	r3, [fp, #-16]
  103cb8:	e5832000 	str	r2, [r3]
  103cbc:	e51b0008 	ldr	r0, [fp, #-8]
  103cc0:	eb00529a 	bl	118730 <free>
  103cc4:	ea000006 	b	103ce4 <spi_engine_queue_get_cmd+0x94>
  103cc8:	e51b3010 	ldr	r3, [fp, #-16]
  103ccc:	e5933000 	ldr	r3, [r3]
  103cd0:	e1a00003 	mov	r0, r3
  103cd4:	eb005295 	bl	118730 <free>
  103cd8:	e51b3010 	ldr	r3, [fp, #-16]
  103cdc:	e3a02000 	mov	r2, #0
  103ce0:	e5832000 	str	r2, [r3]
  103ce4:	e3a03000 	mov	r3, #0
  103ce8:	e1a00003 	mov	r0, r3
  103cec:	e24bd004 	sub	sp, fp, #4
  103cf0:	e8bd8800 	pop	{fp, pc}

00103cf4 <spi_engine_queue_free>:
  103cf4:	e92d4800 	push	{fp, lr}
  103cf8:	e28db004 	add	fp, sp, #4
  103cfc:	e24dd008 	sub	sp, sp, #8
  103d00:	e50b0008 	str	r0, [fp, #-8]
  103d04:	e51b3008 	ldr	r3, [fp, #-8]
  103d08:	e5933000 	ldr	r3, [r3]
  103d0c:	e3530000 	cmp	r3, #0
  103d10:	0a000009 	beq	103d3c <spi_engine_queue_free+0x48>
  103d14:	e51b3008 	ldr	r3, [fp, #-8]
  103d18:	e5933000 	ldr	r3, [r3]
  103d1c:	e5933004 	ldr	r3, [r3, #4]
  103d20:	e3530000 	cmp	r3, #0
  103d24:	0a000004 	beq	103d3c <spi_engine_queue_free+0x48>
  103d28:	e51b3008 	ldr	r3, [fp, #-8]
  103d2c:	e5933000 	ldr	r3, [r3]
  103d30:	e2833004 	add	r3, r3, #4
  103d34:	e1a00003 	mov	r0, r3
  103d38:	ebffffed 	bl	103cf4 <spi_engine_queue_free>
  103d3c:	e51b3008 	ldr	r3, [fp, #-8]
  103d40:	e5933000 	ldr	r3, [r3]
  103d44:	e3530000 	cmp	r3, #0
  103d48:	0a000006 	beq	103d68 <spi_engine_queue_free+0x74>
  103d4c:	e51b3008 	ldr	r3, [fp, #-8]
  103d50:	e5933000 	ldr	r3, [r3]
  103d54:	e1a00003 	mov	r0, r3
  103d58:	eb005274 	bl	118730 <free>
  103d5c:	e51b3008 	ldr	r3, [fp, #-8]
  103d60:	e3a02000 	mov	r2, #0
  103d64:	e5832000 	str	r2, [r3]
  103d68:	e3a03000 	mov	r3, #0
  103d6c:	e1a00003 	mov	r0, r3
  103d70:	e24bd004 	sub	sp, fp, #4
  103d74:	e8bd8800 	pop	{fp, pc}

00103d78 <spi_engine_write_cmd_reg>:
  103d78:	e92d4800 	push	{fp, lr}
  103d7c:	e28db004 	add	fp, sp, #4
  103d80:	e24dd010 	sub	sp, sp, #16
  103d84:	e50b0010 	str	r0, [fp, #-16]
  103d88:	e50b1014 	str	r1, [fp, #-20]	; 0xffffffec
  103d8c:	e51b3010 	ldr	r3, [fp, #-16]
  103d90:	e5d33010 	ldrb	r3, [r3, #16]
  103d94:	e2033003 	and	r3, r3, #3
  103d98:	e3530000 	cmp	r3, #0
  103d9c:	0a000005 	beq	103db8 <spi_engine_write_cmd_reg+0x40>
  103da0:	e51b2014 	ldr	r2, [fp, #-20]	; 0xffffffec
  103da4:	e3a01e11 	mov	r1, #272	; 0x110
  103da8:	e51b0010 	ldr	r0, [fp, #-16]
  103dac:	ebfffeb8 	bl	103894 <spi_engine_write>
  103db0:	e50b0008 	str	r0, [fp, #-8]
  103db4:	ea000004 	b	103dcc <spi_engine_write_cmd_reg+0x54>
  103db8:	e51b2014 	ldr	r2, [fp, #-20]	; 0xffffffec
  103dbc:	e3a010e0 	mov	r1, #224	; 0xe0
  103dc0:	e51b0010 	ldr	r0, [fp, #-16]
  103dc4:	ebfffeb2 	bl	103894 <spi_engine_write>
  103dc8:	e50b0008 	str	r0, [fp, #-8]
  103dcc:	e51b3008 	ldr	r3, [fp, #-8]
  103dd0:	e1a00003 	mov	r0, r3
  103dd4:	e24bd004 	sub	sp, fp, #4
  103dd8:	e8bd8800 	pop	{fp, pc}

00103ddc <spi_engine_transfer>:
  103ddc:	e92d4800 	push	{fp, lr}
  103de0:	e28db004 	add	fp, sp, #4
  103de4:	e24dd010 	sub	sp, sp, #16
  103de8:	e50b0010 	str	r0, [fp, #-16]
  103dec:	e1a03001 	mov	r3, r1
  103df0:	e54b3011 	strb	r3, [fp, #-17]	; 0xffffffef
  103df4:	e1a03002 	mov	r3, r2
  103df8:	e54b3012 	strb	r3, [fp, #-18]	; 0xffffffee
  103dfc:	e55b3012 	ldrb	r3, [fp, #-18]	; 0xffffffee
  103e00:	e1a01003 	mov	r1, r3
  103e04:	e51b0010 	ldr	r0, [fp, #-16]
  103e08:	ebfffef2 	bl	1039d8 <spi_get_words_number>
  103e0c:	e1a03000 	mov	r3, r0
  103e10:	e54b3005 	strb	r3, [fp, #-5]
  103e14:	e51b3010 	ldr	r3, [fp, #-16]
  103e18:	e5d32011 	ldrb	r2, [r3, #17]
  103e1c:	e55b3005 	ldrb	r3, [fp, #-5]
  103e20:	e0823003 	add	r3, r2, r3
  103e24:	e6ef2073 	uxtb	r2, r3
  103e28:	e51b3010 	ldr	r3, [fp, #-16]
  103e2c:	e5c32011 	strb	r2, [r3, #17]
  103e30:	e55b3011 	ldrb	r3, [fp, #-17]	; 0xffffffef
  103e34:	e1a03403 	lsl	r3, r3, #8
  103e38:	e2032c03 	and	r2, r3, #768	; 0x300
  103e3c:	e55b3005 	ldrb	r3, [fp, #-5]
  103e40:	e2433001 	sub	r3, r3, #1
  103e44:	e1823003 	orr	r3, r2, r3
  103e48:	e1a01003 	mov	r1, r3
  103e4c:	e51b0010 	ldr	r0, [fp, #-16]
  103e50:	ebffffc8 	bl	103d78 <spi_engine_write_cmd_reg>
  103e54:	e3a03000 	mov	r3, #0
  103e58:	e1a00003 	mov	r0, r3
  103e5c:	e24bd004 	sub	sp, fp, #4
  103e60:	e8bd8800 	pop	{fp, pc}

00103e64 <spi_engine_set_cs>:
  103e64:	e92d4800 	push	{fp, lr}
  103e68:	e28db004 	add	fp, sp, #4
  103e6c:	e24dd010 	sub	sp, sp, #16
  103e70:	e50b0010 	str	r0, [fp, #-16]
  103e74:	e1a03001 	mov	r3, r1
  103e78:	e54b3011 	strb	r3, [fp, #-17]	; 0xffffffef
  103e7c:	e51b3010 	ldr	r3, [fp, #-16]
  103e80:	e593300c 	ldr	r3, [r3, #12]
  103e84:	e50b300c 	str	r3, [fp, #-12]
  103e88:	e3e03000 	mvn	r3, #0
  103e8c:	e54b3005 	strb	r3, [fp, #-5]
  103e90:	e55b3011 	ldrb	r3, [fp, #-17]	; 0xffffffef
  103e94:	e2233001 	eor	r3, r3, #1
  103e98:	e6ef3073 	uxtb	r3, r3
  103e9c:	e3530000 	cmp	r3, #0
  103ea0:	0a000009 	beq	103ecc <spi_engine_set_cs+0x68>
  103ea4:	e51b3010 	ldr	r3, [fp, #-16]
  103ea8:	e5d33004 	ldrb	r3, [r3, #4]
  103eac:	e1a02003 	mov	r2, r3
  103eb0:	e3a03001 	mov	r3, #1
  103eb4:	e1a03213 	lsl	r3, r3, r2
  103eb8:	e6af2073 	sxtb	r2, r3
  103ebc:	e15b30d5 	ldrsb	r3, [fp, #-5]
  103ec0:	e0233002 	eor	r3, r3, r2
  103ec4:	e6af3073 	sxtb	r3, r3
  103ec8:	e54b3005 	strb	r3, [fp, #-5]
  103ecc:	e51b300c 	ldr	r3, [fp, #-12]
  103ed0:	e5d33020 	ldrb	r3, [r3, #32]
  103ed4:	e1a03403 	lsl	r3, r3, #8
  103ed8:	e2033c03 	and	r3, r3, #768	; 0x300
  103edc:	e3832a01 	orr	r2, r3, #4096	; 0x1000
  103ee0:	e55b3005 	ldrb	r3, [fp, #-5]
  103ee4:	e1823003 	orr	r3, r2, r3
  103ee8:	e1a01003 	mov	r1, r3
  103eec:	e51b000c 	ldr	r0, [fp, #-12]
  103ef0:	ebffffa0 	bl	103d78 <spi_engine_write_cmd_reg>
  103ef4:	e320f000 	nop	{0}
  103ef8:	e24bd004 	sub	sp, fp, #4
  103efc:	e8bd8800 	pop	{fp, pc}

00103f00 <spi_gen_sleep_ns>:
  103f00:	e92d4800 	push	{fp, lr}
  103f04:	e28db004 	add	fp, sp, #4
  103f08:	e24dd010 	sub	sp, sp, #16
  103f0c:	e50b0010 	str	r0, [fp, #-16]
  103f10:	e50b1014 	str	r1, [fp, #-20]	; 0xffffffec
  103f14:	e51b3010 	ldr	r3, [fp, #-16]
  103f18:	e593300c 	ldr	r3, [r3, #12]
  103f1c:	e50b3008 	str	r3, [fp, #-8]
  103f20:	e24b300c 	sub	r3, fp, #12
  103f24:	e1a02003 	mov	r2, r3
  103f28:	e51b1014 	ldr	r1, [fp, #-20]	; 0xffffffec
  103f2c:	e51b0010 	ldr	r0, [fp, #-16]
  103f30:	ebfffed6 	bl	103a90 <spi_get_sleep_div>
  103f34:	e51b300c 	ldr	r3, [fp, #-12]
  103f38:	e3833c31 	orr	r3, r3, #12544	; 0x3100
  103f3c:	e1a01003 	mov	r1, r3
  103f40:	e51b0008 	ldr	r0, [fp, #-8]
  103f44:	ebffff8b 	bl	103d78 <spi_engine_write_cmd_reg>
  103f48:	e320f000 	nop	{0}
  103f4c:	e24bd004 	sub	sp, fp, #4
  103f50:	e8bd8800 	pop	{fp, pc}

00103f54 <spi_engine_write_cmd>:
  103f54:	e92d4800 	push	{fp, lr}
  103f58:	e28db004 	add	fp, sp, #4
  103f5c:	e24dd010 	sub	sp, sp, #16
  103f60:	e50b0010 	str	r0, [fp, #-16]
  103f64:	e50b1014 	str	r1, [fp, #-20]	; 0xffffffec
  103f68:	e51b3010 	ldr	r3, [fp, #-16]
  103f6c:	e593300c 	ldr	r3, [r3, #12]
  103f70:	e50b3008 	str	r3, [fp, #-8]
  103f74:	e51b3014 	ldr	r3, [fp, #-20]	; 0xffffffec
  103f78:	e1a03623 	lsr	r3, r3, #12
  103f7c:	e6ef3073 	uxtb	r3, r3
  103f80:	e203300f 	and	r3, r3, #15
  103f84:	e54b3009 	strb	r3, [fp, #-9]
  103f88:	e51b3014 	ldr	r3, [fp, #-20]	; 0xffffffec
  103f8c:	e1a03423 	lsr	r3, r3, #8
  103f90:	e6ef3073 	uxtb	r3, r3
  103f94:	e203300f 	and	r3, r3, #15
  103f98:	e54b300a 	strb	r3, [fp, #-10]
  103f9c:	e51b3014 	ldr	r3, [fp, #-20]	; 0xffffffec
  103fa0:	e54b300b 	strb	r3, [fp, #-11]
  103fa4:	e55b3009 	ldrb	r3, [fp, #-9]
  103fa8:	e3530003 	cmp	r3, #3
  103fac:	979ff103 	ldrls	pc, [pc, r3, lsl #2]
  103fb0:	ea00002a 	b	104060 <spi_engine_write_cmd+0x10c>
  103fb4:	00103fc4 	.word	0x00103fc4
  103fb8:	00103fdc 	.word	0x00103fdc
  103fbc:	00104050 	.word	0x00104050
  103fc0:	00104014 	.word	0x00104014
  103fc4:	e55b200b 	ldrb	r2, [fp, #-11]
  103fc8:	e55b300a 	ldrb	r3, [fp, #-10]
  103fcc:	e1a01003 	mov	r1, r3
  103fd0:	e51b0008 	ldr	r0, [fp, #-8]
  103fd4:	ebffff80 	bl	103ddc <spi_engine_transfer>
  103fd8:	ea000025 	b	104074 <spi_engine_write_cmd+0x120>
  103fdc:	e55b300b 	ldrb	r3, [fp, #-11]
  103fe0:	e35300ff 	cmp	r3, #255	; 0xff
  103fe4:	1a000003 	bne	103ff8 <spi_engine_write_cmd+0xa4>
  103fe8:	e3a01001 	mov	r1, #1
  103fec:	e51b0010 	ldr	r0, [fp, #-16]
  103ff0:	ebffff9b 	bl	103e64 <spi_engine_set_cs>
  103ff4:	ea00001b 	b	104068 <spi_engine_write_cmd+0x114>
  103ff8:	e55b300b 	ldrb	r3, [fp, #-11]
  103ffc:	e3530000 	cmp	r3, #0
  104000:	1a000018 	bne	104068 <spi_engine_write_cmd+0x114>
  104004:	e3a01000 	mov	r1, #0
  104008:	e51b0010 	ldr	r0, [fp, #-16]
  10400c:	ebffff94 	bl	103e64 <spi_engine_set_cs>
  104010:	ea000014 	b	104068 <spi_engine_write_cmd+0x114>
  104014:	e55b300a 	ldrb	r3, [fp, #-10]
  104018:	e3530000 	cmp	r3, #0
  10401c:	1a000003 	bne	104030 <spi_engine_write_cmd+0xdc>
  104020:	e51b1014 	ldr	r1, [fp, #-20]	; 0xffffffec
  104024:	e51b0008 	ldr	r0, [fp, #-8]
  104028:	ebffff52 	bl	103d78 <spi_engine_write_cmd_reg>
  10402c:	ea00000f 	b	104070 <spi_engine_write_cmd+0x11c>
  104030:	e55b300a 	ldrb	r3, [fp, #-10]
  104034:	e3530001 	cmp	r3, #1
  104038:	1a00000c 	bne	104070 <spi_engine_write_cmd+0x11c>
  10403c:	e55b300b 	ldrb	r3, [fp, #-11]
  104040:	e1a01003 	mov	r1, r3
  104044:	e51b0010 	ldr	r0, [fp, #-16]
  104048:	ebffffac 	bl	103f00 <spi_gen_sleep_ns>
  10404c:	ea000007 	b	104070 <spi_engine_write_cmd+0x11c>
  104050:	e51b1014 	ldr	r1, [fp, #-20]	; 0xffffffec
  104054:	e51b0008 	ldr	r0, [fp, #-8]
  104058:	ebffff46 	bl	103d78 <spi_engine_write_cmd_reg>
  10405c:	ea000004 	b	104074 <spi_engine_write_cmd+0x120>
  104060:	e3e03000 	mvn	r3, #0
  104064:	ea000003 	b	104078 <spi_engine_write_cmd+0x124>
  104068:	e320f000 	nop	{0}
  10406c:	ea000000 	b	104074 <spi_engine_write_cmd+0x120>
  104070:	e320f000 	nop	{0}
  104074:	e3a03000 	mov	r3, #0
  104078:	e1a00003 	mov	r0, r3
  10407c:	e24bd004 	sub	sp, fp, #4
  104080:	e8bd8800 	pop	{fp, pc}

00104084 <spi_engine_compile_message>:
  104084:	e92d4800 	push	{fp, lr}
  104088:	e28db004 	add	fp, sp, #4
  10408c:	e24dd010 	sub	sp, sp, #16
  104090:	e50b0010 	str	r0, [fp, #-16]
  104094:	e50b1014 	str	r1, [fp, #-20]	; 0xffffffec
  104098:	e51b3010 	ldr	r3, [fp, #-16]
  10409c:	e593300c 	ldr	r3, [r3, #12]
  1040a0:	e50b3008 	str	r3, [fp, #-8]
  1040a4:	e51b3014 	ldr	r3, [fp, #-20]	; 0xffffffec
  1040a8:	e283200c 	add	r2, r3, #12
  1040ac:	e51b3008 	ldr	r3, [fp, #-8]
  1040b0:	e5d33028 	ldrb	r3, [r3, #40]	; 0x28
  1040b4:	e3833c22 	orr	r3, r3, #8704	; 0x2200
  1040b8:	e1a01003 	mov	r1, r3
  1040bc:	e1a00002 	mov	r0, r2
  1040c0:	ebfffecd 	bl	103bfc <spi_engine_queue_append_cmd>
  1040c4:	e51b3014 	ldr	r3, [fp, #-20]	; 0xffffffec
  1040c8:	e283200c 	add	r2, r3, #12
  1040cc:	e51b3010 	ldr	r3, [fp, #-16]
  1040d0:	e5d33005 	ldrb	r3, [r3, #5]
  1040d4:	e3833c21 	orr	r3, r3, #8448	; 0x2100
  1040d8:	e1a01003 	mov	r1, r3
  1040dc:	e1a00002 	mov	r0, r2
  1040e0:	ebfffec5 	bl	103bfc <spi_engine_queue_append_cmd>
  1040e4:	e51b3014 	ldr	r3, [fp, #-20]	; 0xffffffec
  1040e8:	e283200c 	add	r2, r3, #12
  1040ec:	e51b3008 	ldr	r3, [fp, #-8]
  1040f0:	e5933024 	ldr	r3, [r3, #36]	; 0x24
  1040f4:	e3833a02 	orr	r3, r3, #8192	; 0x2000
  1040f8:	e1a01003 	mov	r1, r3
  1040fc:	e1a00002 	mov	r0, r2
  104100:	ebfffebd 	bl	103bfc <spi_engine_queue_append_cmd>
  104104:	e51b3014 	ldr	r3, [fp, #-20]	; 0xffffffec
  104108:	e283200c 	add	r2, r3, #12
  10410c:	e30430e0 	movw	r3, #16608	; 0x40e0
  104110:	e3403012 	movt	r3, #18
  104114:	e5d33000 	ldrb	r3, [r3]
  104118:	e3833a03 	orr	r3, r3, #12288	; 0x3000
  10411c:	e1a01003 	mov	r1, r3
  104120:	e1a00002 	mov	r0, r2
  104124:	ebfffe98 	bl	103b8c <spi_engine_queue_add_cmd>
  104128:	e3a03000 	mov	r3, #0
  10412c:	e1a00003 	mov	r0, r3
  104130:	e24bd004 	sub	sp, fp, #4
  104134:	e8bd8800 	pop	{fp, pc}

00104138 <spi_engine_transfer_message>:
  104138:	e92d4800 	push	{fp, lr}
  10413c:	e28db004 	add	fp, sp, #4
  104140:	e24dd020 	sub	sp, sp, #32
  104144:	e50b0020 	str	r0, [fp, #-32]	; 0xffffffe0
  104148:	e50b1024 	str	r1, [fp, #-36]	; 0xffffffdc
  10414c:	e51b3020 	ldr	r3, [fp, #-32]	; 0xffffffe0
  104150:	e593300c 	ldr	r3, [r3, #12]
  104154:	e50b300c 	str	r3, [fp, #-12]
  104158:	e51b1024 	ldr	r1, [fp, #-36]	; 0xffffffdc
  10415c:	e51b0020 	ldr	r0, [fp, #-32]	; 0xffffffe0
  104160:	ebffffc7 	bl	104084 <spi_engine_compile_message>
  104164:	e51b300c 	ldr	r3, [fp, #-12]
  104168:	e5d33010 	ldrb	r3, [r3, #16]
  10416c:	e2033003 	and	r3, r3, #3
  104170:	e3530000 	cmp	r3, #0
  104174:	13a03001 	movne	r3, #1
  104178:	03a03000 	moveq	r3, #0
  10417c:	e54b300d 	strb	r3, [fp, #-13]
  104180:	ea000009 	b	1041ac <spi_engine_transfer_message+0x74>
  104184:	e51b3024 	ldr	r3, [fp, #-36]	; 0xffffffdc
  104188:	e283300c 	add	r3, r3, #12
  10418c:	e24b2014 	sub	r2, fp, #20
  104190:	e1a01002 	mov	r1, r2
  104194:	e1a00003 	mov	r0, r3
  104198:	ebfffeac 	bl	103c50 <spi_engine_queue_get_cmd>
  10419c:	e51b3014 	ldr	r3, [fp, #-20]	; 0xffffffec
  1041a0:	e1a01003 	mov	r1, r3
  1041a4:	e51b0020 	ldr	r0, [fp, #-32]	; 0xffffffe0
  1041a8:	ebffff69 	bl	103f54 <spi_engine_write_cmd>
  1041ac:	e51b3024 	ldr	r3, [fp, #-36]	; 0xffffffdc
  1041b0:	e593300c 	ldr	r3, [r3, #12]
  1041b4:	e3530000 	cmp	r3, #0
  1041b8:	1afffff1 	bne	104184 <spi_engine_transfer_message+0x4c>
  1041bc:	e55b300d 	ldrb	r3, [fp, #-13]
  1041c0:	e3530000 	cmp	r3, #0
  1041c4:	0a000016 	beq	104224 <spi_engine_transfer_message+0xec>
  1041c8:	e3a03000 	mov	r3, #0
  1041cc:	e50b3008 	str	r3, [fp, #-8]
  1041d0:	ea00000c 	b	104208 <spi_engine_transfer_message+0xd0>
  1041d4:	e51b3024 	ldr	r3, [fp, #-36]	; 0xffffffdc
  1041d8:	e5932000 	ldr	r2, [r3]
  1041dc:	e51b3008 	ldr	r3, [fp, #-8]
  1041e0:	e1a03103 	lsl	r3, r3, #2
  1041e4:	e0823003 	add	r3, r2, r3
  1041e8:	e5933000 	ldr	r3, [r3]
  1041ec:	e1a02003 	mov	r2, r3
  1041f0:	e3a01f45 	mov	r1, #276	; 0x114
  1041f4:	e51b000c 	ldr	r0, [fp, #-12]
  1041f8:	ebfffda5 	bl	103894 <spi_engine_write>
  1041fc:	e51b3008 	ldr	r3, [fp, #-8]
  104200:	e2833001 	add	r3, r3, #1
  104204:	e50b3008 	str	r3, [fp, #-8]
  104208:	e51b300c 	ldr	r3, [fp, #-12]
  10420c:	e5d33011 	ldrb	r3, [r3, #17]
  104210:	e1a02003 	mov	r2, r3
  104214:	e51b3008 	ldr	r3, [fp, #-8]
  104218:	e1520003 	cmp	r2, r3
  10421c:	8affffec 	bhi	1041d4 <spi_engine_transfer_message+0x9c>
  104220:	ea00003f 	b	104324 <spi_engine_transfer_message+0x1ec>
  104224:	e3a03000 	mov	r3, #0
  104228:	e50b3008 	str	r3, [fp, #-8]
  10422c:	ea00000c 	b	104264 <spi_engine_transfer_message+0x12c>
  104230:	e51b3024 	ldr	r3, [fp, #-36]	; 0xffffffdc
  104234:	e5932000 	ldr	r2, [r3]
  104238:	e51b3008 	ldr	r3, [fp, #-8]
  10423c:	e1a03103 	lsl	r3, r3, #2
  104240:	e0823003 	add	r3, r2, r3
  104244:	e5933000 	ldr	r3, [r3]
  104248:	e1a02003 	mov	r2, r3
  10424c:	e3a010e4 	mov	r1, #228	; 0xe4
  104250:	e51b000c 	ldr	r0, [fp, #-12]
  104254:	ebfffd8e 	bl	103894 <spi_engine_write>
  104258:	e51b3008 	ldr	r3, [fp, #-8]
  10425c:	e2833001 	add	r3, r3, #1
  104260:	e50b3008 	str	r3, [fp, #-8]
  104264:	e51b3024 	ldr	r3, [fp, #-36]	; 0xffffffdc
  104268:	e5932008 	ldr	r2, [r3, #8]
  10426c:	e51b3008 	ldr	r3, [fp, #-8]
  104270:	e1520003 	cmp	r2, r3
  104274:	8affffed 	bhi	104230 <spi_engine_transfer_message+0xf8>
  104278:	e24b3018 	sub	r3, fp, #24
  10427c:	e1a02003 	mov	r2, r3
  104280:	e3a010c0 	mov	r1, #192	; 0xc0
  104284:	e51b000c 	ldr	r0, [fp, #-12]
  104288:	ebfffd91 	bl	1038d4 <spi_engine_read>
  10428c:	e30430e0 	movw	r3, #16608	; 0x40e0
  104290:	e3403012 	movt	r3, #18
  104294:	e5d33000 	ldrb	r3, [r3]
  104298:	e1a02003 	mov	r2, r3
  10429c:	e51b3018 	ldr	r3, [fp, #-24]	; 0xffffffe8
  1042a0:	e1520003 	cmp	r2, r3
  1042a4:	1afffff3 	bne	104278 <spi_engine_transfer_message+0x140>
  1042a8:	e30430e0 	movw	r3, #16608	; 0x40e0
  1042ac:	e3403012 	movt	r3, #18
  1042b0:	e5d33000 	ldrb	r3, [r3]
  1042b4:	e2833001 	add	r3, r3, #1
  1042b8:	e6ef2073 	uxtb	r2, r3
  1042bc:	e30430e0 	movw	r3, #16608	; 0x40e0
  1042c0:	e3403012 	movt	r3, #18
  1042c4:	e5c32000 	strb	r2, [r3]
  1042c8:	e3a03000 	mov	r3, #0
  1042cc:	e50b3008 	str	r3, [fp, #-8]
  1042d0:	ea00000e 	b	104310 <spi_engine_transfer_message+0x1d8>
  1042d4:	e24b3014 	sub	r3, fp, #20
  1042d8:	e1a02003 	mov	r2, r3
  1042dc:	e3a010e8 	mov	r1, #232	; 0xe8
  1042e0:	e51b000c 	ldr	r0, [fp, #-12]
  1042e4:	ebfffd7a 	bl	1038d4 <spi_engine_read>
  1042e8:	e51b3024 	ldr	r3, [fp, #-36]	; 0xffffffdc
  1042ec:	e5932004 	ldr	r2, [r3, #4]
  1042f0:	e51b3008 	ldr	r3, [fp, #-8]
  1042f4:	e1a03103 	lsl	r3, r3, #2
  1042f8:	e0823003 	add	r3, r2, r3
  1042fc:	e51b2014 	ldr	r2, [fp, #-20]	; 0xffffffec
  104300:	e5832000 	str	r2, [r3]
  104304:	e51b3008 	ldr	r3, [fp, #-8]
  104308:	e2833001 	add	r3, r3, #1
  10430c:	e50b3008 	str	r3, [fp, #-8]
  104310:	e51b3024 	ldr	r3, [fp, #-36]	; 0xffffffdc
  104314:	e5932008 	ldr	r2, [r3, #8]
  104318:	e51b3008 	ldr	r3, [fp, #-8]
  10431c:	e1520003 	cmp	r2, r3
  104320:	8affffeb 	bhi	1042d4 <spi_engine_transfer_message+0x19c>
  104324:	e3a03000 	mov	r3, #0
  104328:	e1a00003 	mov	r0, r3
  10432c:	e24bd004 	sub	sp, fp, #4
  104330:	e8bd8800 	pop	{fp, pc}

00104334 <spi_engine_init>:
  104334:	e92d4800 	push	{fp, lr}
  104338:	e28db004 	add	fp, sp, #4
  10433c:	e24dd018 	sub	sp, sp, #24
  104340:	e50b0018 	str	r0, [fp, #-24]	; 0xffffffe8
  104344:	e50b101c 	str	r1, [fp, #-28]	; 0xffffffe4
  104348:	e51b301c 	ldr	r3, [fp, #-28]	; 0xffffffe4
  10434c:	e3530000 	cmp	r3, #0
  104350:	1a000001 	bne	10435c <spi_engine_init+0x28>
  104354:	e3e03000 	mvn	r3, #0
  104358:	ea000080 	b	104560 <spi_engine_init+0x22c>
  10435c:	e3a00010 	mov	r0, #16
  104360:	eb0050ec 	bl	118718 <malloc>
  104364:	e1a03000 	mov	r3, r0
  104368:	e1a02003 	mov	r2, r3
  10436c:	e51b3018 	ldr	r3, [fp, #-24]	; 0xffffffe8
  104370:	e5832000 	str	r2, [r3]
  104374:	e51b3018 	ldr	r3, [fp, #-24]	; 0xffffffe8
  104378:	e5933000 	ldr	r3, [r3]
  10437c:	e3530000 	cmp	r3, #0
  104380:	1a000005 	bne	10439c <spi_engine_init+0x68>
  104384:	e51b3018 	ldr	r3, [fp, #-24]	; 0xffffffe8
  104388:	e5933000 	ldr	r3, [r3]
  10438c:	e1a00003 	mov	r0, r3
  104390:	eb0050e6 	bl	118730 <free>
  104394:	e3e03000 	mvn	r3, #0
  104398:	ea000070 	b	104560 <spi_engine_init+0x22c>
  10439c:	e3a0002c 	mov	r0, #44	; 0x2c
  1043a0:	eb0050dc 	bl	118718 <malloc>
  1043a4:	e1a03000 	mov	r3, r0
  1043a8:	e50b3008 	str	r3, [fp, #-8]
  1043ac:	e51b3008 	ldr	r3, [fp, #-8]
  1043b0:	e3530000 	cmp	r3, #0
  1043b4:	1a000001 	bne	1043c0 <spi_engine_init+0x8c>
  1043b8:	e3e03000 	mvn	r3, #0
  1043bc:	ea000067 	b	104560 <spi_engine_init+0x22c>
  1043c0:	e51b301c 	ldr	r3, [fp, #-28]	; 0xffffffe4
  1043c4:	e593300c 	ldr	r3, [r3, #12]
  1043c8:	e50b300c 	str	r3, [fp, #-12]
  1043cc:	e51b3018 	ldr	r3, [fp, #-24]	; 0xffffffe8
  1043d0:	e5933000 	ldr	r3, [r3]
  1043d4:	e51b201c 	ldr	r2, [fp, #-28]	; 0xffffffe4
  1043d8:	e5922000 	ldr	r2, [r2]
  1043dc:	e5832000 	str	r2, [r3]
  1043e0:	e51b3018 	ldr	r3, [fp, #-24]	; 0xffffffe8
  1043e4:	e5933000 	ldr	r3, [r3]
  1043e8:	e51b201c 	ldr	r2, [fp, #-28]	; 0xffffffe4
  1043ec:	e5d22004 	ldrb	r2, [r2, #4]
  1043f0:	e5c32004 	strb	r2, [r3, #4]
  1043f4:	e51b3018 	ldr	r3, [fp, #-24]	; 0xffffffe8
  1043f8:	e5933000 	ldr	r3, [r3]
  1043fc:	e51b201c 	ldr	r2, [fp, #-28]	; 0xffffffe4
  104400:	e5d22005 	ldrb	r2, [r2, #5]
  104404:	e5c32005 	strb	r2, [r3, #5]
  104408:	e51b3018 	ldr	r3, [fp, #-24]	; 0xffffffe8
  10440c:	e5933000 	ldr	r3, [r3]
  104410:	e51b2008 	ldr	r2, [fp, #-8]
  104414:	e583200c 	str	r2, [r3, #12]
  104418:	e51b3008 	ldr	r3, [fp, #-8]
  10441c:	e3a02000 	mov	r2, #0
  104420:	e5c32010 	strb	r2, [r3, #16]
  104424:	e51b300c 	ldr	r3, [fp, #-12]
  104428:	e5932008 	ldr	r2, [r3, #8]
  10442c:	e51b3008 	ldr	r3, [fp, #-8]
  104430:	e5832014 	str	r2, [r3, #20]
  104434:	e51b300c 	ldr	r3, [fp, #-12]
  104438:	e5d32004 	ldrb	r2, [r3, #4]
  10443c:	e51b3008 	ldr	r3, [fp, #-8]
  104440:	e5c32004 	strb	r2, [r3, #4]
  104444:	e51b300c 	ldr	r3, [fp, #-12]
  104448:	e593300c 	ldr	r3, [r3, #12]
  10444c:	e6ef2073 	uxtb	r2, r3
  104450:	e51b3008 	ldr	r3, [fp, #-8]
  104454:	e5c32020 	strb	r2, [r3, #32]
  104458:	e51b300c 	ldr	r3, [fp, #-12]
  10445c:	e5932000 	ldr	r2, [r3]
  104460:	e51b3008 	ldr	r3, [fp, #-8]
  104464:	e5832000 	str	r2, [r3]
  104468:	e51b3008 	ldr	r3, [fp, #-8]
  10446c:	e5932000 	ldr	r2, [r3]
  104470:	e51b301c 	ldr	r3, [fp, #-28]	; 0xffffffe4
  104474:	e5933000 	ldr	r3, [r3]
  104478:	e1a03083 	lsl	r3, r3, #1
  10447c:	e1a01003 	mov	r1, r3
  104480:	e1a00002 	mov	r0, r2
  104484:	eb004f9a 	bl	1182f4 <__aeabi_uidiv>
  104488:	e1a03000 	mov	r3, r0
  10448c:	e2432001 	sub	r2, r3, #1
  104490:	e51b3008 	ldr	r3, [fp, #-8]
  104494:	e5832024 	str	r2, [r3, #36]	; 0x24
  104498:	e3a02001 	mov	r2, #1
  10449c:	e3a01040 	mov	r1, #64	; 0x40
  1044a0:	e51b0008 	ldr	r0, [fp, #-8]
  1044a4:	ebfffcfa 	bl	103894 <spi_engine_write>
  1044a8:	e3a00ffa 	mov	r0, #1000	; 0x3e8
  1044ac:	ebfffa92 	bl	102efc <udelay>
  1044b0:	e3a02000 	mov	r2, #0
  1044b4:	e3a01040 	mov	r1, #64	; 0x40
  1044b8:	e51b0008 	ldr	r0, [fp, #-8]
  1044bc:	ebfffcf4 	bl	103894 <spi_engine_write>
  1044c0:	e3a020ff 	mov	r2, #255	; 0xff
  1044c4:	e3a01084 	mov	r1, #132	; 0x84
  1044c8:	e51b0008 	ldr	r0, [fp, #-8]
  1044cc:	ebfffcf0 	bl	103894 <spi_engine_write>
  1044d0:	e3a02000 	mov	r2, #0
  1044d4:	e3a01080 	mov	r1, #128	; 0x80
  1044d8:	e51b0008 	ldr	r0, [fp, #-8]
  1044dc:	ebfffcec 	bl	103894 <spi_engine_write>
  1044e0:	e24b3010 	sub	r3, fp, #16
  1044e4:	e1a02003 	mov	r2, r3
  1044e8:	e3a0100c 	mov	r1, #12
  1044ec:	e51b0008 	ldr	r0, [fp, #-8]
  1044f0:	ebfffcf7 	bl	1038d4 <spi_engine_read>
  1044f4:	e51b3010 	ldr	r3, [fp, #-16]
  1044f8:	e6ef2073 	uxtb	r2, r3
  1044fc:	e51b3008 	ldr	r3, [fp, #-8]
  104500:	e5c32029 	strb	r2, [r3, #41]	; 0x29
  104504:	e51b3018 	ldr	r3, [fp, #-24]	; 0xffffffe8
  104508:	e5932000 	ldr	r2, [r3]
  10450c:	e51b300c 	ldr	r3, [fp, #-12]
  104510:	e5d33010 	ldrb	r3, [r3, #16]
  104514:	e1a01003 	mov	r1, r3
  104518:	e1a00002 	mov	r0, r2
  10451c:	ebfffcfc 	bl	103914 <spi_engine_set_transfer_width>
  104520:	e24b3014 	sub	r3, fp, #20
  104524:	e1a02003 	mov	r2, r3
  104528:	e3a01000 	mov	r1, #0
  10452c:	e51b0008 	ldr	r0, [fp, #-8]
  104530:	ebfffce7 	bl	1038d4 <spi_engine_read>
  104534:	e51b3014 	ldr	r3, [fp, #-20]	; 0xffffffec
  104538:	e1a01823 	lsr	r1, r3, #16
  10453c:	e51b3014 	ldr	r3, [fp, #-20]	; 0xffffffec
  104540:	e1a03423 	lsr	r3, r3, #8
  104544:	e6ef2073 	uxtb	r2, r3
  104548:	e51b3014 	ldr	r3, [fp, #-20]	; 0xffffffec
  10454c:	e6ef3073 	uxtb	r3, r3
  104550:	e3020298 	movw	r0, #8856	; 0x2298
  104554:	e3400012 	movt	r0, #18
  104558:	eb0052af 	bl	11901c <printf>
  10455c:	e3a03000 	mov	r3, #0
  104560:	e1a00003 	mov	r0, r3
  104564:	e24bd004 	sub	sp, fp, #4
  104568:	e8bd8800 	pop	{fp, pc}

0010456c <spi_engine_write_and_read>:
  10456c:	e92d48f0 	push	{r4, r5, r6, r7, fp, lr}
  104570:	e28db014 	add	fp, sp, #20
  104574:	e24dd030 	sub	sp, sp, #48	; 0x30
  104578:	e50b0038 	str	r0, [fp, #-56]	; 0xffffffc8
  10457c:	e50b103c 	str	r1, [fp, #-60]	; 0xffffffc4
  104580:	e1a03002 	mov	r3, r2
  104584:	e14b33be 	strh	r3, [fp, #-62]	; 0xffffffc2
  104588:	e51b3038 	ldr	r3, [fp, #-56]	; 0xffffffc8
  10458c:	e593300c 	ldr	r3, [r3, #12]
  104590:	e50b301c 	str	r3, [fp, #-28]	; 0xffffffe4
  104594:	e51b301c 	ldr	r3, [fp, #-28]	; 0xffffffe4
  104598:	e3a02000 	mov	r2, #0
  10459c:	e5c32010 	strb	r2, [r3, #16]
  1045a0:	e3a02000 	mov	r2, #0
  1045a4:	e3a01c01 	mov	r1, #256	; 0x100
  1045a8:	e51b001c 	ldr	r0, [fp, #-28]	; 0xffffffe4
  1045ac:	ebfffcb8 	bl	103894 <spi_engine_write>
  1045b0:	e15b33be 	ldrh	r3, [fp, #-62]	; 0xffffffc2
  1045b4:	e6ef3073 	uxtb	r3, r3
  1045b8:	e1a01003 	mov	r1, r3
  1045bc:	e51b001c 	ldr	r0, [fp, #-28]	; 0xffffffe4
  1045c0:	ebfffd04 	bl	1039d8 <spi_get_words_number>
  1045c4:	e1a03000 	mov	r3, r0
  1045c8:	e54b301d 	strb	r3, [fp, #-29]	; 0xffffffe3
  1045cc:	e3a00008 	mov	r0, #8
  1045d0:	eb005050 	bl	118718 <malloc>
  1045d4:	e1a03000 	mov	r3, r0
  1045d8:	e50b3028 	str	r3, [fp, #-40]	; 0xffffffd8
  1045dc:	e51b3028 	ldr	r3, [fp, #-40]	; 0xffffffd8
  1045e0:	e3530000 	cmp	r3, #0
  1045e4:	1a000001 	bne	1045f0 <spi_engine_write_and_read+0x84>
  1045e8:	e3e03000 	mvn	r3, #0
  1045ec:	ea000093 	b	104840 <spi_engine_write_and_read+0x2d4>
  1045f0:	e55b301d 	ldrb	r3, [fp, #-29]	; 0xffffffe3
  1045f4:	e3a01004 	mov	r1, #4
  1045f8:	e1a00003 	mov	r0, r3
  1045fc:	eb005015 	bl	118658 <calloc>
  104600:	e1a03000 	mov	r3, r0
  104604:	e50b3034 	str	r3, [fp, #-52]	; 0xffffffcc
  104608:	e55b301d 	ldrb	r3, [fp, #-29]	; 0xffffffe3
  10460c:	e3a01004 	mov	r1, #4
  104610:	e1a00003 	mov	r0, r3
  104614:	eb00500f 	bl	118658 <calloc>
  104618:	e1a03000 	mov	r3, r0
  10461c:	e50b3030 	str	r3, [fp, #-48]	; 0xffffffd0
  104620:	e55b301d 	ldrb	r3, [fp, #-29]	; 0xffffffe3
  104624:	e50b302c 	str	r3, [fp, #-44]	; 0xffffffd4
  104628:	e51b001c 	ldr	r0, [fp, #-28]	; 0xffffffe4
  10462c:	ebfffd0a 	bl	103a5c <spi_get_word_lenght>
  104630:	e1a03000 	mov	r3, r0
  104634:	e54b301e 	strb	r3, [fp, #-30]	; 0xffffffe2
  104638:	e51b3028 	ldr	r3, [fp, #-40]	; 0xffffffd8
  10463c:	e3a02000 	mov	r2, #0
  104640:	e5832004 	str	r2, [r3, #4]
  104644:	e51b3028 	ldr	r3, [fp, #-40]	; 0xffffffd8
  104648:	e30123ff 	movw	r2, #5119	; 0x13ff
  10464c:	e5832000 	str	r2, [r3]
  104650:	e24b3034 	sub	r3, fp, #52	; 0x34
  104654:	e283300c 	add	r3, r3, #12
  104658:	e3a01c13 	mov	r1, #4864	; 0x1300
  10465c:	e1a00003 	mov	r0, r3
  104660:	ebfffd49 	bl	103b8c <spi_engine_queue_add_cmd>
  104664:	e15b33be 	ldrh	r3, [fp, #-62]	; 0xffffffc2
  104668:	e3833c03 	orr	r3, r3, #768	; 0x300
  10466c:	e6ff3073 	uxth	r3, r3
  104670:	e1a02003 	mov	r2, r3
  104674:	e24b3034 	sub	r3, fp, #52	; 0x34
  104678:	e283300c 	add	r3, r3, #12
  10467c:	e1a01002 	mov	r1, r2
  104680:	e1a00003 	mov	r0, r3
  104684:	ebfffd40 	bl	103b8c <spi_engine_queue_add_cmd>
  104688:	e24b3034 	sub	r3, fp, #52	; 0x34
  10468c:	e283300c 	add	r3, r3, #12
  104690:	e30113ff 	movw	r1, #5119	; 0x13ff
  104694:	e1a00003 	mov	r0, r3
  104698:	ebfffd3b 	bl	103b8c <spi_engine_queue_add_cmd>
  10469c:	e3a03000 	mov	r3, #0
  1046a0:	e54b3015 	strb	r3, [fp, #-21]	; 0xffffffeb
  1046a4:	ea000027 	b	104748 <spi_engine_write_and_read+0x1dc>
  1046a8:	e51b4034 	ldr	r4, [fp, #-52]	; 0xffffffcc
  1046ac:	e55b3015 	ldrb	r3, [fp, #-21]	; 0xffffffeb
  1046b0:	e55b201e 	ldrb	r2, [fp, #-30]	; 0xffffffe2
  1046b4:	e1a01002 	mov	r1, r2
  1046b8:	e1a00003 	mov	r0, r3
  1046bc:	eb004f0c 	bl	1182f4 <__aeabi_uidiv>
  1046c0:	e1a03000 	mov	r3, r0
  1046c4:	e6ef1073 	uxtb	r1, r3
  1046c8:	e1a03001 	mov	r3, r1
  1046cc:	e1a03103 	lsl	r3, r3, #2
  1046d0:	e0844003 	add	r4, r4, r3
  1046d4:	e51b2034 	ldr	r2, [fp, #-52]	; 0xffffffcc
  1046d8:	e1a03001 	mov	r3, r1
  1046dc:	e1a03103 	lsl	r3, r3, #2
  1046e0:	e0823003 	add	r3, r2, r3
  1046e4:	e5935000 	ldr	r5, [r3]
  1046e8:	e55b3015 	ldrb	r3, [fp, #-21]	; 0xffffffeb
  1046ec:	e51b203c 	ldr	r2, [fp, #-60]	; 0xffffffc4
  1046f0:	e0823003 	add	r3, r2, r3
  1046f4:	e5d33000 	ldrb	r3, [r3]
  1046f8:	e1a06003 	mov	r6, r3
  1046fc:	e51b301c 	ldr	r3, [fp, #-28]	; 0xffffffe4
  104700:	e5d33028 	ldrb	r3, [r3, #40]	; 0x28
  104704:	e1a07003 	mov	r7, r3
  104708:	e55b3015 	ldrb	r3, [fp, #-21]	; 0xffffffeb
  10470c:	e55b201e 	ldrb	r2, [fp, #-30]	; 0xffffffe2
  104710:	e1a01002 	mov	r1, r2
  104714:	e1a00003 	mov	r0, r3
  104718:	eb004f70 	bl	1184e0 <__aeabi_uidivmod>
  10471c:	e1a03001 	mov	r3, r1
  104720:	e6ef3073 	uxtb	r3, r3
  104724:	e2833001 	add	r3, r3, #1
  104728:	e1a03183 	lsl	r3, r3, #3
  10472c:	e0473003 	sub	r3, r7, r3
  104730:	e1a03316 	lsl	r3, r6, r3
  104734:	e1853003 	orr	r3, r5, r3
  104738:	e5843000 	str	r3, [r4]
  10473c:	e55b3015 	ldrb	r3, [fp, #-21]	; 0xffffffeb
  104740:	e2833001 	add	r3, r3, #1
  104744:	e54b3015 	strb	r3, [fp, #-21]	; 0xffffffeb
  104748:	e55b3015 	ldrb	r3, [fp, #-21]	; 0xffffffeb
  10474c:	e6ff3073 	uxth	r3, r3
  104750:	e15b23be 	ldrh	r2, [fp, #-62]	; 0xffffffc2
  104754:	e1520003 	cmp	r2, r3
  104758:	8affffd2 	bhi	1046a8 <spi_engine_write_and_read+0x13c>
  10475c:	e24b3034 	sub	r3, fp, #52	; 0x34
  104760:	e1a01003 	mov	r1, r3
  104764:	e51b0038 	ldr	r0, [fp, #-56]	; 0xffffffc8
  104768:	ebfffe72 	bl	104138 <spi_engine_transfer_message>
  10476c:	e50b0024 	str	r0, [fp, #-36]	; 0xffffffdc
  104770:	e3a03000 	mov	r3, #0
  104774:	e54b3015 	strb	r3, [fp, #-21]	; 0xffffffeb
  104778:	ea000020 	b	104800 <spi_engine_write_and_read+0x294>
  10477c:	e55b3015 	ldrb	r3, [fp, #-21]	; 0xffffffeb
  104780:	e51b203c 	ldr	r2, [fp, #-60]	; 0xffffffc4
  104784:	e0824003 	add	r4, r2, r3
  104788:	e51b5030 	ldr	r5, [fp, #-48]	; 0xffffffd0
  10478c:	e55b3015 	ldrb	r3, [fp, #-21]	; 0xffffffeb
  104790:	e55b201e 	ldrb	r2, [fp, #-30]	; 0xffffffe2
  104794:	e1a01002 	mov	r1, r2
  104798:	e1a00003 	mov	r0, r3
  10479c:	eb004ed4 	bl	1182f4 <__aeabi_uidiv>
  1047a0:	e1a03000 	mov	r3, r0
  1047a4:	e6ef3073 	uxtb	r3, r3
  1047a8:	e1a03103 	lsl	r3, r3, #2
  1047ac:	e0853003 	add	r3, r5, r3
  1047b0:	e5935000 	ldr	r5, [r3]
  1047b4:	e51b301c 	ldr	r3, [fp, #-28]	; 0xffffffe4
  1047b8:	e5d33028 	ldrb	r3, [r3, #40]	; 0x28
  1047bc:	e1a06003 	mov	r6, r3
  1047c0:	e55b3015 	ldrb	r3, [fp, #-21]	; 0xffffffeb
  1047c4:	e55b201e 	ldrb	r2, [fp, #-30]	; 0xffffffe2
  1047c8:	e1a01002 	mov	r1, r2
  1047cc:	e1a00003 	mov	r0, r3
  1047d0:	eb004f42 	bl	1184e0 <__aeabi_uidivmod>
  1047d4:	e1a03001 	mov	r3, r1
  1047d8:	e6ef3073 	uxtb	r3, r3
  1047dc:	e2833001 	add	r3, r3, #1
  1047e0:	e1a03183 	lsl	r3, r3, #3
  1047e4:	e0463003 	sub	r3, r6, r3
  1047e8:	e1a03335 	lsr	r3, r5, r3
  1047ec:	e6ef3073 	uxtb	r3, r3
  1047f0:	e5c43000 	strb	r3, [r4]
  1047f4:	e55b3015 	ldrb	r3, [fp, #-21]	; 0xffffffeb
  1047f8:	e2833001 	add	r3, r3, #1
  1047fc:	e54b3015 	strb	r3, [fp, #-21]	; 0xffffffeb
  104800:	e55b3015 	ldrb	r3, [fp, #-21]	; 0xffffffeb
  104804:	e6ff3073 	uxth	r3, r3
  104808:	e15b23be 	ldrh	r2, [fp, #-62]	; 0xffffffc2
  10480c:	e1520003 	cmp	r2, r3
  104810:	8affffd9 	bhi	10477c <spi_engine_write_and_read+0x210>
  104814:	e24b3034 	sub	r3, fp, #52	; 0x34
  104818:	e283300c 	add	r3, r3, #12
  10481c:	e1a00003 	mov	r0, r3
  104820:	ebfffd33 	bl	103cf4 <spi_engine_queue_free>
  104824:	e51b3034 	ldr	r3, [fp, #-52]	; 0xffffffcc
  104828:	e1a00003 	mov	r0, r3
  10482c:	eb004fbf 	bl	118730 <free>
  104830:	e51b3030 	ldr	r3, [fp, #-48]	; 0xffffffd0
  104834:	e1a00003 	mov	r0, r3
  104838:	eb004fbc 	bl	118730 <free>
  10483c:	e51b3024 	ldr	r3, [fp, #-36]	; 0xffffffdc
  104840:	e1a00003 	mov	r0, r3
  104844:	e24bd014 	sub	sp, fp, #20
  104848:	e8bd88f0 	pop	{r4, r5, r6, r7, fp, pc}

0010484c <spi_engine_offload_init>:
  10484c:	e92d4800 	push	{fp, lr}
  104850:	e28db004 	add	fp, sp, #4
  104854:	e24dd020 	sub	sp, sp, #32
  104858:	e50b0020 	str	r0, [fp, #-32]	; 0xffffffe0
  10485c:	e50b1024 	str	r1, [fp, #-36]	; 0xffffffdc
  104860:	e51b3020 	ldr	r3, [fp, #-32]	; 0xffffffe0
  104864:	e593300c 	ldr	r3, [r3, #12]
  104868:	e50b3008 	str	r3, [fp, #-8]
  10486c:	e51b3024 	ldr	r3, [fp, #-36]	; 0xffffffdc
  104870:	e5d32008 	ldrb	r2, [r3, #8]
  104874:	e51b3008 	ldr	r3, [fp, #-8]
  104878:	e5c32010 	strb	r2, [r3, #16]
  10487c:	e51b3024 	ldr	r3, [fp, #-36]	; 0xffffffdc
  104880:	e5d33008 	ldrb	r3, [r3, #8]
  104884:	e2033001 	and	r3, r3, #1
  104888:	e3530000 	cmp	r3, #0
  10488c:	0a000015 	beq	1048e8 <spi_engine_offload_init+0x9c>
  104890:	e30232cc 	movw	r3, #8908	; 0x22cc
  104894:	e3403012 	movt	r3, #18
  104898:	e50b3018 	str	r3, [fp, #-24]	; 0xffffffe8
  10489c:	e51b3024 	ldr	r3, [fp, #-36]	; 0xffffffdc
  1048a0:	e5933004 	ldr	r3, [r3, #4]
  1048a4:	e50b3014 	str	r3, [fp, #-20]	; 0xffffffec
  1048a8:	e3a03001 	mov	r3, #1
  1048ac:	e54b3010 	strb	r3, [fp, #-16]
  1048b0:	e3a03001 	mov	r3, #1
  1048b4:	e50b300c 	str	r3, [fp, #-12]
  1048b8:	e51b3008 	ldr	r3, [fp, #-8]
  1048bc:	e2833008 	add	r3, r3, #8
  1048c0:	e24b2018 	sub	r2, fp, #24
  1048c4:	e1a01002 	mov	r1, r2
  1048c8:	e1a00003 	mov	r0, r3
  1048cc:	eb00018d 	bl	104f08 <axi_dmac_init>
  1048d0:	e51b3008 	ldr	r3, [fp, #-8]
  1048d4:	e5933008 	ldr	r3, [r3, #8]
  1048d8:	e3530000 	cmp	r3, #0
  1048dc:	1a000001 	bne	1048e8 <spi_engine_offload_init+0x9c>
  1048e0:	e3e03000 	mvn	r3, #0
  1048e4:	ea00001b 	b	104958 <spi_engine_offload_init+0x10c>
  1048e8:	e51b3024 	ldr	r3, [fp, #-36]	; 0xffffffdc
  1048ec:	e5d33008 	ldrb	r3, [r3, #8]
  1048f0:	e2033002 	and	r3, r3, #2
  1048f4:	e3530000 	cmp	r3, #0
  1048f8:	0a000015 	beq	104954 <spi_engine_offload_init+0x108>
  1048fc:	e30232d8 	movw	r3, #8920	; 0x22d8
  104900:	e3403012 	movt	r3, #18
  104904:	e50b3018 	str	r3, [fp, #-24]	; 0xffffffe8
  104908:	e51b3024 	ldr	r3, [fp, #-36]	; 0xffffffdc
  10490c:	e5933000 	ldr	r3, [r3]
  104910:	e50b3014 	str	r3, [fp, #-20]	; 0xffffffec
  104914:	e3a03000 	mov	r3, #0
  104918:	e54b3010 	strb	r3, [fp, #-16]
  10491c:	e3a03001 	mov	r3, #1
  104920:	e50b300c 	str	r3, [fp, #-12]
  104924:	e51b3008 	ldr	r3, [fp, #-8]
  104928:	e283300c 	add	r3, r3, #12
  10492c:	e24b2018 	sub	r2, fp, #24
  104930:	e1a01002 	mov	r1, r2
  104934:	e1a00003 	mov	r0, r3
  104938:	eb000172 	bl	104f08 <axi_dmac_init>
  10493c:	e51b3008 	ldr	r3, [fp, #-8]
  104940:	e593300c 	ldr	r3, [r3, #12]
  104944:	e3530000 	cmp	r3, #0
  104948:	1a000001 	bne	104954 <spi_engine_offload_init+0x108>
  10494c:	e3e03000 	mvn	r3, #0
  104950:	ea000000 	b	104958 <spi_engine_offload_init+0x10c>
  104954:	e3a03000 	mov	r3, #0
  104958:	e1a00003 	mov	r0, r3
  10495c:	e24bd004 	sub	sp, fp, #4
  104960:	e8bd8800 	pop	{fp, pc}

00104964 <spi_engine_offload_transfer>:
  104964:	e24dd010 	sub	sp, sp, #16
  104968:	e92d4800 	push	{fp, lr}
  10496c:	e28db004 	add	fp, sp, #4
  104970:	e24dd028 	sub	sp, sp, #40	; 0x28
  104974:	e50b0028 	str	r0, [fp, #-40]	; 0xffffffd8
  104978:	e28b0008 	add	r0, fp, #8
  10497c:	e880000e 	stm	r0, {r1, r2, r3}
  104980:	e51b3028 	ldr	r3, [fp, #-40]	; 0xffffffd8
  104984:	e593300c 	ldr	r3, [r3, #12]
  104988:	e50b3010 	str	r3, [fp, #-16]
  10498c:	e51b3010 	ldr	r3, [fp, #-16]
  104990:	e5d33010 	ldrb	r3, [r3, #16]
  104994:	e2033003 	and	r3, r3, #3
  104998:	e3530000 	cmp	r3, #0
  10499c:	1a000001 	bne	1049a8 <spi_engine_offload_transfer+0x44>
  1049a0:	e3e03000 	mvn	r3, #0
  1049a4:	ea00007a 	b	104b94 <spi_engine_offload_transfer+0x230>
  1049a8:	e3a02001 	mov	r2, #1
  1049ac:	e3a01f42 	mov	r1, #264	; 0x108
  1049b0:	e51b0010 	ldr	r0, [fp, #-16]
  1049b4:	ebfffbb6 	bl	103894 <spi_engine_write>
  1049b8:	e3a02000 	mov	r2, #0
  1049bc:	e3a01f42 	mov	r1, #264	; 0x108
  1049c0:	e51b0010 	ldr	r0, [fp, #-16]
  1049c4:	ebfffbb2 	bl	103894 <spi_engine_write>
  1049c8:	e51b3010 	ldr	r3, [fp, #-16]
  1049cc:	e3a02000 	mov	r2, #0
  1049d0:	e5c32011 	strb	r2, [r3, #17]
  1049d4:	e51b3010 	ldr	r3, [fp, #-16]
  1049d8:	e3a02000 	mov	r2, #0
  1049dc:	e5c32012 	strb	r2, [r3, #18]
  1049e0:	e3a00008 	mov	r0, #8
  1049e4:	eb004f4b 	bl	118718 <malloc>
  1049e8:	e1a03000 	mov	r3, r0
  1049ec:	e50b3018 	str	r3, [fp, #-24]	; 0xffffffe8
  1049f0:	e51b3018 	ldr	r3, [fp, #-24]	; 0xffffffe8
  1049f4:	e3530000 	cmp	r3, #0
  1049f8:	1a000001 	bne	104a04 <spi_engine_offload_transfer+0xa0>
  1049fc:	e3e03000 	mvn	r3, #0
  104a00:	ea000063 	b	104b94 <spi_engine_offload_transfer+0x230>
  104a04:	e59b3010 	ldr	r3, [fp, #16]
  104a08:	e50b3024 	str	r3, [fp, #-36]	; 0xffffffdc
  104a0c:	e51b3018 	ldr	r3, [fp, #-24]	; 0xffffffe8
  104a10:	e3a02000 	mov	r2, #0
  104a14:	e5832004 	str	r2, [r3, #4]
  104a18:	e51b3018 	ldr	r3, [fp, #-24]	; 0xffffffe8
  104a1c:	e59b2008 	ldr	r2, [fp, #8]
  104a20:	e5922000 	ldr	r2, [r2]
  104a24:	e5832000 	str	r2, [r3]
  104a28:	e3a03001 	mov	r3, #1
  104a2c:	e50b3008 	str	r3, [fp, #-8]
  104a30:	ea00000b 	b	104a64 <spi_engine_offload_transfer+0x100>
  104a34:	e59b2008 	ldr	r2, [fp, #8]
  104a38:	e51b3008 	ldr	r3, [fp, #-8]
  104a3c:	e2831001 	add	r1, r3, #1
  104a40:	e50b1008 	str	r1, [fp, #-8]
  104a44:	e1a03103 	lsl	r3, r3, #2
  104a48:	e0823003 	add	r3, r2, r3
  104a4c:	e5932000 	ldr	r2, [r3]
  104a50:	e24b3024 	sub	r3, fp, #36	; 0x24
  104a54:	e283300c 	add	r3, r3, #12
  104a58:	e1a01002 	mov	r1, r2
  104a5c:	e1a00003 	mov	r0, r3
  104a60:	ebfffc49 	bl	103b8c <spi_engine_queue_add_cmd>
  104a64:	e59b200c 	ldr	r2, [fp, #12]
  104a68:	e51b3008 	ldr	r3, [fp, #-8]
  104a6c:	e1520003 	cmp	r2, r3
  104a70:	8affffef 	bhi	104a34 <spi_engine_offload_transfer+0xd0>
  104a74:	e24b3024 	sub	r3, fp, #36	; 0x24
  104a78:	e1a01003 	mov	r1, r3
  104a7c:	e51b0028 	ldr	r0, [fp, #-40]	; 0xffffffd8
  104a80:	ebfffdac 	bl	104138 <spi_engine_transfer_message>
  104a84:	e51b0010 	ldr	r0, [fp, #-16]
  104a88:	ebfffbf3 	bl	103a5c <spi_get_word_lenght>
  104a8c:	e1a03000 	mov	r3, r0
  104a90:	e54b3011 	strb	r3, [fp, #-17]	; 0xffffffef
  104a94:	e51b3010 	ldr	r3, [fp, #-16]
  104a98:	e5d33010 	ldrb	r3, [r3, #16]
  104a9c:	e2033001 	and	r3, r3, #1
  104aa0:	e3530000 	cmp	r3, #0
  104aa4:	0a00000b 	beq	104ad8 <spi_engine_offload_transfer+0x174>
  104aa8:	e51b3010 	ldr	r3, [fp, #-16]
  104aac:	e5930008 	ldr	r0, [r3, #8]
  104ab0:	e59b1014 	ldr	r1, [fp, #20]
  104ab4:	e55b3011 	ldrb	r3, [fp, #-17]	; 0xffffffef
  104ab8:	e51b2010 	ldr	r2, [fp, #-16]
  104abc:	e5d22011 	ldrb	r2, [r2, #17]
  104ac0:	e0030392 	mul	r3, r2, r3
  104ac4:	e1a02003 	mov	r2, r3
  104ac8:	e59b301c 	ldr	r3, [fp, #28]
  104acc:	e0030293 	mul	r3, r3, r2
  104ad0:	e1a02003 	mov	r2, r3
  104ad4:	eb000076 	bl	104cb4 <axi_dmac_transfer>
  104ad8:	e51b3010 	ldr	r3, [fp, #-16]
  104adc:	e5d33010 	ldrb	r3, [r3, #16]
  104ae0:	e2033002 	and	r3, r3, #2
  104ae4:	e3530000 	cmp	r3, #0
  104ae8:	0a00000b 	beq	104b1c <spi_engine_offload_transfer+0x1b8>
  104aec:	e51b3010 	ldr	r3, [fp, #-16]
  104af0:	e593000c 	ldr	r0, [r3, #12]
  104af4:	e59b1018 	ldr	r1, [fp, #24]
  104af8:	e55b3011 	ldrb	r3, [fp, #-17]	; 0xffffffef
  104afc:	e51b2010 	ldr	r2, [fp, #-16]
  104b00:	e5d22011 	ldrb	r2, [r2, #17]
  104b04:	e0030392 	mul	r3, r2, r3
  104b08:	e1a02003 	mov	r2, r3
  104b0c:	e59b301c 	ldr	r3, [fp, #28]
  104b10:	e0030293 	mul	r3, r3, r2
  104b14:	e1a02003 	mov	r2, r3
  104b18:	eb000065 	bl	104cb4 <axi_dmac_transfer>
  104b1c:	e3a00ffa 	mov	r0, #1000	; 0x3e8
  104b20:	ebfff8f5 	bl	102efc <udelay>
  104b24:	e3a03000 	mov	r3, #0
  104b28:	e50b300c 	str	r3, [fp, #-12]
  104b2c:	e3a03000 	mov	r3, #0
  104b30:	e50b3008 	str	r3, [fp, #-8]
  104b34:	ea000005 	b	104b50 <spi_engine_offload_transfer+0x1ec>
  104b38:	e51b300c 	ldr	r3, [fp, #-12]
  104b3c:	e2833001 	add	r3, r3, #1
  104b40:	e50b300c 	str	r3, [fp, #-12]
  104b44:	e51b3008 	ldr	r3, [fp, #-8]
  104b48:	e2833001 	add	r3, r3, #1
  104b4c:	e50b3008 	str	r3, [fp, #-8]
  104b50:	e51b3008 	ldr	r3, [fp, #-8]
  104b54:	e302270f 	movw	r2, #9999	; 0x270f
  104b58:	e1530002 	cmp	r3, r2
  104b5c:	9afffff5 	bls	104b38 <spi_engine_offload_transfer+0x1d4>
  104b60:	e3a02001 	mov	r2, #1
  104b64:	e3a01c01 	mov	r1, #256	; 0x100
  104b68:	e51b0010 	ldr	r0, [fp, #-16]
  104b6c:	ebfffb48 	bl	103894 <spi_engine_write>
  104b70:	e51b3010 	ldr	r3, [fp, #-16]
  104b74:	e593300c 	ldr	r3, [r3, #12]
  104b78:	e1a00003 	mov	r0, r3
  104b7c:	eb000106 	bl	104f9c <axi_wait>
  104b80:	e24b3024 	sub	r3, fp, #36	; 0x24
  104b84:	e283300c 	add	r3, r3, #12
  104b88:	e1a00003 	mov	r0, r3
  104b8c:	ebfffc58 	bl	103cf4 <spi_engine_queue_free>
  104b90:	e3a03000 	mov	r3, #0
  104b94:	e1a00003 	mov	r0, r3
  104b98:	e24bd004 	sub	sp, fp, #4
  104b9c:	e8bd4800 	pop	{fp, lr}
  104ba0:	e28dd010 	add	sp, sp, #16
  104ba4:	e12fff1e 	bx	lr

00104ba8 <spi_engine_remove>:
  104ba8:	e92d4800 	push	{fp, lr}
  104bac:	e28db004 	add	fp, sp, #4
  104bb0:	e24dd010 	sub	sp, sp, #16
  104bb4:	e50b0010 	str	r0, [fp, #-16]
  104bb8:	e51b3010 	ldr	r3, [fp, #-16]
  104bbc:	e593300c 	ldr	r3, [r3, #12]
  104bc0:	e50b3008 	str	r3, [fp, #-8]
  104bc4:	e51b3008 	ldr	r3, [fp, #-8]
  104bc8:	e5d33010 	ldrb	r3, [r3, #16]
  104bcc:	e2033001 	and	r3, r3, #1
  104bd0:	e3530000 	cmp	r3, #0
  104bd4:	0a000003 	beq	104be8 <spi_engine_remove+0x40>
  104bd8:	e51b3008 	ldr	r3, [fp, #-8]
  104bdc:	e5933008 	ldr	r3, [r3, #8]
  104be0:	e1a00003 	mov	r0, r3
  104be4:	eb000108 	bl	10500c <axi_dmac_remove>
  104be8:	e51b3008 	ldr	r3, [fp, #-8]
  104bec:	e5d33010 	ldrb	r3, [r3, #16]
  104bf0:	e2033002 	and	r3, r3, #2
  104bf4:	e3530000 	cmp	r3, #0
  104bf8:	0a000003 	beq	104c0c <spi_engine_remove+0x64>
  104bfc:	e51b3008 	ldr	r3, [fp, #-8]
  104c00:	e593300c 	ldr	r3, [r3, #12]
  104c04:	e1a00003 	mov	r0, r3
  104c08:	eb0000ff 	bl	10500c <axi_dmac_remove>
  104c0c:	e51b3010 	ldr	r3, [fp, #-16]
  104c10:	e593300c 	ldr	r3, [r3, #12]
  104c14:	e1a00003 	mov	r0, r3
  104c18:	eb004ec4 	bl	118730 <free>
  104c1c:	e51b0010 	ldr	r0, [fp, #-16]
  104c20:	eb004ec2 	bl	118730 <free>
  104c24:	e3a03000 	mov	r3, #0
  104c28:	e1a00003 	mov	r0, r3
  104c2c:	e24bd004 	sub	sp, fp, #4
  104c30:	e8bd8800 	pop	{fp, pc}

00104c34 <axi_dmac_read>:
  104c34:	e92d4800 	push	{fp, lr}
  104c38:	e28db004 	add	fp, sp, #4
  104c3c:	e24dd010 	sub	sp, sp, #16
  104c40:	e50b0008 	str	r0, [fp, #-8]
  104c44:	e50b100c 	str	r1, [fp, #-12]
  104c48:	e50b2010 	str	r2, [fp, #-16]
  104c4c:	e51b3008 	ldr	r3, [fp, #-8]
  104c50:	e5933004 	ldr	r3, [r3, #4]
  104c54:	e51b2010 	ldr	r2, [fp, #-16]
  104c58:	e51b100c 	ldr	r1, [fp, #-12]
  104c5c:	e1a00003 	mov	r0, r3
  104c60:	eb0000f8 	bl	105048 <axi_io_read>
  104c64:	e3a03000 	mov	r3, #0
  104c68:	e1a00003 	mov	r0, r3
  104c6c:	e24bd004 	sub	sp, fp, #4
  104c70:	e8bd8800 	pop	{fp, pc}

00104c74 <axi_dmac_write>:
  104c74:	e92d4800 	push	{fp, lr}
  104c78:	e28db004 	add	fp, sp, #4
  104c7c:	e24dd010 	sub	sp, sp, #16
  104c80:	e50b0008 	str	r0, [fp, #-8]
  104c84:	e50b100c 	str	r1, [fp, #-12]
  104c88:	e50b2010 	str	r2, [fp, #-16]
  104c8c:	e51b3008 	ldr	r3, [fp, #-8]
  104c90:	e5933004 	ldr	r3, [r3, #4]
  104c94:	e51b2010 	ldr	r2, [fp, #-16]
  104c98:	e51b100c 	ldr	r1, [fp, #-12]
  104c9c:	e1a00003 	mov	r0, r3
  104ca0:	eb0000f9 	bl	10508c <axi_io_write>
  104ca4:	e3a03000 	mov	r3, #0
  104ca8:	e1a00003 	mov	r0, r3
  104cac:	e24bd004 	sub	sp, fp, #4
  104cb0:	e8bd8800 	pop	{fp, pc}

00104cb4 <axi_dmac_transfer>:
  104cb4:	e92d4800 	push	{fp, lr}
  104cb8:	e28db004 	add	fp, sp, #4
  104cbc:	e24dd020 	sub	sp, sp, #32
  104cc0:	e50b0018 	str	r0, [fp, #-24]	; 0xffffffe8
  104cc4:	e50b101c 	str	r1, [fp, #-28]	; 0xffffffe4
  104cc8:	e50b2020 	str	r2, [fp, #-32]	; 0xffffffe0
  104ccc:	e3a03000 	mov	r3, #0
  104cd0:	e50b3010 	str	r3, [fp, #-16]
  104cd4:	e51b3020 	ldr	r3, [fp, #-32]	; 0xffffffe0
  104cd8:	e3530000 	cmp	r3, #0
  104cdc:	1a000001 	bne	104ce8 <axi_dmac_transfer+0x34>
  104ce0:	e3a03000 	mov	r3, #0
  104ce4:	ea000084 	b	104efc <axi_dmac_transfer+0x248>
  104ce8:	e3a02000 	mov	r2, #0
  104cec:	e3a01b01 	mov	r1, #1024	; 0x400
  104cf0:	e51b0018 	ldr	r0, [fp, #-24]	; 0xffffffe8
  104cf4:	ebffffde 	bl	104c74 <axi_dmac_write>
  104cf8:	e3a02001 	mov	r2, #1
  104cfc:	e3a01b01 	mov	r1, #1024	; 0x400
  104d00:	e51b0018 	ldr	r0, [fp, #-24]	; 0xffffffe8
  104d04:	ebffffda 	bl	104c74 <axi_dmac_write>
  104d08:	e24b3010 	sub	r3, fp, #16
  104d0c:	e1a02003 	mov	r2, r3
  104d10:	e3a01b01 	mov	r1, #1024	; 0x400
  104d14:	e51b0018 	ldr	r0, [fp, #-24]	; 0xffffffe8
  104d18:	ebffffc5 	bl	104c34 <axi_dmac_read>
  104d1c:	e3a02000 	mov	r2, #0
  104d20:	e3a01080 	mov	r1, #128	; 0x80
  104d24:	e51b0018 	ldr	r0, [fp, #-24]	; 0xffffffe8
  104d28:	ebffffd1 	bl	104c74 <axi_dmac_write>
  104d2c:	e24b300c 	sub	r3, fp, #12
  104d30:	e1a02003 	mov	r2, r3
  104d34:	e3a01084 	mov	r1, #132	; 0x84
  104d38:	e51b0018 	ldr	r0, [fp, #-24]	; 0xffffffe8
  104d3c:	ebffffbc 	bl	104c34 <axi_dmac_read>
  104d40:	e24b3008 	sub	r3, fp, #8
  104d44:	e1a02003 	mov	r2, r3
  104d48:	e3001404 	movw	r1, #1028	; 0x404
  104d4c:	e51b0018 	ldr	r0, [fp, #-24]	; 0xffffffe8
  104d50:	ebffffb7 	bl	104c34 <axi_dmac_read>
  104d54:	e24b300c 	sub	r3, fp, #12
  104d58:	e1a02003 	mov	r2, r3
  104d5c:	e3a01084 	mov	r1, #132	; 0x84
  104d60:	e51b0018 	ldr	r0, [fp, #-24]	; 0xffffffe8
  104d64:	ebffffb2 	bl	104c34 <axi_dmac_read>
  104d68:	e51b300c 	ldr	r3, [fp, #-12]
  104d6c:	e1a02003 	mov	r2, r3
  104d70:	e3a01084 	mov	r1, #132	; 0x84
  104d74:	e51b0018 	ldr	r0, [fp, #-24]	; 0xffffffe8
  104d78:	ebffffbd 	bl	104c74 <axi_dmac_write>
  104d7c:	e51b3018 	ldr	r3, [fp, #-24]	; 0xffffffe8
  104d80:	e5d33008 	ldrb	r3, [r3, #8]
  104d84:	e3530000 	cmp	r3, #0
  104d88:	0a000002 	beq	104d98 <axi_dmac_transfer+0xe4>
  104d8c:	e3530001 	cmp	r3, #1
  104d90:	0a00000e 	beq	104dd0 <axi_dmac_transfer+0x11c>
  104d94:	ea000016 	b	104df4 <axi_dmac_transfer+0x140>
  104d98:	e51b201c 	ldr	r2, [fp, #-28]	; 0xffffffe4
  104d9c:	e3a01e41 	mov	r1, #1040	; 0x410
  104da0:	e51b0018 	ldr	r0, [fp, #-24]	; 0xffffffe8
  104da4:	ebffffb2 	bl	104c74 <axi_dmac_write>
  104da8:	e51b201c 	ldr	r2, [fp, #-28]	; 0xffffffe4
  104dac:	e3a01e41 	mov	r1, #1040	; 0x410
  104db0:	e30202e4 	movw	r0, #8932	; 0x22e4
  104db4:	e3400012 	movt	r0, #18
  104db8:	eb005097 	bl	11901c <printf>
  104dbc:	e3a02000 	mov	r2, #0
  104dc0:	e3a01e42 	mov	r1, #1056	; 0x420
  104dc4:	e51b0018 	ldr	r0, [fp, #-24]	; 0xffffffe8
  104dc8:	ebffffa9 	bl	104c74 <axi_dmac_write>
  104dcc:	ea00000a 	b	104dfc <axi_dmac_transfer+0x148>
  104dd0:	e51b201c 	ldr	r2, [fp, #-28]	; 0xffffffe4
  104dd4:	e3001414 	movw	r1, #1044	; 0x414
  104dd8:	e51b0018 	ldr	r0, [fp, #-24]	; 0xffffffe8
  104ddc:	ebffffa4 	bl	104c74 <axi_dmac_write>
  104de0:	e3a02000 	mov	r2, #0
  104de4:	e3001424 	movw	r1, #1060	; 0x424
  104de8:	e51b0018 	ldr	r0, [fp, #-24]	; 0xffffffe8
  104dec:	ebffffa0 	bl	104c74 <axi_dmac_write>
  104df0:	ea000001 	b	104dfc <axi_dmac_transfer+0x148>
  104df4:	e3e03000 	mvn	r3, #0
  104df8:	ea00003f 	b	104efc <axi_dmac_transfer+0x248>
  104dfc:	e51b3020 	ldr	r3, [fp, #-32]	; 0xffffffe0
  104e00:	e2433001 	sub	r3, r3, #1
  104e04:	e1a02003 	mov	r2, r3
  104e08:	e3001418 	movw	r1, #1048	; 0x418
  104e0c:	e51b0018 	ldr	r0, [fp, #-24]	; 0xffffffe8
  104e10:	ebffff97 	bl	104c74 <axi_dmac_write>
  104e14:	e3a02000 	mov	r2, #0
  104e18:	e300141c 	movw	r1, #1052	; 0x41c
  104e1c:	e51b0018 	ldr	r0, [fp, #-24]	; 0xffffffe8
  104e20:	ebffff93 	bl	104c74 <axi_dmac_write>
  104e24:	e51b3018 	ldr	r3, [fp, #-24]	; 0xffffffe8
  104e28:	e593300c 	ldr	r3, [r3, #12]
  104e2c:	e1a02003 	mov	r2, r3
  104e30:	e300140c 	movw	r1, #1036	; 0x40c
  104e34:	e51b0018 	ldr	r0, [fp, #-24]	; 0xffffffe8
  104e38:	ebffff8d 	bl	104c74 <axi_dmac_write>
  104e3c:	e3a02001 	mov	r2, #1
  104e40:	e3001408 	movw	r1, #1032	; 0x408
  104e44:	e51b0018 	ldr	r0, [fp, #-24]	; 0xffffffe8
  104e48:	ebffff89 	bl	104c74 <axi_dmac_write>
  104e4c:	e51b3018 	ldr	r3, [fp, #-24]	; 0xffffffe8
  104e50:	e593300c 	ldr	r3, [r3, #12]
  104e54:	e2033001 	and	r3, r3, #1
  104e58:	e3530000 	cmp	r3, #0
  104e5c:	0a000001 	beq	104e68 <axi_dmac_transfer+0x1b4>
  104e60:	e3a03000 	mov	r3, #0
  104e64:	ea000024 	b	104efc <axi_dmac_transfer+0x248>
  104e68:	e24b300c 	sub	r3, fp, #12
  104e6c:	e1a02003 	mov	r2, r3
  104e70:	e3001408 	movw	r1, #1032	; 0x408
  104e74:	e51b0018 	ldr	r0, [fp, #-24]	; 0xffffffe8
  104e78:	ebffff6d 	bl	104c34 <axi_dmac_read>
  104e7c:	e51b300c 	ldr	r3, [fp, #-12]
  104e80:	e3530001 	cmp	r3, #1
  104e84:	0afffff7 	beq	104e68 <axi_dmac_transfer+0x1b4>
  104e88:	e24b300c 	sub	r3, fp, #12
  104e8c:	e1a02003 	mov	r2, r3
  104e90:	e3a01084 	mov	r1, #132	; 0x84
  104e94:	e51b0018 	ldr	r0, [fp, #-24]	; 0xffffffe8
  104e98:	ebffff65 	bl	104c34 <axi_dmac_read>
  104e9c:	e51b300c 	ldr	r3, [fp, #-12]
  104ea0:	e3530003 	cmp	r3, #3
  104ea4:	1afffff7 	bne	104e88 <axi_dmac_transfer+0x1d4>
  104ea8:	e51b300c 	ldr	r3, [fp, #-12]
  104eac:	e1a02003 	mov	r2, r3
  104eb0:	e3a01084 	mov	r1, #132	; 0x84
  104eb4:	e51b0018 	ldr	r0, [fp, #-24]	; 0xffffffe8
  104eb8:	ebffff6d 	bl	104c74 <axi_dmac_write>
  104ebc:	e24b300c 	sub	r3, fp, #12
  104ec0:	e1a02003 	mov	r2, r3
  104ec4:	e3001428 	movw	r1, #1064	; 0x428
  104ec8:	e51b0018 	ldr	r0, [fp, #-24]	; 0xffffffe8
  104ecc:	ebffff58 	bl	104c34 <axi_dmac_read>
  104ed0:	e51b3008 	ldr	r3, [fp, #-8]
  104ed4:	e3a02001 	mov	r2, #1
  104ed8:	e1a02312 	lsl	r2, r2, r3
  104edc:	e51b300c 	ldr	r3, [fp, #-12]
  104ee0:	e0022003 	and	r2, r2, r3
  104ee4:	e51b3008 	ldr	r3, [fp, #-8]
  104ee8:	e3a01001 	mov	r1, #1
  104eec:	e1a03311 	lsl	r3, r1, r3
  104ef0:	e1520003 	cmp	r2, r3
  104ef4:	1afffff0 	bne	104ebc <axi_dmac_transfer+0x208>
  104ef8:	e3a03000 	mov	r3, #0
  104efc:	e1a00003 	mov	r0, r3
  104f00:	e24bd004 	sub	sp, fp, #4
  104f04:	e8bd8800 	pop	{fp, pc}

00104f08 <axi_dmac_init>:
  104f08:	e92d4800 	push	{fp, lr}
  104f0c:	e28db004 	add	fp, sp, #4
  104f10:	e24dd010 	sub	sp, sp, #16
  104f14:	e50b0010 	str	r0, [fp, #-16]
  104f18:	e50b1014 	str	r1, [fp, #-20]	; 0xffffffec
  104f1c:	e3a00010 	mov	r0, #16
  104f20:	eb004dfc 	bl	118718 <malloc>
  104f24:	e1a03000 	mov	r3, r0
  104f28:	e50b3008 	str	r3, [fp, #-8]
  104f2c:	e51b3008 	ldr	r3, [fp, #-8]
  104f30:	e3530000 	cmp	r3, #0
  104f34:	1a000001 	bne	104f40 <axi_dmac_init+0x38>
  104f38:	e3e03000 	mvn	r3, #0
  104f3c:	ea000013 	b	104f90 <axi_dmac_init+0x88>
  104f40:	e51b3014 	ldr	r3, [fp, #-20]	; 0xffffffec
  104f44:	e5932000 	ldr	r2, [r3]
  104f48:	e51b3008 	ldr	r3, [fp, #-8]
  104f4c:	e5832000 	str	r2, [r3]
  104f50:	e51b3014 	ldr	r3, [fp, #-20]	; 0xffffffec
  104f54:	e5932004 	ldr	r2, [r3, #4]
  104f58:	e51b3008 	ldr	r3, [fp, #-8]
  104f5c:	e5832004 	str	r2, [r3, #4]
  104f60:	e51b3014 	ldr	r3, [fp, #-20]	; 0xffffffec
  104f64:	e5d32008 	ldrb	r2, [r3, #8]
  104f68:	e51b3008 	ldr	r3, [fp, #-8]
  104f6c:	e5c32008 	strb	r2, [r3, #8]
  104f70:	e51b3014 	ldr	r3, [fp, #-20]	; 0xffffffec
  104f74:	e593200c 	ldr	r2, [r3, #12]
  104f78:	e51b3008 	ldr	r3, [fp, #-8]
  104f7c:	e583200c 	str	r2, [r3, #12]
  104f80:	e51b3010 	ldr	r3, [fp, #-16]
  104f84:	e51b2008 	ldr	r2, [fp, #-8]
  104f88:	e5832000 	str	r2, [r3]
  104f8c:	e3a03000 	mov	r3, #0
  104f90:	e1a00003 	mov	r0, r3
  104f94:	e24bd004 	sub	sp, fp, #4
  104f98:	e8bd8800 	pop	{fp, pc}

00104f9c <axi_wait>:
  104f9c:	e92d4800 	push	{fp, lr}
  104fa0:	e28db004 	add	fp, sp, #4
  104fa4:	e24dd010 	sub	sp, sp, #16
  104fa8:	e50b0010 	str	r0, [fp, #-16]
  104fac:	e24b3008 	sub	r3, fp, #8
  104fb0:	e1a02003 	mov	r2, r3
  104fb4:	e3001404 	movw	r1, #1028	; 0x404
  104fb8:	e51b0010 	ldr	r0, [fp, #-16]
  104fbc:	ebffff1c 	bl	104c34 <axi_dmac_read>
  104fc0:	e24b300c 	sub	r3, fp, #12
  104fc4:	e1a02003 	mov	r2, r3
  104fc8:	e3001408 	movw	r1, #1032	; 0x408
  104fcc:	e51b0010 	ldr	r0, [fp, #-16]
  104fd0:	ebffff17 	bl	104c34 <axi_dmac_read>
  104fd4:	e51b300c 	ldr	r3, [fp, #-12]
  104fd8:	e3530001 	cmp	r3, #1
  104fdc:	0afffff7 	beq	104fc0 <axi_wait+0x24>
  104fe0:	e24b300c 	sub	r3, fp, #12
  104fe4:	e1a02003 	mov	r2, r3
  104fe8:	e3a01084 	mov	r1, #132	; 0x84
  104fec:	e51b0010 	ldr	r0, [fp, #-16]
  104ff0:	ebffff0f 	bl	104c34 <axi_dmac_read>
  104ff4:	e51b300c 	ldr	r3, [fp, #-12]
  104ff8:	e3530003 	cmp	r3, #3
  104ffc:	1afffff7 	bne	104fe0 <axi_wait+0x44>
  105000:	e320f000 	nop	{0}
  105004:	e24bd004 	sub	sp, fp, #4
  105008:	e8bd8800 	pop	{fp, pc}

0010500c <axi_dmac_remove>:
  10500c:	e92d4800 	push	{fp, lr}
  105010:	e28db004 	add	fp, sp, #4
  105014:	e24dd008 	sub	sp, sp, #8
  105018:	e50b0008 	str	r0, [fp, #-8]
  10501c:	e51b3008 	ldr	r3, [fp, #-8]
  105020:	e3530000 	cmp	r3, #0
  105024:	1a000001 	bne	105030 <axi_dmac_remove+0x24>
  105028:	e3e03000 	mvn	r3, #0
  10502c:	ea000002 	b	10503c <axi_dmac_remove+0x30>
  105030:	e51b0008 	ldr	r0, [fp, #-8]
  105034:	eb004dbd 	bl	118730 <free>
  105038:	e3a03000 	mov	r3, #0
  10503c:	e1a00003 	mov	r0, r3
  105040:	e24bd004 	sub	sp, fp, #4
  105044:	e8bd8800 	pop	{fp, pc}

00105048 <axi_io_read>:
  105048:	e52db004 	push	{fp}		; (str fp, [sp, #-4]!)
  10504c:	e28db000 	add	fp, sp, #0
  105050:	e24dd014 	sub	sp, sp, #20
  105054:	e50b0008 	str	r0, [fp, #-8]
  105058:	e50b100c 	str	r1, [fp, #-12]
  10505c:	e50b2010 	str	r2, [fp, #-16]
  105060:	e51b2008 	ldr	r2, [fp, #-8]
  105064:	e51b300c 	ldr	r3, [fp, #-12]
  105068:	e0823003 	add	r3, r2, r3
  10506c:	e5932000 	ldr	r2, [r3]
  105070:	e51b3010 	ldr	r3, [fp, #-16]
  105074:	e5832000 	str	r2, [r3]
  105078:	e3a03000 	mov	r3, #0
  10507c:	e1a00003 	mov	r0, r3
  105080:	e24bd000 	sub	sp, fp, #0
  105084:	e49db004 	pop	{fp}		; (ldr fp, [sp], #4)
  105088:	e12fff1e 	bx	lr

0010508c <axi_io_write>:
  10508c:	e52db004 	push	{fp}		; (str fp, [sp, #-4]!)
  105090:	e28db000 	add	fp, sp, #0
  105094:	e24dd014 	sub	sp, sp, #20
  105098:	e50b0008 	str	r0, [fp, #-8]
  10509c:	e50b100c 	str	r1, [fp, #-12]
  1050a0:	e50b2010 	str	r2, [fp, #-16]
  1050a4:	e51b2008 	ldr	r2, [fp, #-8]
  1050a8:	e51b300c 	ldr	r3, [fp, #-12]
  1050ac:	e0823003 	add	r3, r2, r3
  1050b0:	e1a02003 	mov	r2, r3
  1050b4:	e51b3010 	ldr	r3, [fp, #-16]
  1050b8:	e5823000 	str	r3, [r2]
  1050bc:	e3a03000 	mov	r3, #0
  1050c0:	e1a00003 	mov	r0, r3
  1050c4:	e24bd000 	sub	sp, fp, #0
  1050c8:	e49db004 	pop	{fp}		; (ldr fp, [sp], #4)
  1050cc:	e12fff1e 	bx	lr

001050d0 <_close>:
  1050d0:	e52db004 	push	{fp}		; (str fp, [sp, #-4]!)
  1050d4:	e28db000 	add	fp, sp, #0
  1050d8:	e24dd00c 	sub	sp, sp, #12
  1050dc:	e50b0008 	str	r0, [fp, #-8]
  1050e0:	e51b3008 	ldr	r3, [fp, #-8]
  1050e4:	e3530001 	cmp	r3, #1
  1050e8:	1a000001 	bne	1050f4 <_close+0x24>
  1050ec:	e3a03000 	mov	r3, #0
  1050f0:	ea000000 	b	1050f8 <_close+0x28>
  1050f4:	e3e03000 	mvn	r3, #0
  1050f8:	e1a00003 	mov	r0, r3
  1050fc:	e24bd000 	sub	sp, fp, #0
  105100:	e49db004 	pop	{fp}		; (ldr fp, [sp], #4)
  105104:	e12fff1e 	bx	lr

00105108 <_fstat>:
  105108:	e52db004 	push	{fp}		; (str fp, [sp, #-4]!)
  10510c:	e28db000 	add	fp, sp, #0
  105110:	e24dd00c 	sub	sp, sp, #12
  105114:	e50b0008 	str	r0, [fp, #-8]
  105118:	e50b100c 	str	r1, [fp, #-12]
  10511c:	e51b3008 	ldr	r3, [fp, #-8]
  105120:	e3530001 	cmp	r3, #1
  105124:	1a000001 	bne	105130 <_fstat+0x28>
  105128:	e3a03000 	mov	r3, #0
  10512c:	ea000000 	b	105134 <_fstat+0x2c>
  105130:	e3e03000 	mvn	r3, #0
  105134:	e1a00003 	mov	r0, r3
  105138:	e24bd000 	sub	sp, fp, #0
  10513c:	e49db004 	pop	{fp}		; (ldr fp, [sp], #4)
  105140:	e12fff1e 	bx	lr

00105144 <_isatty>:
  105144:	e52db004 	push	{fp}		; (str fp, [sp, #-4]!)
  105148:	e28db000 	add	fp, sp, #0
  10514c:	e24dd00c 	sub	sp, sp, #12
  105150:	e50b0008 	str	r0, [fp, #-8]
  105154:	e51b3008 	ldr	r3, [fp, #-8]
  105158:	e3530001 	cmp	r3, #1
  10515c:	1a000001 	bne	105168 <_isatty+0x24>
  105160:	e3a03001 	mov	r3, #1
  105164:	ea000000 	b	10516c <_isatty+0x28>
  105168:	e3e03000 	mvn	r3, #0
  10516c:	e1a00003 	mov	r0, r3
  105170:	e24bd000 	sub	sp, fp, #0
  105174:	e49db004 	pop	{fp}		; (ldr fp, [sp], #4)
  105178:	e12fff1e 	bx	lr

0010517c <_lseek>:
  10517c:	e52db004 	push	{fp}		; (str fp, [sp, #-4]!)
  105180:	e28db000 	add	fp, sp, #0
  105184:	e24dd014 	sub	sp, sp, #20
  105188:	e50b0008 	str	r0, [fp, #-8]
  10518c:	e50b100c 	str	r1, [fp, #-12]
  105190:	e50b2010 	str	r2, [fp, #-16]
  105194:	e51b3008 	ldr	r3, [fp, #-8]
  105198:	e3530001 	cmp	r3, #1
  10519c:	1a000001 	bne	1051a8 <_lseek+0x2c>
  1051a0:	e3a03000 	mov	r3, #0
  1051a4:	ea000000 	b	1051ac <_lseek+0x30>
  1051a8:	e3e03000 	mvn	r3, #0
  1051ac:	e1a00003 	mov	r0, r3
  1051b0:	e24bd000 	sub	sp, fp, #0
  1051b4:	e49db004 	pop	{fp}		; (ldr fp, [sp], #4)
  1051b8:	e12fff1e 	bx	lr

001051bc <_read>:
  1051bc:	e52db004 	push	{fp}		; (str fp, [sp, #-4]!)
  1051c0:	e28db000 	add	fp, sp, #0
  1051c4:	e24dd014 	sub	sp, sp, #20
  1051c8:	e50b0008 	str	r0, [fp, #-8]
  1051cc:	e50b100c 	str	r1, [fp, #-12]
  1051d0:	e50b2010 	str	r2, [fp, #-16]
  1051d4:	e3e03000 	mvn	r3, #0
  1051d8:	e1a00003 	mov	r0, r3
  1051dc:	e24bd000 	sub	sp, fp, #0
  1051e0:	e49db004 	pop	{fp}		; (ldr fp, [sp], #4)
  1051e4:	e12fff1e 	bx	lr

001051e8 <_write>:
  1051e8:	e52db004 	push	{fp}		; (str fp, [sp, #-4]!)
  1051ec:	e28db000 	add	fp, sp, #0
  1051f0:	e24dd01c 	sub	sp, sp, #28
  1051f4:	e50b0010 	str	r0, [fp, #-16]
  1051f8:	e50b1014 	str	r1, [fp, #-20]	; 0xffffffec
  1051fc:	e50b2018 	str	r2, [fp, #-24]	; 0xffffffe8
  105200:	e50b301c 	str	r3, [fp, #-28]	; 0xffffffe4
  105204:	e51b3010 	ldr	r3, [fp, #-16]
  105208:	e3530001 	cmp	r3, #1
  10520c:	0a000001 	beq	105218 <_write+0x30>
  105210:	e3e03000 	mvn	r3, #0
  105214:	ea000019 	b	105280 <_write+0x98>
  105218:	e3a03000 	mov	r3, #0
  10521c:	e50b3008 	str	r3, [fp, #-8]
  105220:	ea000011 	b	10526c <_write+0x84>
  105224:	e320f000 	nop	{0}
  105228:	e3023014 	movw	r3, #8212	; 0x2014
  10522c:	e34f3fc0 	movt	r3, #65472	; 0xffc0
  105230:	e5933000 	ldr	r3, [r3]
  105234:	e1a032a3 	lsr	r3, r3, #5
  105238:	e2033001 	and	r3, r3, #1
  10523c:	e3530001 	cmp	r3, #1
  105240:	1afffff8 	bne	105228 <_write+0x40>
  105244:	e3a03a02 	mov	r3, #8192	; 0x2000
  105248:	e34f3fc0 	movt	r3, #65472	; 0xffc0
  10524c:	e51b2008 	ldr	r2, [fp, #-8]
  105250:	e51b1014 	ldr	r1, [fp, #-20]	; 0xffffffec
  105254:	e0812002 	add	r2, r1, r2
  105258:	e5d22000 	ldrb	r2, [r2]
  10525c:	e5832000 	str	r2, [r3]
  105260:	e51b3008 	ldr	r3, [fp, #-8]
  105264:	e2833001 	add	r3, r3, #1
  105268:	e50b3008 	str	r3, [fp, #-8]
  10526c:	e51b2008 	ldr	r2, [fp, #-8]
  105270:	e51b3018 	ldr	r3, [fp, #-24]	; 0xffffffe8
  105274:	e1520003 	cmp	r2, r3
  105278:	3affffe9 	bcc	105224 <_write+0x3c>
  10527c:	e51b3018 	ldr	r3, [fp, #-24]	; 0xffffffe8
  105280:	e1a00003 	mov	r0, r3
  105284:	e24bd000 	sub	sp, fp, #0
  105288:	e49db004 	pop	{fp}		; (ldr fp, [sp], #4)
  10528c:	e12fff1e 	bx	lr

00105290 <enable_all_caches>:
  105290:	e52de004 	push	{lr}		; (str lr, [sp, #-4]!)
  105294:	eb000005 	bl	1052b0 <enable_MMU>
  105298:	eb000050 	bl	1053e0 <initialize_L2C>
  10529c:	eb00009f 	bl	105520 <enable_L1_D_side_prefetch>
  1052a0:	eb0000a2 	bl	105530 <enable_L2_prefetch_hint>
  1052a4:	eb0000b1 	bl	105570 <enable_SCU>
  1052a8:	eb000065 	bl	105444 <enable_caches>
  1052ac:	e49df004 	pop	{pc}		; (ldr pc, [sp], #4)

001052b0 <enable_MMU>:
  1052b0:	e92d4eb0 	push	{r4, r5, r7, r9, sl, fp, lr}
  1052b4:	e59f0378 	ldr	r0, [pc, #888]	; 105634 <invalidate_and_flush+0x9c>
  1052b8:	e3a01000 	mov	r1, #0
  1052bc:	e5801100 	str	r1, [r0, #256]	; 0x100
  1052c0:	ee110f10 	mrc	15, 0, r0, cr1, cr0, {0}
  1052c4:	e3c00a01 	bic	r0, r0, #4096	; 0x1000
  1052c8:	e3c00004 	bic	r0, r0, #4
  1052cc:	e3c00001 	bic	r0, r0, #1
  1052d0:	e3c00b02 	bic	r0, r0, #2048	; 0x800
  1052d4:	ee010f10 	mcr	15, 0, r0, cr1, cr0, {0}
  1052d8:	e3a00000 	mov	r0, #0
  1052dc:	ee080f17 	mcr	15, 0, r0, cr8, cr7, {0}
  1052e0:	ee070fd5 	mcr	15, 0, r0, cr7, cr5, {6}
  1052e4:	ee300f30 	mrc	15, 1, r0, cr0, cr0, {1}
  1052e8:	e3100003 	tst	r0, #3
  1052ec:	e3a00000 	mov	r0, #0
  1052f0:	1e070f15 	mcrne	15, 0, r0, cr7, cr5, {0}
  1052f4:	ee300f30 	mrc	15, 1, r0, cr0, cr0, {1}
  1052f8:	e2103407 	ands	r3, r0, #117440512	; 0x7000000
  1052fc:	e1a03ba3 	lsr	r3, r3, #23
  105300:	0a00001a 	beq	105370 <Finished>
  105304:	e3a0a000 	mov	sl, #0

00105308 <Loop1>:
  105308:	e08a20aa 	add	r2, sl, sl, lsr #1
  10530c:	e1a01230 	lsr	r1, r0, r2
  105310:	e2011007 	and	r1, r1, #7
  105314:	e3510002 	cmp	r1, #2
  105318:	ba000011 	blt	105364 <Skip>
  10531c:	ee40af10 	mcr	15, 2, sl, cr0, cr0, {0}
  105320:	f57ff06f 	isb	sy
  105324:	ee301f10 	mrc	15, 1, r1, cr0, cr0, {0}
  105328:	e2012007 	and	r2, r1, #7
  10532c:	e2822004 	add	r2, r2, #4
  105330:	e59f4300 	ldr	r4, [pc, #768]	; 105638 <invalidate_and_flush+0xa0>
  105334:	e01441a1 	ands	r4, r4, r1, lsr #3
  105338:	e16f5f14 	clz	r5, r4
  10533c:	e59f72f8 	ldr	r7, [pc, #760]	; 10563c <invalidate_and_flush+0xa4>
  105340:	e01776a1 	ands	r7, r7, r1, lsr #13

00105344 <Loop2>:
  105344:	e1a09004 	mov	r9, r4

00105348 <Loop3>:
  105348:	e18ab519 	orr	fp, sl, r9, lsl r5
  10534c:	e18bb217 	orr	fp, fp, r7, lsl r2
  105350:	ee07bf56 	mcr	15, 0, fp, cr7, cr6, {2}
  105354:	e2599001 	subs	r9, r9, #1
  105358:	aafffffa 	bge	105348 <Loop3>
  10535c:	e2577001 	subs	r7, r7, #1
  105360:	aafffff7 	bge	105344 <Loop2>

00105364 <Skip>:
  105364:	e28aa002 	add	sl, sl, #2
  105368:	e153000a 	cmp	r3, sl
  10536c:	caffffe5 	bgt	105308 <Loop1>

00105370 <Finished>:
  105370:	e3a00000 	mov	r0, #0
  105374:	ee070fd5 	mcr	15, 0, r0, cr7, cr5, {6}
  105378:	e3a00000 	mov	r0, #0
  10537c:	ee020f50 	mcr	15, 0, r0, cr2, cr0, {2}
  105380:	e59f02b8 	ldr	r0, [pc, #696]	; 105640 <invalidate_and_flush+0xa8>
  105384:	e3a01008 	mov	r1, #8
  105388:	e3811040 	orr	r1, r1, #64	; 0x40
  10538c:	e1800001 	orr	r0, r0, r1
  105390:	ee020f10 	mcr	15, 0, r0, cr2, cr0, {0}
  105394:	e59f02a4 	ldr	r0, [pc, #676]	; 105640 <invalidate_and_flush+0xa8>
  105398:	e59f12a4 	ldr	r1, [pc, #676]	; 105644 <invalidate_and_flush+0xac>

0010539c <init_ttb_1>:
  10539c:	e3510b02 	cmp	r1, #2048	; 0x800
  1053a0:	459f22a0 	ldrmi	r2, [pc, #672]	; 105648 <invalidate_and_flush+0xb0>
  1053a4:	559f22a0 	ldrpl	r2, [pc, #672]	; 10564c <invalidate_and_flush+0xb4>
  1053a8:	e1823a01 	orr	r3, r2, r1, lsl #20
  1053ac:	e7803101 	str	r3, [r0, r1, lsl #2]
  1053b0:	e2511001 	subs	r1, r1, #1
  1053b4:	5afffff8 	bpl	10539c <init_ttb_1>
  1053b8:	ee130f10 	mrc	15, 0, r0, cr3, cr0, {0}
  1053bc:	e3e00000 	mvn	r0, #0
  1053c0:	ee030f10 	mcr	15, 0, r0, cr3, cr0, {0}
  1053c4:	ee110f10 	mrc	15, 0, r0, cr1, cr0, {0}
  1053c8:	e3c00a01 	bic	r0, r0, #4096	; 0x1000
  1053cc:	e3c00004 	bic	r0, r0, #4
  1053d0:	e3c00002 	bic	r0, r0, #2
  1053d4:	e3800001 	orr	r0, r0, #1
  1053d8:	ee010f10 	mcr	15, 0, r0, cr1, cr0, {0}
  1053dc:	e8bd8eb0 	pop	{r4, r5, r7, r9, sl, fp, pc}

001053e0 <initialize_L2C>:
  1053e0:	e59f024c 	ldr	r0, [pc, #588]	; 105634 <invalidate_and_flush+0x9c>
  1053e4:	e3a01000 	mov	r1, #0
  1053e8:	e5801100 	str	r1, [r0, #256]	; 0x100
  1053ec:	e3a01806 	mov	r1, #393216	; 0x60000
  1053f0:	e3811202 	orr	r1, r1, #536870912	; 0x20000000
  1053f4:	e3811201 	orr	r1, r1, #268435456	; 0x10000000
  1053f8:	e5801104 	str	r1, [r0, #260]	; 0x104
  1053fc:	e3a01000 	mov	r1, #0
  105400:	e5801108 	str	r1, [r0, #264]	; 0x108
  105404:	e3a01000 	mov	r1, #0
  105408:	e580110c 	str	r1, [r0, #268]	; 0x10c
  10540c:	e3a010ff 	mov	r1, #255	; 0xff
  105410:	e580177c 	str	r1, [r0, #1916]	; 0x77c

00105414 <poll_invalidate>:
  105414:	e590177c 	ldr	r1, [r0, #1916]	; 0x77c
  105418:	e3110001 	tst	r1, #1
  10541c:	1afffffc 	bne	105414 <poll_invalidate>
  105420:	e3a01007 	mov	r1, #7
  105424:	e5801200 	str	r1, [r0, #512]	; 0x200
  105428:	e3a01008 	mov	r1, #8
  10542c:	e5801204 	str	r1, [r0, #516]	; 0x204
  105430:	e3a0100c 	mov	r1, #12
  105434:	e5801208 	str	r1, [r0, #520]	; 0x208
  105438:	e3a01000 	mov	r1, #0
  10543c:	e5801100 	str	r1, [r0, #256]	; 0x100
  105440:	e12fff1e 	bx	lr

00105444 <enable_caches>:
  105444:	ee110f10 	mrc	15, 0, r0, cr1, cr0, {0}
  105448:	e3800a01 	orr	r0, r0, #4096	; 0x1000
  10544c:	e3800004 	orr	r0, r0, #4
  105450:	e3800b02 	orr	r0, r0, #2048	; 0x800
  105454:	ee010f10 	mcr	15, 0, r0, cr1, cr0, {0}
  105458:	e59f01d4 	ldr	r0, [pc, #468]	; 105634 <invalidate_and_flush+0x9c>
  10545c:	e3a01001 	mov	r1, #1
  105460:	e5801100 	str	r1, [r0, #256]	; 0x100
  105464:	e12fff1e 	bx	lr

00105468 <enable_L1_D>:
  105468:	ee110f10 	mrc	15, 0, r0, cr1, cr0, {0}
  10546c:	e3800004 	orr	r0, r0, #4
  105470:	ee010f10 	mcr	15, 0, r0, cr1, cr0, {0}
  105474:	e12fff1e 	bx	lr

00105478 <enable_L1_I>:
  105478:	ee110f10 	mrc	15, 0, r0, cr1, cr0, {0}
  10547c:	e3800a01 	orr	r0, r0, #4096	; 0x1000
  105480:	ee010f10 	mcr	15, 0, r0, cr1, cr0, {0}
  105484:	e12fff1e 	bx	lr

00105488 <enable_branch_prediction>:
  105488:	ee110f10 	mrc	15, 0, r0, cr1, cr0, {0}
  10548c:	e3800b02 	orr	r0, r0, #2048	; 0x800
  105490:	ee010f10 	mcr	15, 0, r0, cr1, cr0, {0}
  105494:	e12fff1e 	bx	lr

00105498 <enable_L2>:
  105498:	e59f0194 	ldr	r0, [pc, #404]	; 105634 <invalidate_and_flush+0x9c>
  10549c:	e3a01001 	mov	r1, #1
  1054a0:	e5801100 	str	r1, [r0, #256]	; 0x100
  1054a4:	e12fff1e 	bx	lr

001054a8 <enable_store_buffer_device_limitation>:
  1054a8:	e59f0184 	ldr	r0, [pc, #388]	; 105634 <invalidate_and_flush+0x9c>
  1054ac:	e3a01000 	mov	r1, #0
  1054b0:	e5801100 	str	r1, [r0, #256]	; 0x100
  1054b4:	e5901104 	ldr	r1, [r0, #260]	; 0x104
  1054b8:	e3811b02 	orr	r1, r1, #2048	; 0x800
  1054bc:	e5801104 	str	r1, [r0, #260]	; 0x104
  1054c0:	e3a01001 	mov	r1, #1
  1054c4:	e5801100 	str	r1, [r0, #256]	; 0x100
  1054c8:	e12fff1e 	bx	lr

001054cc <enable_early_BRESP>:
  1054cc:	e59f0160 	ldr	r0, [pc, #352]	; 105634 <invalidate_and_flush+0x9c>
  1054d0:	e3a01000 	mov	r1, #0
  1054d4:	e5801100 	str	r1, [r0, #256]	; 0x100
  1054d8:	e5901104 	ldr	r1, [r0, #260]	; 0x104
  1054dc:	e3811101 	orr	r1, r1, #1073741824	; 0x40000000
  1054e0:	e5801104 	str	r1, [r0, #260]	; 0x104
  1054e4:	e3a01001 	mov	r1, #1
  1054e8:	e5801100 	str	r1, [r0, #256]	; 0x100
  1054ec:	e12fff1e 	bx	lr

001054f0 <enable_write_full_line_zeros>:
  1054f0:	e59f013c 	ldr	r0, [pc, #316]	; 105634 <invalidate_and_flush+0x9c>
  1054f4:	e3a01000 	mov	r1, #0
  1054f8:	e5801100 	str	r1, [r0, #256]	; 0x100
  1054fc:	e5901104 	ldr	r1, [r0, #260]	; 0x104
  105500:	e3811101 	orr	r1, r1, #1073741824	; 0x40000000
  105504:	e5801104 	str	r1, [r0, #260]	; 0x104
  105508:	e3a01001 	mov	r1, #1
  10550c:	e5801100 	str	r1, [r0, #256]	; 0x100
  105510:	ee110f30 	mrc	15, 0, r0, cr1, cr0, {1}
  105514:	e3800008 	orr	r0, r0, #8
  105518:	ee010f30 	mcr	15, 0, r0, cr1, cr0, {1}
  10551c:	e12fff1e 	bx	lr

00105520 <enable_L1_D_side_prefetch>:
  105520:	ee110f30 	mrc	15, 0, r0, cr1, cr0, {1}
  105524:	e3800004 	orr	r0, r0, #4
  105528:	ee010f30 	mcr	15, 0, r0, cr1, cr0, {1}
  10552c:	e12fff1e 	bx	lr

00105530 <enable_L2_prefetch_hint>:
  105530:	ee110f30 	mrc	15, 0, r0, cr1, cr0, {1}
  105534:	e3800002 	orr	r0, r0, #2
  105538:	ee010f30 	mcr	15, 0, r0, cr1, cr0, {1}
  10553c:	e12fff1e 	bx	lr

00105540 <enable_exclusive_caching>:
  105540:	e59f00ec 	ldr	r0, [pc, #236]	; 105634 <invalidate_and_flush+0x9c>
  105544:	e3a01000 	mov	r1, #0
  105548:	e5801100 	str	r1, [r0, #256]	; 0x100
  10554c:	e5901104 	ldr	r1, [r0, #260]	; 0x104
  105550:	e3811a01 	orr	r1, r1, #4096	; 0x1000
  105554:	e5801104 	str	r1, [r0, #260]	; 0x104
  105558:	e3a01001 	mov	r1, #1
  10555c:	e5801100 	str	r1, [r0, #256]	; 0x100
  105560:	ee110f30 	mrc	15, 0, r0, cr1, cr0, {1}
  105564:	e3800080 	orr	r0, r0, #128	; 0x80
  105568:	ee010f30 	mcr	15, 0, r0, cr1, cr0, {1}
  10556c:	e12fff1e 	bx	lr

00105570 <enable_SCU>:
  105570:	ee9f0f10 	mrc	15, 4, r0, cr15, cr0, {0}
  105574:	e5901000 	ldr	r1, [r0]
  105578:	e3811001 	orr	r1, r1, #1
  10557c:	e5801000 	str	r1, [r0]
  105580:	e12fff1e 	bx	lr

00105584 <enable_L2_speculative_linefill>:
  105584:	ee9f0f10 	mrc	15, 4, r0, cr15, cr0, {0}
  105588:	e5901000 	ldr	r1, [r0]
  10558c:	e3811008 	orr	r1, r1, #8
  105590:	e5801000 	str	r1, [r0]
  105594:	e12fff1e 	bx	lr

00105598 <invalidate_and_flush>:
  105598:	e92d4eb0 	push	{r4, r5, r7, r9, sl, fp, lr}
  10559c:	e3a00000 	mov	r0, #0
  1055a0:	ee070fd5 	mcr	15, 0, r0, cr7, cr5, {6}
  1055a4:	ee300f30 	mrc	15, 1, r0, cr0, cr0, {1}
  1055a8:	e3a00000 	mov	r0, #0
  1055ac:	ee070f15 	mcr	15, 0, r0, cr7, cr5, {0}
  1055b0:	ee300f30 	mrc	15, 1, r0, cr0, cr0, {1}
  1055b4:	e2103407 	ands	r3, r0, #117440512	; 0x7000000
  1055b8:	e1a03ba3 	lsr	r3, r3, #23
  1055bc:	0a00001a 	beq	10562c <invalidate_and_flush+0x94>
  1055c0:	e3a0a000 	mov	sl, #0
  1055c4:	e08a20aa 	add	r2, sl, sl, lsr #1
  1055c8:	e1a01230 	lsr	r1, r0, r2
  1055cc:	e2011007 	and	r1, r1, #7
  1055d0:	e3510002 	cmp	r1, #2
  1055d4:	ba000011 	blt	105620 <invalidate_and_flush+0x88>
  1055d8:	ee40af10 	mcr	15, 2, sl, cr0, cr0, {0}
  1055dc:	f57ff06f 	isb	sy
  1055e0:	ee301f10 	mrc	15, 1, r1, cr0, cr0, {0}
  1055e4:	e2012007 	and	r2, r1, #7
  1055e8:	e2822004 	add	r2, r2, #4
  1055ec:	e59f4044 	ldr	r4, [pc, #68]	; 105638 <invalidate_and_flush+0xa0>
  1055f0:	e01441a1 	ands	r4, r4, r1, lsr #3
  1055f4:	e16f5f14 	clz	r5, r4
  1055f8:	e59f703c 	ldr	r7, [pc, #60]	; 10563c <invalidate_and_flush+0xa4>
  1055fc:	e01776a1 	ands	r7, r7, r1, lsr #13
  105600:	e1a09004 	mov	r9, r4
  105604:	e18ab519 	orr	fp, sl, r9, lsl r5
  105608:	e18bb217 	orr	fp, fp, r7, lsl r2
  10560c:	ee07bf56 	mcr	15, 0, fp, cr7, cr6, {2}
  105610:	e2599001 	subs	r9, r9, #1
  105614:	aafffffa 	bge	105604 <invalidate_and_flush+0x6c>
  105618:	e2577001 	subs	r7, r7, #1
  10561c:	aafffff7 	bge	105600 <invalidate_and_flush+0x68>
  105620:	e28aa002 	add	sl, sl, #2
  105624:	e153000a 	cmp	r3, sl
  105628:	caffffe5 	bgt	1055c4 <invalidate_and_flush+0x2c>
  10562c:	f57ff04f 	dsb	sy
  105630:	e8bd8eb0 	pop	{r4, r5, r7, r9, sl, fp, pc}
  105634:	fffef000 	.word	0xfffef000
  105638:	000003ff 	.word	0x000003ff
  10563c:	00007fff 	.word	0x00007fff
  105640:	00128000 	.word	0x00128000
  105644:	00000fff 	.word	0x00000fff
  105648:	00017c0e 	.word	0x00017c0e
  10564c:	00002c02 	.word	0x00002c02

00105650 <construct_standard_st_to_mm_descriptor>:
  105650:	e52db004 	push	{fp}		; (str fp, [sp, #-4]!)
  105654:	e28db000 	add	fp, sp, #0
  105658:	e24dd014 	sub	sp, sp, #20
  10565c:	e50b0008 	str	r0, [fp, #-8]
  105660:	e50b100c 	str	r1, [fp, #-12]
  105664:	e50b2010 	str	r2, [fp, #-16]
  105668:	e50b3014 	str	r3, [fp, #-20]	; 0xffffffec
  10566c:	e51b3008 	ldr	r3, [fp, #-8]
  105670:	e3a02000 	mov	r2, #0
  105674:	e5832000 	str	r2, [r3]
  105678:	e51b3008 	ldr	r3, [fp, #-8]
  10567c:	e51b200c 	ldr	r2, [fp, #-12]
  105680:	e5832004 	str	r2, [r3, #4]
  105684:	e51b3008 	ldr	r3, [fp, #-8]
  105688:	e51b2010 	ldr	r2, [fp, #-16]
  10568c:	e5832008 	str	r2, [r3, #8]
  105690:	e51b3014 	ldr	r3, [fp, #-20]	; 0xffffffec
  105694:	e3832102 	orr	r2, r3, #-2147483648	; 0x80000000
  105698:	e51b3008 	ldr	r3, [fp, #-8]
  10569c:	e583200c 	str	r2, [r3, #12]
  1056a0:	e3a03000 	mov	r3, #0
  1056a4:	e1a00003 	mov	r0, r3
  1056a8:	e24bd000 	sub	sp, fp, #0
  1056ac:	e49db004 	pop	{fp}		; (ldr fp, [sp], #4)
  1056b0:	e12fff1e 	bx	lr

001056b4 <construct_standard_mm_to_st_descriptor>:
  1056b4:	e52db004 	push	{fp}		; (str fp, [sp, #-4]!)
  1056b8:	e28db000 	add	fp, sp, #0
  1056bc:	e24dd014 	sub	sp, sp, #20
  1056c0:	e50b0008 	str	r0, [fp, #-8]
  1056c4:	e50b100c 	str	r1, [fp, #-12]
  1056c8:	e50b2010 	str	r2, [fp, #-16]
  1056cc:	e50b3014 	str	r3, [fp, #-20]	; 0xffffffec
  1056d0:	e51b3008 	ldr	r3, [fp, #-8]
  1056d4:	e51b200c 	ldr	r2, [fp, #-12]
  1056d8:	e5832000 	str	r2, [r3]
  1056dc:	e51b3008 	ldr	r3, [fp, #-8]
  1056e0:	e3a02000 	mov	r2, #0
  1056e4:	e5832004 	str	r2, [r3, #4]
  1056e8:	e51b3008 	ldr	r3, [fp, #-8]
  1056ec:	e51b2010 	ldr	r2, [fp, #-16]
  1056f0:	e5832008 	str	r2, [r3, #8]
  1056f4:	e51b3014 	ldr	r3, [fp, #-20]	; 0xffffffec
  1056f8:	e3832102 	orr	r2, r3, #-2147483648	; 0x80000000
  1056fc:	e51b3008 	ldr	r3, [fp, #-8]
  105700:	e583200c 	str	r2, [r3, #12]
  105704:	e3a03000 	mov	r3, #0
  105708:	e1a00003 	mov	r0, r3
  10570c:	e24bd000 	sub	sp, fp, #0
  105710:	e49db004 	pop	{fp}		; (ldr fp, [sp], #4)
  105714:	e12fff1e 	bx	lr

00105718 <construct_standard_mm_to_mm_descriptor>:
  105718:	e52db004 	push	{fp}		; (str fp, [sp, #-4]!)
  10571c:	e28db000 	add	fp, sp, #0
  105720:	e24dd014 	sub	sp, sp, #20
  105724:	e50b0008 	str	r0, [fp, #-8]
  105728:	e50b100c 	str	r1, [fp, #-12]
  10572c:	e50b2010 	str	r2, [fp, #-16]
  105730:	e50b3014 	str	r3, [fp, #-20]	; 0xffffffec
  105734:	e51b3008 	ldr	r3, [fp, #-8]
  105738:	e51b200c 	ldr	r2, [fp, #-12]
  10573c:	e5832000 	str	r2, [r3]
  105740:	e51b3008 	ldr	r3, [fp, #-8]
  105744:	e51b2010 	ldr	r2, [fp, #-16]
  105748:	e5832004 	str	r2, [r3, #4]
  10574c:	e51b3008 	ldr	r3, [fp, #-8]
  105750:	e51b2014 	ldr	r2, [fp, #-20]	; 0xffffffec
  105754:	e5832008 	str	r2, [r3, #8]
  105758:	e59b3004 	ldr	r3, [fp, #4]
  10575c:	e3832102 	orr	r2, r3, #-2147483648	; 0x80000000
  105760:	e51b3008 	ldr	r3, [fp, #-8]
  105764:	e583200c 	str	r2, [r3, #12]
  105768:	e3a03000 	mov	r3, #0
  10576c:	e1a00003 	mov	r0, r3
  105770:	e24bd000 	sub	sp, fp, #0
  105774:	e49db004 	pop	{fp}		; (ldr fp, [sp], #4)
  105778:	e12fff1e 	bx	lr

0010577c <construct_extended_st_to_mm_descriptor>:
  10577c:	e52db004 	push	{fp}		; (str fp, [sp, #-4]!)
  105780:	e28db000 	add	fp, sp, #0
  105784:	e24dd014 	sub	sp, sp, #20
  105788:	e50b0008 	str	r0, [fp, #-8]
  10578c:	e50b100c 	str	r1, [fp, #-12]
  105790:	e50b2010 	str	r2, [fp, #-16]
  105794:	e50b3014 	str	r3, [fp, #-20]	; 0xffffffec
  105798:	e51b3008 	ldr	r3, [fp, #-8]
  10579c:	e3a02000 	mov	r2, #0
  1057a0:	e5832000 	str	r2, [r3]
  1057a4:	e51b3008 	ldr	r3, [fp, #-8]
  1057a8:	e51b200c 	ldr	r2, [fp, #-12]
  1057ac:	e5832004 	str	r2, [r3, #4]
  1057b0:	e51b3008 	ldr	r3, [fp, #-8]
  1057b4:	e51b2010 	ldr	r2, [fp, #-16]
  1057b8:	e5832008 	str	r2, [r3, #8]
  1057bc:	e51b3008 	ldr	r3, [fp, #-8]
  1057c0:	e1db20b4 	ldrh	r2, [fp, #4]
  1057c4:	e1c320bc 	strh	r2, [r3, #12]
  1057c8:	e51b3008 	ldr	r3, [fp, #-8]
  1057cc:	e3a02000 	mov	r2, #0
  1057d0:	e5c3200e 	strb	r2, [r3, #14]
  1057d4:	e51b3008 	ldr	r3, [fp, #-8]
  1057d8:	e5db2008 	ldrb	r2, [fp, #8]
  1057dc:	e5c3200f 	strb	r2, [r3, #15]
  1057e0:	e51b3008 	ldr	r3, [fp, #-8]
  1057e4:	e3a02000 	mov	r2, #0
  1057e8:	e1c321b0 	strh	r2, [r3, #16]
  1057ec:	e51b3008 	ldr	r3, [fp, #-8]
  1057f0:	e1db20bc 	ldrh	r2, [fp, #12]
  1057f4:	e1c321b2 	strh	r2, [r3, #18]
  1057f8:	e51b3008 	ldr	r3, [fp, #-8]
  1057fc:	e3a02000 	mov	r2, #0
  105800:	e5832014 	str	r2, [r3, #20]
  105804:	e51b3008 	ldr	r3, [fp, #-8]
  105808:	e3a02000 	mov	r2, #0
  10580c:	e5832018 	str	r2, [r3, #24]
  105810:	e51b3014 	ldr	r3, [fp, #-20]	; 0xffffffec
  105814:	e3832102 	orr	r2, r3, #-2147483648	; 0x80000000
  105818:	e51b3008 	ldr	r3, [fp, #-8]
  10581c:	e583201c 	str	r2, [r3, #28]
  105820:	e3a03000 	mov	r3, #0
  105824:	e1a00003 	mov	r0, r3
  105828:	e24bd000 	sub	sp, fp, #0
  10582c:	e49db004 	pop	{fp}		; (ldr fp, [sp], #4)
  105830:	e12fff1e 	bx	lr

00105834 <construct_extended_st_to_mm_descriptor_64>:
  105834:	e52db004 	push	{fp}		; (str fp, [sp, #-4]!)
  105838:	e28db000 	add	fp, sp, #0
  10583c:	e24dd014 	sub	sp, sp, #20
  105840:	e50b0008 	str	r0, [fp, #-8]
  105844:	e50b100c 	str	r1, [fp, #-12]
  105848:	e50b2010 	str	r2, [fp, #-16]
  10584c:	e50b3014 	str	r3, [fp, #-20]	; 0xffffffec
  105850:	e51b3008 	ldr	r3, [fp, #-8]
  105854:	e3a02000 	mov	r2, #0
  105858:	e5832000 	str	r2, [r3]
  10585c:	e51b3008 	ldr	r3, [fp, #-8]
  105860:	e51b200c 	ldr	r2, [fp, #-12]
  105864:	e5832004 	str	r2, [r3, #4]
  105868:	e51b3008 	ldr	r3, [fp, #-8]
  10586c:	e51b2014 	ldr	r2, [fp, #-20]	; 0xffffffec
  105870:	e5832008 	str	r2, [r3, #8]
  105874:	e51b3008 	ldr	r3, [fp, #-8]
  105878:	e1db20b8 	ldrh	r2, [fp, #8]
  10587c:	e1c320bc 	strh	r2, [r3, #12]
  105880:	e51b3008 	ldr	r3, [fp, #-8]
  105884:	e3a02000 	mov	r2, #0
  105888:	e5c3200e 	strb	r2, [r3, #14]
  10588c:	e51b3008 	ldr	r3, [fp, #-8]
  105890:	e5db200c 	ldrb	r2, [fp, #12]
  105894:	e5c3200f 	strb	r2, [r3, #15]
  105898:	e51b3008 	ldr	r3, [fp, #-8]
  10589c:	e3a02000 	mov	r2, #0
  1058a0:	e1c321b0 	strh	r2, [r3, #16]
  1058a4:	e51b3008 	ldr	r3, [fp, #-8]
  1058a8:	e1db21b0 	ldrh	r2, [fp, #16]
  1058ac:	e1c321b2 	strh	r2, [r3, #18]
  1058b0:	e51b3008 	ldr	r3, [fp, #-8]
  1058b4:	e3a02000 	mov	r2, #0
  1058b8:	e5832014 	str	r2, [r3, #20]
  1058bc:	e51b3008 	ldr	r3, [fp, #-8]
  1058c0:	e51b2010 	ldr	r2, [fp, #-16]
  1058c4:	e5832018 	str	r2, [r3, #24]
  1058c8:	e59b3004 	ldr	r3, [fp, #4]
  1058cc:	e3832102 	orr	r2, r3, #-2147483648	; 0x80000000
  1058d0:	e51b3008 	ldr	r3, [fp, #-8]
  1058d4:	e583201c 	str	r2, [r3, #28]
  1058d8:	e3a03000 	mov	r3, #0
  1058dc:	e1a00003 	mov	r0, r3
  1058e0:	e24bd000 	sub	sp, fp, #0
  1058e4:	e49db004 	pop	{fp}		; (ldr fp, [sp], #4)
  1058e8:	e12fff1e 	bx	lr

001058ec <construct_extended_mm_to_st_descriptor>:
  1058ec:	e52db004 	push	{fp}		; (str fp, [sp, #-4]!)
  1058f0:	e28db000 	add	fp, sp, #0
  1058f4:	e24dd014 	sub	sp, sp, #20
  1058f8:	e50b0008 	str	r0, [fp, #-8]
  1058fc:	e50b100c 	str	r1, [fp, #-12]
  105900:	e50b2010 	str	r2, [fp, #-16]
  105904:	e50b3014 	str	r3, [fp, #-20]	; 0xffffffec
  105908:	e51b3008 	ldr	r3, [fp, #-8]
  10590c:	e51b200c 	ldr	r2, [fp, #-12]
  105910:	e5832000 	str	r2, [r3]
  105914:	e51b3008 	ldr	r3, [fp, #-8]
  105918:	e3a02000 	mov	r2, #0
  10591c:	e5832004 	str	r2, [r3, #4]
  105920:	e51b3008 	ldr	r3, [fp, #-8]
  105924:	e51b2010 	ldr	r2, [fp, #-16]
  105928:	e5832008 	str	r2, [r3, #8]
  10592c:	e51b3008 	ldr	r3, [fp, #-8]
  105930:	e1db20b4 	ldrh	r2, [fp, #4]
  105934:	e1c320bc 	strh	r2, [r3, #12]
  105938:	e51b3008 	ldr	r3, [fp, #-8]
  10593c:	e5db2008 	ldrb	r2, [fp, #8]
  105940:	e5c3200e 	strb	r2, [r3, #14]
  105944:	e51b3008 	ldr	r3, [fp, #-8]
  105948:	e3a02000 	mov	r2, #0
  10594c:	e5c3200f 	strb	r2, [r3, #15]
  105950:	e51b3008 	ldr	r3, [fp, #-8]
  105954:	e1db20bc 	ldrh	r2, [fp, #12]
  105958:	e1c321b0 	strh	r2, [r3, #16]
  10595c:	e51b3008 	ldr	r3, [fp, #-8]
  105960:	e3a02000 	mov	r2, #0
  105964:	e1c321b2 	strh	r2, [r3, #18]
  105968:	e51b3008 	ldr	r3, [fp, #-8]
  10596c:	e3a02000 	mov	r2, #0
  105970:	e5832014 	str	r2, [r3, #20]
  105974:	e51b3008 	ldr	r3, [fp, #-8]
  105978:	e3a02000 	mov	r2, #0
  10597c:	e5832018 	str	r2, [r3, #24]
  105980:	e51b3014 	ldr	r3, [fp, #-20]	; 0xffffffec
  105984:	e3832102 	orr	r2, r3, #-2147483648	; 0x80000000
  105988:	e51b3008 	ldr	r3, [fp, #-8]
  10598c:	e583201c 	str	r2, [r3, #28]
  105990:	e3a03000 	mov	r3, #0
  105994:	e1a00003 	mov	r0, r3
  105998:	e24bd000 	sub	sp, fp, #0
  10599c:	e49db004 	pop	{fp}		; (ldr fp, [sp], #4)
  1059a0:	e12fff1e 	bx	lr

001059a4 <construct_extended_mm_to_st_descriptor_64>:
  1059a4:	e52db004 	push	{fp}		; (str fp, [sp, #-4]!)
  1059a8:	e28db000 	add	fp, sp, #0
  1059ac:	e24dd014 	sub	sp, sp, #20
  1059b0:	e50b0008 	str	r0, [fp, #-8]
  1059b4:	e50b100c 	str	r1, [fp, #-12]
  1059b8:	e50b2010 	str	r2, [fp, #-16]
  1059bc:	e50b3014 	str	r3, [fp, #-20]	; 0xffffffec
  1059c0:	e51b3008 	ldr	r3, [fp, #-8]
  1059c4:	e51b200c 	ldr	r2, [fp, #-12]
  1059c8:	e5832000 	str	r2, [r3]
  1059cc:	e51b3008 	ldr	r3, [fp, #-8]
  1059d0:	e3a02000 	mov	r2, #0
  1059d4:	e5832004 	str	r2, [r3, #4]
  1059d8:	e51b3008 	ldr	r3, [fp, #-8]
  1059dc:	e51b2014 	ldr	r2, [fp, #-20]	; 0xffffffec
  1059e0:	e5832008 	str	r2, [r3, #8]
  1059e4:	e51b3008 	ldr	r3, [fp, #-8]
  1059e8:	e1db20b8 	ldrh	r2, [fp, #8]
  1059ec:	e1c320bc 	strh	r2, [r3, #12]
  1059f0:	e51b3008 	ldr	r3, [fp, #-8]
  1059f4:	e5db200c 	ldrb	r2, [fp, #12]
  1059f8:	e5c3200e 	strb	r2, [r3, #14]
  1059fc:	e51b3008 	ldr	r3, [fp, #-8]
  105a00:	e3a02000 	mov	r2, #0
  105a04:	e5c3200f 	strb	r2, [r3, #15]
  105a08:	e51b3008 	ldr	r3, [fp, #-8]
  105a0c:	e1db21b0 	ldrh	r2, [fp, #16]
  105a10:	e1c321b0 	strh	r2, [r3, #16]
  105a14:	e51b3008 	ldr	r3, [fp, #-8]
  105a18:	e3a02000 	mov	r2, #0
  105a1c:	e1c321b2 	strh	r2, [r3, #18]
  105a20:	e51b3008 	ldr	r3, [fp, #-8]
  105a24:	e51b2010 	ldr	r2, [fp, #-16]
  105a28:	e5832014 	str	r2, [r3, #20]
  105a2c:	e51b3008 	ldr	r3, [fp, #-8]
  105a30:	e3a02000 	mov	r2, #0
  105a34:	e5832018 	str	r2, [r3, #24]
  105a38:	e59b3004 	ldr	r3, [fp, #4]
  105a3c:	e3832102 	orr	r2, r3, #-2147483648	; 0x80000000
  105a40:	e51b3008 	ldr	r3, [fp, #-8]
  105a44:	e583201c 	str	r2, [r3, #28]
  105a48:	e3a03000 	mov	r3, #0
  105a4c:	e1a00003 	mov	r0, r3
  105a50:	e24bd000 	sub	sp, fp, #0
  105a54:	e49db004 	pop	{fp}		; (ldr fp, [sp], #4)
  105a58:	e12fff1e 	bx	lr

00105a5c <construct_extended_mm_to_mm_descriptor>:
  105a5c:	e52db004 	push	{fp}		; (str fp, [sp, #-4]!)
  105a60:	e28db000 	add	fp, sp, #0
  105a64:	e24dd014 	sub	sp, sp, #20
  105a68:	e50b0008 	str	r0, [fp, #-8]
  105a6c:	e50b100c 	str	r1, [fp, #-12]
  105a70:	e50b2010 	str	r2, [fp, #-16]
  105a74:	e50b3014 	str	r3, [fp, #-20]	; 0xffffffec
  105a78:	e51b3008 	ldr	r3, [fp, #-8]
  105a7c:	e51b200c 	ldr	r2, [fp, #-12]
  105a80:	e5832000 	str	r2, [r3]
  105a84:	e51b3008 	ldr	r3, [fp, #-8]
  105a88:	e51b2010 	ldr	r2, [fp, #-16]
  105a8c:	e5832004 	str	r2, [r3, #4]
  105a90:	e51b3008 	ldr	r3, [fp, #-8]
  105a94:	e51b2014 	ldr	r2, [fp, #-20]	; 0xffffffec
  105a98:	e5832008 	str	r2, [r3, #8]
  105a9c:	e51b3008 	ldr	r3, [fp, #-8]
  105aa0:	e1db20b8 	ldrh	r2, [fp, #8]
  105aa4:	e1c320bc 	strh	r2, [r3, #12]
  105aa8:	e51b3008 	ldr	r3, [fp, #-8]
  105aac:	e5db200c 	ldrb	r2, [fp, #12]
  105ab0:	e5c3200e 	strb	r2, [r3, #14]
  105ab4:	e51b3008 	ldr	r3, [fp, #-8]
  105ab8:	e5db2010 	ldrb	r2, [fp, #16]
  105abc:	e5c3200f 	strb	r2, [r3, #15]
  105ac0:	e51b3008 	ldr	r3, [fp, #-8]
  105ac4:	e1db21b4 	ldrh	r2, [fp, #20]
  105ac8:	e1c321b0 	strh	r2, [r3, #16]
  105acc:	e51b3008 	ldr	r3, [fp, #-8]
  105ad0:	e1db21b8 	ldrh	r2, [fp, #24]
  105ad4:	e1c321b2 	strh	r2, [r3, #18]
  105ad8:	e51b3008 	ldr	r3, [fp, #-8]
  105adc:	e3a02000 	mov	r2, #0
  105ae0:	e5832014 	str	r2, [r3, #20]
  105ae4:	e51b3008 	ldr	r3, [fp, #-8]
  105ae8:	e3a02000 	mov	r2, #0
  105aec:	e5832018 	str	r2, [r3, #24]
  105af0:	e59b3004 	ldr	r3, [fp, #4]
  105af4:	e3832102 	orr	r2, r3, #-2147483648	; 0x80000000
  105af8:	e51b3008 	ldr	r3, [fp, #-8]
  105afc:	e583201c 	str	r2, [r3, #28]
  105b00:	e3a03000 	mov	r3, #0
  105b04:	e1a00003 	mov	r0, r3
  105b08:	e24bd000 	sub	sp, fp, #0
  105b0c:	e49db004 	pop	{fp}		; (ldr fp, [sp], #4)
  105b10:	e12fff1e 	bx	lr

00105b14 <construct_extended_mm_to_mm_descriptor_64>:
  105b14:	e52db004 	push	{fp}		; (str fp, [sp, #-4]!)
  105b18:	e28db000 	add	fp, sp, #0
  105b1c:	e24dd014 	sub	sp, sp, #20
  105b20:	e50b0008 	str	r0, [fp, #-8]
  105b24:	e50b100c 	str	r1, [fp, #-12]
  105b28:	e50b2010 	str	r2, [fp, #-16]
  105b2c:	e50b3014 	str	r3, [fp, #-20]	; 0xffffffec
  105b30:	e51b3008 	ldr	r3, [fp, #-8]
  105b34:	e51b200c 	ldr	r2, [fp, #-12]
  105b38:	e5832000 	str	r2, [r3]
  105b3c:	e51b3008 	ldr	r3, [fp, #-8]
  105b40:	e51b2014 	ldr	r2, [fp, #-20]	; 0xffffffec
  105b44:	e5832004 	str	r2, [r3, #4]
  105b48:	e51b3008 	ldr	r3, [fp, #-8]
  105b4c:	e59b2008 	ldr	r2, [fp, #8]
  105b50:	e5832008 	str	r2, [r3, #8]
  105b54:	e51b3008 	ldr	r3, [fp, #-8]
  105b58:	e1db21b0 	ldrh	r2, [fp, #16]
  105b5c:	e1c320bc 	strh	r2, [r3, #12]
  105b60:	e51b3008 	ldr	r3, [fp, #-8]
  105b64:	e5db2014 	ldrb	r2, [fp, #20]
  105b68:	e5c3200e 	strb	r2, [r3, #14]
  105b6c:	e51b3008 	ldr	r3, [fp, #-8]
  105b70:	e5db2018 	ldrb	r2, [fp, #24]
  105b74:	e5c3200f 	strb	r2, [r3, #15]
  105b78:	e51b3008 	ldr	r3, [fp, #-8]
  105b7c:	e1db21bc 	ldrh	r2, [fp, #28]
  105b80:	e1c321b0 	strh	r2, [r3, #16]
  105b84:	e51b3008 	ldr	r3, [fp, #-8]
  105b88:	e1db22b0 	ldrh	r2, [fp, #32]
  105b8c:	e1c321b2 	strh	r2, [r3, #18]
  105b90:	e51b3008 	ldr	r3, [fp, #-8]
  105b94:	e51b2010 	ldr	r2, [fp, #-16]
  105b98:	e5832014 	str	r2, [r3, #20]
  105b9c:	e51b3008 	ldr	r3, [fp, #-8]
  105ba0:	e59b2004 	ldr	r2, [fp, #4]
  105ba4:	e5832018 	str	r2, [r3, #24]
  105ba8:	e59b300c 	ldr	r3, [fp, #12]
  105bac:	e3832102 	orr	r2, r3, #-2147483648	; 0x80000000
  105bb0:	e51b3008 	ldr	r3, [fp, #-8]
  105bb4:	e583201c 	str	r2, [r3, #28]
  105bb8:	e3a03000 	mov	r3, #0
  105bbc:	e1a00003 	mov	r0, r3
  105bc0:	e24bd000 	sub	sp, fp, #0
  105bc4:	e49db004 	pop	{fp}		; (ldr fp, [sp], #4)
  105bc8:	e12fff1e 	bx	lr

00105bcc <write_standard_descriptor>:
  105bcc:	e52db004 	push	{fp}		; (str fp, [sp, #-4]!)
  105bd0:	e28db000 	add	fp, sp, #0
  105bd4:	e24dd014 	sub	sp, sp, #20
  105bd8:	e50b0008 	str	r0, [fp, #-8]
  105bdc:	e50b100c 	str	r1, [fp, #-12]
  105be0:	e50b2010 	str	r2, [fp, #-16]
  105be4:	e51b3008 	ldr	r3, [fp, #-8]
  105be8:	e5933000 	ldr	r3, [r3]
  105bec:	e2033004 	and	r3, r3, #4
  105bf0:	e3530000 	cmp	r3, #0
  105bf4:	0a000001 	beq	105c00 <write_standard_descriptor+0x34>
  105bf8:	e3e0301b 	mvn	r3, #27
  105bfc:	ea000016 	b	105c5c <write_standard_descriptor+0x90>
  105c00:	e51b300c 	ldr	r3, [fp, #-12]
  105c04:	e51b2010 	ldr	r2, [fp, #-16]
  105c08:	e5922000 	ldr	r2, [r2]
  105c0c:	e5832000 	str	r2, [r3]
  105c10:	e51b300c 	ldr	r3, [fp, #-12]
  105c14:	e2833004 	add	r3, r3, #4
  105c18:	e1a02003 	mov	r2, r3
  105c1c:	e51b3010 	ldr	r3, [fp, #-16]
  105c20:	e5933004 	ldr	r3, [r3, #4]
  105c24:	e5823000 	str	r3, [r2]
  105c28:	e51b300c 	ldr	r3, [fp, #-12]
  105c2c:	e2833008 	add	r3, r3, #8
  105c30:	e1a02003 	mov	r2, r3
  105c34:	e51b3010 	ldr	r3, [fp, #-16]
  105c38:	e5933008 	ldr	r3, [r3, #8]
  105c3c:	e5823000 	str	r3, [r2]
  105c40:	e51b300c 	ldr	r3, [fp, #-12]
  105c44:	e283300c 	add	r3, r3, #12
  105c48:	e1a02003 	mov	r2, r3
  105c4c:	e51b3010 	ldr	r3, [fp, #-16]
  105c50:	e593300c 	ldr	r3, [r3, #12]
  105c54:	e5823000 	str	r3, [r2]
  105c58:	e3a03000 	mov	r3, #0
  105c5c:	e1a00003 	mov	r0, r3
  105c60:	e24bd000 	sub	sp, fp, #0
  105c64:	e49db004 	pop	{fp}		; (ldr fp, [sp], #4)
  105c68:	e12fff1e 	bx	lr

00105c6c <write_extended_descriptor>:
  105c6c:	e52db004 	push	{fp}		; (str fp, [sp, #-4]!)
  105c70:	e28db000 	add	fp, sp, #0
  105c74:	e24dd014 	sub	sp, sp, #20
  105c78:	e50b0008 	str	r0, [fp, #-8]
  105c7c:	e50b100c 	str	r1, [fp, #-12]
  105c80:	e50b2010 	str	r2, [fp, #-16]
  105c84:	e51b3008 	ldr	r3, [fp, #-8]
  105c88:	e5933000 	ldr	r3, [r3]
  105c8c:	e2033004 	and	r3, r3, #4
  105c90:	e3530000 	cmp	r3, #0
  105c94:	0a000001 	beq	105ca0 <write_extended_descriptor+0x34>
  105c98:	e3e0301b 	mvn	r3, #27
  105c9c:	ea000040 	b	105da4 <write_extended_descriptor+0x138>
  105ca0:	e51b300c 	ldr	r3, [fp, #-12]
  105ca4:	e51b2010 	ldr	r2, [fp, #-16]
  105ca8:	e5922000 	ldr	r2, [r2]
  105cac:	e5832000 	str	r2, [r3]
  105cb0:	e51b300c 	ldr	r3, [fp, #-12]
  105cb4:	e2833004 	add	r3, r3, #4
  105cb8:	e1a02003 	mov	r2, r3
  105cbc:	e51b3010 	ldr	r3, [fp, #-16]
  105cc0:	e5933004 	ldr	r3, [r3, #4]
  105cc4:	e5823000 	str	r3, [r2]
  105cc8:	e51b300c 	ldr	r3, [fp, #-12]
  105ccc:	e2833008 	add	r3, r3, #8
  105cd0:	e1a02003 	mov	r2, r3
  105cd4:	e51b3010 	ldr	r3, [fp, #-16]
  105cd8:	e5933008 	ldr	r3, [r3, #8]
  105cdc:	e5823000 	str	r3, [r2]
  105ce0:	e51b300c 	ldr	r3, [fp, #-12]
  105ce4:	e283300c 	add	r3, r3, #12
  105ce8:	e1a02003 	mov	r2, r3
  105cec:	e51b3010 	ldr	r3, [fp, #-16]
  105cf0:	e1d330bc 	ldrh	r3, [r3, #12]
  105cf4:	e1c230b0 	strh	r3, [r2]
  105cf8:	e51b300c 	ldr	r3, [fp, #-12]
  105cfc:	e283300e 	add	r3, r3, #14
  105d00:	e1a02003 	mov	r2, r3
  105d04:	e51b3010 	ldr	r3, [fp, #-16]
  105d08:	e5d3300e 	ldrb	r3, [r3, #14]
  105d0c:	e5c23000 	strb	r3, [r2]
  105d10:	e51b300c 	ldr	r3, [fp, #-12]
  105d14:	e283300f 	add	r3, r3, #15
  105d18:	e1a02003 	mov	r2, r3
  105d1c:	e51b3010 	ldr	r3, [fp, #-16]
  105d20:	e5d3300f 	ldrb	r3, [r3, #15]
  105d24:	e5c23000 	strb	r3, [r2]
  105d28:	e51b300c 	ldr	r3, [fp, #-12]
  105d2c:	e2833010 	add	r3, r3, #16
  105d30:	e1a02003 	mov	r2, r3
  105d34:	e51b3010 	ldr	r3, [fp, #-16]
  105d38:	e1d331b0 	ldrh	r3, [r3, #16]
  105d3c:	e1c230b0 	strh	r3, [r2]
  105d40:	e51b300c 	ldr	r3, [fp, #-12]
  105d44:	e2833012 	add	r3, r3, #18
  105d48:	e1a02003 	mov	r2, r3
  105d4c:	e51b3010 	ldr	r3, [fp, #-16]
  105d50:	e1d331b2 	ldrh	r3, [r3, #18]
  105d54:	e1c230b0 	strh	r3, [r2]
  105d58:	e51b300c 	ldr	r3, [fp, #-12]
  105d5c:	e2833014 	add	r3, r3, #20
  105d60:	e1a02003 	mov	r2, r3
  105d64:	e51b3010 	ldr	r3, [fp, #-16]
  105d68:	e5933014 	ldr	r3, [r3, #20]
  105d6c:	e5823000 	str	r3, [r2]
  105d70:	e51b300c 	ldr	r3, [fp, #-12]
  105d74:	e2833018 	add	r3, r3, #24
  105d78:	e1a02003 	mov	r2, r3
  105d7c:	e51b3010 	ldr	r3, [fp, #-16]
  105d80:	e5933018 	ldr	r3, [r3, #24]
  105d84:	e5823000 	str	r3, [r2]
  105d88:	e51b300c 	ldr	r3, [fp, #-12]
  105d8c:	e283301c 	add	r3, r3, #28
  105d90:	e1a02003 	mov	r2, r3
  105d94:	e51b3010 	ldr	r3, [fp, #-16]
  105d98:	e593301c 	ldr	r3, [r3, #28]
  105d9c:	e5823000 	str	r3, [r2]
  105da0:	e3a03000 	mov	r3, #0
  105da4:	e1a00003 	mov	r0, r3
  105da8:	e24bd000 	sub	sp, fp, #0
  105dac:	e49db004 	pop	{fp}		; (ldr fp, [sp], #4)
  105db0:	e12fff1e 	bx	lr

00105db4 <read_mm_response>:
  105db4:	e52db004 	push	{fp}		; (str fp, [sp, #-4]!)
  105db8:	e28db000 	add	fp, sp, #0
  105dbc:	e24dd01c 	sub	sp, sp, #28
  105dc0:	e50b0010 	str	r0, [fp, #-16]
  105dc4:	e50b1014 	str	r1, [fp, #-20]	; 0xffffffec
  105dc8:	e50b2018 	str	r2, [fp, #-24]	; 0xffffffe8
  105dcc:	e51b3010 	ldr	r3, [fp, #-16]
  105dd0:	e5933000 	ldr	r3, [r3]
  105dd4:	e2033008 	and	r3, r3, #8
  105dd8:	e3530000 	cmp	r3, #0
  105ddc:	0a000001 	beq	105de8 <read_mm_response+0x34>
  105de0:	e3e0303c 	mvn	r3, #60	; 0x3c
  105de4:	ea000013 	b	105e38 <read_mm_response+0x84>
  105de8:	e51b3014 	ldr	r3, [fp, #-20]	; 0xffffffec
  105dec:	e5932000 	ldr	r2, [r3]
  105df0:	e51b3018 	ldr	r3, [fp, #-24]	; 0xffffffe8
  105df4:	e5832000 	str	r2, [r3]
  105df8:	e51b3014 	ldr	r3, [fp, #-20]	; 0xffffffec
  105dfc:	e2833004 	add	r3, r3, #4
  105e00:	e5933000 	ldr	r3, [r3]
  105e04:	e50b3008 	str	r3, [fp, #-8]
  105e08:	e51b3008 	ldr	r3, [fp, #-8]
  105e0c:	e6ef2073 	uxtb	r2, r3
  105e10:	e51b3018 	ldr	r3, [fp, #-24]	; 0xffffffe8
  105e14:	e5c32004 	strb	r2, [r3, #4]
  105e18:	e51b3008 	ldr	r3, [fp, #-8]
  105e1c:	e1a03423 	lsr	r3, r3, #8
  105e20:	e6ef3073 	uxtb	r3, r3
  105e24:	e2033001 	and	r3, r3, #1
  105e28:	e6ef2073 	uxtb	r2, r3
  105e2c:	e51b3018 	ldr	r3, [fp, #-24]	; 0xffffffe8
  105e30:	e5c32005 	strb	r2, [r3, #5]
  105e34:	e3a03000 	mov	r3, #0
  105e38:	e1a00003 	mov	r0, r3
  105e3c:	e24bd000 	sub	sp, fp, #0
  105e40:	e49db004 	pop	{fp}		; (ldr fp, [sp], #4)
  105e44:	e12fff1e 	bx	lr

00105e48 <read_csr_status>:
  105e48:	e52db004 	push	{fp}		; (str fp, [sp, #-4]!)
  105e4c:	e28db000 	add	fp, sp, #0
  105e50:	e24dd00c 	sub	sp, sp, #12
  105e54:	e50b0008 	str	r0, [fp, #-8]
  105e58:	e51b3008 	ldr	r3, [fp, #-8]
  105e5c:	e5933000 	ldr	r3, [r3]
  105e60:	e1a00003 	mov	r0, r3
  105e64:	e24bd000 	sub	sp, fp, #0
  105e68:	e49db004 	pop	{fp}		; (ldr fp, [sp], #4)
  105e6c:	e12fff1e 	bx	lr

00105e70 <read_csr_control>:
  105e70:	e52db004 	push	{fp}		; (str fp, [sp, #-4]!)
  105e74:	e28db000 	add	fp, sp, #0
  105e78:	e24dd00c 	sub	sp, sp, #12
  105e7c:	e50b0008 	str	r0, [fp, #-8]
  105e80:	e51b3008 	ldr	r3, [fp, #-8]
  105e84:	e2833004 	add	r3, r3, #4
  105e88:	e5933000 	ldr	r3, [r3]
  105e8c:	e1a00003 	mov	r0, r3
  105e90:	e24bd000 	sub	sp, fp, #0
  105e94:	e49db004 	pop	{fp}		; (ldr fp, [sp], #4)
  105e98:	e12fff1e 	bx	lr

00105e9c <read_csr_read_descriptor_buffer_fill_level>:
  105e9c:	e52db004 	push	{fp}		; (str fp, [sp, #-4]!)
  105ea0:	e28db000 	add	fp, sp, #0
  105ea4:	e24dd00c 	sub	sp, sp, #12
  105ea8:	e50b0008 	str	r0, [fp, #-8]
  105eac:	e51b3008 	ldr	r3, [fp, #-8]
  105eb0:	e2833008 	add	r3, r3, #8
  105eb4:	e5933000 	ldr	r3, [r3]
  105eb8:	e6ff3073 	uxth	r3, r3
  105ebc:	e1a00003 	mov	r0, r3
  105ec0:	e24bd000 	sub	sp, fp, #0
  105ec4:	e49db004 	pop	{fp}		; (ldr fp, [sp], #4)
  105ec8:	e12fff1e 	bx	lr

00105ecc <read_csr_write_descriptor_buffer_fill_level>:
  105ecc:	e52db004 	push	{fp}		; (str fp, [sp, #-4]!)
  105ed0:	e28db000 	add	fp, sp, #0
  105ed4:	e24dd00c 	sub	sp, sp, #12
  105ed8:	e50b0008 	str	r0, [fp, #-8]
  105edc:	e51b3008 	ldr	r3, [fp, #-8]
  105ee0:	e2833008 	add	r3, r3, #8
  105ee4:	e5933000 	ldr	r3, [r3]
  105ee8:	e1a03823 	lsr	r3, r3, #16
  105eec:	e6ff3073 	uxth	r3, r3
  105ef0:	e1a00003 	mov	r0, r3
  105ef4:	e24bd000 	sub	sp, fp, #0
  105ef8:	e49db004 	pop	{fp}		; (ldr fp, [sp], #4)
  105efc:	e12fff1e 	bx	lr

00105f00 <read_csr_response_buffer_fill_level>:
  105f00:	e52db004 	push	{fp}		; (str fp, [sp, #-4]!)
  105f04:	e28db000 	add	fp, sp, #0
  105f08:	e24dd00c 	sub	sp, sp, #12
  105f0c:	e50b0008 	str	r0, [fp, #-8]
  105f10:	e51b3008 	ldr	r3, [fp, #-8]
  105f14:	e283300c 	add	r3, r3, #12
  105f18:	e5933000 	ldr	r3, [r3]
  105f1c:	e6ff3073 	uxth	r3, r3
  105f20:	e1a00003 	mov	r0, r3
  105f24:	e24bd000 	sub	sp, fp, #0
  105f28:	e49db004 	pop	{fp}		; (ldr fp, [sp], #4)
  105f2c:	e12fff1e 	bx	lr

00105f30 <read_csr_read_sequence_number>:
  105f30:	e52db004 	push	{fp}		; (str fp, [sp, #-4]!)
  105f34:	e28db000 	add	fp, sp, #0
  105f38:	e24dd00c 	sub	sp, sp, #12
  105f3c:	e50b0008 	str	r0, [fp, #-8]
  105f40:	e51b3008 	ldr	r3, [fp, #-8]
  105f44:	e2833010 	add	r3, r3, #16
  105f48:	e5933000 	ldr	r3, [r3]
  105f4c:	e6ff3073 	uxth	r3, r3
  105f50:	e1a00003 	mov	r0, r3
  105f54:	e24bd000 	sub	sp, fp, #0
  105f58:	e49db004 	pop	{fp}		; (ldr fp, [sp], #4)
  105f5c:	e12fff1e 	bx	lr

00105f60 <read_csr_write_sequence_number>:
  105f60:	e52db004 	push	{fp}		; (str fp, [sp, #-4]!)
  105f64:	e28db000 	add	fp, sp, #0
  105f68:	e24dd00c 	sub	sp, sp, #12
  105f6c:	e50b0008 	str	r0, [fp, #-8]
  105f70:	e51b3008 	ldr	r3, [fp, #-8]
  105f74:	e2833010 	add	r3, r3, #16
  105f78:	e5933000 	ldr	r3, [r3]
  105f7c:	e1a03823 	lsr	r3, r3, #16
  105f80:	e6ff3073 	uxth	r3, r3
  105f84:	e1a00003 	mov	r0, r3
  105f88:	e24bd000 	sub	sp, fp, #0
  105f8c:	e49db004 	pop	{fp}		; (ldr fp, [sp], #4)
  105f90:	e12fff1e 	bx	lr

00105f94 <read_busy>:
  105f94:	e52db004 	push	{fp}		; (str fp, [sp, #-4]!)
  105f98:	e28db000 	add	fp, sp, #0
  105f9c:	e24dd00c 	sub	sp, sp, #12
  105fa0:	e50b0008 	str	r0, [fp, #-8]
  105fa4:	e51b3008 	ldr	r3, [fp, #-8]
  105fa8:	e5933000 	ldr	r3, [r3]
  105fac:	e2033001 	and	r3, r3, #1
  105fb0:	e3530000 	cmp	r3, #0
  105fb4:	13a03001 	movne	r3, #1
  105fb8:	03a03000 	moveq	r3, #0
  105fbc:	e6ef3073 	uxtb	r3, r3
  105fc0:	e1a00003 	mov	r0, r3
  105fc4:	e24bd000 	sub	sp, fp, #0
  105fc8:	e49db004 	pop	{fp}		; (ldr fp, [sp], #4)
  105fcc:	e12fff1e 	bx	lr

00105fd0 <read_descriptor_buffer_empty>:
  105fd0:	e52db004 	push	{fp}		; (str fp, [sp, #-4]!)
  105fd4:	e28db000 	add	fp, sp, #0
  105fd8:	e24dd00c 	sub	sp, sp, #12
  105fdc:	e50b0008 	str	r0, [fp, #-8]
  105fe0:	e51b3008 	ldr	r3, [fp, #-8]
  105fe4:	e5933000 	ldr	r3, [r3]
  105fe8:	e2033002 	and	r3, r3, #2
  105fec:	e3530000 	cmp	r3, #0
  105ff0:	13a03001 	movne	r3, #1
  105ff4:	03a03000 	moveq	r3, #0
  105ff8:	e6ef3073 	uxtb	r3, r3
  105ffc:	e1a00003 	mov	r0, r3
  106000:	e24bd000 	sub	sp, fp, #0
  106004:	e49db004 	pop	{fp}		; (ldr fp, [sp], #4)
  106008:	e12fff1e 	bx	lr

0010600c <read_descriptor_buffer_full>:
  10600c:	e52db004 	push	{fp}		; (str fp, [sp, #-4]!)
  106010:	e28db000 	add	fp, sp, #0
  106014:	e24dd00c 	sub	sp, sp, #12
  106018:	e50b0008 	str	r0, [fp, #-8]
  10601c:	e51b3008 	ldr	r3, [fp, #-8]
  106020:	e5933000 	ldr	r3, [r3]
  106024:	e2033004 	and	r3, r3, #4
  106028:	e3530000 	cmp	r3, #0
  10602c:	13a03001 	movne	r3, #1
  106030:	03a03000 	moveq	r3, #0
  106034:	e6ef3073 	uxtb	r3, r3
  106038:	e1a00003 	mov	r0, r3
  10603c:	e24bd000 	sub	sp, fp, #0
  106040:	e49db004 	pop	{fp}		; (ldr fp, [sp], #4)
  106044:	e12fff1e 	bx	lr

00106048 <read_response_buffer_empty>:
  106048:	e52db004 	push	{fp}		; (str fp, [sp, #-4]!)
  10604c:	e28db000 	add	fp, sp, #0
  106050:	e24dd00c 	sub	sp, sp, #12
  106054:	e50b0008 	str	r0, [fp, #-8]
  106058:	e51b3008 	ldr	r3, [fp, #-8]
  10605c:	e5933000 	ldr	r3, [r3]
  106060:	e2033008 	and	r3, r3, #8
  106064:	e3530000 	cmp	r3, #0
  106068:	13a03001 	movne	r3, #1
  10606c:	03a03000 	moveq	r3, #0
  106070:	e6ef3073 	uxtb	r3, r3
  106074:	e1a00003 	mov	r0, r3
  106078:	e24bd000 	sub	sp, fp, #0
  10607c:	e49db004 	pop	{fp}		; (ldr fp, [sp], #4)
  106080:	e12fff1e 	bx	lr

00106084 <read_response_buffer_full>:
  106084:	e52db004 	push	{fp}		; (str fp, [sp, #-4]!)
  106088:	e28db000 	add	fp, sp, #0
  10608c:	e24dd00c 	sub	sp, sp, #12
  106090:	e50b0008 	str	r0, [fp, #-8]
  106094:	e51b3008 	ldr	r3, [fp, #-8]
  106098:	e5933000 	ldr	r3, [r3]
