
src/hwlib.axf:     file format elf32-littlearm


Disassembly of section .text:

00100040 <__cs3_interrupt_vector>:
  100040:	18 f0 9f e5 18 f0 9f e5 18 f0 9f e5 18 f0 9f e5     ................
  100050:	18 f0 9f e5 18 f0 9f e5 18 f0 9f e5 18 f0 9f e5     ................
  100060:	80 00 10 00 b4 1a 12 00 b8 1a 12 00 bc 1a 12 00     ................
  100070:	c0 1a 12 00 b0 1a 12 00 c4 1a 12 00 c8 1a 12 00     ................

00100080 <__cs3_reset>:
  100080:	ea000022 	b	100110 <_start>

00100084 <__cs3_start_c>:
  100084:	e3008002 	movw	r8, #2
  100088:	e92d4080 	push	{r7, lr}
  10008c:	e3408000 	movt	r8, #0
  100090:	e3580000 	cmp	r8, #0
  100094:	0a00001c 	beq	10010c <__cs3_start_c+0x88>
  100098:	e302eb3c 	movw	lr, #11068	; 0x2b3c
  10009c:	e2488001 	sub	r8, r8, #1
  1000a0:	e3a04000 	mov	r4, #0
  1000a4:	e3a05000 	mov	r5, #0
  1000a8:	e340e012 	movt	lr, #18
  1000ac:	e99e1005 	ldmib	lr, {r0, r2, ip}
  1000b0:	e1500002 	cmp	r0, r2
  1000b4:	0082200c 	addeq	r2, r2, ip
  1000b8:	0a000007 	beq	1000dc <__cs3_start_c+0x58>
  1000bc:	e35c0000 	cmp	ip, #0
  1000c0:	0a000005 	beq	1000dc <__cs3_start_c+0x58>
  1000c4:	e1a03000 	mov	r3, r0
  1000c8:	e0c360d8 	ldrd	r6, [r3], #8
  1000cc:	e0431000 	sub	r1, r3, r0
  1000d0:	e0c260f8 	strd	r6, [r2], #8
  1000d4:	e151000c 	cmp	r1, ip
  1000d8:	1afffffa 	bne	1000c8 <__cs3_start_c+0x44>
  1000dc:	e59e0010 	ldr	r0, [lr, #16]
  1000e0:	e3500000 	cmp	r0, #0
  1000e4:	11a03002 	movne	r3, r2
  1000e8:	0a000003 	beq	1000fc <__cs3_start_c+0x78>
  1000ec:	e0c340f8 	strd	r4, [r3], #8
  1000f0:	e0431002 	sub	r1, r3, r2
  1000f4:	e1500001 	cmp	r0, r1
  1000f8:	1afffffb 	bne	1000ec <__cs3_start_c+0x68>
  1000fc:	e2488001 	sub	r8, r8, #1
  100100:	e28ee014 	add	lr, lr, #20
  100104:	e3780001 	cmn	r8, #1
  100108:	1affffe7 	bne	1000ac <__cs3_start_c+0x28>
  10010c:	eb00861a 	bl	12197c <__cs3_premain>

00100110 <_start>:
  100110:	e51fd000 	ldr	sp, [pc, #-0]	; 100118 <_start+0x8>
  100114:	eaffffda 	b	100084 <__cs3_start_c>
  100118:	01100040 	.word	0x01100040

0010011c <deregister_tm_clones>:
  10011c:	e59f3024 	ldr	r3, [pc, #36]	; 100148 <deregister_tm_clones+0x2c>
  100120:	e30c0aa0 	movw	r0, #51872	; 0xcaa0
  100124:	e3400012 	movt	r0, #18
  100128:	e0433000 	sub	r3, r3, r0
  10012c:	e3530006 	cmp	r3, #6
  100130:	912fff1e 	bxls	lr
  100134:	e3003000 	movw	r3, #0
  100138:	e3403000 	movt	r3, #0
  10013c:	e3530000 	cmp	r3, #0
  100140:	012fff1e 	bxeq	lr
  100144:	e12fff13 	bx	r3
  100148:	0012caa3 	.word	0x0012caa3

0010014c <register_tm_clones>:
  10014c:	e30c3aa0 	movw	r3, #51872	; 0xcaa0
  100150:	e30c0aa0 	movw	r0, #51872	; 0xcaa0
  100154:	e3403012 	movt	r3, #18
  100158:	e3400012 	movt	r0, #18
  10015c:	e0431000 	sub	r1, r3, r0
  100160:	e1a01141 	asr	r1, r1, #2
  100164:	e0811fa1 	add	r1, r1, r1, lsr #31
  100168:	e1b010c1 	asrs	r1, r1, #1
  10016c:	012fff1e 	bxeq	lr
  100170:	e3003000 	movw	r3, #0
  100174:	e3403000 	movt	r3, #0
  100178:	e3530000 	cmp	r3, #0
  10017c:	012fff1e 	bxeq	lr
  100180:	e12fff13 	bx	r3

00100184 <__do_global_dtors_aux>:
  100184:	e92d4010 	push	{r4, lr}
  100188:	e30c4aa0 	movw	r4, #51872	; 0xcaa0
  10018c:	e3404012 	movt	r4, #18
  100190:	e5d43000 	ldrb	r3, [r4]
  100194:	e3530000 	cmp	r3, #0
  100198:	18bd8010 	popne	{r4, pc}
  10019c:	ebffffde 	bl	10011c <deregister_tm_clones>
  1001a0:	e3003000 	movw	r3, #0
  1001a4:	e3403000 	movt	r3, #0
  1001a8:	e3530000 	cmp	r3, #0
  1001ac:	0a000002 	beq	1001bc <__do_global_dtors_aux+0x38>
  1001b0:	e3010b50 	movw	r0, #6992	; 0x1b50
  1001b4:	e3400012 	movt	r0, #18
  1001b8:	e320f000 	nop	{0}
  1001bc:	e3a03001 	mov	r3, #1
  1001c0:	e5c43000 	strb	r3, [r4]
  1001c4:	e8bd8010 	pop	{r4, pc}

001001c8 <frame_dummy>:
  1001c8:	e3003000 	movw	r3, #0
  1001cc:	e92d4010 	push	{r4, lr}
  1001d0:	e3403000 	movt	r3, #0
  1001d4:	e3530000 	cmp	r3, #0
  1001d8:	0a000004 	beq	1001f0 <frame_dummy+0x28>
  1001dc:	e30c1aa4 	movw	r1, #51876	; 0xcaa4
  1001e0:	e3010b50 	movw	r0, #6992	; 0x1b50
  1001e4:	e3401012 	movt	r1, #18
  1001e8:	e3400012 	movt	r0, #18
  1001ec:	e320f000 	nop	{0}
  1001f0:	e3040000 	movw	r0, #16384	; 0x4000
  1001f4:	e3400012 	movt	r0, #18
  1001f8:	e5903000 	ldr	r3, [r0]
  1001fc:	e3530000 	cmp	r3, #0
  100200:	1a000001 	bne	10020c <frame_dummy+0x44>
  100204:	e8bd4010 	pop	{r4, lr}
  100208:	eaffffcf 	b	10014c <register_tm_clones>
  10020c:	e3003000 	movw	r3, #0
  100210:	e3403000 	movt	r3, #0
  100214:	e3530000 	cmp	r3, #0
  100218:	0afffff9 	beq	100204 <frame_dummy+0x3c>
  10021c:	e12fff33 	blx	r3
  100220:	eafffff7 	b	100204 <frame_dummy+0x3c>

00100224 <main>:
  100224:	e92d4800 	push	{fp, lr}
  100228:	e28db004 	add	fp, sp, #4
  10022c:	e24ddd7e 	sub	sp, sp, #8064	; 0x1f80
  100230:	e24dd030 	sub	sp, sp, #48	; 0x30
  100234:	e24b3a01 	sub	r3, fp, #4096	; 0x1000
  100238:	e2433004 	sub	r3, r3, #4
  10023c:	e5030fa4 	str	r0, [r3, #-4004]	; 0xfffff05c
  100240:	e24b3a01 	sub	r3, fp, #4096	; 0x1000
  100244:	e2433004 	sub	r3, r3, #4
  100248:	e5031fa8 	str	r1, [r3, #-4008]	; 0xfffff058
  10024c:	e3010b60 	movw	r0, #7008	; 0x1b60
  100250:	e3400012 	movt	r0, #18
  100254:	eb0063b4 	bl	11912c <puts>
  100258:	e3a03000 	mov	r3, #0
  10025c:	e50b300c 	str	r3, [fp, #-12]
  100260:	e24b3a01 	sub	r3, fp, #4096	; 0x1000
  100264:	e2433004 	sub	r3, r3, #4
  100268:	e2433ef6 	sub	r3, r3, #3936	; 0xf60
  10026c:	e3a02000 	mov	r2, #0
  100270:	e5832000 	str	r2, [r3]
  100274:	e5832004 	str	r2, [r3, #4]
  100278:	e5832008 	str	r2, [r3, #8]
  10027c:	e24b3a01 	sub	r3, fp, #4096	; 0x1000
  100280:	e2433004 	sub	r3, r3, #4
  100284:	e1a02003 	mov	r2, r3
  100288:	e3a03000 	mov	r3, #0
  10028c:	e34f3f25 	movt	r3, #65317	; 0xff25
  100290:	e5023f60 	str	r3, [r2, #-3936]	; 0xfffff0a0
  100294:	e24b3a01 	sub	r3, fp, #4096	; 0x1000
  100298:	e2433004 	sub	r3, r3, #4
  10029c:	e3a02002 	mov	r2, #2
  1002a0:	e5432f58 	strb	r2, [r3, #-3928]	; 0xfffff0a8
  1002a4:	e24b3a01 	sub	r3, fp, #4096	; 0x1000
  1002a8:	e2433004 	sub	r3, r3, #4
  1002ac:	e1a02003 	mov	r2, r3
  1002b0:	e3013c8c 	movw	r3, #7308	; 0x1c8c
  1002b4:	e3403012 	movt	r3, #18
  1002b8:	e242cef7 	sub	ip, r2, #3952	; 0xf70
  1002bc:	e24cc004 	sub	ip, ip, #4
  1002c0:	e1a0e003 	mov	lr, r3
  1002c4:	e8be000f 	ldm	lr!, {r0, r1, r2, r3}
  1002c8:	e8ac000f 	stmia	ip!, {r0, r1, r2, r3}
  1002cc:	e59e3000 	ldr	r3, [lr]
  1002d0:	e58c3000 	str	r3, [ip]
  1002d4:	e24b3a01 	sub	r3, fp, #4096	; 0x1000
  1002d8:	e2433004 	sub	r3, r3, #4
  1002dc:	e2433d3e 	sub	r3, r3, #3968	; 0xf80
  1002e0:	e2433004 	sub	r3, r3, #4
  1002e4:	e3a02000 	mov	r2, #0
  1002e8:	e5832000 	str	r2, [r3]
  1002ec:	e5832004 	str	r2, [r3, #4]
  1002f0:	e5832008 	str	r2, [r3, #8]
  1002f4:	e583200c 	str	r2, [r3, #12]
  1002f8:	e24b3a01 	sub	r3, fp, #4096	; 0x1000
  1002fc:	e2433004 	sub	r3, r3, #4
  100300:	e1a02003 	mov	r2, r3
  100304:	e3a03b2d 	mov	r3, #46080	; 0xb400
  100308:	e34034c4 	movt	r3, #1220	; 0x4c4
  10030c:	e5023f84 	str	r3, [r2, #-3972]	; 0xfffff07c
  100310:	e24b3a01 	sub	r3, fp, #4096	; 0x1000
  100314:	e2433004 	sub	r3, r3, #4
  100318:	e1a02003 	mov	r2, r3
  10031c:	e3023190 	movw	r3, #8592	; 0x2190
  100320:	e3403012 	movt	r3, #18
  100324:	e5023f7c 	str	r3, [r2, #-3964]	; 0xfffff084
  100328:	e24b3a01 	sub	r3, fp, #4096	; 0x1000
  10032c:	e2433004 	sub	r3, r3, #4
  100330:	e1a02003 	mov	r2, r3
  100334:	e24b3d7d 	sub	r3, fp, #8000	; 0x1f40
  100338:	e2433004 	sub	r3, r3, #4
  10033c:	e2433034 	sub	r3, r3, #52	; 0x34
  100340:	e5023f78 	str	r3, [r2, #-3960]	; 0xfffff088
  100344:	e24b3a01 	sub	r3, fp, #4096	; 0x1000
  100348:	e2433004 	sub	r3, r3, #4
  10034c:	e1a02003 	mov	r2, r3
  100350:	e24b3d7e 	sub	r3, fp, #8064	; 0x1f80
  100354:	e2433004 	sub	r3, r3, #4
  100358:	e2433004 	sub	r3, r3, #4
  10035c:	e5023f9c 	str	r3, [r2, #-3996]	; 0xfffff064
  100360:	e24b3a01 	sub	r3, fp, #4096	; 0x1000
  100364:	e2433004 	sub	r3, r3, #4
  100368:	e1a02003 	mov	r2, r3
  10036c:	e24b3d7d 	sub	r3, fp, #8000	; 0x1f40
  100370:	e2433004 	sub	r3, r3, #4
  100374:	e2433020 	sub	r3, r3, #32
  100378:	e5023f98 	str	r3, [r2, #-3992]	; 0xfffff068
  10037c:	e24b3a01 	sub	r3, fp, #4096	; 0x1000
  100380:	e2433004 	sub	r3, r3, #4
  100384:	e3a02000 	mov	r2, #0
  100388:	e5432f94 	strb	r2, [r3, #-3988]	; 0xfffff06c
  10038c:	e24b3a01 	sub	r3, fp, #4096	; 0x1000
  100390:	e2433004 	sub	r3, r3, #4
  100394:	e3a02008 	mov	r2, #8
  100398:	e5432f93 	strb	r2, [r3, #-3987]	; 0xfffff06d
  10039c:	e24b3a01 	sub	r3, fp, #4096	; 0x1000
  1003a0:	e2433004 	sub	r3, r3, #4
  1003a4:	e3a02008 	mov	r2, #8
  1003a8:	e5432f92 	strb	r2, [r3, #-3986]	; 0xfffff06e
  1003ac:	e24b3a01 	sub	r3, fp, #4096	; 0x1000
  1003b0:	e2433004 	sub	r3, r3, #4
  1003b4:	e3a02000 	mov	r2, #0
  1003b8:	e5432f91 	strb	r2, [r3, #-3985]	; 0xfffff06f
  1003bc:	e24b3a01 	sub	r3, fp, #4096	; 0x1000
  1003c0:	e2433004 	sub	r3, r3, #4
  1003c4:	e3a02000 	mov	r2, #0
  1003c8:	e5432f90 	strb	r2, [r3, #-3984]	; 0xfffff070
  1003cc:	e24b3a01 	sub	r3, fp, #4096	; 0x1000
  1003d0:	e2433004 	sub	r3, r3, #4
  1003d4:	e3a02000 	mov	r2, #0
  1003d8:	e5432f8f 	strb	r2, [r3, #-3983]	; 0xfffff071
  1003dc:	e24b3a01 	sub	r3, fp, #4096	; 0x1000
  1003e0:	e2433004 	sub	r3, r3, #4
  1003e4:	e3a02002 	mov	r2, #2
  1003e8:	e5432f8e 	strb	r2, [r3, #-3982]	; 0xfffff072
  1003ec:	e24b3a01 	sub	r3, fp, #4096	; 0x1000
  1003f0:	e2433004 	sub	r3, r3, #4
  1003f4:	e1a02003 	mov	r2, r3
  1003f8:	e3a03000 	mov	r3, #0
  1003fc:	e34f3f24 	movt	r3, #65316	; 0xff24
  100400:	e5023f8c 	str	r3, [r2, #-3980]	; 0xfffff074
  100404:	e24b3a01 	sub	r3, fp, #4096	; 0x1000
  100408:	e2433004 	sub	r3, r3, #4
  10040c:	e1a02003 	mov	r2, r3
  100410:	e3023794 	movw	r3, #10132	; 0x2794
  100414:	e3403011 	movt	r3, #17
  100418:	e5023f88 	str	r3, [r2, #-3976]	; 0xfffff078
  10041c:	e24b2d7e 	sub	r2, fp, #8064	; 0x1f80
  100420:	e2422004 	sub	r2, r2, #4
  100424:	e242201c 	sub	r2, r2, #28
  100428:	e24b3d7d 	sub	r3, fp, #8000	; 0x1f40
  10042c:	e2433004 	sub	r3, r3, #4
  100430:	e2433014 	sub	r3, r3, #20
  100434:	e1a01002 	mov	r1, r2
  100438:	e1a00003 	mov	r0, r3
  10043c:	eb00052a 	bl	1018ec <ad463x_init>
  100440:	e50b0010 	str	r0, [fp, #-16]
  100444:	e51b3010 	ldr	r3, [fp, #-16]
  100448:	e3530000 	cmp	r3, #0
  10044c:	0a000001 	beq	100458 <main+0x234>
  100450:	e51b3010 	ldr	r3, [fp, #-16]
  100454:	ea0001b5 	b	100b30 <main+0x90c>
  100458:	e24b3a01 	sub	r3, fp, #4096	; 0x1000
  10045c:	e2433004 	sub	r3, r3, #4
  100460:	e5133f54 	ldr	r3, [r3, #-3924]	; 0xfffff0ac
  100464:	e1a00003 	mov	r0, r3
  100468:	eb00033d 	bl	101164 <ad463x_exit_reg_cfg_mode>
  10046c:	e50b0010 	str	r0, [fp, #-16]
  100470:	e51b3010 	ldr	r3, [fp, #-16]
  100474:	e3530000 	cmp	r3, #0
  100478:	0a000001 	beq	100484 <main+0x260>
  10047c:	e51b3010 	ldr	r3, [fp, #-16]
  100480:	ea0001aa 	b	100b30 <main+0x90c>
  100484:	e24b3a01 	sub	r3, fp, #4096	; 0x1000
  100488:	e2433004 	sub	r3, r3, #4
  10048c:	e5533f91 	ldrb	r3, [r3, #-3985]	; 0xfffff06f
  100490:	e3530080 	cmp	r3, #128	; 0x80
  100494:	1a000002 	bne	1004a4 <main+0x280>
  100498:	e3a03d7d 	mov	r3, #8000	; 0x1f40
  10049c:	e50b300c 	str	r3, [fp, #-12]
  1004a0:	ea000009 	b	1004cc <main+0x2a8>
  1004a4:	e24b3a01 	sub	r3, fp, #4096	; 0x1000
  1004a8:	e2433004 	sub	r3, r3, #4
  1004ac:	e5533f91 	ldrb	r3, [r3, #-3985]	; 0xfffff06f
  1004b0:	e3530040 	cmp	r3, #64	; 0x40
  1004b4:	1a000002 	bne	1004c4 <main+0x2a0>
  1004b8:	e3a03efa 	mov	r3, #4000	; 0xfa0
  1004bc:	e50b300c 	str	r3, [fp, #-12]
  1004c0:	ea000001 	b	1004cc <main+0x2a8>
  1004c4:	e3a03e7d 	mov	r3, #2000	; 0x7d0
  1004c8:	e50b300c 	str	r3, [fp, #-12]
  1004cc:	e24b3a01 	sub	r3, fp, #4096	; 0x1000
  1004d0:	e2433004 	sub	r3, r3, #4
  1004d4:	e5130f54 	ldr	r0, [r3, #-3924]	; 0xfffff0ac
  1004d8:	e51b300c 	ldr	r3, [fp, #-12]
  1004dc:	e6ff2073 	uxth	r2, r3
  1004e0:	e24b3d7d 	sub	r3, fp, #8000	; 0x1f40
  1004e4:	e2433004 	sub	r3, r3, #4
  1004e8:	e2433010 	sub	r3, r3, #16
  1004ec:	e1a01003 	mov	r1, r3
  1004f0:	eb000493 	bl	101744 <ad463x_read_data>
  1004f4:	e50b0010 	str	r0, [fp, #-16]
  1004f8:	e51b3010 	ldr	r3, [fp, #-16]
  1004fc:	e3530000 	cmp	r3, #0
  100500:	0a000001 	beq	10050c <main+0x2e8>
  100504:	e51b3010 	ldr	r3, [fp, #-16]
  100508:	ea000188 	b	100b30 <main+0x90c>
  10050c:	e24b3a01 	sub	r3, fp, #4096	; 0x1000
  100510:	e2433004 	sub	r3, r3, #4
  100514:	e5533f8e 	ldrb	r3, [r3, #-3982]	; 0xfffff072
  100518:	e3530000 	cmp	r3, #0
  10051c:	1a000023 	bne	1005b0 <main+0x38c>
  100520:	e3a03000 	mov	r3, #0
  100524:	e50b3008 	str	r3, [fp, #-8]
  100528:	ea00001c 	b	1005a0 <main+0x37c>
  10052c:	e24b3a01 	sub	r3, fp, #4096	; 0x1000
  100530:	e2433004 	sub	r3, r3, #4
  100534:	e2433ef5 	sub	r3, r3, #3920	; 0xf50
  100538:	e1a02003 	mov	r2, r3
  10053c:	e51b3008 	ldr	r3, [fp, #-8]
  100540:	e1a03183 	lsl	r3, r3, #3
  100544:	e0823003 	add	r3, r2, r3
  100548:	e1c320d0 	ldrd	r2, [r3]
  10054c:	e1a03002 	mov	r3, r2
  100550:	e1a01423 	lsr	r1, r3, #8
  100554:	e24b3a01 	sub	r3, fp, #4096	; 0x1000
  100558:	e2433004 	sub	r3, r3, #4
  10055c:	e2433ef5 	sub	r3, r3, #3920	; 0xf50
  100560:	e1a02003 	mov	r2, r3
  100564:	e51b3008 	ldr	r3, [fp, #-8]
  100568:	e1a03183 	lsl	r3, r3, #3
  10056c:	e0823003 	add	r3, r2, r3
  100570:	e1c320d0 	ldrd	r2, [r3]
  100574:	e1a02003 	mov	r2, r3
  100578:	e3a03000 	mov	r3, #0
  10057c:	e1a03002 	mov	r3, r2
  100580:	e1a03423 	lsr	r3, r3, #8
  100584:	e1a02003 	mov	r2, r3
  100588:	e3010b88 	movw	r0, #7048	; 0x1b88
  10058c:	e3400012 	movt	r0, #18
  100590:	eb006297 	bl	118ff4 <printf>
  100594:	e51b3008 	ldr	r3, [fp, #-8]
  100598:	e2833001 	add	r3, r3, #1
  10059c:	e50b3008 	str	r3, [fp, #-8]
  1005a0:	e51b3008 	ldr	r3, [fp, #-8]
  1005a4:	e3530ffa 	cmp	r3, #1000	; 0x3e8
  1005a8:	3affffdf 	bcc	10052c <main+0x308>
  1005ac:	eaffffc6 	b	1004cc <main+0x2a8>
  1005b0:	e24b3a01 	sub	r3, fp, #4096	; 0x1000
  1005b4:	e2433004 	sub	r3, r3, #4
  1005b8:	e5533f8e 	ldrb	r3, [r3, #-3982]	; 0xfffff072
  1005bc:	e3530001 	cmp	r3, #1
  1005c0:	1a0000b6 	bne	1008a0 <main+0x67c>
  1005c4:	e24b3a01 	sub	r3, fp, #4096	; 0x1000
  1005c8:	e2433004 	sub	r3, r3, #4
  1005cc:	e5533f90 	ldrb	r3, [r3, #-3984]	; 0xfffff070
  1005d0:	e3530020 	cmp	r3, #32
  1005d4:	1a000073 	bne	1007a8 <main+0x584>
  1005d8:	e3a03000 	mov	r3, #0
  1005dc:	e50b3008 	str	r3, [fp, #-8]
  1005e0:	ea00006c 	b	100798 <main+0x574>
  1005e4:	e24b3a01 	sub	r3, fp, #4096	; 0x1000
  1005e8:	e2433004 	sub	r3, r3, #4
  1005ec:	e5533f91 	ldrb	r3, [r3, #-3985]	; 0xfffff06f
  1005f0:	e3530080 	cmp	r3, #128	; 0x80
  1005f4:	1a000032 	bne	1006c4 <main+0x4a0>
  1005f8:	e24b3a01 	sub	r3, fp, #4096	; 0x1000
  1005fc:	e2433004 	sub	r3, r3, #4
  100600:	e2433ef5 	sub	r3, r3, #3920	; 0xf50
  100604:	e1a02003 	mov	r2, r3
  100608:	e51b3008 	ldr	r3, [fp, #-8]
  10060c:	e1a03183 	lsl	r3, r3, #3
  100610:	e0823003 	add	r3, r2, r3
  100614:	e1c320d0 	ldrd	r2, [r3]
  100618:	e1a03002 	mov	r3, r2
  10061c:	e1a01423 	lsr	r1, r3, #8
  100620:	e24b3a01 	sub	r3, fp, #4096	; 0x1000
  100624:	e2433004 	sub	r3, r3, #4
  100628:	e2433ef5 	sub	r3, r3, #3920	; 0xf50
  10062c:	e1a02003 	mov	r2, r3
  100630:	e51b3008 	ldr	r3, [fp, #-8]
  100634:	e1a03183 	lsl	r3, r3, #3
  100638:	e0823003 	add	r3, r2, r3
  10063c:	e1c320d0 	ldrd	r2, [r3]
  100640:	e1a03002 	mov	r3, r2
  100644:	e6ef0073 	uxtb	r0, r3
  100648:	e24b3a01 	sub	r3, fp, #4096	; 0x1000
  10064c:	e2433004 	sub	r3, r3, #4
  100650:	e2433ef5 	sub	r3, r3, #3920	; 0xf50
  100654:	e1a02003 	mov	r2, r3
  100658:	e51b3008 	ldr	r3, [fp, #-8]
  10065c:	e1a03183 	lsl	r3, r3, #3
  100660:	e0823003 	add	r3, r2, r3
  100664:	e1c320d0 	ldrd	r2, [r3]
  100668:	e1a02003 	mov	r2, r3
  10066c:	e3a03000 	mov	r3, #0
  100670:	e1a03002 	mov	r3, r2
  100674:	e1a0c423 	lsr	ip, r3, #8
  100678:	e24b3a01 	sub	r3, fp, #4096	; 0x1000
  10067c:	e2433004 	sub	r3, r3, #4
  100680:	e2433ef5 	sub	r3, r3, #3920	; 0xf50
  100684:	e1a02003 	mov	r2, r3
  100688:	e51b3008 	ldr	r3, [fp, #-8]
  10068c:	e1a03183 	lsl	r3, r3, #3
  100690:	e0823003 	add	r3, r2, r3
  100694:	e1c320d0 	ldrd	r2, [r3]
  100698:	e1a02003 	mov	r2, r3
  10069c:	e3a03000 	mov	r3, #0
  1006a0:	e1a03002 	mov	r3, r2
  1006a4:	e6ef3073 	uxtb	r3, r3
  1006a8:	e58d3000 	str	r3, [sp]
  1006ac:	e1a0300c 	mov	r3, ip
  1006b0:	e1a02000 	mov	r2, r0
  1006b4:	e3010bb0 	movw	r0, #7088	; 0x1bb0
  1006b8:	e3400012 	movt	r0, #18
  1006bc:	eb00624c 	bl	118ff4 <printf>
  1006c0:	ea000031 	b	10078c <main+0x568>
  1006c4:	e24b3a01 	sub	r3, fp, #4096	; 0x1000
  1006c8:	e2433004 	sub	r3, r3, #4
  1006cc:	e2433ef5 	sub	r3, r3, #3920	; 0xf50
  1006d0:	e1a02003 	mov	r2, r3
  1006d4:	e51b3008 	ldr	r3, [fp, #-8]
  1006d8:	e1a03183 	lsl	r3, r3, #3
  1006dc:	e0823003 	add	r3, r2, r3
  1006e0:	e1c320d0 	ldrd	r2, [r3]
  1006e4:	e1a03002 	mov	r3, r2
  1006e8:	e1a01823 	lsr	r1, r3, #16
  1006ec:	e24b3a01 	sub	r3, fp, #4096	; 0x1000
  1006f0:	e2433004 	sub	r3, r3, #4
  1006f4:	e2433ef5 	sub	r3, r3, #3920	; 0xf50
  1006f8:	e1a02003 	mov	r2, r3
  1006fc:	e51b3008 	ldr	r3, [fp, #-8]
  100700:	e1a03183 	lsl	r3, r3, #3
  100704:	e0823003 	add	r3, r2, r3
  100708:	e1c320d0 	ldrd	r2, [r3]
  10070c:	e1a03002 	mov	r3, r2
  100710:	e6ef0073 	uxtb	r0, r3
  100714:	e24b3a01 	sub	r3, fp, #4096	; 0x1000
  100718:	e2433004 	sub	r3, r3, #4
  10071c:	e2433ef5 	sub	r3, r3, #3920	; 0xf50
  100720:	e1a02003 	mov	r2, r3
  100724:	e51b3008 	ldr	r3, [fp, #-8]
  100728:	e1a03183 	lsl	r3, r3, #3
  10072c:	e0823003 	add	r3, r2, r3
  100730:	e1c320d0 	ldrd	r2, [r3]
  100734:	e1a02003 	mov	r2, r3
  100738:	e3a03000 	mov	r3, #0
  10073c:	e1a03002 	mov	r3, r2
  100740:	e1a0c823 	lsr	ip, r3, #16
  100744:	e24b3a01 	sub	r3, fp, #4096	; 0x1000
  100748:	e2433004 	sub	r3, r3, #4
  10074c:	e2433ef5 	sub	r3, r3, #3920	; 0xf50
  100750:	e1a02003 	mov	r2, r3
  100754:	e51b3008 	ldr	r3, [fp, #-8]
  100758:	e1a03183 	lsl	r3, r3, #3
  10075c:	e0823003 	add	r3, r2, r3
  100760:	e1c320d0 	ldrd	r2, [r3]
  100764:	e1a02003 	mov	r2, r3
  100768:	e3a03000 	mov	r3, #0
  10076c:	e1a03002 	mov	r3, r2
  100770:	e6ef3073 	uxtb	r3, r3
  100774:	e58d3000 	str	r3, [sp]
  100778:	e1a0300c 	mov	r3, ip
  10077c:	e1a02000 	mov	r2, r0
  100780:	e3010bb0 	movw	r0, #7088	; 0x1bb0
  100784:	e3400012 	movt	r0, #18
  100788:	eb006219 	bl	118ff4 <printf>
  10078c:	e51b3008 	ldr	r3, [fp, #-8]
  100790:	e2833001 	add	r3, r3, #1
  100794:	e50b3008 	str	r3, [fp, #-8]
  100798:	e51b3008 	ldr	r3, [fp, #-8]
  10079c:	e3530ffa 	cmp	r3, #1000	; 0x3e8
  1007a0:	3affff8f 	bcc	1005e4 <main+0x3c0>
  1007a4:	eaffff48 	b	1004cc <main+0x2a8>
  1007a8:	e3a03000 	mov	r3, #0
  1007ac:	e50b3008 	str	r3, [fp, #-8]
  1007b0:	ea000036 	b	100890 <main+0x66c>
  1007b4:	e24b3a01 	sub	r3, fp, #4096	; 0x1000
  1007b8:	e2433004 	sub	r3, r3, #4
  1007bc:	e2433ef5 	sub	r3, r3, #3920	; 0xf50
  1007c0:	e1a02003 	mov	r2, r3
  1007c4:	e51b3008 	ldr	r3, [fp, #-8]
  1007c8:	e1a03183 	lsl	r3, r3, #3
  1007cc:	e0823003 	add	r3, r2, r3
  1007d0:	e1c320d0 	ldrd	r2, [r3]
  1007d4:	e1a03002 	mov	r3, r2
  1007d8:	e1a01823 	lsr	r1, r3, #16
  1007dc:	e24b3a01 	sub	r3, fp, #4096	; 0x1000
  1007e0:	e2433004 	sub	r3, r3, #4
  1007e4:	e2433ef5 	sub	r3, r3, #3920	; 0xf50
  1007e8:	e1a02003 	mov	r2, r3
  1007ec:	e51b3008 	ldr	r3, [fp, #-8]
  1007f0:	e1a03183 	lsl	r3, r3, #3
  1007f4:	e0823003 	add	r3, r2, r3
  1007f8:	e1c320d0 	ldrd	r2, [r3]
  1007fc:	e1a03002 	mov	r3, r2
  100800:	e1a03423 	lsr	r3, r3, #8
  100804:	e6ef0073 	uxtb	r0, r3
  100808:	e24b3a01 	sub	r3, fp, #4096	; 0x1000
  10080c:	e2433004 	sub	r3, r3, #4
  100810:	e2433ef5 	sub	r3, r3, #3920	; 0xf50
  100814:	e1a02003 	mov	r2, r3
  100818:	e51b3008 	ldr	r3, [fp, #-8]
  10081c:	e1a03183 	lsl	r3, r3, #3
  100820:	e0823003 	add	r3, r2, r3
  100824:	e1c320d0 	ldrd	r2, [r3]
  100828:	e1a02003 	mov	r2, r3
  10082c:	e3a03000 	mov	r3, #0
  100830:	e1a03002 	mov	r3, r2
  100834:	e1a0c823 	lsr	ip, r3, #16
  100838:	e24b3a01 	sub	r3, fp, #4096	; 0x1000
  10083c:	e2433004 	sub	r3, r3, #4
  100840:	e2433ef5 	sub	r3, r3, #3920	; 0xf50
  100844:	e1a02003 	mov	r2, r3
  100848:	e51b3008 	ldr	r3, [fp, #-8]
  10084c:	e1a03183 	lsl	r3, r3, #3
  100850:	e0823003 	add	r3, r2, r3
  100854:	e1c320d0 	ldrd	r2, [r3]
  100858:	e1a02003 	mov	r2, r3
  10085c:	e3a03000 	mov	r3, #0
  100860:	e1a03002 	mov	r3, r2
  100864:	e1a03423 	lsr	r3, r3, #8
  100868:	e6ef3073 	uxtb	r3, r3
  10086c:	e58d3000 	str	r3, [sp]
  100870:	e1a0300c 	mov	r3, ip
  100874:	e1a02000 	mov	r2, r0
  100878:	e3010bb0 	movw	r0, #7088	; 0x1bb0
  10087c:	e3400012 	movt	r0, #18
  100880:	eb0061db 	bl	118ff4 <printf>
  100884:	e51b3008 	ldr	r3, [fp, #-8]
  100888:	e2833001 	add	r3, r3, #1
  10088c:	e50b3008 	str	r3, [fp, #-8]
  100890:	e51b3008 	ldr	r3, [fp, #-8]
  100894:	e3530ffa 	cmp	r3, #1000	; 0x3e8
  100898:	3affffc5 	bcc	1007b4 <main+0x590>
  10089c:	eaffff0a 	b	1004cc <main+0x2a8>
  1008a0:	e24b3a01 	sub	r3, fp, #4096	; 0x1000
  1008a4:	e2433004 	sub	r3, r3, #4
  1008a8:	e5533f8e 	ldrb	r3, [r3, #-3982]	; 0xfffff072
  1008ac:	e3530002 	cmp	r3, #2
  1008b0:	1a00003b 	bne	1009a4 <main+0x780>
  1008b4:	e3a03000 	mov	r3, #0
  1008b8:	e50b3008 	str	r3, [fp, #-8]
  1008bc:	ea000034 	b	100994 <main+0x770>
  1008c0:	e24b3a01 	sub	r3, fp, #4096	; 0x1000
  1008c4:	e2433004 	sub	r3, r3, #4
  1008c8:	e2433ef5 	sub	r3, r3, #3920	; 0xf50
  1008cc:	e1a02003 	mov	r2, r3
  1008d0:	e51b3008 	ldr	r3, [fp, #-8]
  1008d4:	e1a03183 	lsl	r3, r3, #3
  1008d8:	e0823003 	add	r3, r2, r3
  1008dc:	e1c320d0 	ldrd	r2, [r3]
  1008e0:	e1a03002 	mov	r3, r2
  1008e4:	e1a01423 	lsr	r1, r3, #8
  1008e8:	e24b3a01 	sub	r3, fp, #4096	; 0x1000
  1008ec:	e2433004 	sub	r3, r3, #4
  1008f0:	e2433ef5 	sub	r3, r3, #3920	; 0xf50
  1008f4:	e1a02003 	mov	r2, r3
  1008f8:	e51b3008 	ldr	r3, [fp, #-8]
  1008fc:	e1a03183 	lsl	r3, r3, #3
  100900:	e0823003 	add	r3, r2, r3
  100904:	e1c320d0 	ldrd	r2, [r3]
  100908:	e1a03002 	mov	r3, r2
  10090c:	e6ef0073 	uxtb	r0, r3
  100910:	e24b3a01 	sub	r3, fp, #4096	; 0x1000
  100914:	e2433004 	sub	r3, r3, #4
  100918:	e2433ef5 	sub	r3, r3, #3920	; 0xf50
  10091c:	e1a02003 	mov	r2, r3
  100920:	e51b3008 	ldr	r3, [fp, #-8]
  100924:	e1a03183 	lsl	r3, r3, #3
  100928:	e0823003 	add	r3, r2, r3
  10092c:	e1c320d0 	ldrd	r2, [r3]
  100930:	e1a02003 	mov	r2, r3
  100934:	e3a03000 	mov	r3, #0
  100938:	e1a03002 	mov	r3, r2
  10093c:	e1a0c423 	lsr	ip, r3, #8
  100940:	e24b3a01 	sub	r3, fp, #4096	; 0x1000
  100944:	e2433004 	sub	r3, r3, #4
  100948:	e2433ef5 	sub	r3, r3, #3920	; 0xf50
  10094c:	e1a02003 	mov	r2, r3
  100950:	e51b3008 	ldr	r3, [fp, #-8]
  100954:	e1a03183 	lsl	r3, r3, #3
  100958:	e0823003 	add	r3, r2, r3
  10095c:	e1c320d0 	ldrd	r2, [r3]
  100960:	e1a02003 	mov	r2, r3
  100964:	e3a03000 	mov	r3, #0
  100968:	e1a03002 	mov	r3, r2
  10096c:	e6ef3073 	uxtb	r3, r3
  100970:	e58d3000 	str	r3, [sp]
  100974:	e1a0300c 	mov	r3, ip
  100978:	e1a02000 	mov	r2, r0
  10097c:	e3010bf8 	movw	r0, #7160	; 0x1bf8
  100980:	e3400012 	movt	r0, #18
  100984:	eb00619a 	bl	118ff4 <printf>
  100988:	e51b3008 	ldr	r3, [fp, #-8]
  10098c:	e2833001 	add	r3, r3, #1
  100990:	e50b3008 	str	r3, [fp, #-8]
  100994:	e51b3008 	ldr	r3, [fp, #-8]
  100998:	e3530ffa 	cmp	r3, #1000	; 0x3e8
  10099c:	3affffc7 	bcc	1008c0 <main+0x69c>
  1009a0:	eafffec9 	b	1004cc <main+0x2a8>
  1009a4:	e24b3a01 	sub	r3, fp, #4096	; 0x1000
  1009a8:	e2433004 	sub	r3, r3, #4
  1009ac:	e5533f8e 	ldrb	r3, [r3, #-3982]	; 0xfffff072
  1009b0:	e3530003 	cmp	r3, #3
  1009b4:	1a00003b 	bne	100aa8 <main+0x884>
  1009b8:	e3a03000 	mov	r3, #0
  1009bc:	e50b3008 	str	r3, [fp, #-8]
  1009c0:	ea000034 	b	100a98 <main+0x874>
  1009c4:	e24b3a01 	sub	r3, fp, #4096	; 0x1000
  1009c8:	e2433004 	sub	r3, r3, #4
  1009cc:	e2433ef5 	sub	r3, r3, #3920	; 0xf50
  1009d0:	e1a02003 	mov	r2, r3
  1009d4:	e51b3008 	ldr	r3, [fp, #-8]
  1009d8:	e1a03183 	lsl	r3, r3, #3
  1009dc:	e0823003 	add	r3, r2, r3
  1009e0:	e1c320d0 	ldrd	r2, [r3]
  1009e4:	e1a03002 	mov	r3, r2
  1009e8:	e1a01123 	lsr	r1, r3, #2
  1009ec:	e24b3a01 	sub	r3, fp, #4096	; 0x1000
  1009f0:	e2433004 	sub	r3, r3, #4
  1009f4:	e2433ef5 	sub	r3, r3, #3920	; 0xf50
  1009f8:	e1a02003 	mov	r2, r3
  1009fc:	e51b3008 	ldr	r3, [fp, #-8]
  100a00:	e1a03183 	lsl	r3, r3, #3
  100a04:	e0823003 	add	r3, r2, r3
  100a08:	e1c320d0 	ldrd	r2, [r3]
  100a0c:	e1a03002 	mov	r3, r2
  100a10:	e2030003 	and	r0, r3, #3
  100a14:	e24b3a01 	sub	r3, fp, #4096	; 0x1000
  100a18:	e2433004 	sub	r3, r3, #4
  100a1c:	e2433ef5 	sub	r3, r3, #3920	; 0xf50
  100a20:	e1a02003 	mov	r2, r3
  100a24:	e51b3008 	ldr	r3, [fp, #-8]
  100a28:	e1a03183 	lsl	r3, r3, #3
  100a2c:	e0823003 	add	r3, r2, r3
  100a30:	e1c320d0 	ldrd	r2, [r3]
  100a34:	e1a02003 	mov	r2, r3
  100a38:	e3a03000 	mov	r3, #0
  100a3c:	e1a03002 	mov	r3, r2
  100a40:	e1a0c123 	lsr	ip, r3, #2
  100a44:	e24b3a01 	sub	r3, fp, #4096	; 0x1000
  100a48:	e2433004 	sub	r3, r3, #4
  100a4c:	e2433ef5 	sub	r3, r3, #3920	; 0xf50
  100a50:	e1a02003 	mov	r2, r3
  100a54:	e51b3008 	ldr	r3, [fp, #-8]
  100a58:	e1a03183 	lsl	r3, r3, #3
  100a5c:	e0823003 	add	r3, r2, r3
  100a60:	e1c320d0 	ldrd	r2, [r3]
  100a64:	e1a02003 	mov	r2, r3
  100a68:	e3a03000 	mov	r3, #0
  100a6c:	e1a03002 	mov	r3, r2
  100a70:	e2033003 	and	r3, r3, #3
  100a74:	e58d3000 	str	r3, [sp]
  100a78:	e1a0300c 	mov	r3, ip
  100a7c:	e1a02000 	mov	r2, r0
  100a80:	e3010c40 	movw	r0, #7232	; 0x1c40
  100a84:	e3400012 	movt	r0, #18
  100a88:	eb006159 	bl	118ff4 <printf>
  100a8c:	e51b3008 	ldr	r3, [fp, #-8]
  100a90:	e2833001 	add	r3, r3, #1
  100a94:	e50b3008 	str	r3, [fp, #-8]
  100a98:	e51b3008 	ldr	r3, [fp, #-8]
  100a9c:	e3530ffa 	cmp	r3, #1000	; 0x3e8
  100aa0:	3affffc7 	bcc	1009c4 <main+0x7a0>
  100aa4:	eafffe88 	b	1004cc <main+0x2a8>
  100aa8:	e3a03000 	mov	r3, #0
  100aac:	e50b3008 	str	r3, [fp, #-8]
  100ab0:	ea00001a 	b	100b20 <main+0x8fc>
  100ab4:	e24b3a01 	sub	r3, fp, #4096	; 0x1000
  100ab8:	e2433004 	sub	r3, r3, #4
  100abc:	e2433ef5 	sub	r3, r3, #3920	; 0xf50
  100ac0:	e1a02003 	mov	r2, r3
  100ac4:	e51b3008 	ldr	r3, [fp, #-8]
  100ac8:	e1a03183 	lsl	r3, r3, #3
  100acc:	e0823003 	add	r3, r2, r3
  100ad0:	e1c320d0 	ldrd	r2, [r3]
  100ad4:	e1a01002 	mov	r1, r2
  100ad8:	e24b3a01 	sub	r3, fp, #4096	; 0x1000
  100adc:	e2433004 	sub	r3, r3, #4
  100ae0:	e2433ef5 	sub	r3, r3, #3920	; 0xf50
  100ae4:	e1a02003 	mov	r2, r3
  100ae8:	e51b3008 	ldr	r3, [fp, #-8]
  100aec:	e1a03183 	lsl	r3, r3, #3
  100af0:	e0823003 	add	r3, r2, r3
  100af4:	e1c320d0 	ldrd	r2, [r3]
  100af8:	e1a02003 	mov	r2, r3
  100afc:	e3a03000 	mov	r3, #0
  100b00:	e1a03002 	mov	r3, r2
  100b04:	e1a02003 	mov	r2, r3
  100b08:	e3010b88 	movw	r0, #7048	; 0x1b88
  100b0c:	e3400012 	movt	r0, #18
  100b10:	eb006137 	bl	118ff4 <printf>
  100b14:	e51b3008 	ldr	r3, [fp, #-8]
  100b18:	e2833001 	add	r3, r3, #1
  100b1c:	e50b3008 	str	r3, [fp, #-8]
  100b20:	e51b3008 	ldr	r3, [fp, #-8]
  100b24:	e3530ffa 	cmp	r3, #1000	; 0x3e8
  100b28:	3affffe1 	bcc	100ab4 <main+0x890>
  100b2c:	eafffe66 	b	1004cc <main+0x2a8>
  100b30:	e1a00003 	mov	r0, r3
  100b34:	e24bd004 	sub	sp, fp, #4
  100b38:	e8bd8800 	pop	{fp, pc}

00100b3c <cache_fun>:
  100b3c:	e92d4800 	push	{fp, lr}
  100b40:	e28db004 	add	fp, sp, #4
  100b44:	e3a00009 	mov	r0, #9
  100b48:	eb000001 	bl	100b54 <cache_configuration>
  100b4c:	e320f000 	nop	{0}
  100b50:	e8bd8800 	pop	{fp, pc}

00100b54 <cache_configuration>:
  100b54:	e92d4800 	push	{fp, lr}
  100b58:	e28db004 	add	fp, sp, #4
  100b5c:	e24dd008 	sub	sp, sp, #8
  100b60:	e50b0008 	str	r0, [fp, #-8]
  100b64:	e51b3008 	ldr	r3, [fp, #-8]
  100b68:	e3530000 	cmp	r3, #0
  100b6c:	ca000003 	bgt	100b80 <cache_configuration+0x2c>
  100b70:	e3010ca0 	movw	r0, #7328	; 0x1ca0
  100b74:	e3400012 	movt	r0, #18
  100b78:	eb00611d 	bl	118ff4 <printf>
  100b7c:	ea0000a2 	b	100e0c <cache_configuration+0x2b8>
  100b80:	e51b3008 	ldr	r3, [fp, #-8]
  100b84:	e3530001 	cmp	r3, #1
  100b88:	ca000004 	bgt	100ba0 <cache_configuration+0x4c>
  100b8c:	e3010cbc 	movw	r0, #7356	; 0x1cbc
  100b90:	e3400012 	movt	r0, #18
  100b94:	eb006116 	bl	118ff4 <printf>
  100b98:	eb0011ba 	bl	105288 <enable_MMU>
  100b9c:	ea00009a 	b	100e0c <cache_configuration+0x2b8>
  100ba0:	e51b3008 	ldr	r3, [fp, #-8]
  100ba4:	e3530002 	cmp	r3, #2
  100ba8:	ca000005 	bgt	100bc4 <cache_configuration+0x70>
  100bac:	e3010cdc 	movw	r0, #7388	; 0x1cdc
  100bb0:	e3400012 	movt	r0, #18
  100bb4:	eb00610e 	bl	118ff4 <printf>
  100bb8:	eb0011b2 	bl	105288 <enable_MMU>
  100bbc:	eb0011fd 	bl	1053b8 <initialize_L2C>
  100bc0:	ea000091 	b	100e0c <cache_configuration+0x2b8>
  100bc4:	e51b3008 	ldr	r3, [fp, #-8]
  100bc8:	e3530003 	cmp	r3, #3
  100bcc:	ca000006 	bgt	100bec <cache_configuration+0x98>
  100bd0:	e3010d08 	movw	r0, #7432	; 0x1d08
  100bd4:	e3400012 	movt	r0, #18
  100bd8:	eb006105 	bl	118ff4 <printf>
  100bdc:	eb0011a9 	bl	105288 <enable_MMU>
  100be0:	eb0011f4 	bl	1053b8 <initialize_L2C>
  100be4:	eb001257 	bl	105548 <enable_SCU>
  100be8:	ea000087 	b	100e0c <cache_configuration+0x2b8>
  100bec:	e51b3008 	ldr	r3, [fp, #-8]
  100bf0:	e3530004 	cmp	r3, #4
  100bf4:	ca000007 	bgt	100c18 <cache_configuration+0xc4>
  100bf8:	e3010d3c 	movw	r0, #7484	; 0x1d3c
  100bfc:	e3400012 	movt	r0, #18
  100c00:	eb0060fb 	bl	118ff4 <printf>
  100c04:	eb00119f 	bl	105288 <enable_MMU>
  100c08:	eb0011ea 	bl	1053b8 <initialize_L2C>
  100c0c:	eb00124d 	bl	105548 <enable_SCU>
  100c10:	eb00120e 	bl	105450 <enable_L1_I>
  100c14:	ea00007c 	b	100e0c <cache_configuration+0x2b8>
  100c18:	e51b3008 	ldr	r3, [fp, #-8]
  100c1c:	e3530005 	cmp	r3, #5
  100c20:	ca000008 	bgt	100c48 <cache_configuration+0xf4>
  100c24:	e3010d54 	movw	r0, #7508	; 0x1d54
  100c28:	e3400012 	movt	r0, #18
  100c2c:	eb0060f0 	bl	118ff4 <printf>
  100c30:	eb001194 	bl	105288 <enable_MMU>
  100c34:	eb0011df 	bl	1053b8 <initialize_L2C>
  100c38:	eb001242 	bl	105548 <enable_SCU>
  100c3c:	eb001203 	bl	105450 <enable_L1_I>
  100c40:	eb001206 	bl	105460 <enable_branch_prediction>
  100c44:	ea000070 	b	100e0c <cache_configuration+0x2b8>
  100c48:	e51b3008 	ldr	r3, [fp, #-8]
  100c4c:	e3530006 	cmp	r3, #6
  100c50:	ca000009 	bgt	100c7c <cache_configuration+0x128>
  100c54:	e3010d84 	movw	r0, #7556	; 0x1d84
  100c58:	e3400012 	movt	r0, #18
  100c5c:	eb0060e4 	bl	118ff4 <printf>
  100c60:	eb001188 	bl	105288 <enable_MMU>
  100c64:	eb0011d3 	bl	1053b8 <initialize_L2C>
  100c68:	eb001236 	bl	105548 <enable_SCU>
  100c6c:	eb0011f3 	bl	105440 <enable_L1_D>
  100c70:	eb0011f6 	bl	105450 <enable_L1_I>
  100c74:	eb0011f9 	bl	105460 <enable_branch_prediction>
  100c78:	ea000063 	b	100e0c <cache_configuration+0x2b8>
  100c7c:	e51b3008 	ldr	r3, [fp, #-8]
  100c80:	e3530007 	cmp	r3, #7
  100c84:	ca00000a 	bgt	100cb4 <cache_configuration+0x160>
  100c88:	e3010db8 	movw	r0, #7608	; 0x1db8
  100c8c:	e3400012 	movt	r0, #18
  100c90:	eb0060d7 	bl	118ff4 <printf>
  100c94:	eb00117b 	bl	105288 <enable_MMU>
  100c98:	eb0011c6 	bl	1053b8 <initialize_L2C>
  100c9c:	eb001215 	bl	1054f8 <enable_L1_D_side_prefetch>
  100ca0:	eb001228 	bl	105548 <enable_SCU>
  100ca4:	eb0011e5 	bl	105440 <enable_L1_D>
  100ca8:	eb0011e8 	bl	105450 <enable_L1_I>
  100cac:	eb0011eb 	bl	105460 <enable_branch_prediction>
  100cb0:	ea000055 	b	100e0c <cache_configuration+0x2b8>
  100cb4:	e51b3008 	ldr	r3, [fp, #-8]
  100cb8:	e3530008 	cmp	r3, #8
  100cbc:	ca000008 	bgt	100ce4 <cache_configuration+0x190>
  100cc0:	e3010e04 	movw	r0, #7684	; 0x1e04
  100cc4:	e3400012 	movt	r0, #18
  100cc8:	eb0060c9 	bl	118ff4 <printf>
  100ccc:	eb00116d 	bl	105288 <enable_MMU>
  100cd0:	eb0011b8 	bl	1053b8 <initialize_L2C>
  100cd4:	eb001207 	bl	1054f8 <enable_L1_D_side_prefetch>
  100cd8:	eb00121a 	bl	105548 <enable_SCU>
  100cdc:	eb0011ce 	bl	10541c <enable_caches>
  100ce0:	ea000049 	b	100e0c <cache_configuration+0x2b8>
  100ce4:	e51b3008 	ldr	r3, [fp, #-8]
  100ce8:	e3530009 	cmp	r3, #9
  100cec:	ca000009 	bgt	100d18 <cache_configuration+0x1c4>
  100cf0:	e3010e50 	movw	r0, #7760	; 0x1e50
  100cf4:	e3400012 	movt	r0, #18
  100cf8:	eb0060bd 	bl	118ff4 <printf>
  100cfc:	eb001161 	bl	105288 <enable_MMU>
  100d00:	eb0011ac 	bl	1053b8 <initialize_L2C>
  100d04:	eb0011fb 	bl	1054f8 <enable_L1_D_side_prefetch>
  100d08:	eb0011fe 	bl	105508 <enable_L2_prefetch_hint>
  100d0c:	eb00120d 	bl	105548 <enable_SCU>
  100d10:	eb0011c1 	bl	10541c <enable_caches>
  100d14:	ea00003c 	b	100e0c <cache_configuration+0x2b8>
  100d18:	e51b3008 	ldr	r3, [fp, #-8]
  100d1c:	e353000a 	cmp	r3, #10
  100d20:	ca00000a 	bgt	100d50 <cache_configuration+0x1fc>
  100d24:	e3010e84 	movw	r0, #7812	; 0x1e84
  100d28:	e3400012 	movt	r0, #18
  100d2c:	eb0060b0 	bl	118ff4 <printf>
  100d30:	eb001154 	bl	105288 <enable_MMU>
  100d34:	eb00119f 	bl	1053b8 <initialize_L2C>
  100d38:	eb0011ee 	bl	1054f8 <enable_L1_D_side_prefetch>
  100d3c:	eb0011f1 	bl	105508 <enable_L2_prefetch_hint>
  100d40:	eb001200 	bl	105548 <enable_SCU>
  100d44:	eb0011df 	bl	1054c8 <enable_write_full_line_zeros>
  100d48:	eb0011b3 	bl	10541c <enable_caches>
  100d4c:	ea00002e 	b	100e0c <cache_configuration+0x2b8>
  100d50:	e51b3008 	ldr	r3, [fp, #-8]
  100d54:	e353000b 	cmp	r3, #11
  100d58:	ca00000b 	bgt	100d8c <cache_configuration+0x238>
  100d5c:	e3010ec0 	movw	r0, #7872	; 0x1ec0
  100d60:	e3400012 	movt	r0, #18
  100d64:	eb0060a2 	bl	118ff4 <printf>
  100d68:	eb001146 	bl	105288 <enable_MMU>
  100d6c:	eb001191 	bl	1053b8 <initialize_L2C>
  100d70:	eb0011e0 	bl	1054f8 <enable_L1_D_side_prefetch>
  100d74:	eb0011e3 	bl	105508 <enable_L2_prefetch_hint>
  100d78:	eb0011f2 	bl	105548 <enable_SCU>
  100d7c:	eb0011f6 	bl	10555c <enable_L2_speculative_linefill>
  100d80:	eb0011d0 	bl	1054c8 <enable_write_full_line_zeros>
  100d84:	eb0011a4 	bl	10541c <enable_caches>
  100d88:	ea00001f 	b	100e0c <cache_configuration+0x2b8>
  100d8c:	e51b3008 	ldr	r3, [fp, #-8]
  100d90:	e353000c 	cmp	r3, #12
  100d94:	ca00000c 	bgt	100dcc <cache_configuration+0x278>
  100d98:	e3010f0c 	movw	r0, #7948	; 0x1f0c
  100d9c:	e3400012 	movt	r0, #18
  100da0:	eb006093 	bl	118ff4 <printf>
  100da4:	eb001137 	bl	105288 <enable_MMU>
  100da8:	eb001182 	bl	1053b8 <initialize_L2C>
  100dac:	eb0011d1 	bl	1054f8 <enable_L1_D_side_prefetch>
  100db0:	eb0011d4 	bl	105508 <enable_L2_prefetch_hint>
  100db4:	eb0011e3 	bl	105548 <enable_SCU>
  100db8:	eb0011e7 	bl	10555c <enable_L2_speculative_linefill>
  100dbc:	eb0011c1 	bl	1054c8 <enable_write_full_line_zeros>
  100dc0:	eb0011b7 	bl	1054a4 <enable_early_BRESP>
  100dc4:	eb001194 	bl	10541c <enable_caches>
  100dc8:	ea00000f 	b	100e0c <cache_configuration+0x2b8>
  100dcc:	e51b3008 	ldr	r3, [fp, #-8]
  100dd0:	e353000d 	cmp	r3, #13
  100dd4:	ca00000c 	bgt	100e0c <cache_configuration+0x2b8>
  100dd8:	e3010f4c 	movw	r0, #8012	; 0x1f4c
  100ddc:	e3400012 	movt	r0, #18
  100de0:	eb006083 	bl	118ff4 <printf>
  100de4:	eb001127 	bl	105288 <enable_MMU>
  100de8:	eb001172 	bl	1053b8 <initialize_L2C>
  100dec:	eb0011c1 	bl	1054f8 <enable_L1_D_side_prefetch>
  100df0:	eb0011c4 	bl	105508 <enable_L2_prefetch_hint>
  100df4:	eb0011d3 	bl	105548 <enable_SCU>
  100df8:	eb0011d7 	bl	10555c <enable_L2_speculative_linefill>
  100dfc:	eb0011b1 	bl	1054c8 <enable_write_full_line_zeros>
  100e00:	eb0011a7 	bl	1054a4 <enable_early_BRESP>
  100e04:	eb00119d 	bl	105480 <enable_store_buffer_device_limitation>
  100e08:	eb001183 	bl	10541c <enable_caches>
  100e0c:	e320f000 	nop	{0}
  100e10:	e24bd004 	sub	sp, fp, #4
  100e14:	e8bd8800 	pop	{fp, pc}

00100e18 <ad463x_spi_reg_read>:
  100e18:	e92d4800 	push	{fp, lr}
  100e1c:	e28db004 	add	fp, sp, #4
  100e20:	e24dd018 	sub	sp, sp, #24
  100e24:	e50b0010 	str	r0, [fp, #-16]
  100e28:	e1a03001 	mov	r3, r1
  100e2c:	e50b2018 	str	r2, [fp, #-24]	; 0xffffffe8
  100e30:	e14b31b2 	strh	r3, [fp, #-18]	; 0xffffffee
  100e34:	e15b31b2 	ldrh	r3, [fp, #-18]	; 0xffffffee
  100e38:	e1a03423 	lsr	r3, r3, #8
  100e3c:	e6ff3073 	uxth	r3, r3
  100e40:	e6af3073 	sxtb	r3, r3
  100e44:	e1e03c83 	mvn	r3, r3, lsl #25
  100e48:	e1e03ca3 	mvn	r3, r3, lsr #25
  100e4c:	e6af3073 	sxtb	r3, r3
  100e50:	e6ef3073 	uxtb	r3, r3
  100e54:	e54b300c 	strb	r3, [fp, #-12]
  100e58:	e15b31b2 	ldrh	r3, [fp, #-18]	; 0xffffffee
  100e5c:	e6ef3073 	uxtb	r3, r3
  100e60:	e54b300b 	strb	r3, [fp, #-11]
  100e64:	e3a03000 	mov	r3, #0
  100e68:	e54b300a 	strb	r3, [fp, #-10]
  100e6c:	e51b3010 	ldr	r3, [fp, #-16]
  100e70:	e5933000 	ldr	r3, [r3]
  100e74:	e24b100c 	sub	r1, fp, #12
  100e78:	e3a02003 	mov	r2, #3
  100e7c:	e1a00003 	mov	r0, r3
  100e80:	eb0004b4 	bl	102158 <spi_write_and_read>
  100e84:	e50b0008 	str	r0, [fp, #-8]
  100e88:	e55b200a 	ldrb	r2, [fp, #-10]
  100e8c:	e51b3018 	ldr	r3, [fp, #-24]	; 0xffffffe8
  100e90:	e5c32000 	strb	r2, [r3]
  100e94:	e51b3008 	ldr	r3, [fp, #-8]
  100e98:	e1a00003 	mov	r0, r3
  100e9c:	e24bd004 	sub	sp, fp, #4
  100ea0:	e8bd8800 	pop	{fp, pc}

00100ea4 <ad463x_spi_reg_write>:
  100ea4:	e92d4800 	push	{fp, lr}
  100ea8:	e28db004 	add	fp, sp, #4
  100eac:	e24dd010 	sub	sp, sp, #16
  100eb0:	e50b0010 	str	r0, [fp, #-16]
  100eb4:	e1a03001 	mov	r3, r1
  100eb8:	e14b31b2 	strh	r3, [fp, #-18]	; 0xffffffee
  100ebc:	e1a03002 	mov	r3, r2
  100ec0:	e54b3013 	strb	r3, [fp, #-19]	; 0xffffffed
  100ec4:	e15b31b2 	ldrh	r3, [fp, #-18]	; 0xffffffee
  100ec8:	e1a03423 	lsr	r3, r3, #8
  100ecc:	e6ff3073 	uxth	r3, r3
  100ed0:	e6ef3073 	uxtb	r3, r3
  100ed4:	e203307f 	and	r3, r3, #127	; 0x7f
  100ed8:	e6ef3073 	uxtb	r3, r3
  100edc:	e54b3008 	strb	r3, [fp, #-8]
  100ee0:	e15b31b2 	ldrh	r3, [fp, #-18]	; 0xffffffee
  100ee4:	e6ef3073 	uxtb	r3, r3
  100ee8:	e54b3007 	strb	r3, [fp, #-7]
  100eec:	e55b3013 	ldrb	r3, [fp, #-19]	; 0xffffffed
  100ef0:	e54b3006 	strb	r3, [fp, #-6]
  100ef4:	e51b3010 	ldr	r3, [fp, #-16]
  100ef8:	e5933000 	ldr	r3, [r3]
  100efc:	e24b1008 	sub	r1, fp, #8
  100f00:	e3a02003 	mov	r2, #3
  100f04:	e1a00003 	mov	r0, r3
  100f08:	eb000492 	bl	102158 <spi_write_and_read>
  100f0c:	e1a03000 	mov	r3, r0
  100f10:	e1a00003 	mov	r0, r3
  100f14:	e24bd004 	sub	sp, fp, #4
  100f18:	e8bd8800 	pop	{fp, pc}

00100f1c <ad463x_spi_reg_write_masked>:
  100f1c:	e92d4800 	push	{fp, lr}
  100f20:	e28db004 	add	fp, sp, #4
  100f24:	e24dd010 	sub	sp, sp, #16
  100f28:	e50b0010 	str	r0, [fp, #-16]
  100f2c:	e1a00002 	mov	r0, r2
  100f30:	e1a02003 	mov	r2, r3
  100f34:	e14b11b2 	strh	r1, [fp, #-18]	; 0xffffffee
  100f38:	e1a03000 	mov	r3, r0
  100f3c:	e54b3013 	strb	r3, [fp, #-19]	; 0xffffffed
  100f40:	e1a03002 	mov	r3, r2
  100f44:	e54b3014 	strb	r3, [fp, #-20]	; 0xffffffec
  100f48:	e24b2009 	sub	r2, fp, #9
  100f4c:	e15b31b2 	ldrh	r3, [fp, #-18]	; 0xffffffee
  100f50:	e1a01003 	mov	r1, r3
  100f54:	e51b0010 	ldr	r0, [fp, #-16]
  100f58:	ebffffae 	bl	100e18 <ad463x_spi_reg_read>
  100f5c:	e50b0008 	str	r0, [fp, #-8]
  100f60:	e51b3008 	ldr	r3, [fp, #-8]
  100f64:	e3530000 	cmp	r3, #0
  100f68:	0a000001 	beq	100f74 <ad463x_spi_reg_write_masked+0x58>
  100f6c:	e51b3008 	ldr	r3, [fp, #-8]
  100f70:	ea000013 	b	100fc4 <ad463x_spi_reg_write_masked+0xa8>
  100f74:	e15b31d3 	ldrsb	r3, [fp, #-19]	; 0xffffffed
  100f78:	e1e03003 	mvn	r3, r3
  100f7c:	e6af2073 	sxtb	r2, r3
  100f80:	e55b3009 	ldrb	r3, [fp, #-9]
  100f84:	e6af3073 	sxtb	r3, r3
  100f88:	e0033002 	and	r3, r3, r2
  100f8c:	e6af3073 	sxtb	r3, r3
  100f90:	e6ef3073 	uxtb	r3, r3
  100f94:	e54b3009 	strb	r3, [fp, #-9]
  100f98:	e55b2009 	ldrb	r2, [fp, #-9]
  100f9c:	e55b3014 	ldrb	r3, [fp, #-20]	; 0xffffffec
  100fa0:	e1823003 	orr	r3, r2, r3
  100fa4:	e6ef3073 	uxtb	r3, r3
  100fa8:	e54b3009 	strb	r3, [fp, #-9]
  100fac:	e55b2009 	ldrb	r2, [fp, #-9]
  100fb0:	e15b31b2 	ldrh	r3, [fp, #-18]	; 0xffffffee
  100fb4:	e1a01003 	mov	r1, r3
  100fb8:	e51b0010 	ldr	r0, [fp, #-16]
  100fbc:	ebffffb8 	bl	100ea4 <ad463x_spi_reg_write>
  100fc0:	e1a03000 	mov	r3, r0
  100fc4:	e1a00003 	mov	r0, r3
  100fc8:	e24bd004 	sub	sp, fp, #4
  100fcc:	e8bd8800 	pop	{fp, pc}

00100fd0 <ad463x_set_pwr_mode>:
  100fd0:	e92d4800 	push	{fp, lr}
  100fd4:	e28db004 	add	fp, sp, #4
  100fd8:	e24dd008 	sub	sp, sp, #8
  100fdc:	e50b0008 	str	r0, [fp, #-8]
  100fe0:	e1a03001 	mov	r3, r1
  100fe4:	e54b3009 	strb	r3, [fp, #-9]
  100fe8:	e55b3009 	ldrb	r3, [fp, #-9]
  100fec:	e3530000 	cmp	r3, #0
  100ff0:	0a000004 	beq	101008 <ad463x_set_pwr_mode+0x38>
  100ff4:	e55b3009 	ldrb	r3, [fp, #-9]
  100ff8:	e3530003 	cmp	r3, #3
  100ffc:	0a000001 	beq	101008 <ad463x_set_pwr_mode+0x38>
  101000:	e3e03000 	mvn	r3, #0
  101004:	ea000005 	b	101020 <ad463x_set_pwr_mode+0x50>
  101008:	e55b3009 	ldrb	r3, [fp, #-9]
  10100c:	e1a02003 	mov	r2, r3
  101010:	e3a01002 	mov	r1, #2
  101014:	e51b0008 	ldr	r0, [fp, #-8]
  101018:	ebffffa1 	bl	100ea4 <ad463x_spi_reg_write>
  10101c:	e1a03000 	mov	r3, r0
  101020:	e1a00003 	mov	r0, r3
  101024:	e24bd004 	sub	sp, fp, #4
  101028:	e8bd8800 	pop	{fp, pc}

0010102c <ad463x_set_avg_frame_len>:
  10102c:	e92d4800 	push	{fp, lr}
  101030:	e28db004 	add	fp, sp, #4
  101034:	e24dd010 	sub	sp, sp, #16
  101038:	e50b0010 	str	r0, [fp, #-16]
  10103c:	e1a03001 	mov	r3, r1
  101040:	e54b3011 	strb	r3, [fp, #-17]	; 0xffffffef
  101044:	e55b3011 	ldrb	r3, [fp, #-17]	; 0xffffffef
  101048:	e3530000 	cmp	r3, #0
  10104c:	1a000010 	bne	101094 <ad463x_set_avg_frame_len+0x68>
  101050:	e3a03002 	mov	r3, #2
  101054:	e3a02007 	mov	r2, #7
  101058:	e3a01020 	mov	r1, #32
  10105c:	e51b0010 	ldr	r0, [fp, #-16]
  101060:	ebffffad 	bl	100f1c <ad463x_spi_reg_write_masked>
  101064:	e50b0008 	str	r0, [fp, #-8]
  101068:	e51b3008 	ldr	r3, [fp, #-8]
  10106c:	e3530000 	cmp	r3, #0
  101070:	0a000001 	beq	10107c <ad463x_set_avg_frame_len+0x50>
  101074:	e51b3008 	ldr	r3, [fp, #-8]
  101078:	ea00001f 	b	1010fc <ad463x_set_avg_frame_len+0xd0>
  10107c:	e3a02080 	mov	r2, #128	; 0x80
  101080:	e3a01015 	mov	r1, #21
  101084:	e51b0010 	ldr	r0, [fp, #-16]
  101088:	ebffff85 	bl	100ea4 <ad463x_spi_reg_write>
  10108c:	e50b0008 	str	r0, [fp, #-8]
  101090:	ea000018 	b	1010f8 <ad463x_set_avg_frame_len+0xcc>
  101094:	e55b3011 	ldrb	r3, [fp, #-17]	; 0xffffffef
  101098:	e3530000 	cmp	r3, #0
  10109c:	0a000002 	beq	1010ac <ad463x_set_avg_frame_len+0x80>
  1010a0:	e55b3011 	ldrb	r3, [fp, #-17]	; 0xffffffef
  1010a4:	e3530010 	cmp	r3, #16
  1010a8:	9a000001 	bls	1010b4 <ad463x_set_avg_frame_len+0x88>
  1010ac:	e3e03015 	mvn	r3, #21
  1010b0:	ea000011 	b	1010fc <ad463x_set_avg_frame_len+0xd0>
  1010b4:	e3a03003 	mov	r3, #3
  1010b8:	e3a02007 	mov	r2, #7
  1010bc:	e3a01020 	mov	r1, #32
  1010c0:	e51b0010 	ldr	r0, [fp, #-16]
  1010c4:	ebffff94 	bl	100f1c <ad463x_spi_reg_write_masked>
  1010c8:	e50b0008 	str	r0, [fp, #-8]
  1010cc:	e51b3008 	ldr	r3, [fp, #-8]
  1010d0:	e3530000 	cmp	r3, #0
  1010d4:	0a000001 	beq	1010e0 <ad463x_set_avg_frame_len+0xb4>
  1010d8:	e51b3008 	ldr	r3, [fp, #-8]
  1010dc:	ea000006 	b	1010fc <ad463x_set_avg_frame_len+0xd0>
  1010e0:	e55b3011 	ldrb	r3, [fp, #-17]	; 0xffffffef
  1010e4:	e1a02003 	mov	r2, r3
  1010e8:	e3a01015 	mov	r1, #21
  1010ec:	e51b0010 	ldr	r0, [fp, #-16]
  1010f0:	ebffff6b 	bl	100ea4 <ad463x_spi_reg_write>
  1010f4:	e50b0008 	str	r0, [fp, #-8]
  1010f8:	e51b3008 	ldr	r3, [fp, #-8]
  1010fc:	e1a00003 	mov	r0, r3
  101100:	e24bd004 	sub	sp, fp, #4
  101104:	e8bd8800 	pop	{fp, pc}

00101108 <ad463x_set_drive_strength>:
  101108:	e92d4800 	push	{fp, lr}
  10110c:	e28db004 	add	fp, sp, #4
  101110:	e24dd008 	sub	sp, sp, #8
  101114:	e50b0008 	str	r0, [fp, #-8]
  101118:	e1a03001 	mov	r3, r1
  10111c:	e54b3009 	strb	r3, [fp, #-9]
  101120:	e55b3009 	ldrb	r3, [fp, #-9]
  101124:	e3530000 	cmp	r3, #0
  101128:	0a000004 	beq	101140 <ad463x_set_drive_strength+0x38>
  10112c:	e55b3009 	ldrb	r3, [fp, #-9]
  101130:	e3530002 	cmp	r3, #2
  101134:	0a000001 	beq	101140 <ad463x_set_drive_strength+0x38>
  101138:	e3e03015 	mvn	r3, #21
  10113c:	ea000005 	b	101158 <ad463x_set_drive_strength+0x50>
  101140:	e55b3009 	ldrb	r3, [fp, #-9]
  101144:	e3a02001 	mov	r2, #1
  101148:	e3a01022 	mov	r1, #34	; 0x22
  10114c:	e51b0008 	ldr	r0, [fp, #-8]
  101150:	ebffff71 	bl	100f1c <ad463x_spi_reg_write_masked>
  101154:	e1a03000 	mov	r3, r0
  101158:	e1a00003 	mov	r0, r3
  10115c:	e24bd004 	sub	sp, fp, #4
  101160:	e8bd8800 	pop	{fp, pc}

00101164 <ad463x_exit_reg_cfg_mode>:
  101164:	e92d4800 	push	{fp, lr}
  101168:	e28db004 	add	fp, sp, #4
  10116c:	e24dd010 	sub	sp, sp, #16
  101170:	e50b0010 	str	r0, [fp, #-16]
  101174:	e3a02001 	mov	r2, #1
  101178:	e3a01014 	mov	r1, #20
  10117c:	e51b0010 	ldr	r0, [fp, #-16]
  101180:	ebffff47 	bl	100ea4 <ad463x_spi_reg_write>
  101184:	e50b0008 	str	r0, [fp, #-8]
  101188:	e51b3008 	ldr	r3, [fp, #-8]
  10118c:	e3530000 	cmp	r3, #0
  101190:	0a000001 	beq	10119c <ad463x_exit_reg_cfg_mode+0x38>
  101194:	e51b3008 	ldr	r3, [fp, #-8]
  101198:	ea00000d 	b	1011d4 <ad463x_exit_reg_cfg_mode+0x70>
  10119c:	e51b3010 	ldr	r3, [fp, #-16]
  1011a0:	e5932000 	ldr	r2, [r3]
  1011a4:	e51b3010 	ldr	r3, [fp, #-16]
  1011a8:	e5d3300e 	ldrb	r3, [r3, #14]
  1011ac:	e1a01003 	mov	r1, r3
  1011b0:	e1a00002 	mov	r0, r2
  1011b4:	eb0005c4 	bl	1028cc <spi_engine_set_transfer_width>
  1011b8:	e50b0008 	str	r0, [fp, #-8]
  1011bc:	e51b3008 	ldr	r3, [fp, #-8]
  1011c0:	e3530000 	cmp	r3, #0
  1011c4:	0a000001 	beq	1011d0 <ad463x_exit_reg_cfg_mode+0x6c>
  1011c8:	e51b3008 	ldr	r3, [fp, #-8]
  1011cc:	ea000000 	b	1011d4 <ad463x_exit_reg_cfg_mode+0x70>
  1011d0:	e51b3008 	ldr	r3, [fp, #-8]
  1011d4:	e1a00003 	mov	r0, r3
  1011d8:	e24bd004 	sub	sp, fp, #4
  1011dc:	e8bd8800 	pop	{fp, pc}

001011e0 <ad463x_set_ch_gain>:
  1011e0:	e92d4800 	push	{fp, lr}
  1011e4:	e28db004 	add	fp, sp, #4
  1011e8:	e24dd018 	sub	sp, sp, #24
  1011ec:	e50b0010 	str	r0, [fp, #-16]
  1011f0:	e14b21fc 	strd	r2, [fp, #-28]	; 0xffffffe4
  1011f4:	e1a03001 	mov	r3, r1
  1011f8:	e54b3011 	strb	r3, [fp, #-17]	; 0xffffffef
  1011fc:	e14b21dc 	ldrd	r2, [fp, #-28]	; 0xffffffe4
  101200:	e3040e1d 	movw	r0, #19997	; 0x4e1d
  101204:	e3a01000 	mov	r1, #0
  101208:	e1530001 	cmp	r3, r1
  10120c:	01520000 	cmpeq	r2, r0
  101210:	9a000001 	bls	10121c <ad463x_set_ch_gain+0x3c>
  101214:	e3e03015 	mvn	r3, #21
  101218:	ea00002a 	b	1012c8 <ad463x_set_ch_gain+0xe8>
  10121c:	e14b21dc 	ldrd	r2, [fp, #-28]	; 0xffffffe4
  101220:	ec432b30 	vmov	d16, r2, r3
  101224:	f2d005b0 	vshl.s64	d16, d16, #16
  101228:	ec510b30 	vmov	r0, r1, d16
  10122c:	e0500002 	subs	r0, r0, r2
  101230:	e0c11003 	sbc	r1, r1, r3
  101234:	e3042e1d 	movw	r2, #19997	; 0x4e1d
  101238:	e3a03000 	mov	r3, #0
  10123c:	eb005ca6 	bl	1184dc <__aeabi_uldivmod>
  101240:	e1a02000 	mov	r2, r0
  101244:	e1a03001 	mov	r3, r1
  101248:	e1a03002 	mov	r3, r2
  10124c:	e50b3008 	str	r3, [fp, #-8]
  101250:	e55b3011 	ldrb	r3, [fp, #-17]	; 0xffffffef
  101254:	e283300e 	add	r3, r3, #14
  101258:	e6ff3073 	uxth	r3, r3
  10125c:	e1a03083 	lsl	r3, r3, #1
  101260:	e6ff3073 	uxth	r3, r3
  101264:	e51b2008 	ldr	r2, [fp, #-8]
  101268:	e6ef2072 	uxtb	r2, r2
  10126c:	e1a01003 	mov	r1, r3
  101270:	e51b0010 	ldr	r0, [fp, #-16]
  101274:	ebffff0a 	bl	100ea4 <ad463x_spi_reg_write>
  101278:	e50b000c 	str	r0, [fp, #-12]
  10127c:	e51b300c 	ldr	r3, [fp, #-12]
  101280:	e3530000 	cmp	r3, #0
  101284:	0a000001 	beq	101290 <ad463x_set_ch_gain+0xb0>
  101288:	e51b300c 	ldr	r3, [fp, #-12]
  10128c:	ea00000d 	b	1012c8 <ad463x_set_ch_gain+0xe8>
  101290:	e55b3011 	ldrb	r3, [fp, #-17]	; 0xffffffef
  101294:	e283300e 	add	r3, r3, #14
  101298:	e6ff3073 	uxth	r3, r3
  10129c:	e1a03083 	lsl	r3, r3, #1
  1012a0:	e6ff3073 	uxth	r3, r3
  1012a4:	e2833001 	add	r3, r3, #1
  1012a8:	e6ff1073 	uxth	r1, r3
  1012ac:	e51b3008 	ldr	r3, [fp, #-8]
  1012b0:	e1a03423 	lsr	r3, r3, #8
  1012b4:	e6ef3073 	uxtb	r3, r3
  1012b8:	e1a02003 	mov	r2, r3
  1012bc:	e51b0010 	ldr	r0, [fp, #-16]
  1012c0:	ebfffef7 	bl	100ea4 <ad463x_spi_reg_write>
  1012c4:	e1a03000 	mov	r3, r0
  1012c8:	e1a00003 	mov	r0, r3
  1012cc:	e24bd004 	sub	sp, fp, #4
  1012d0:	e8bd8800 	pop	{fp, pc}

001012d4 <ad463x_set_ch_offset>:
  1012d4:	e92d4800 	push	{fp, lr}
  1012d8:	e28db004 	add	fp, sp, #4
  1012dc:	e24dd018 	sub	sp, sp, #24
  1012e0:	e50b0010 	str	r0, [fp, #-16]
  1012e4:	e1a03001 	mov	r3, r1
  1012e8:	e50b2018 	str	r2, [fp, #-24]	; 0xffffffe8
  1012ec:	e54b3011 	strb	r3, [fp, #-17]	; 0xffffffef
  1012f0:	e55b3011 	ldrb	r3, [fp, #-17]	; 0xffffffef
  1012f4:	e6ff3073 	uxth	r3, r3
  1012f8:	e1a02003 	mov	r2, r3
  1012fc:	e1a02082 	lsl	r2, r2, #1
  101300:	e0823003 	add	r3, r2, r3
  101304:	e6ff3073 	uxth	r3, r3
  101308:	e2833016 	add	r3, r3, #22
  10130c:	e6ff3073 	uxth	r3, r3
  101310:	e51b2018 	ldr	r2, [fp, #-24]	; 0xffffffe8
  101314:	e6ef2072 	uxtb	r2, r2
  101318:	e1a01003 	mov	r1, r3
  10131c:	e51b0010 	ldr	r0, [fp, #-16]
  101320:	ebfffedf 	bl	100ea4 <ad463x_spi_reg_write>
  101324:	e50b0008 	str	r0, [fp, #-8]
  101328:	e51b3008 	ldr	r3, [fp, #-8]
  10132c:	e3530000 	cmp	r3, #0
  101330:	aa000001 	bge	10133c <ad463x_set_ch_offset+0x68>
  101334:	e51b3008 	ldr	r3, [fp, #-8]
  101338:	ea000022 	b	1013c8 <ad463x_set_ch_offset+0xf4>
  10133c:	e55b3011 	ldrb	r3, [fp, #-17]	; 0xffffffef
  101340:	e6ff3073 	uxth	r3, r3
  101344:	e1a02003 	mov	r2, r3
  101348:	e1a02082 	lsl	r2, r2, #1
  10134c:	e0823003 	add	r3, r2, r3
  101350:	e6ff3073 	uxth	r3, r3
  101354:	e2833017 	add	r3, r3, #23
  101358:	e6ff1073 	uxth	r1, r3
  10135c:	e51b3018 	ldr	r3, [fp, #-24]	; 0xffffffe8
  101360:	e1a03423 	lsr	r3, r3, #8
  101364:	e6ef3073 	uxtb	r3, r3
  101368:	e1a02003 	mov	r2, r3
  10136c:	e51b0010 	ldr	r0, [fp, #-16]
  101370:	ebfffecb 	bl	100ea4 <ad463x_spi_reg_write>
  101374:	e50b0008 	str	r0, [fp, #-8]
  101378:	e51b3008 	ldr	r3, [fp, #-8]
  10137c:	e3530000 	cmp	r3, #0
  101380:	aa000001 	bge	10138c <ad463x_set_ch_offset+0xb8>
  101384:	e51b3008 	ldr	r3, [fp, #-8]
  101388:	ea00000e 	b	1013c8 <ad463x_set_ch_offset+0xf4>
  10138c:	e55b3011 	ldrb	r3, [fp, #-17]	; 0xffffffef
  101390:	e6ff3073 	uxth	r3, r3
  101394:	e1a02003 	mov	r2, r3
  101398:	e1a02082 	lsl	r2, r2, #1
  10139c:	e0823003 	add	r3, r2, r3
  1013a0:	e6ff3073 	uxth	r3, r3
  1013a4:	e2833018 	add	r3, r3, #24
  1013a8:	e6ff1073 	uxth	r1, r3
  1013ac:	e51b3018 	ldr	r3, [fp, #-24]	; 0xffffffe8
  1013b0:	e1a03823 	lsr	r3, r3, #16
  1013b4:	e6ef3073 	uxtb	r3, r3
  1013b8:	e1a02003 	mov	r2, r3
  1013bc:	e51b0010 	ldr	r0, [fp, #-16]
  1013c0:	ebfffeb7 	bl	100ea4 <ad463x_spi_reg_write>
  1013c4:	e1a03000 	mov	r3, r0
  1013c8:	e1a00003 	mov	r0, r3
  1013cc:	e24bd004 	sub	sp, fp, #4
  1013d0:	e8bd8800 	pop	{fp, pc}

001013d4 <ad469x_reset>:
  1013d4:	e92d4800 	push	{fp, lr}
  1013d8:	e28db004 	add	fp, sp, #4
  1013dc:	e24dd010 	sub	sp, sp, #16
  1013e0:	e3a03060 	mov	r3, #96	; 0x60
  1013e4:	e34f3f22 	movt	r3, #65314	; 0xff22
  1013e8:	e50b3008 	str	r3, [fp, #-8]
  1013ec:	e3a03000 	mov	r3, #0
  1013f0:	e50b3014 	str	r3, [fp, #-20]	; 0xffffffec
  1013f4:	e3a03004 	mov	r3, #4
  1013f8:	e50b300c 	str	r3, [fp, #-12]
  1013fc:	e3a03000 	mov	r3, #0
  101400:	e50b3010 	str	r3, [fp, #-16]
  101404:	e24b3014 	sub	r3, fp, #20
  101408:	e1a02003 	mov	r2, r3
  10140c:	e51b100c 	ldr	r1, [fp, #-12]
  101410:	e51b0008 	ldr	r0, [fp, #-8]
  101414:	eb000f01 	bl	105020 <axi_io_read>
  101418:	e51b3014 	ldr	r3, [fp, #-20]	; 0xffffffec
  10141c:	e3833001 	orr	r3, r3, #1
  101420:	e50b3014 	str	r3, [fp, #-20]	; 0xffffffec
  101424:	e51b3014 	ldr	r3, [fp, #-20]	; 0xffffffec
  101428:	e1a02003 	mov	r2, r3
  10142c:	e51b100c 	ldr	r1, [fp, #-12]
  101430:	e51b0008 	ldr	r0, [fp, #-8]
  101434:	eb000f0a 	bl	105064 <axi_io_write>
  101438:	e3a03000 	mov	r3, #0
  10143c:	e50b3014 	str	r3, [fp, #-20]	; 0xffffffec
  101440:	e24b3014 	sub	r3, fp, #20
  101444:	e1a02003 	mov	r2, r3
  101448:	e51b1010 	ldr	r1, [fp, #-16]
  10144c:	e51b0008 	ldr	r0, [fp, #-8]
  101450:	eb000ef2 	bl	105020 <axi_io_read>
  101454:	e51b3014 	ldr	r3, [fp, #-20]	; 0xffffffec
  101458:	e3c33001 	bic	r3, r3, #1
  10145c:	e50b3014 	str	r3, [fp, #-20]	; 0xffffffec
  101460:	e51b3014 	ldr	r3, [fp, #-20]	; 0xffffffec
  101464:	e1a02003 	mov	r2, r3
  101468:	e51b1010 	ldr	r1, [fp, #-16]
  10146c:	e51b0008 	ldr	r0, [fp, #-8]
  101470:	eb000efb 	bl	105064 <axi_io_write>
  101474:	e3a0000a 	mov	r0, #10
  101478:	eb000348 	bl	1021a0 <udelay>
  10147c:	e3a03000 	mov	r3, #0
  101480:	e50b3014 	str	r3, [fp, #-20]	; 0xffffffec
  101484:	e24b3014 	sub	r3, fp, #20
  101488:	e1a02003 	mov	r2, r3
  10148c:	e51b1010 	ldr	r1, [fp, #-16]
  101490:	e51b0008 	ldr	r0, [fp, #-8]
  101494:	eb000ee1 	bl	105020 <axi_io_read>
  101498:	e51b3014 	ldr	r3, [fp, #-20]	; 0xffffffec
  10149c:	e3833001 	orr	r3, r3, #1
  1014a0:	e50b3014 	str	r3, [fp, #-20]	; 0xffffffec
  1014a4:	e51b3014 	ldr	r3, [fp, #-20]	; 0xffffffec
  1014a8:	e1a02003 	mov	r2, r3
  1014ac:	e51b1010 	ldr	r1, [fp, #-16]
  1014b0:	e51b0008 	ldr	r0, [fp, #-8]
  1014b4:	eb000eea 	bl	105064 <axi_io_write>
  1014b8:	e3a03000 	mov	r3, #0
  1014bc:	e1a00003 	mov	r0, r3
  1014c0:	e24bd004 	sub	sp, fp, #4
  1014c4:	e8bd8800 	pop	{fp, pc}

001014c8 <get_mode_info>:
  1014c8:	e92d4800 	push	{fp, lr}
  1014cc:	e28db004 	add	fp, sp, #4
  1014d0:	e24dd010 	sub	sp, sp, #16
  1014d4:	e50b0010 	str	r0, [fp, #-16]
  1014d8:	e50b1014 	str	r1, [fp, #-20]	; 0xffffffec
  1014dc:	e24b3009 	sub	r3, fp, #9
  1014e0:	e1a02003 	mov	r2, r3
  1014e4:	e3a01020 	mov	r1, #32
  1014e8:	e51b0010 	ldr	r0, [fp, #-16]
  1014ec:	ebfffe49 	bl	100e18 <ad463x_spi_reg_read>
  1014f0:	e50b0008 	str	r0, [fp, #-8]
  1014f4:	e51b3008 	ldr	r3, [fp, #-8]
  1014f8:	e3530000 	cmp	r3, #0
  1014fc:	0a000001 	beq	101508 <get_mode_info+0x40>
  101500:	e51b3008 	ldr	r3, [fp, #-8]
  101504:	ea000014 	b	10155c <get_mode_info+0x94>
  101508:	e55b3009 	ldrb	r3, [fp, #-9]
  10150c:	e3c3303f 	bic	r3, r3, #63	; 0x3f
  101510:	e6ef2073 	uxtb	r2, r3
  101514:	e51b3014 	ldr	r3, [fp, #-20]	; 0xffffffec
  101518:	e5c32000 	strb	r2, [r3]
  10151c:	e55b3009 	ldrb	r3, [fp, #-9]
  101520:	e2033030 	and	r3, r3, #48	; 0x30
  101524:	e6ef2073 	uxtb	r2, r3
  101528:	e51b3014 	ldr	r3, [fp, #-20]	; 0xffffffec
  10152c:	e5c32001 	strb	r2, [r3, #1]
  101530:	e55b3009 	ldrb	r3, [fp, #-9]
  101534:	e2033008 	and	r3, r3, #8
  101538:	e6ef2073 	uxtb	r2, r3
  10153c:	e51b3014 	ldr	r3, [fp, #-20]	; 0xffffffec
  101540:	e5c32002 	strb	r2, [r3, #2]
  101544:	e55b3009 	ldrb	r3, [fp, #-9]
  101548:	e2033007 	and	r3, r3, #7
  10154c:	e6ef2073 	uxtb	r2, r3
  101550:	e51b3014 	ldr	r3, [fp, #-20]	; 0xffffffec
  101554:	e5c32003 	strb	r2, [r3, #3]
  101558:	e3a03000 	mov	r3, #0
  10155c:	e1a00003 	mov	r0, r3
  101560:	e24bd004 	sub	sp, fp, #4
  101564:	e8bd8800 	pop	{fp, pc}

00101568 <ad463x_device_config>:
  101568:	e92d4800 	push	{fp, lr}
  10156c:	e28db004 	add	fp, sp, #4
  101570:	e24dd010 	sub	sp, sp, #16
  101574:	e50b0010 	str	r0, [fp, #-16]
  101578:	e51b3010 	ldr	r3, [fp, #-16]
  10157c:	e5d3300c 	ldrb	r3, [r3, #12]
  101580:	e3530000 	cmp	r3, #0
  101584:	1a000065 	bne	101720 <ad463x_device_config+0x1b8>
  101588:	e3a02010 	mov	r2, #16
  10158c:	e3a01000 	mov	r1, #0
  101590:	e51b0010 	ldr	r0, [fp, #-16]
  101594:	ebfffe42 	bl	100ea4 <ad463x_spi_reg_write>
  101598:	e50b0008 	str	r0, [fp, #-8]
  10159c:	e51b3008 	ldr	r3, [fp, #-8]
  1015a0:	e3530000 	cmp	r3, #0
  1015a4:	0a000001 	beq	1015b0 <ad463x_device_config+0x48>
  1015a8:	e51b3008 	ldr	r3, [fp, #-8]
  1015ac:	ea000061 	b	101738 <ad463x_device_config+0x1d0>
  1015b0:	e3a02080 	mov	r2, #128	; 0x80
  1015b4:	e3a01001 	mov	r1, #1
  1015b8:	e51b0010 	ldr	r0, [fp, #-16]
  1015bc:	ebfffe38 	bl	100ea4 <ad463x_spi_reg_write>
  1015c0:	e50b0008 	str	r0, [fp, #-8]
  1015c4:	e51b3008 	ldr	r3, [fp, #-8]
  1015c8:	e3530000 	cmp	r3, #0
  1015cc:	0a000001 	beq	1015d8 <ad463x_device_config+0x70>
  1015d0:	e51b3008 	ldr	r3, [fp, #-8]
  1015d4:	ea000057 	b	101738 <ad463x_device_config+0x1d0>
  1015d8:	e3a02000 	mov	r2, #0
  1015dc:	e3a01002 	mov	r1, #2
  1015e0:	e51b0010 	ldr	r0, [fp, #-16]
  1015e4:	ebfffe2e 	bl	100ea4 <ad463x_spi_reg_write>
  1015e8:	e50b0008 	str	r0, [fp, #-8]
  1015ec:	e51b3008 	ldr	r3, [fp, #-8]
  1015f0:	e3530000 	cmp	r3, #0
  1015f4:	0a000001 	beq	101600 <ad463x_device_config+0x98>
  1015f8:	e51b3008 	ldr	r3, [fp, #-8]
  1015fc:	ea00004d 	b	101738 <ad463x_device_config+0x1d0>
  101600:	e3a02000 	mov	r2, #0
  101604:	e3a01015 	mov	r1, #21
  101608:	e51b0010 	ldr	r0, [fp, #-16]
  10160c:	ebfffe24 	bl	100ea4 <ad463x_spi_reg_write>
  101610:	e50b0008 	str	r0, [fp, #-8]
  101614:	e51b3008 	ldr	r3, [fp, #-8]
  101618:	e3530000 	cmp	r3, #0
  10161c:	0a000001 	beq	101628 <ad463x_device_config+0xc0>
  101620:	e51b3008 	ldr	r3, [fp, #-8]
  101624:	ea000043 	b	101738 <ad463x_device_config+0x1d0>
  101628:	e3a02000 	mov	r2, #0
  10162c:	e3a01021 	mov	r1, #33	; 0x21
  101630:	e51b0010 	ldr	r0, [fp, #-16]
  101634:	ebfffe1a 	bl	100ea4 <ad463x_spi_reg_write>
  101638:	e50b0008 	str	r0, [fp, #-8]
  10163c:	e51b3008 	ldr	r3, [fp, #-8]
  101640:	e3530000 	cmp	r3, #0
  101644:	0a000001 	beq	101650 <ad463x_device_config+0xe8>
  101648:	e51b3008 	ldr	r3, [fp, #-8]
  10164c:	ea000039 	b	101738 <ad463x_device_config+0x1d0>
  101650:	e3a02000 	mov	r2, #0
  101654:	e3a01023 	mov	r1, #35	; 0x23
  101658:	e51b0010 	ldr	r0, [fp, #-16]
  10165c:	ebfffe10 	bl	100ea4 <ad463x_spi_reg_write>
  101660:	e50b0008 	str	r0, [fp, #-8]
  101664:	e51b3008 	ldr	r3, [fp, #-8]
  101668:	e3530000 	cmp	r3, #0
  10166c:	0a000001 	beq	101678 <ad463x_device_config+0x110>
  101670:	e51b3008 	ldr	r3, [fp, #-8]
  101674:	ea00002f 	b	101738 <ad463x_device_config+0x1d0>
  101678:	e3a02030 	mov	r2, #48	; 0x30
  10167c:	e3a01024 	mov	r1, #36	; 0x24
  101680:	e51b0010 	ldr	r0, [fp, #-16]
  101684:	ebfffe06 	bl	100ea4 <ad463x_spi_reg_write>
  101688:	e50b0008 	str	r0, [fp, #-8]
  10168c:	e51b3008 	ldr	r3, [fp, #-8]
  101690:	e3530000 	cmp	r3, #0
  101694:	0a000001 	beq	1016a0 <ad463x_device_config+0x138>
  101698:	e51b3008 	ldr	r3, [fp, #-8]
  10169c:	ea000025 	b	101738 <ad463x_device_config+0x1d0>
  1016a0:	e3a02046 	mov	r2, #70	; 0x46
  1016a4:	e3a01025 	mov	r1, #37	; 0x25
  1016a8:	e51b0010 	ldr	r0, [fp, #-16]
  1016ac:	ebfffdfc 	bl	100ea4 <ad463x_spi_reg_write>
  1016b0:	e50b0008 	str	r0, [fp, #-8]
  1016b4:	e51b3008 	ldr	r3, [fp, #-8]
  1016b8:	e3530000 	cmp	r3, #0
  1016bc:	0a000001 	beq	1016c8 <ad463x_device_config+0x160>
  1016c0:	e51b3008 	ldr	r3, [fp, #-8]
  1016c4:	ea00001b 	b	101738 <ad463x_device_config+0x1d0>
  1016c8:	e3a020ad 	mov	r2, #173	; 0xad
  1016cc:	e3a01026 	mov	r1, #38	; 0x26
  1016d0:	e51b0010 	ldr	r0, [fp, #-16]
  1016d4:	ebfffdf2 	bl	100ea4 <ad463x_spi_reg_write>
  1016d8:	e50b0008 	str	r0, [fp, #-8]
  1016dc:	e51b3008 	ldr	r3, [fp, #-8]
  1016e0:	e3530000 	cmp	r3, #0
  1016e4:	0a000001 	beq	1016f0 <ad463x_device_config+0x188>
  1016e8:	e51b3008 	ldr	r3, [fp, #-8]
  1016ec:	ea000011 	b	101738 <ad463x_device_config+0x1d0>
  1016f0:	e51b3010 	ldr	r3, [fp, #-16]
  1016f4:	e5933008 	ldr	r3, [r3, #8]
  1016f8:	e3a02042 	mov	r2, #66	; 0x42
  1016fc:	e3001414 	movw	r1, #1044	; 0x414
  101700:	e1a00003 	mov	r0, r3
  101704:	eb000e56 	bl	105064 <axi_io_write>
  101708:	e50b0008 	str	r0, [fp, #-8]
  10170c:	e51b3008 	ldr	r3, [fp, #-8]
  101710:	e3530000 	cmp	r3, #0
  101714:	0a000005 	beq	101730 <ad463x_device_config+0x1c8>
  101718:	e51b3008 	ldr	r3, [fp, #-8]
  10171c:	ea000005 	b	101738 <ad463x_device_config+0x1d0>
  101720:	e3010fa8 	movw	r0, #8104	; 0x1fa8
  101724:	e3400012 	movt	r0, #18
  101728:	eb005e7f 	bl	11912c <puts>
  10172c:	ea000000 	b	101734 <ad463x_device_config+0x1cc>
  101730:	e320f000 	nop	{0}
  101734:	e3a03000 	mov	r3, #0
  101738:	e1a00003 	mov	r0, r3
  10173c:	e24bd004 	sub	sp, fp, #4
  101740:	e8bd8800 	pop	{fp, pc}

00101744 <ad463x_read_data>:
  101744:	e92d4800 	push	{fp, lr}
  101748:	e28db004 	add	fp, sp, #4
  10174c:	e24dd070 	sub	sp, sp, #112	; 0x70
  101750:	e50b0058 	str	r0, [fp, #-88]	; 0xffffffa8
  101754:	e50b105c 	str	r1, [fp, #-92]	; 0xffffffa4
  101758:	e1a03002 	mov	r3, r2
  10175c:	e14b35be 	strh	r3, [fp, #-94]	; 0xffffffa2
  101760:	e3a03000 	mov	r3, #0
  101764:	e50b300c 	str	r3, [fp, #-12]
  101768:	e51b3058 	ldr	r3, [fp, #-88]	; 0xffffffa8
  10176c:	e5d3300f 	ldrb	r3, [r3, #15]
  101770:	e3530080 	cmp	r3, #128	; 0x80
  101774:	1a000009 	bne	1017a0 <ad463x_read_data+0x5c>
  101778:	e3023018 	movw	r3, #8216	; 0x2018
  10177c:	e3403012 	movt	r3, #18
  101780:	e24bc02c 	sub	ip, fp, #44	; 0x2c
  101784:	e8930007 	ldm	r3, {r0, r1, r2}
  101788:	e88c0007 	stm	ip, {r0, r1, r2}
  10178c:	e24b302c 	sub	r3, fp, #44	; 0x2c
  101790:	e50b3020 	str	r3, [fp, #-32]	; 0xffffffe0
  101794:	e3a03003 	mov	r3, #3
  101798:	e50b301c 	str	r3, [fp, #-28]	; 0xffffffe4
  10179c:	ea000019 	b	101808 <ad463x_read_data+0xc4>
  1017a0:	e51b3058 	ldr	r3, [fp, #-88]	; 0xffffffa8
  1017a4:	e5d3300f 	ldrb	r3, [r3, #15]
  1017a8:	e3530040 	cmp	r3, #64	; 0x40
  1017ac:	1a000009 	bne	1017d8 <ad463x_read_data+0x94>
  1017b0:	e3023024 	movw	r3, #8228	; 0x2024
  1017b4:	e3403012 	movt	r3, #18
  1017b8:	e24bc03c 	sub	ip, fp, #60	; 0x3c
  1017bc:	e893000f 	ldm	r3, {r0, r1, r2, r3}
  1017c0:	e88c000f 	stm	ip, {r0, r1, r2, r3}
  1017c4:	e24b303c 	sub	r3, fp, #60	; 0x3c
  1017c8:	e50b3020 	str	r3, [fp, #-32]	; 0xffffffe0
  1017cc:	e3a03004 	mov	r3, #4
  1017d0:	e50b301c 	str	r3, [fp, #-28]	; 0xffffffe4
  1017d4:	ea00000b 	b	101808 <ad463x_read_data+0xc4>
  1017d8:	e3023034 	movw	r3, #8244	; 0x2034
  1017dc:	e3403012 	movt	r3, #18
  1017e0:	e24bc054 	sub	ip, fp, #84	; 0x54
  1017e4:	e1a0e003 	mov	lr, r3
  1017e8:	e8be000f 	ldm	lr!, {r0, r1, r2, r3}
  1017ec:	e8ac000f 	stmia	ip!, {r0, r1, r2, r3}
  1017f0:	e89e0003 	ldm	lr, {r0, r1}
  1017f4:	e88c0003 	stm	ip, {r0, r1}
  1017f8:	e24b3054 	sub	r3, fp, #84	; 0x54
  1017fc:	e50b3020 	str	r3, [fp, #-32]	; 0xffffffe0
  101800:	e3a03006 	mov	r3, #6
  101804:	e50b301c 	str	r3, [fp, #-28]	; 0xffffffe4
  101808:	e51b3058 	ldr	r3, [fp, #-88]	; 0xffffffa8
  10180c:	e5933008 	ldr	r3, [r3, #8]
  101810:	e3a02003 	mov	r2, #3
  101814:	e300140c 	movw	r1, #1036	; 0x40c
  101818:	e1a00003 	mov	r0, r3
  10181c:	eb000e10 	bl	105064 <axi_io_write>
  101820:	e51b3058 	ldr	r3, [fp, #-88]	; 0xffffffa8
  101824:	e5932000 	ldr	r2, [r3]
  101828:	e51b3058 	ldr	r3, [fp, #-88]	; 0xffffffa8
  10182c:	e5933004 	ldr	r3, [r3, #4]
  101830:	e1a01003 	mov	r1, r3
  101834:	e1a00002 	mov	r0, r2
  101838:	eb0007fb 	bl	10382c <spi_engine_offload_init>
  10183c:	e50b0008 	str	r0, [fp, #-8]
  101840:	e51b3008 	ldr	r3, [fp, #-8]
  101844:	e3530000 	cmp	r3, #0
  101848:	0a000001 	beq	101854 <ad463x_read_data+0x110>
  10184c:	e51b3008 	ldr	r3, [fp, #-8]
  101850:	ea000022 	b	1018e0 <ad463x_read_data+0x19c>
  101854:	e51b305c 	ldr	r3, [fp, #-92]	; 0xffffffa4
  101858:	e50b3010 	str	r3, [fp, #-16]
  10185c:	e24b300c 	sub	r3, fp, #12
  101860:	e50b3018 	str	r3, [fp, #-24]	; 0xffffffe8
  101864:	e51b3058 	ldr	r3, [fp, #-88]	; 0xffffffa8
  101868:	e593c000 	ldr	ip, [r3]
  10186c:	e15b35be 	ldrh	r3, [fp, #-94]	; 0xffffffa2
  101870:	e58d3008 	str	r3, [sp, #8]
  101874:	e1a0200d 	mov	r2, sp
  101878:	e24b3014 	sub	r3, fp, #20
  10187c:	e8930003 	ldm	r3, {r0, r1}
  101880:	e8820003 	stm	r2, {r0, r1}
  101884:	e24b3020 	sub	r3, fp, #32
  101888:	e893000e 	ldm	r3, {r1, r2, r3}
  10188c:	e1a0000c 	mov	r0, ip
  101890:	eb00082b 	bl	103944 <spi_engine_offload_transfer>
  101894:	e50b0008 	str	r0, [fp, #-8]
  101898:	e51b3008 	ldr	r3, [fp, #-8]
  10189c:	e3530000 	cmp	r3, #0
  1018a0:	0a000001 	beq	1018ac <ad463x_read_data+0x168>
  1018a4:	e51b3008 	ldr	r3, [fp, #-8]
  1018a8:	ea00000c 	b	1018e0 <ad463x_read_data+0x19c>
  1018ac:	e51b3058 	ldr	r3, [fp, #-88]	; 0xffffffa8
  1018b0:	e5933014 	ldr	r3, [r3, #20]
  1018b4:	e3530000 	cmp	r3, #0
  1018b8:	0a000007 	beq	1018dc <ad463x_read_data+0x198>
  1018bc:	e51b3058 	ldr	r3, [fp, #-88]	; 0xffffffa8
  1018c0:	e5933014 	ldr	r3, [r3, #20]
  1018c4:	e51b2010 	ldr	r2, [fp, #-16]
  1018c8:	e1a00002 	mov	r0, r2
  1018cc:	e15b25be 	ldrh	r2, [fp, #-94]	; 0xffffffa2
  1018d0:	e1a02302 	lsl	r2, r2, #6
  1018d4:	e1a01002 	mov	r1, r2
  1018d8:	e12fff33 	blx	r3
  1018dc:	e51b3008 	ldr	r3, [fp, #-8]
  1018e0:	e1a00003 	mov	r0, r3
  1018e4:	e24bd004 	sub	sp, fp, #4
  1018e8:	e8bd8800 	pop	{fp, pc}

001018ec <ad463x_init>:
  1018ec:	e92d4800 	push	{fp, lr}
  1018f0:	e28db004 	add	fp, sp, #4
  1018f4:	e24dd028 	sub	sp, sp, #40	; 0x28
  1018f8:	e50b0028 	str	r0, [fp, #-40]	; 0xffffffd8
  1018fc:	e50b102c 	str	r1, [fp, #-44]	; 0xffffffd4
  101900:	e302004c 	movw	r0, #8268	; 0x204c
  101904:	e3400012 	movt	r0, #18
  101908:	eb005e07 	bl	11912c <puts>
  10190c:	e3a03000 	mov	r3, #0
  101910:	e54b3011 	strb	r3, [fp, #-17]	; 0xffffffef
  101914:	e3a03000 	mov	r3, #0
  101918:	e54b3005 	strb	r3, [fp, #-5]
  10191c:	e51b302c 	ldr	r3, [fp, #-44]	; 0xffffffd4
  101920:	e3530000 	cmp	r3, #0
  101924:	0a000002 	beq	101934 <ad463x_init+0x48>
  101928:	e51b3028 	ldr	r3, [fp, #-40]	; 0xffffffd8
  10192c:	e3530000 	cmp	r3, #0
  101930:	1a000001 	bne	10193c <ad463x_init+0x50>
  101934:	e3e03000 	mvn	r3, #0
  101938:	ea0001bf 	b	10203c <ad463x_init+0x750>
  10193c:	e51b302c 	ldr	r3, [fp, #-44]	; 0xffffffd4
  101940:	e5d3300c 	ldrb	r3, [r3, #12]
  101944:	e3530000 	cmp	r3, #0
  101948:	1a000008 	bne	101970 <ad463x_init+0x84>
  10194c:	e51b302c 	ldr	r3, [fp, #-44]	; 0xffffffd4
  101950:	e5d3300d 	ldrb	r3, [r3, #13]
  101954:	e3530008 	cmp	r3, #8
  101958:	1a000004 	bne	101970 <ad463x_init+0x84>
  10195c:	e3020060 	movw	r0, #8288	; 0x2060
  101960:	e3400012 	movt	r0, #18
  101964:	eb005df0 	bl	11912c <puts>
  101968:	e3e03000 	mvn	r3, #0
  10196c:	ea0001b2 	b	10203c <ad463x_init+0x750>
  101970:	e3a00018 	mov	r0, #24
  101974:	eb005b5d 	bl	1186f0 <malloc>
  101978:	e1a03000 	mov	r3, r0
  10197c:	e50b300c 	str	r3, [fp, #-12]
  101980:	e51b300c 	ldr	r3, [fp, #-12]
  101984:	e3530000 	cmp	r3, #0
  101988:	1a000001 	bne	101994 <ad463x_init+0xa8>
  10198c:	e3e03000 	mvn	r3, #0
  101990:	ea0001a9 	b	10203c <ad463x_init+0x750>
  101994:	ebfffe8e 	bl	1013d4 <ad469x_reset>
  101998:	e50b0010 	str	r0, [fp, #-16]
  10199c:	e51b3010 	ldr	r3, [fp, #-16]
  1019a0:	e3530000 	cmp	r3, #0
  1019a4:	1a0001a0 	bne	10202c <ad463x_init+0x740>
  1019a8:	e30002ee 	movw	r0, #750	; 0x2ee
  1019ac:	eb0001fb 	bl	1021a0 <udelay>
  1019b0:	e51b200c 	ldr	r2, [fp, #-12]
  1019b4:	e51b302c 	ldr	r3, [fp, #-44]	; 0xffffffd4
  1019b8:	e5933000 	ldr	r3, [r3]
  1019bc:	e1a01003 	mov	r1, r3
  1019c0:	e1a00002 	mov	r0, r2
  1019c4:	eb0001b8 	bl	1020ac <spi_init>
  1019c8:	e50b0010 	str	r0, [fp, #-16]
  1019cc:	e51b3010 	ldr	r3, [fp, #-16]
  1019d0:	e3530000 	cmp	r3, #0
  1019d4:	1a00017e 	bne	101fd4 <ad463x_init+0x6e8>
  1019d8:	e51b302c 	ldr	r3, [fp, #-44]	; 0xffffffd4
  1019dc:	e5932004 	ldr	r2, [r3, #4]
  1019e0:	e51b300c 	ldr	r3, [fp, #-12]
  1019e4:	e5832004 	str	r2, [r3, #4]
  1019e8:	e51b302c 	ldr	r3, [fp, #-44]	; 0xffffffd4
  1019ec:	e5d32009 	ldrb	r2, [r3, #9]
  1019f0:	e51b300c 	ldr	r3, [fp, #-12]
  1019f4:	e5c3200d 	strb	r2, [r3, #13]
  1019f8:	e51b302c 	ldr	r3, [fp, #-44]	; 0xffffffd4
  1019fc:	e5d3200a 	ldrb	r2, [r3, #10]
  101a00:	e51b300c 	ldr	r3, [fp, #-12]
  101a04:	e5c3200e 	strb	r2, [r3, #14]
  101a08:	e51b302c 	ldr	r3, [fp, #-44]	; 0xffffffd4
  101a0c:	e5d3200e 	ldrb	r2, [r3, #14]
  101a10:	e51b300c 	ldr	r3, [fp, #-12]
  101a14:	e5c32012 	strb	r2, [r3, #18]
  101a18:	e51b302c 	ldr	r3, [fp, #-44]	; 0xffffffd4
  101a1c:	e5d3200b 	ldrb	r2, [r3, #11]
  101a20:	e51b300c 	ldr	r3, [fp, #-12]
  101a24:	e5c3200f 	strb	r2, [r3, #15]
  101a28:	e51b302c 	ldr	r3, [fp, #-44]	; 0xffffffd4
  101a2c:	e5d3200c 	ldrb	r2, [r3, #12]
  101a30:	e51b300c 	ldr	r3, [fp, #-12]
  101a34:	e5c32010 	strb	r2, [r3, #16]
  101a38:	e51b302c 	ldr	r3, [fp, #-44]	; 0xffffffd4
  101a3c:	e5d3200d 	ldrb	r2, [r3, #13]
  101a40:	e51b300c 	ldr	r3, [fp, #-12]
  101a44:	e5c32011 	strb	r2, [r3, #17]
  101a48:	e51b302c 	ldr	r3, [fp, #-44]	; 0xffffffd4
  101a4c:	e5d32008 	ldrb	r2, [r3, #8]
  101a50:	e51b300c 	ldr	r3, [fp, #-12]
  101a54:	e5c3200c 	strb	r2, [r3, #12]
  101a58:	e51b302c 	ldr	r3, [fp, #-44]	; 0xffffffd4
  101a5c:	e5932010 	ldr	r2, [r3, #16]
  101a60:	e51b300c 	ldr	r3, [fp, #-12]
  101a64:	e5832008 	str	r2, [r3, #8]
  101a68:	e51b302c 	ldr	r3, [fp, #-44]	; 0xffffffd4
  101a6c:	e5932014 	ldr	r2, [r3, #20]
  101a70:	e51b300c 	ldr	r3, [fp, #-12]
  101a74:	e5832014 	str	r2, [r3, #20]
  101a78:	e51b300c 	ldr	r3, [fp, #-12]
  101a7c:	e5d33011 	ldrb	r3, [r3, #17]
  101a80:	e3530008 	cmp	r3, #8
  101a84:	1a000005 	bne	101aa0 <ad463x_init+0x1b4>
  101a88:	e51b300c 	ldr	r3, [fp, #-12]
  101a8c:	e5d3300e 	ldrb	r3, [r3, #14]
  101a90:	e1a030a3 	lsr	r3, r3, #1
  101a94:	e6ef2073 	uxtb	r2, r3
  101a98:	e51b300c 	ldr	r3, [fp, #-12]
  101a9c:	e5c3200e 	strb	r2, [r3, #14]
  101aa0:	e51b300c 	ldr	r3, [fp, #-12]
  101aa4:	e5932000 	ldr	r2, [r3]
  101aa8:	e51b300c 	ldr	r3, [fp, #-12]
  101aac:	e5d3300d 	ldrb	r3, [r3, #13]
  101ab0:	e1a01003 	mov	r1, r3
  101ab4:	e1a00002 	mov	r0, r2
  101ab8:	eb000383 	bl	1028cc <spi_engine_set_transfer_width>
  101abc:	e50b0010 	str	r0, [fp, #-16]
  101ac0:	e51b3010 	ldr	r3, [fp, #-16]
  101ac4:	e3530000 	cmp	r3, #0
  101ac8:	1a000143 	bne	101fdc <ad463x_init+0x6f0>
  101acc:	e51b300c 	ldr	r3, [fp, #-12]
  101ad0:	e5932000 	ldr	r2, [r3]
  101ad4:	e51b300c 	ldr	r3, [fp, #-12]
  101ad8:	e5933000 	ldr	r3, [r3]
  101adc:	e5933000 	ldr	r3, [r3]
  101ae0:	e1a01003 	mov	r1, r3
  101ae4:	e1a00002 	mov	r0, r2
  101ae8:	eb000392 	bl	102938 <spi_engine_set_speed>
  101aec:	e24b3011 	sub	r3, fp, #17
  101af0:	e1a02003 	mov	r2, r3
  101af4:	e3a01a02 	mov	r1, #8192	; 0x2000
  101af8:	e51b000c 	ldr	r0, [fp, #-12]
  101afc:	ebfffcc5 	bl	100e18 <ad463x_spi_reg_read>
  101b00:	e50b0010 	str	r0, [fp, #-16]
  101b04:	e51b3010 	ldr	r3, [fp, #-16]
  101b08:	e3530000 	cmp	r3, #0
  101b0c:	1a000134 	bne	101fe4 <ad463x_init+0x6f8>
  101b10:	e51b000c 	ldr	r0, [fp, #-12]
  101b14:	ebfffe93 	bl	101568 <ad463x_device_config>
  101b18:	e50b0010 	str	r0, [fp, #-16]
  101b1c:	e51b3010 	ldr	r3, [fp, #-16]
  101b20:	e3530000 	cmp	r3, #0
  101b24:	1a000130 	bne	101fec <ad463x_init+0x700>
  101b28:	e24b3011 	sub	r3, fp, #17
  101b2c:	e1a02003 	mov	r2, r3
  101b30:	e3a01003 	mov	r1, #3
  101b34:	e51b000c 	ldr	r0, [fp, #-12]
  101b38:	ebfffcb6 	bl	100e18 <ad463x_spi_reg_read>
  101b3c:	e50b0010 	str	r0, [fp, #-16]
  101b40:	e51b3010 	ldr	r3, [fp, #-16]
  101b44:	e3530000 	cmp	r3, #0
  101b48:	1a000129 	bne	101ff4 <ad463x_init+0x708>
  101b4c:	e55b3011 	ldrb	r3, [fp, #-17]	; 0xffffffef
  101b50:	e1a01003 	mov	r1, r3
  101b54:	e302009c 	movw	r0, #8348	; 0x209c
  101b58:	e3400012 	movt	r0, #18
  101b5c:	eb005d24 	bl	118ff4 <printf>
  101b60:	e24b3011 	sub	r3, fp, #17
  101b64:	e1a02003 	mov	r2, r3
  101b68:	e3a0100b 	mov	r1, #11
  101b6c:	e51b000c 	ldr	r0, [fp, #-12]
  101b70:	ebfffca8 	bl	100e18 <ad463x_spi_reg_read>
  101b74:	e50b0010 	str	r0, [fp, #-16]
  101b78:	e51b3010 	ldr	r3, [fp, #-16]
  101b7c:	e3530000 	cmp	r3, #0
  101b80:	1a00011d 	bne	101ffc <ad463x_init+0x710>
  101b84:	e55b3011 	ldrb	r3, [fp, #-17]	; 0xffffffef
  101b88:	e1a01003 	mov	r1, r3
  101b8c:	e30200bc 	movw	r0, #8380	; 0x20bc
  101b90:	e3400012 	movt	r0, #18
  101b94:	eb005d16 	bl	118ff4 <printf>
  101b98:	e24b3011 	sub	r3, fp, #17
  101b9c:	e1a02003 	mov	r2, r3
  101ba0:	e3a0100c 	mov	r1, #12
  101ba4:	e51b000c 	ldr	r0, [fp, #-12]
  101ba8:	ebfffc9a 	bl	100e18 <ad463x_spi_reg_read>
  101bac:	e50b0010 	str	r0, [fp, #-16]
  101bb0:	e51b3010 	ldr	r3, [fp, #-16]
  101bb4:	e3530000 	cmp	r3, #0
  101bb8:	1a000111 	bne	102004 <ad463x_init+0x718>
  101bbc:	e55b3011 	ldrb	r3, [fp, #-17]	; 0xffffffef
  101bc0:	e1a01003 	mov	r1, r3
  101bc4:	e30200e0 	movw	r0, #8416	; 0x20e0
  101bc8:	e3400012 	movt	r0, #18
  101bcc:	eb005d08 	bl	118ff4 <printf>
  101bd0:	e3a020aa 	mov	r2, #170	; 0xaa
  101bd4:	e3a0100a 	mov	r1, #10
  101bd8:	e51b000c 	ldr	r0, [fp, #-12]
  101bdc:	ebfffcb0 	bl	100ea4 <ad463x_spi_reg_write>
  101be0:	e50b0010 	str	r0, [fp, #-16]
  101be4:	e51b3010 	ldr	r3, [fp, #-16]
  101be8:	e3530000 	cmp	r3, #0
  101bec:	1a000106 	bne	10200c <ad463x_init+0x720>
  101bf0:	e24b3011 	sub	r3, fp, #17
  101bf4:	e1a02003 	mov	r2, r3
  101bf8:	e3a0100a 	mov	r1, #10
  101bfc:	e51b000c 	ldr	r0, [fp, #-12]
  101c00:	ebfffc84 	bl	100e18 <ad463x_spi_reg_read>
  101c04:	e50b0010 	str	r0, [fp, #-16]
  101c08:	e51b3010 	ldr	r3, [fp, #-16]
  101c0c:	e3530000 	cmp	r3, #0
  101c10:	1a0000ff 	bne	102014 <ad463x_init+0x728>
  101c14:	e55b3011 	ldrb	r3, [fp, #-17]	; 0xffffffef
  101c18:	e1a01003 	mov	r1, r3
  101c1c:	e3020100 	movw	r0, #8448	; 0x2100
  101c20:	e3400012 	movt	r0, #18
  101c24:	eb005cf2 	bl	118ff4 <printf>
  101c28:	e55b3011 	ldrb	r3, [fp, #-17]	; 0xffffffef
  101c2c:	e35300aa 	cmp	r3, #170	; 0xaa
  101c30:	0a000002 	beq	101c40 <ad463x_init+0x354>
  101c34:	e3020120 	movw	r0, #8480	; 0x2120
  101c38:	e3400012 	movt	r0, #18
  101c3c:	eb005d3a 	bl	11912c <puts>
  101c40:	e55b3011 	ldrb	r3, [fp, #-17]	; 0xffffffef
  101c44:	e35300aa 	cmp	r3, #170	; 0xaa
  101c48:	1affffb6 	bne	101b28 <ad463x_init+0x23c>
  101c4c:	e51b300c 	ldr	r3, [fp, #-12]
  101c50:	e5d3300f 	ldrb	r3, [r3, #15]
  101c54:	e3a020c0 	mov	r2, #192	; 0xc0
  101c58:	e3a01020 	mov	r1, #32
  101c5c:	e51b000c 	ldr	r0, [fp, #-12]
  101c60:	ebfffcad 	bl	100f1c <ad463x_spi_reg_write_masked>
  101c64:	e50b0010 	str	r0, [fp, #-16]
  101c68:	e51b3010 	ldr	r3, [fp, #-16]
  101c6c:	e3530000 	cmp	r3, #0
  101c70:	0a000001 	beq	101c7c <ad463x_init+0x390>
  101c74:	e51b3010 	ldr	r3, [fp, #-16]
  101c78:	ea0000ef 	b	10203c <ad463x_init+0x750>
  101c7c:	e51b300c 	ldr	r3, [fp, #-12]
  101c80:	e5d33010 	ldrb	r3, [r3, #16]
  101c84:	e3a02030 	mov	r2, #48	; 0x30
  101c88:	e3a01020 	mov	r1, #32
  101c8c:	e51b000c 	ldr	r0, [fp, #-12]
  101c90:	ebfffca1 	bl	100f1c <ad463x_spi_reg_write_masked>
  101c94:	e50b0010 	str	r0, [fp, #-16]
  101c98:	e51b3010 	ldr	r3, [fp, #-16]
  101c9c:	e3530000 	cmp	r3, #0
  101ca0:	0a000001 	beq	101cac <ad463x_init+0x3c0>
  101ca4:	e51b3010 	ldr	r3, [fp, #-16]
  101ca8:	ea0000e3 	b	10203c <ad463x_init+0x750>
  101cac:	e51b300c 	ldr	r3, [fp, #-12]
  101cb0:	e5d33011 	ldrb	r3, [r3, #17]
  101cb4:	e3a02008 	mov	r2, #8
  101cb8:	e3a01020 	mov	r1, #32
  101cbc:	e51b000c 	ldr	r0, [fp, #-12]
  101cc0:	ebfffc95 	bl	100f1c <ad463x_spi_reg_write_masked>
  101cc4:	e50b0010 	str	r0, [fp, #-16]
  101cc8:	e51b3010 	ldr	r3, [fp, #-16]
  101ccc:	e3530000 	cmp	r3, #0
  101cd0:	0a000001 	beq	101cdc <ad463x_init+0x3f0>
  101cd4:	e51b3010 	ldr	r3, [fp, #-16]
  101cd8:	ea0000d7 	b	10203c <ad463x_init+0x750>
  101cdc:	e51b300c 	ldr	r3, [fp, #-12]
  101ce0:	e5d33012 	ldrb	r3, [r3, #18]
  101ce4:	e3a02007 	mov	r2, #7
  101ce8:	e3a01020 	mov	r1, #32
  101cec:	e51b000c 	ldr	r0, [fp, #-12]
  101cf0:	ebfffc89 	bl	100f1c <ad463x_spi_reg_write_masked>
  101cf4:	e50b0010 	str	r0, [fp, #-16]
  101cf8:	e51b3010 	ldr	r3, [fp, #-16]
  101cfc:	e3530000 	cmp	r3, #0
  101d00:	0a000001 	beq	101d0c <ad463x_init+0x420>
  101d04:	e51b3010 	ldr	r3, [fp, #-16]
  101d08:	ea0000cb 	b	10203c <ad463x_init+0x750>
  101d0c:	e24b3018 	sub	r3, fp, #24
  101d10:	e1a01003 	mov	r1, r3
  101d14:	e51b000c 	ldr	r0, [fp, #-12]
  101d18:	ebfffdea 	bl	1014c8 <get_mode_info>
  101d1c:	e50b0010 	str	r0, [fp, #-16]
  101d20:	e51b3010 	ldr	r3, [fp, #-16]
  101d24:	e3530000 	cmp	r3, #0
  101d28:	0a000001 	beq	101d34 <ad463x_init+0x448>
  101d2c:	e51b3010 	ldr	r3, [fp, #-16]
  101d30:	ea0000c1 	b	10203c <ad463x_init+0x750>
  101d34:	e55b3018 	ldrb	r3, [fp, #-24]	; 0xffffffe8
  101d38:	e1a03323 	lsr	r3, r3, #6
  101d3c:	e6ef3073 	uxtb	r3, r3
  101d40:	e2833004 	add	r3, r3, #4
  101d44:	e3a02001 	mov	r2, #1
  101d48:	e1a03312 	lsl	r3, r2, r3
  101d4c:	e54b3005 	strb	r3, [fp, #-5]
  101d50:	e55b3017 	ldrb	r3, [fp, #-23]	; 0xffffffe9
  101d54:	e1a03123 	lsr	r3, r3, #2
  101d58:	e6ef2073 	uxtb	r2, r3
  101d5c:	e55b3005 	ldrb	r3, [fp, #-5]
  101d60:	e1823003 	orr	r3, r2, r3
  101d64:	e54b3005 	strb	r3, [fp, #-5]
  101d68:	e55b3016 	ldrb	r3, [fp, #-22]	; 0xffffffea
  101d6c:	e1a03123 	lsr	r3, r3, #2
  101d70:	e6ef2073 	uxtb	r2, r3
  101d74:	e55b3005 	ldrb	r3, [fp, #-5]
  101d78:	e1823003 	orr	r3, r2, r3
  101d7c:	e54b3005 	strb	r3, [fp, #-5]
  101d80:	e55b3015 	ldrb	r3, [fp, #-21]	; 0xffffffeb
  101d84:	e1a03123 	lsr	r3, r3, #2
  101d88:	e6ef2073 	uxtb	r2, r3
  101d8c:	e55b3005 	ldrb	r3, [fp, #-5]
  101d90:	e1823003 	orr	r3, r2, r3
  101d94:	e54b3005 	strb	r3, [fp, #-5]
  101d98:	e51b300c 	ldr	r3, [fp, #-12]
  101d9c:	e5933008 	ldr	r3, [r3, #8]
  101da0:	e55b2005 	ldrb	r2, [fp, #-5]
  101da4:	e3001414 	movw	r1, #1044	; 0x414
  101da8:	e1a00003 	mov	r0, r3
  101dac:	eb000cac 	bl	105064 <axi_io_write>
  101db0:	e51b300c 	ldr	r3, [fp, #-12]
  101db4:	e5933008 	ldr	r3, [r3, #8]
  101db8:	e3a02000 	mov	r2, #0
  101dbc:	e300140c 	movw	r1, #1036	; 0x40c
  101dc0:	e1a00003 	mov	r0, r3
  101dc4:	eb000ca6 	bl	105064 <axi_io_write>
  101dc8:	e51b300c 	ldr	r3, [fp, #-12]
  101dcc:	e5d3300f 	ldrb	r3, [r3, #15]
  101dd0:	e3530080 	cmp	r3, #128	; 0x80
  101dd4:	1a000011 	bne	101e20 <ad463x_init+0x534>
  101dd8:	e51b300c 	ldr	r3, [fp, #-12]
  101ddc:	e5930008 	ldr	r0, [r3, #8]
  101de0:	e51b300c 	ldr	r3, [fp, #-12]
  101de4:	e5d3300c 	ldrb	r3, [r3, #12]
  101de8:	e1a01003 	mov	r1, r3
  101dec:	e3042008 	movw	r2, #16392	; 0x4008
  101df0:	e3402012 	movt	r2, #18
  101df4:	e1a03001 	mov	r3, r1
  101df8:	e1a03103 	lsl	r3, r3, #2
  101dfc:	e0833001 	add	r3, r3, r1
  101e00:	e1a03103 	lsl	r3, r3, #2
  101e04:	e0823003 	add	r3, r2, r3
  101e08:	e283300a 	add	r3, r3, #10
  101e0c:	e1d330b0 	ldrh	r3, [r3]
  101e10:	e1a02003 	mov	r2, r3
  101e14:	e3001404 	movw	r1, #1028	; 0x404
  101e18:	eb000c91 	bl	105064 <axi_io_write>
  101e1c:	ea000040 	b	101f24 <ad463x_init+0x638>
  101e20:	e51b300c 	ldr	r3, [fp, #-12]
  101e24:	e5d3300f 	ldrb	r3, [r3, #15]
  101e28:	e3530040 	cmp	r3, #64	; 0x40
  101e2c:	1a000011 	bne	101e78 <ad463x_init+0x58c>
  101e30:	e51b300c 	ldr	r3, [fp, #-12]
  101e34:	e5930008 	ldr	r0, [r3, #8]
  101e38:	e51b300c 	ldr	r3, [fp, #-12]
  101e3c:	e5d3300c 	ldrb	r3, [r3, #12]
  101e40:	e1a01003 	mov	r1, r3
  101e44:	e3042008 	movw	r2, #16392	; 0x4008
  101e48:	e3402012 	movt	r2, #18
  101e4c:	e1a03001 	mov	r3, r1
  101e50:	e1a03103 	lsl	r3, r3, #2
  101e54:	e0833001 	add	r3, r3, r1
  101e58:	e1a03103 	lsl	r3, r3, #2
  101e5c:	e0823003 	add	r3, r2, r3
  101e60:	e283300c 	add	r3, r3, #12
  101e64:	e1d330b0 	ldrh	r3, [r3]
  101e68:	e1a02003 	mov	r2, r3
  101e6c:	e3001404 	movw	r1, #1028	; 0x404
  101e70:	eb000c7b 	bl	105064 <axi_io_write>
  101e74:	ea00002a 	b	101f24 <ad463x_init+0x638>
  101e78:	e51b300c 	ldr	r3, [fp, #-12]
  101e7c:	e5d3300f 	ldrb	r3, [r3, #15]
  101e80:	e3530000 	cmp	r3, #0
  101e84:	1a000026 	bne	101f24 <ad463x_init+0x638>
  101e88:	e51b300c 	ldr	r3, [fp, #-12]
  101e8c:	e5d33011 	ldrb	r3, [r3, #17]
  101e90:	e3530008 	cmp	r3, #8
  101e94:	1a000011 	bne	101ee0 <ad463x_init+0x5f4>
  101e98:	e51b300c 	ldr	r3, [fp, #-12]
  101e9c:	e5930008 	ldr	r0, [r3, #8]
  101ea0:	e51b300c 	ldr	r3, [fp, #-12]
  101ea4:	e5d3300c 	ldrb	r3, [r3, #12]
  101ea8:	e1a01003 	mov	r1, r3
  101eac:	e3042008 	movw	r2, #16392	; 0x4008
  101eb0:	e3402012 	movt	r2, #18
  101eb4:	e1a03001 	mov	r3, r1
  101eb8:	e1a03103 	lsl	r3, r3, #2
  101ebc:	e0833001 	add	r3, r3, r1
  101ec0:	e1a03103 	lsl	r3, r3, #2
  101ec4:	e0823003 	add	r3, r2, r3
  101ec8:	e2833010 	add	r3, r3, #16
  101ecc:	e1d330b0 	ldrh	r3, [r3]
  101ed0:	e1a02003 	mov	r2, r3
  101ed4:	e3001404 	movw	r1, #1028	; 0x404
  101ed8:	eb000c61 	bl	105064 <axi_io_write>
  101edc:	ea000010 	b	101f24 <ad463x_init+0x638>
  101ee0:	e51b300c 	ldr	r3, [fp, #-12]
  101ee4:	e5930008 	ldr	r0, [r3, #8]
  101ee8:	e51b300c 	ldr	r3, [fp, #-12]
  101eec:	e5d3300c 	ldrb	r3, [r3, #12]
  101ef0:	e1a01003 	mov	r1, r3
  101ef4:	e3042008 	movw	r2, #16392	; 0x4008
  101ef8:	e3402012 	movt	r2, #18
  101efc:	e1a03001 	mov	r3, r1
  101f00:	e1a03103 	lsl	r3, r3, #2
  101f04:	e0833001 	add	r3, r3, r1
  101f08:	e1a03103 	lsl	r3, r3, #2
  101f0c:	e0823003 	add	r3, r2, r3
  101f10:	e283300e 	add	r3, r3, #14
  101f14:	e1d330b0 	ldrh	r3, [r3]
  101f18:	e1a02003 	mov	r2, r3
  101f1c:	e3001404 	movw	r1, #1028	; 0x404
  101f20:	eb000c4f 	bl	105064 <axi_io_write>
  101f24:	e51b300c 	ldr	r3, [fp, #-12]
  101f28:	e5930008 	ldr	r0, [r3, #8]
  101f2c:	e51b300c 	ldr	r3, [fp, #-12]
  101f30:	e5d3300c 	ldrb	r3, [r3, #12]
  101f34:	e1a01003 	mov	r1, r3
  101f38:	e3042008 	movw	r2, #16392	; 0x4008
  101f3c:	e3402012 	movt	r2, #18
  101f40:	e1a03001 	mov	r3, r1
  101f44:	e1a03103 	lsl	r3, r3, #2
  101f48:	e0833001 	add	r3, r3, r1
  101f4c:	e1a03103 	lsl	r3, r3, #2
  101f50:	e0823003 	add	r3, r2, r3
  101f54:	e2833008 	add	r3, r3, #8
  101f58:	e1d330b0 	ldrh	r3, [r3]
  101f5c:	e1a02003 	mov	r2, r3
  101f60:	e3001408 	movw	r1, #1032	; 0x408
  101f64:	eb000c3e 	bl	105064 <axi_io_write>
  101f68:	e3a03000 	mov	r3, #0
  101f6c:	e50b301c 	str	r3, [fp, #-28]	; 0xffffffe4
  101f70:	e3a03000 	mov	r3, #0
  101f74:	e54b301d 	strb	r3, [fp, #-29]	; 0xffffffe3
  101f78:	e24b301d 	sub	r3, fp, #29
  101f7c:	e1a02003 	mov	r2, r3
  101f80:	e3a01020 	mov	r1, #32
  101f84:	e51b000c 	ldr	r0, [fp, #-12]
  101f88:	ebfffba2 	bl	100e18 <ad463x_spi_reg_read>
  101f8c:	e51b300c 	ldr	r3, [fp, #-12]
  101f90:	e5933008 	ldr	r3, [r3, #8]
  101f94:	e24b201c 	sub	r2, fp, #28
  101f98:	e3001414 	movw	r1, #1044	; 0x414
  101f9c:	e1a00003 	mov	r0, r3
  101fa0:	eb000c1e 	bl	105020 <axi_io_read>
  101fa4:	e55b301d 	ldrb	r3, [fp, #-29]	; 0xffffffe3
  101fa8:	e1a01003 	mov	r1, r3
  101fac:	e51b301c 	ldr	r3, [fp, #-28]	; 0xffffffe4
  101fb0:	e1a02003 	mov	r2, r3
  101fb4:	e302015c 	movw	r0, #8540	; 0x215c
  101fb8:	e3400012 	movt	r0, #18
  101fbc:	eb005c0c 	bl	118ff4 <printf>
  101fc0:	e51b3028 	ldr	r3, [fp, #-40]	; 0xffffffd8
  101fc4:	e51b200c 	ldr	r2, [fp, #-12]
  101fc8:	e5832000 	str	r2, [r3]
  101fcc:	e51b3010 	ldr	r3, [fp, #-16]
  101fd0:	ea000019 	b	10203c <ad463x_init+0x750>
  101fd4:	e320f000 	nop	{0}
  101fd8:	ea00000e 	b	102018 <ad463x_init+0x72c>
  101fdc:	e320f000 	nop	{0}
  101fe0:	ea00000c 	b	102018 <ad463x_init+0x72c>
  101fe4:	e320f000 	nop	{0}
  101fe8:	ea00000a 	b	102018 <ad463x_init+0x72c>
  101fec:	e320f000 	nop	{0}
  101ff0:	ea000008 	b	102018 <ad463x_init+0x72c>
  101ff4:	e320f000 	nop	{0}
  101ff8:	ea000006 	b	102018 <ad463x_init+0x72c>
  101ffc:	e320f000 	nop	{0}
  102000:	ea000004 	b	102018 <ad463x_init+0x72c>
  102004:	e320f000 	nop	{0}
  102008:	ea000002 	b	102018 <ad463x_init+0x72c>
  10200c:	e320f000 	nop	{0}
  102010:	ea000000 	b	102018 <ad463x_init+0x72c>
  102014:	e320f000 	nop	{0}
  102018:	e51b300c 	ldr	r3, [fp, #-12]
  10201c:	e5933000 	ldr	r3, [r3]
  102020:	e1a00003 	mov	r0, r3
  102024:	eb00003e 	bl	102124 <spi_remove>
  102028:	ea000000 	b	102030 <ad463x_init+0x744>
  10202c:	e320f000 	nop	{0}
  102030:	e51b000c 	ldr	r0, [fp, #-12]
  102034:	eb0059b3 	bl	118708 <free>
  102038:	e3e03000 	mvn	r3, #0
  10203c:	e1a00003 	mov	r0, r3
  102040:	e24bd004 	sub	sp, fp, #4
  102044:	e8bd8800 	pop	{fp, pc}

00102048 <ad463x_remove>:
  102048:	e92d4800 	push	{fp, lr}
  10204c:	e28db004 	add	fp, sp, #4
  102050:	e24dd010 	sub	sp, sp, #16
  102054:	e50b0010 	str	r0, [fp, #-16]
  102058:	e51b3010 	ldr	r3, [fp, #-16]
  10205c:	e3530000 	cmp	r3, #0
  102060:	1a000001 	bne	10206c <ad463x_remove+0x24>
  102064:	e3e03000 	mvn	r3, #0
  102068:	ea00000c 	b	1020a0 <ad463x_remove+0x58>
  10206c:	e51b3010 	ldr	r3, [fp, #-16]
  102070:	e5933000 	ldr	r3, [r3]
  102074:	e1a00003 	mov	r0, r3
  102078:	eb000029 	bl	102124 <spi_remove>
  10207c:	e50b0008 	str	r0, [fp, #-8]
  102080:	e51b3008 	ldr	r3, [fp, #-8]
  102084:	e3530000 	cmp	r3, #0
  102088:	0a000001 	beq	102094 <ad463x_remove+0x4c>
  10208c:	e51b3008 	ldr	r3, [fp, #-8]
  102090:	ea000002 	b	1020a0 <ad463x_remove+0x58>
  102094:	e51b0010 	ldr	r0, [fp, #-16]
  102098:	eb00599a 	bl	118708 <free>
  10209c:	e51b3008 	ldr	r3, [fp, #-8]
  1020a0:	e1a00003 	mov	r0, r3
  1020a4:	e24bd004 	sub	sp, fp, #4
  1020a8:	e8bd8800 	pop	{fp, pc}

001020ac <spi_init>:
  1020ac:	e92d4800 	push	{fp, lr}
  1020b0:	e28db004 	add	fp, sp, #4
  1020b4:	e24dd008 	sub	sp, sp, #8
  1020b8:	e50b0008 	str	r0, [fp, #-8]
  1020bc:	e50b100c 	str	r1, [fp, #-12]
  1020c0:	e51b300c 	ldr	r3, [fp, #-12]
  1020c4:	e3530000 	cmp	r3, #0
  1020c8:	1a000001 	bne	1020d4 <spi_init+0x28>
  1020cc:	e3e03000 	mvn	r3, #0
  1020d0:	ea000010 	b	102118 <spi_init+0x6c>
  1020d4:	e51b300c 	ldr	r3, [fp, #-12]
  1020d8:	e5933008 	ldr	r3, [r3, #8]
  1020dc:	e5933000 	ldr	r3, [r3]
  1020e0:	e51b100c 	ldr	r1, [fp, #-12]
  1020e4:	e51b0008 	ldr	r0, [fp, #-8]
  1020e8:	e12fff33 	blx	r3
  1020ec:	e1a03000 	mov	r3, r0
  1020f0:	e3530000 	cmp	r3, #0
  1020f4:	0a000001 	beq	102100 <spi_init+0x54>
  1020f8:	e3e03000 	mvn	r3, #0
  1020fc:	ea000005 	b	102118 <spi_init+0x6c>
  102100:	e51b3008 	ldr	r3, [fp, #-8]
  102104:	e5933000 	ldr	r3, [r3]
  102108:	e51b200c 	ldr	r2, [fp, #-12]
  10210c:	e5922008 	ldr	r2, [r2, #8]
  102110:	e5832008 	str	r2, [r3, #8]
  102114:	e3a03000 	mov	r3, #0
  102118:	e1a00003 	mov	r0, r3
  10211c:	e24bd004 	sub	sp, fp, #4
  102120:	e8bd8800 	pop	{fp, pc}

00102124 <spi_remove>:
  102124:	e92d4800 	push	{fp, lr}
  102128:	e28db004 	add	fp, sp, #4
  10212c:	e24dd008 	sub	sp, sp, #8
  102130:	e50b0008 	str	r0, [fp, #-8]
  102134:	e51b3008 	ldr	r3, [fp, #-8]
  102138:	e5933008 	ldr	r3, [r3, #8]
  10213c:	e5933008 	ldr	r3, [r3, #8]
  102140:	e51b0008 	ldr	r0, [fp, #-8]
  102144:	e12fff33 	blx	r3
  102148:	e1a03000 	mov	r3, r0
  10214c:	e1a00003 	mov	r0, r3
  102150:	e24bd004 	sub	sp, fp, #4
  102154:	e8bd8800 	pop	{fp, pc}

00102158 <spi_write_and_read>:
  102158:	e92d4800 	push	{fp, lr}
  10215c:	e28db004 	add	fp, sp, #4
  102160:	e24dd010 	sub	sp, sp, #16
  102164:	e50b0008 	str	r0, [fp, #-8]
  102168:	e50b100c 	str	r1, [fp, #-12]
  10216c:	e1a03002 	mov	r3, r2
  102170:	e14b30be 	strh	r3, [fp, #-14]
  102174:	e51b3008 	ldr	r3, [fp, #-8]
  102178:	e5933008 	ldr	r3, [r3, #8]
  10217c:	e5933004 	ldr	r3, [r3, #4]
  102180:	e15b20be 	ldrh	r2, [fp, #-14]
  102184:	e51b100c 	ldr	r1, [fp, #-12]
  102188:	e51b0008 	ldr	r0, [fp, #-8]
  10218c:	e12fff33 	blx	r3
  102190:	e1a03000 	mov	r3, r0
  102194:	e1a00003 	mov	r0, r3
  102198:	e24bd004 	sub	sp, fp, #4
  10219c:	e8bd8800 	pop	{fp, pc}

001021a0 <udelay>:
  1021a0:	e92d4800 	push	{fp, lr}
  1021a4:	e28db004 	add	fp, sp, #4
  1021a8:	e24dd010 	sub	sp, sp, #16
  1021ac:	e50b0010 	str	r0, [fp, #-16]
  1021b0:	e3a00003 	mov	r0, #3
  1021b4:	eb004a3d 	bl	114ab0 <alt_gpt_counter_get>
  1021b8:	e50b0008 	str	r0, [fp, #-8]
  1021bc:	e51b3010 	ldr	r3, [fp, #-16]
  1021c0:	e3a02ffa 	mov	r2, #1000	; 0x3e8
  1021c4:	e0030392 	mul	r3, r2, r3
  1021c8:	e1a02003 	mov	r2, r3
  1021cc:	e51b1008 	ldr	r1, [fp, #-8]
  1021d0:	e3a00003 	mov	r0, #3
  1021d4:	eb004b45 	bl	114ef0 <alt_gpt_delay_ns>
  1021d8:	e320f000 	nop	{0}
  1021dc:	e24bd004 	sub	sp, fp, #4
  1021e0:	e8bd8800 	pop	{fp, pc}

001021e4 <mdelay>:
  1021e4:	e92d4800 	push	{fp, lr}
  1021e8:	e28db004 	add	fp, sp, #4
  1021ec:	e24dd010 	sub	sp, sp, #16
  1021f0:	e50b0010 	str	r0, [fp, #-16]
  1021f4:	e3a00003 	mov	r0, #3
  1021f8:	eb004a2c 	bl	114ab0 <alt_gpt_counter_get>
  1021fc:	e50b0008 	str	r0, [fp, #-8]
  102200:	e51b2010 	ldr	r2, [fp, #-16]
  102204:	e3043240 	movw	r3, #16960	; 0x4240
  102208:	e340300f 	movt	r3, #15
  10220c:	e0030293 	mul	r3, r3, r2
  102210:	e1a02003 	mov	r2, r3
  102214:	e51b1008 	ldr	r1, [fp, #-8]
  102218:	e3a00003 	mov	r0, #3
  10221c:	eb004b33 	bl	114ef0 <alt_gpt_delay_ns>
  102220:	e320f000 	nop	{0}
  102224:	e24bd004 	sub	sp, fp, #4
  102228:	e8bd8800 	pop	{fp, pc}

0010222c <find_first_set_bit>:
  10222c:	e52db004 	push	{fp}		; (str fp, [sp, #-4]!)
  102230:	e28db000 	add	fp, sp, #0
  102234:	e24dd014 	sub	sp, sp, #20
  102238:	e50b0010 	str	r0, [fp, #-16]
  10223c:	e3a03000 	mov	r3, #0
  102240:	e50b3008 	str	r3, [fp, #-8]
  102244:	ea00000b 	b	102278 <find_first_set_bit+0x4c>
  102248:	e51b3010 	ldr	r3, [fp, #-16]
  10224c:	e2033001 	and	r3, r3, #1
  102250:	e3530000 	cmp	r3, #0
  102254:	0a000001 	beq	102260 <find_first_set_bit+0x34>
  102258:	e51b3008 	ldr	r3, [fp, #-8]
  10225c:	ea000009 	b	102288 <find_first_set_bit+0x5c>
  102260:	e51b3010 	ldr	r3, [fp, #-16]
  102264:	e1a030a3 	lsr	r3, r3, #1
  102268:	e50b3010 	str	r3, [fp, #-16]
  10226c:	e51b3008 	ldr	r3, [fp, #-8]
  102270:	e2833001 	add	r3, r3, #1
  102274:	e50b3008 	str	r3, [fp, #-8]
  102278:	e51b3010 	ldr	r3, [fp, #-16]
  10227c:	e3530000 	cmp	r3, #0
  102280:	1afffff0 	bne	102248 <find_first_set_bit+0x1c>
  102284:	e3a03020 	mov	r3, #32
  102288:	e1a00003 	mov	r0, r3
  10228c:	e24bd000 	sub	sp, fp, #0
  102290:	e49db004 	pop	{fp}		; (ldr fp, [sp], #4)
  102294:	e12fff1e 	bx	lr

00102298 <find_last_set_bit>:
  102298:	e52db004 	push	{fp}		; (str fp, [sp, #-4]!)
  10229c:	e28db000 	add	fp, sp, #0
  1022a0:	e24dd014 	sub	sp, sp, #20
  1022a4:	e50b0010 	str	r0, [fp, #-16]
  1022a8:	e3a03000 	mov	r3, #0
  1022ac:	e50b3008 	str	r3, [fp, #-8]
  1022b0:	e3a03020 	mov	r3, #32
  1022b4:	e50b300c 	str	r3, [fp, #-12]
  1022b8:	ea00000b 	b	1022ec <find_last_set_bit+0x54>
  1022bc:	e51b3010 	ldr	r3, [fp, #-16]
  1022c0:	e2033001 	and	r3, r3, #1
  1022c4:	e3530000 	cmp	r3, #0
  1022c8:	0a000001 	beq	1022d4 <find_last_set_bit+0x3c>
  1022cc:	e51b3008 	ldr	r3, [fp, #-8]
  1022d0:	e50b300c 	str	r3, [fp, #-12]
  1022d4:	e51b3010 	ldr	r3, [fp, #-16]
  1022d8:	e1a030a3 	lsr	r3, r3, #1
  1022dc:	e50b3010 	str	r3, [fp, #-16]
  1022e0:	e51b3008 	ldr	r3, [fp, #-8]
  1022e4:	e2833001 	add	r3, r3, #1
  1022e8:	e50b3008 	str	r3, [fp, #-8]
  1022ec:	e51b3010 	ldr	r3, [fp, #-16]
  1022f0:	e3530000 	cmp	r3, #0
  1022f4:	1afffff0 	bne	1022bc <find_last_set_bit+0x24>
  1022f8:	e51b300c 	ldr	r3, [fp, #-12]
  1022fc:	e1a00003 	mov	r0, r3
  102300:	e24bd000 	sub	sp, fp, #0
  102304:	e49db004 	pop	{fp}		; (ldr fp, [sp], #4)
  102308:	e12fff1e 	bx	lr

0010230c <find_closest>:
  10230c:	e52db004 	push	{fp}		; (str fp, [sp, #-4]!)
  102310:	e28db000 	add	fp, sp, #0
  102314:	e24dd024 	sub	sp, sp, #36	; 0x24
  102318:	e50b0018 	str	r0, [fp, #-24]	; 0xffffffe8
  10231c:	e50b101c 	str	r1, [fp, #-28]	; 0xffffffe4
  102320:	e50b2020 	str	r2, [fp, #-32]	; 0xffffffe0
  102324:	e51b301c 	ldr	r3, [fp, #-28]	; 0xffffffe4
  102328:	e5932000 	ldr	r2, [r3]
  10232c:	e51b3018 	ldr	r3, [fp, #-24]	; 0xffffffe8
  102330:	e0423003 	sub	r3, r2, r3
  102334:	e3530000 	cmp	r3, #0
  102338:	b2633000 	rsblt	r3, r3, #0
  10233c:	e50b3008 	str	r3, [fp, #-8]
  102340:	e3a03000 	mov	r3, #0
  102344:	e50b300c 	str	r3, [fp, #-12]
  102348:	e3a03001 	mov	r3, #1
  10234c:	e50b3010 	str	r3, [fp, #-16]
  102350:	ea00001a 	b	1023c0 <find_closest+0xb4>
  102354:	e51b3010 	ldr	r3, [fp, #-16]
  102358:	e1a03103 	lsl	r3, r3, #2
  10235c:	e51b201c 	ldr	r2, [fp, #-28]	; 0xffffffe4
  102360:	e0823003 	add	r3, r2, r3
  102364:	e5932000 	ldr	r2, [r3]
  102368:	e51b3018 	ldr	r3, [fp, #-24]	; 0xffffffe8
  10236c:	e0423003 	sub	r3, r2, r3
  102370:	e0232fc3 	eor	r2, r3, r3, asr #31
  102374:	e0422fc3 	sub	r2, r2, r3, asr #31
  102378:	e51b3008 	ldr	r3, [fp, #-8]
  10237c:	e1520003 	cmp	r2, r3
  102380:	aa00000b 	bge	1023b4 <find_closest+0xa8>
  102384:	e51b3010 	ldr	r3, [fp, #-16]
  102388:	e1a03103 	lsl	r3, r3, #2
  10238c:	e51b201c 	ldr	r2, [fp, #-28]	; 0xffffffe4
  102390:	e0823003 	add	r3, r2, r3
  102394:	e5932000 	ldr	r2, [r3]
  102398:	e51b3018 	ldr	r3, [fp, #-24]	; 0xffffffe8
  10239c:	e0423003 	sub	r3, r2, r3
  1023a0:	e3530000 	cmp	r3, #0
  1023a4:	b2633000 	rsblt	r3, r3, #0
  1023a8:	e50b3008 	str	r3, [fp, #-8]
  1023ac:	e51b3010 	ldr	r3, [fp, #-16]
  1023b0:	e50b300c 	str	r3, [fp, #-12]
  1023b4:	e51b3010 	ldr	r3, [fp, #-16]
  1023b8:	e2833001 	add	r3, r3, #1
  1023bc:	e50b3010 	str	r3, [fp, #-16]
  1023c0:	e51b2010 	ldr	r2, [fp, #-16]
  1023c4:	e51b3020 	ldr	r3, [fp, #-32]	; 0xffffffe0
  1023c8:	e1520003 	cmp	r2, r3
  1023cc:	3affffe0 	bcc	102354 <find_closest+0x48>
  1023d0:	e51b300c 	ldr	r3, [fp, #-12]
  1023d4:	e1a00003 	mov	r0, r3
  1023d8:	e24bd000 	sub	sp, fp, #0
  1023dc:	e49db004 	pop	{fp}		; (ldr fp, [sp], #4)
  1023e0:	e12fff1e 	bx	lr

001023e4 <field_prep>:
  1023e4:	e92d4800 	push	{fp, lr}
  1023e8:	e28db004 	add	fp, sp, #4
  1023ec:	e24dd008 	sub	sp, sp, #8
  1023f0:	e50b0008 	str	r0, [fp, #-8]
  1023f4:	e50b100c 	str	r1, [fp, #-12]
  1023f8:	e51b0008 	ldr	r0, [fp, #-8]
  1023fc:	ebffff8a 	bl	10222c <find_first_set_bit>
  102400:	e1a02000 	mov	r2, r0
  102404:	e51b300c 	ldr	r3, [fp, #-12]
  102408:	e1a02213 	lsl	r2, r3, r2
  10240c:	e51b3008 	ldr	r3, [fp, #-8]
  102410:	e0033002 	and	r3, r3, r2
  102414:	e1a00003 	mov	r0, r3
  102418:	e24bd004 	sub	sp, fp, #4
  10241c:	e8bd8800 	pop	{fp, pc}

00102420 <field_get>:
  102420:	e92d4810 	push	{r4, fp, lr}
  102424:	e28db008 	add	fp, sp, #8
  102428:	e24dd00c 	sub	sp, sp, #12
  10242c:	e50b0010 	str	r0, [fp, #-16]
  102430:	e50b1014 	str	r1, [fp, #-20]	; 0xffffffec
  102434:	e51b2014 	ldr	r2, [fp, #-20]	; 0xffffffec
  102438:	e51b3010 	ldr	r3, [fp, #-16]
  10243c:	e0024003 	and	r4, r2, r3
  102440:	e51b0010 	ldr	r0, [fp, #-16]
  102444:	ebffff78 	bl	10222c <find_first_set_bit>
  102448:	e1a03000 	mov	r3, r0
  10244c:	e1a03334 	lsr	r3, r4, r3
  102450:	e1a00003 	mov	r0, r3
  102454:	e24bd008 	sub	sp, fp, #8
  102458:	e8bd8810 	pop	{r4, fp, pc}

0010245c <log_base_2>:
  10245c:	e92d4800 	push	{fp, lr}
  102460:	e28db004 	add	fp, sp, #4
  102464:	e24dd008 	sub	sp, sp, #8
  102468:	e50b0008 	str	r0, [fp, #-8]
  10246c:	e51b0008 	ldr	r0, [fp, #-8]
  102470:	ebffff88 	bl	102298 <find_last_set_bit>
  102474:	e1a03000 	mov	r3, r0
  102478:	e1a00003 	mov	r0, r3
  10247c:	e24bd004 	sub	sp, fp, #4
  102480:	e8bd8800 	pop	{fp, pc}

00102484 <greatest_common_divisor>:
  102484:	e92d4800 	push	{fp, lr}
  102488:	e28db004 	add	fp, sp, #4
  10248c:	e24dd010 	sub	sp, sp, #16
  102490:	e50b0010 	str	r0, [fp, #-16]
  102494:	e50b1014 	str	r1, [fp, #-20]	; 0xffffffec
  102498:	e3a03001 	mov	r3, #1
  10249c:	e50b300c 	str	r3, [fp, #-12]
  1024a0:	e51b3010 	ldr	r3, [fp, #-16]
  1024a4:	e3530000 	cmp	r3, #0
  1024a8:	0a000002 	beq	1024b8 <greatest_common_divisor+0x34>
  1024ac:	e51b3014 	ldr	r3, [fp, #-20]	; 0xffffffec
  1024b0:	e3530000 	cmp	r3, #0
  1024b4:	1a000005 	bne	1024d0 <greatest_common_divisor+0x4c>
  1024b8:	e51b2014 	ldr	r2, [fp, #-20]	; 0xffffffec
  1024bc:	e51b3010 	ldr	r3, [fp, #-16]
  1024c0:	e1520003 	cmp	r2, r3
  1024c4:	21a03002 	movcs	r3, r2
  1024c8:	31a03003 	movcc	r3, r3
  1024cc:	ea00001e 	b	10254c <greatest_common_divisor+0xc8>
  1024d0:	e3a03001 	mov	r3, #1
  1024d4:	e50b3008 	str	r3, [fp, #-8]
  1024d8:	ea000012 	b	102528 <greatest_common_divisor+0xa4>
  1024dc:	e51b3010 	ldr	r3, [fp, #-16]
  1024e0:	e51b1008 	ldr	r1, [fp, #-8]
  1024e4:	e1a00003 	mov	r0, r3
  1024e8:	eb0057f2 	bl	1184b8 <__aeabi_uidivmod>
  1024ec:	e1a03001 	mov	r3, r1
  1024f0:	e3530000 	cmp	r3, #0
  1024f4:	1a000008 	bne	10251c <greatest_common_divisor+0x98>
  1024f8:	e51b3014 	ldr	r3, [fp, #-20]	; 0xffffffec
  1024fc:	e51b1008 	ldr	r1, [fp, #-8]
  102500:	e1a00003 	mov	r0, r3
  102504:	eb0057eb 	bl	1184b8 <__aeabi_uidivmod>
  102508:	e1a03001 	mov	r3, r1
  10250c:	e3530000 	cmp	r3, #0
  102510:	1a000001 	bne	10251c <greatest_common_divisor+0x98>
  102514:	e51b3008 	ldr	r3, [fp, #-8]
  102518:	e50b300c 	str	r3, [fp, #-12]
  10251c:	e51b3008 	ldr	r3, [fp, #-8]
  102520:	e2833001 	add	r3, r3, #1
  102524:	e50b3008 	str	r3, [fp, #-8]
  102528:	e51b2008 	ldr	r2, [fp, #-8]
  10252c:	e51b3010 	ldr	r3, [fp, #-16]
  102530:	e1520003 	cmp	r2, r3
  102534:	8a000003 	bhi	102548 <greatest_common_divisor+0xc4>
  102538:	e51b2008 	ldr	r2, [fp, #-8]
  10253c:	e51b3014 	ldr	r3, [fp, #-20]	; 0xffffffec
  102540:	e1520003 	cmp	r2, r3
  102544:	9affffe4 	bls	1024dc <greatest_common_divisor+0x58>
  102548:	e51b300c 	ldr	r3, [fp, #-12]
  10254c:	e1a00003 	mov	r0, r3
  102550:	e24bd004 	sub	sp, fp, #4
  102554:	e8bd8800 	pop	{fp, pc}

00102558 <rational_best_approximation>:
  102558:	e92d4800 	push	{fp, lr}
  10255c:	e28db004 	add	fp, sp, #4
  102560:	e24dd018 	sub	sp, sp, #24
  102564:	e50b0010 	str	r0, [fp, #-16]
  102568:	e50b1014 	str	r1, [fp, #-20]	; 0xffffffec
  10256c:	e50b2018 	str	r2, [fp, #-24]	; 0xffffffe8
  102570:	e50b301c 	str	r3, [fp, #-28]	; 0xffffffe4
  102574:	e51b1014 	ldr	r1, [fp, #-20]	; 0xffffffec
  102578:	e51b0010 	ldr	r0, [fp, #-16]
  10257c:	ebffffc0 	bl	102484 <greatest_common_divisor>
  102580:	e50b0008 	str	r0, [fp, #-8]
  102584:	e51b1008 	ldr	r1, [fp, #-8]
  102588:	e51b0010 	ldr	r0, [fp, #-16]
  10258c:	eb00574e 	bl	1182cc <__aeabi_uidiv>
  102590:	e1a03000 	mov	r3, r0
  102594:	e1a02003 	mov	r2, r3
  102598:	e59b3004 	ldr	r3, [fp, #4]
  10259c:	e5832000 	str	r2, [r3]
  1025a0:	e51b1008 	ldr	r1, [fp, #-8]
  1025a4:	e51b0014 	ldr	r0, [fp, #-20]	; 0xffffffec
  1025a8:	eb005747 	bl	1182cc <__aeabi_uidiv>
  1025ac:	e1a03000 	mov	r3, r0
  1025b0:	e1a02003 	mov	r2, r3
  1025b4:	e59b3008 	ldr	r3, [fp, #8]
  1025b8:	e5832000 	str	r2, [r3]
  1025bc:	e59b3004 	ldr	r3, [fp, #4]
  1025c0:	e5932000 	ldr	r2, [r3]
  1025c4:	e51b3018 	ldr	r3, [fp, #-24]	; 0xffffffe8
  1025c8:	e1520003 	cmp	r2, r3
  1025cc:	8a000004 	bhi	1025e4 <rational_best_approximation+0x8c>
  1025d0:	e59b3008 	ldr	r3, [fp, #8]
  1025d4:	e5932000 	ldr	r2, [r3]
  1025d8:	e51b301c 	ldr	r3, [fp, #-28]	; 0xffffffe4
  1025dc:	e1520003 	cmp	r2, r3
  1025e0:	9a000005 	bls	1025fc <rational_best_approximation+0xa4>
  1025e4:	e59b3004 	ldr	r3, [fp, #4]
  1025e8:	e3a02000 	mov	r2, #0
  1025ec:	e5832000 	str	r2, [r3]
  1025f0:	e59b3008 	ldr	r3, [fp, #8]
  1025f4:	e3a02000 	mov	r2, #0
  1025f8:	e5832000 	str	r2, [r3]
  1025fc:	e320f000 	nop	{0}
  102600:	e24bd004 	sub	sp, fp, #4
  102604:	e8bd8800 	pop	{fp, pc}

00102608 <hweight8>:
  102608:	e52db004 	push	{fp}		; (str fp, [sp, #-4]!)
  10260c:	e28db000 	add	fp, sp, #0
  102610:	e24dd014 	sub	sp, sp, #20
  102614:	e50b0010 	str	r0, [fp, #-16]
  102618:	e3a03000 	mov	r3, #0
  10261c:	e50b3008 	str	r3, [fp, #-8]
  102620:	ea000009 	b	10264c <hweight8+0x44>
  102624:	e51b3010 	ldr	r3, [fp, #-16]
  102628:	e2033001 	and	r3, r3, #1
  10262c:	e3530000 	cmp	r3, #0
  102630:	0a000002 	beq	102640 <hweight8+0x38>
  102634:	e51b3008 	ldr	r3, [fp, #-8]
  102638:	e2833001 	add	r3, r3, #1
  10263c:	e50b3008 	str	r3, [fp, #-8]
  102640:	e51b3010 	ldr	r3, [fp, #-16]
  102644:	e1a030a3 	lsr	r3, r3, #1
  102648:	e50b3010 	str	r3, [fp, #-16]
  10264c:	e51b3010 	ldr	r3, [fp, #-16]
  102650:	e3530000 	cmp	r3, #0
  102654:	1afffff2 	bne	102624 <hweight8+0x1c>
  102658:	e51b3008 	ldr	r3, [fp, #-8]
  10265c:	e1a00003 	mov	r0, r3
  102660:	e24bd000 	sub	sp, fp, #0
  102664:	e49db004 	pop	{fp}		; (ldr fp, [sp], #4)
  102668:	e12fff1e 	bx	lr

0010266c <do_div>:
  10266c:	e92d4800 	push	{fp, lr}
  102670:	e28db004 	add	fp, sp, #4
  102674:	e24dd018 	sub	sp, sp, #24
  102678:	e50b0010 	str	r0, [fp, #-16]
  10267c:	e14b21fc 	strd	r2, [fp, #-28]	; 0xffffffe4
  102680:	f2c00010 	vmov.i32	d16, #0	; 0x00000000
  102684:	ed4b0b03 	vstr	d16, [fp, #-12]
  102688:	e51b3010 	ldr	r3, [fp, #-16]
  10268c:	e1c300d0 	ldrd	r0, [r3]
  102690:	e14b21dc 	ldrd	r2, [fp, #-28]	; 0xffffffe4
  102694:	eb005790 	bl	1184dc <__aeabi_uldivmod>
  102698:	e14b20fc 	strd	r2, [fp, #-12]
  10269c:	e51b3010 	ldr	r3, [fp, #-16]
  1026a0:	e1c300d0 	ldrd	r0, [r3]
  1026a4:	e14b21dc 	ldrd	r2, [fp, #-28]	; 0xffffffe4
  1026a8:	eb00578b 	bl	1184dc <__aeabi_uldivmod>
  1026ac:	e1a02000 	mov	r2, r0
  1026b0:	e1a03001 	mov	r3, r1
  1026b4:	e51b1010 	ldr	r1, [fp, #-16]
  1026b8:	e1c120f0 	strd	r2, [r1]
  1026bc:	e14b20dc 	ldrd	r2, [fp, #-12]
  1026c0:	e1a00002 	mov	r0, r2
  1026c4:	e1a01003 	mov	r1, r3
  1026c8:	e24bd004 	sub	sp, fp, #4
  1026cc:	e8bd8800 	pop	{fp, pc}

001026d0 <div64_u64_rem>:
  1026d0:	e92d4800 	push	{fp, lr}
  1026d4:	e28db004 	add	fp, sp, #4
  1026d8:	e24dd010 	sub	sp, sp, #16
  1026dc:	e14b00fc 	strd	r0, [fp, #-12]
  1026e0:	e14b21f4 	strd	r2, [fp, #-20]	; 0xffffffec
  1026e4:	e14b00dc 	ldrd	r0, [fp, #-12]
  1026e8:	e14b21d4 	ldrd	r2, [fp, #-20]	; 0xffffffec
  1026ec:	eb00577a 	bl	1184dc <__aeabi_uldivmod>
  1026f0:	e59b1004 	ldr	r1, [fp, #4]
  1026f4:	e1c120f0 	strd	r2, [r1]
  1026f8:	e14b21d4 	ldrd	r2, [fp, #-20]	; 0xffffffec
  1026fc:	e14b00dc 	ldrd	r0, [fp, #-12]
  102700:	eb005775 	bl	1184dc <__aeabi_uldivmod>
  102704:	e1a02000 	mov	r2, r0
  102708:	e1a03001 	mov	r3, r1
  10270c:	e1a00002 	mov	r0, r2
  102710:	e1a01003 	mov	r1, r3
  102714:	e24bd004 	sub	sp, fp, #4
  102718:	e8bd8800 	pop	{fp, pc}

0010271c <div_u64_rem>:
  10271c:	e92d4800 	push	{fp, lr}
  102720:	e28db004 	add	fp, sp, #4
  102724:	e24dd010 	sub	sp, sp, #16
  102728:	e14b00fc 	strd	r0, [fp, #-12]
  10272c:	e50b2010 	str	r2, [fp, #-16]
  102730:	e50b3014 	str	r3, [fp, #-20]	; 0xffffffec
  102734:	e51b3010 	ldr	r3, [fp, #-16]
  102738:	e1a02003 	mov	r2, r3
  10273c:	e3a03000 	mov	r3, #0
  102740:	e24b100c 	sub	r1, fp, #12
  102744:	e1a00001 	mov	r0, r1
  102748:	ebffffc7 	bl	10266c <do_div>
  10274c:	e1a02000 	mov	r2, r0
  102750:	e1a03001 	mov	r3, r1
  102754:	e51b3014 	ldr	r3, [fp, #-20]	; 0xffffffec
  102758:	e5832000 	str	r2, [r3]
  10275c:	e14b20dc 	ldrd	r2, [fp, #-12]
  102760:	e1a00002 	mov	r0, r2
  102764:	e1a01003 	mov	r1, r3
  102768:	e24bd004 	sub	sp, fp, #4
  10276c:	e8bd8800 	pop	{fp, pc}

00102770 <div_u64>:
  102770:	e92d4800 	push	{fp, lr}
  102774:	e28db004 	add	fp, sp, #4
  102778:	e24dd018 	sub	sp, sp, #24
  10277c:	e14b01f4 	strd	r0, [fp, #-20]	; 0xffffffec
  102780:	e50b2018 	str	r2, [fp, #-24]	; 0xffffffe8
  102784:	e24b3008 	sub	r3, fp, #8
  102788:	e51b2018 	ldr	r2, [fp, #-24]	; 0xffffffe8
  10278c:	e14b01d4 	ldrd	r0, [fp, #-20]	; 0xffffffec
  102790:	ebffffe1 	bl	10271c <div_u64_rem>
  102794:	e1a02000 	mov	r2, r0
  102798:	e1a03001 	mov	r3, r1
  10279c:	e1a00002 	mov	r0, r2
  1027a0:	e1a01003 	mov	r1, r3
  1027a4:	e24bd004 	sub	sp, fp, #4
  1027a8:	e8bd8800 	pop	{fp, pc}

001027ac <str_to_int32>:
  1027ac:	e92d4800 	push	{fp, lr}
  1027b0:	e28db004 	add	fp, sp, #4
  1027b4:	e24dd010 	sub	sp, sp, #16
  1027b8:	e50b0010 	str	r0, [fp, #-16]
  1027bc:	e24b300c 	sub	r3, fp, #12
  1027c0:	e3a02000 	mov	r2, #0
  1027c4:	e1a01003 	mov	r1, r3
  1027c8:	e51b0010 	ldr	r0, [fp, #-16]
  1027cc:	eb005b4b 	bl	119500 <strtol>
  1027d0:	e50b0008 	str	r0, [fp, #-8]
  1027d4:	e51b200c 	ldr	r2, [fp, #-12]
  1027d8:	e51b3010 	ldr	r3, [fp, #-16]
  1027dc:	e1520003 	cmp	r2, r3
  1027e0:	1a000001 	bne	1027ec <str_to_int32+0x40>
  1027e4:	e3e03015 	mvn	r3, #21
  1027e8:	ea000000 	b	1027f0 <str_to_int32+0x44>
  1027ec:	e51b3008 	ldr	r3, [fp, #-8]
  1027f0:	e1a00003 	mov	r0, r3
  1027f4:	e24bd004 	sub	sp, fp, #4
  1027f8:	e8bd8800 	pop	{fp, pc}

001027fc <srt_to_uint32>:
  1027fc:	e92d4800 	push	{fp, lr}
  102800:	e28db004 	add	fp, sp, #4
  102804:	e24dd010 	sub	sp, sp, #16
  102808:	e50b0010 	str	r0, [fp, #-16]
  10280c:	e24b300c 	sub	r3, fp, #12
  102810:	e3a02000 	mov	r2, #0
  102814:	e1a01003 	mov	r1, r3
  102818:	e51b0010 	ldr	r0, [fp, #-16]
  10281c:	eb005be5 	bl	1197b8 <strtoul>
  102820:	e50b0008 	str	r0, [fp, #-8]
  102824:	e51b200c 	ldr	r2, [fp, #-12]
  102828:	e51b3010 	ldr	r3, [fp, #-16]
  10282c:	e1520003 	cmp	r2, r3
  102830:	1a000001 	bne	10283c <srt_to_uint32+0x40>
  102834:	e3e03015 	mvn	r3, #21
  102838:	ea000000 	b	102840 <srt_to_uint32+0x44>
  10283c:	e51b3008 	ldr	r3, [fp, #-8]
  102840:	e1a00003 	mov	r0, r3
  102844:	e24bd004 	sub	sp, fp, #4
  102848:	e8bd8800 	pop	{fp, pc}

0010284c <spi_engine_write>:
  10284c:	e92d4800 	push	{fp, lr}
  102850:	e28db004 	add	fp, sp, #4
  102854:	e24dd010 	sub	sp, sp, #16
  102858:	e50b0008 	str	r0, [fp, #-8]
  10285c:	e50b100c 	str	r1, [fp, #-12]
  102860:	e50b2010 	str	r2, [fp, #-16]
  102864:	e51b3008 	ldr	r3, [fp, #-8]
  102868:	e5933014 	ldr	r3, [r3, #20]
  10286c:	e51b2010 	ldr	r2, [fp, #-16]
  102870:	e51b100c 	ldr	r1, [fp, #-12]
  102874:	e1a00003 	mov	r0, r3
  102878:	eb0009f9 	bl	105064 <axi_io_write>
  10287c:	e3a03000 	mov	r3, #0
  102880:	e1a00003 	mov	r0, r3
  102884:	e24bd004 	sub	sp, fp, #4
  102888:	e8bd8800 	pop	{fp, pc}

0010288c <spi_engine_read>:
  10288c:	e92d4800 	push	{fp, lr}
  102890:	e28db004 	add	fp, sp, #4
  102894:	e24dd010 	sub	sp, sp, #16
  102898:	e50b0008 	str	r0, [fp, #-8]
  10289c:	e50b100c 	str	r1, [fp, #-12]
  1028a0:	e50b2010 	str	r2, [fp, #-16]
  1028a4:	e51b3008 	ldr	r3, [fp, #-8]
  1028a8:	e5933014 	ldr	r3, [r3, #20]
  1028ac:	e51b2010 	ldr	r2, [fp, #-16]
  1028b0:	e51b100c 	ldr	r1, [fp, #-12]
  1028b4:	e1a00003 	mov	r0, r3
  1028b8:	eb0009d8 	bl	105020 <axi_io_read>
  1028bc:	e3a03000 	mov	r3, #0
  1028c0:	e1a00003 	mov	r0, r3
  1028c4:	e24bd004 	sub	sp, fp, #4
  1028c8:	e8bd8800 	pop	{fp, pc}

001028cc <spi_engine_set_transfer_width>:
  1028cc:	e52db004 	push	{fp}		; (str fp, [sp, #-4]!)
  1028d0:	e28db000 	add	fp, sp, #0
  1028d4:	e24dd014 	sub	sp, sp, #20
  1028d8:	e50b0010 	str	r0, [fp, #-16]
  1028dc:	e1a03001 	mov	r3, r1
  1028e0:	e54b3011 	strb	r3, [fp, #-17]	; 0xffffffef
  1028e4:	e51b3010 	ldr	r3, [fp, #-16]
  1028e8:	e593300c 	ldr	r3, [r3, #12]
  1028ec:	e50b3008 	str	r3, [fp, #-8]
  1028f0:	e51b3008 	ldr	r3, [fp, #-8]
  1028f4:	e5d33029 	ldrb	r3, [r3, #41]	; 0x29
  1028f8:	e55b2011 	ldrb	r2, [fp, #-17]	; 0xffffffef
  1028fc:	e1520003 	cmp	r2, r3
  102900:	9a000004 	bls	102918 <spi_engine_set_transfer_width+0x4c>
  102904:	e51b3008 	ldr	r3, [fp, #-8]
  102908:	e5d32029 	ldrb	r2, [r3, #41]	; 0x29
  10290c:	e51b3008 	ldr	r3, [fp, #-8]
  102910:	e5c32028 	strb	r2, [r3, #40]	; 0x28
  102914:	ea000002 	b	102924 <spi_engine_set_transfer_width+0x58>
  102918:	e51b3008 	ldr	r3, [fp, #-8]
  10291c:	e55b2011 	ldrb	r2, [fp, #-17]	; 0xffffffef
  102920:	e5c32028 	strb	r2, [r3, #40]	; 0x28
  102924:	e3a03000 	mov	r3, #0
  102928:	e1a00003 	mov	r0, r3
  10292c:	e24bd000 	sub	sp, fp, #0
  102930:	e49db004 	pop	{fp}		; (ldr fp, [sp], #4)
  102934:	e12fff1e 	bx	lr

00102938 <spi_engine_set_speed>:
  102938:	e92d4800 	push	{fp, lr}
  10293c:	e28db004 	add	fp, sp, #4
  102940:	e24dd010 	sub	sp, sp, #16
  102944:	e50b0010 	str	r0, [fp, #-16]
  102948:	e50b1014 	str	r1, [fp, #-20]	; 0xffffffec
  10294c:	e51b3010 	ldr	r3, [fp, #-16]
  102950:	e593300c 	ldr	r3, [r3, #12]
  102954:	e50b3008 	str	r3, [fp, #-8]
  102958:	e51b3008 	ldr	r3, [fp, #-8]
  10295c:	e5932000 	ldr	r2, [r3]
  102960:	e51b3014 	ldr	r3, [fp, #-20]	; 0xffffffec
  102964:	e1a03083 	lsl	r3, r3, #1
  102968:	e1a01003 	mov	r1, r3
  10296c:	e1a00002 	mov	r0, r2
  102970:	eb005655 	bl	1182cc <__aeabi_uidiv>
  102974:	e1a03000 	mov	r3, r0
  102978:	e2432001 	sub	r2, r3, #1
  10297c:	e51b3008 	ldr	r3, [fp, #-8]
  102980:	e5832024 	str	r2, [r3, #36]	; 0x24
  102984:	e320f000 	nop	{0}
  102988:	e24bd004 	sub	sp, fp, #4
  10298c:	e8bd8800 	pop	{fp, pc}

00102990 <spi_get_words_number>:
  102990:	e92d4800 	push	{fp, lr}
  102994:	e28db004 	add	fp, sp, #4
  102998:	e24dd010 	sub	sp, sp, #16
  10299c:	e50b0010 	str	r0, [fp, #-16]
  1029a0:	e1a03001 	mov	r3, r1
  1029a4:	e54b3011 	strb	r3, [fp, #-17]	; 0xffffffef
  1029a8:	e51b3010 	ldr	r3, [fp, #-16]
  1029ac:	e5d33028 	ldrb	r3, [r3, #40]	; 0x28
  1029b0:	e1a031a3 	lsr	r3, r3, #3
  1029b4:	e54b3005 	strb	r3, [fp, #-5]
  1029b8:	e55b3005 	ldrb	r3, [fp, #-5]
  1029bc:	e3530000 	cmp	r3, #0
  1029c0:	1a000001 	bne	1029cc <spi_get_words_number+0x3c>
  1029c4:	e3a03001 	mov	r3, #1
  1029c8:	e54b3005 	strb	r3, [fp, #-5]
  1029cc:	e55b3011 	ldrb	r3, [fp, #-17]	; 0xffffffef
  1029d0:	e55b2005 	ldrb	r2, [fp, #-5]
  1029d4:	e1a01002 	mov	r1, r2
  1029d8:	e1a00003 	mov	r0, r3
  1029dc:	eb00563a 	bl	1182cc <__aeabi_uidiv>
  1029e0:	e1a03000 	mov	r3, r0
  1029e4:	e54b3006 	strb	r3, [fp, #-6]
  1029e8:	e55b3011 	ldrb	r3, [fp, #-17]	; 0xffffffef
  1029ec:	e55b2005 	ldrb	r2, [fp, #-5]
  1029f0:	e1a01002 	mov	r1, r2
  1029f4:	e1a00003 	mov	r0, r3
  1029f8:	eb0056ae 	bl	1184b8 <__aeabi_uidivmod>
  1029fc:	e1a03001 	mov	r3, r1
  102a00:	e6ef3073 	uxtb	r3, r3
  102a04:	e3530000 	cmp	r3, #0
  102a08:	0a000002 	beq	102a18 <spi_get_words_number+0x88>
  102a0c:	e55b3006 	ldrb	r3, [fp, #-6]
  102a10:	e2833001 	add	r3, r3, #1
  102a14:	e54b3006 	strb	r3, [fp, #-6]
  102a18:	e55b3006 	ldrb	r3, [fp, #-6]
  102a1c:	e1a00003 	mov	r0, r3
  102a20:	e24bd004 	sub	sp, fp, #4
  102a24:	e8bd8800 	pop	{fp, pc}

00102a28 <spi_get_word_lenght>:
  102a28:	e52db004 	push	{fp}		; (str fp, [sp, #-4]!)
  102a2c:	e28db000 	add	fp, sp, #0
  102a30:	e24dd014 	sub	sp, sp, #20
  102a34:	e50b0010 	str	r0, [fp, #-16]
  102a38:	e51b3010 	ldr	r3, [fp, #-16]
  102a3c:	e5d33028 	ldrb	r3, [r3, #40]	; 0x28
  102a40:	e1a031a3 	lsr	r3, r3, #3
  102a44:	e54b3005 	strb	r3, [fp, #-5]
  102a48:	e55b3005 	ldrb	r3, [fp, #-5]
  102a4c:	e3530000 	cmp	r3, #0
  102a50:	0a000001 	beq	102a5c <spi_get_word_lenght+0x34>
  102a54:	e55b3005 	ldrb	r3, [fp, #-5]
  102a58:	ea000000 	b	102a60 <spi_get_word_lenght+0x38>
  102a5c:	e3a03001 	mov	r3, #1
  102a60:	e1a00003 	mov	r0, r3
  102a64:	e24bd000 	sub	sp, fp, #0
  102a68:	e49db004 	pop	{fp}		; (ldr fp, [sp], #4)
  102a6c:	e12fff1e 	bx	lr

00102a70 <spi_get_sleep_div>:
  102a70:	e92d4800 	push	{fp, lr}
  102a74:	e28db004 	add	fp, sp, #4
  102a78:	e24dd018 	sub	sp, sp, #24
  102a7c:	e50b0010 	str	r0, [fp, #-16]
  102a80:	e50b1014 	str	r1, [fp, #-20]	; 0xffffffec
  102a84:	e50b2018 	str	r2, [fp, #-24]	; 0xffffffe8
  102a88:	e51b3010 	ldr	r3, [fp, #-16]
  102a8c:	e593300c 	ldr	r3, [r3, #12]
  102a90:	e50b3008 	str	r3, [fp, #-8]
  102a94:	e51b3010 	ldr	r3, [fp, #-16]
  102a98:	e5932000 	ldr	r2, [r3]
  102a9c:	e30d3e83 	movw	r3, #56963	; 0xde83
  102aa0:	e344331b 	movt	r3, #17179	; 0x431b
  102aa4:	e0832392 	umull	r2, r3, r2, r3
  102aa8:	e1a03923 	lsr	r3, r3, #18
  102aac:	e51b2014 	ldr	r2, [fp, #-20]	; 0xffffffec
  102ab0:	e0020392 	mul	r2, r2, r3
  102ab4:	e3043dd3 	movw	r3, #19923	; 0x4dd3
  102ab8:	e3413062 	movt	r3, #4194	; 0x1062
  102abc:	e0832392 	umull	r2, r3, r2, r3
  102ac0:	e1a02323 	lsr	r2, r3, #6
  102ac4:	e51b3008 	ldr	r3, [fp, #-8]
  102ac8:	e5933024 	ldr	r3, [r3, #36]	; 0x24
  102acc:	e2833001 	add	r3, r3, #1
  102ad0:	e1a03083 	lsl	r3, r3, #1
  102ad4:	e1a01003 	mov	r1, r3
  102ad8:	e1a00002 	mov	r0, r2
  102adc:	eb0055fa 	bl	1182cc <__aeabi_uidiv>
  102ae0:	e1a03000 	mov	r3, r0
  102ae4:	e2432001 	sub	r2, r3, #1
  102ae8:	e51b3018 	ldr	r3, [fp, #-24]	; 0xffffffe8
  102aec:	e5832000 	str	r2, [r3]
  102af0:	e3a03000 	mov	r3, #0
  102af4:	e1a00003 	mov	r0, r3
  102af8:	e24bd004 	sub	sp, fp, #4
  102afc:	e8bd8800 	pop	{fp, pc}

00102b00 <spi_engine_queue_new_cmd>:
  102b00:	e92d4800 	push	{fp, lr}
  102b04:	e28db004 	add	fp, sp, #4
  102b08:	e24dd010 	sub	sp, sp, #16
  102b0c:	e50b0010 	str	r0, [fp, #-16]
  102b10:	e50b1014 	str	r1, [fp, #-20]	; 0xffffffec
  102b14:	e3a00008 	mov	r0, #8
  102b18:	eb0056f4 	bl	1186f0 <malloc>
  102b1c:	e1a03000 	mov	r3, r0
  102b20:	e50b3008 	str	r3, [fp, #-8]
  102b24:	e51b3008 	ldr	r3, [fp, #-8]
  102b28:	e3530000 	cmp	r3, #0
  102b2c:	1a000001 	bne	102b38 <spi_engine_queue_new_cmd+0x38>
  102b30:	e3e03000 	mvn	r3, #0
  102b34:	ea000009 	b	102b60 <spi_engine_queue_new_cmd+0x60>
  102b38:	e51b3008 	ldr	r3, [fp, #-8]
  102b3c:	e51b2014 	ldr	r2, [fp, #-20]	; 0xffffffec
  102b40:	e5832000 	str	r2, [r3]
  102b44:	e51b3008 	ldr	r3, [fp, #-8]
  102b48:	e3a02000 	mov	r2, #0
  102b4c:	e5832004 	str	r2, [r3, #4]
  102b50:	e51b3010 	ldr	r3, [fp, #-16]
  102b54:	e51b2008 	ldr	r2, [fp, #-8]
  102b58:	e5832000 	str	r2, [r3]
  102b5c:	e3a03000 	mov	r3, #0
  102b60:	e1a00003 	mov	r0, r3
  102b64:	e24bd004 	sub	sp, fp, #4
  102b68:	e8bd8800 	pop	{fp, pc}

00102b6c <spi_engine_queue_add_cmd>:
  102b6c:	e92d4800 	push	{fp, lr}
  102b70:	e28db004 	add	fp, sp, #4
  102b74:	e24dd010 	sub	sp, sp, #16
  102b78:	e50b0010 	str	r0, [fp, #-16]
  102b7c:	e50b1014 	str	r1, [fp, #-20]	; 0xffffffec
  102b80:	e3a03000 	mov	r3, #0
  102b84:	e50b300c 	str	r3, [fp, #-12]
  102b88:	e51b3010 	ldr	r3, [fp, #-16]
  102b8c:	e5933000 	ldr	r3, [r3]
  102b90:	e50b3008 	str	r3, [fp, #-8]
  102b94:	ea000002 	b	102ba4 <spi_engine_queue_add_cmd+0x38>
  102b98:	e51b3008 	ldr	r3, [fp, #-8]
  102b9c:	e5933004 	ldr	r3, [r3, #4]
  102ba0:	e50b3008 	str	r3, [fp, #-8]
  102ba4:	e51b3008 	ldr	r3, [fp, #-8]
  102ba8:	e5933004 	ldr	r3, [r3, #4]
  102bac:	e3530000 	cmp	r3, #0
  102bb0:	1afffff8 	bne	102b98 <spi_engine_queue_add_cmd+0x2c>
  102bb4:	e24b300c 	sub	r3, fp, #12
  102bb8:	e51b1014 	ldr	r1, [fp, #-20]	; 0xffffffec
  102bbc:	e1a00003 	mov	r0, r3
  102bc0:	ebffffce 	bl	102b00 <spi_engine_queue_new_cmd>
  102bc4:	e51b200c 	ldr	r2, [fp, #-12]
  102bc8:	e51b3008 	ldr	r3, [fp, #-8]
  102bcc:	e5832004 	str	r2, [r3, #4]
  102bd0:	e320f000 	nop	{0}
  102bd4:	e24bd004 	sub	sp, fp, #4
  102bd8:	e8bd8800 	pop	{fp, pc}

00102bdc <spi_engine_queue_append_cmd>:
  102bdc:	e92d4800 	push	{fp, lr}
  102be0:	e28db004 	add	fp, sp, #4
  102be4:	e24dd010 	sub	sp, sp, #16
  102be8:	e50b0010 	str	r0, [fp, #-16]
  102bec:	e50b1014 	str	r1, [fp, #-20]	; 0xffffffec
  102bf0:	e3a03000 	mov	r3, #0
  102bf4:	e50b3008 	str	r3, [fp, #-8]
  102bf8:	e24b3008 	sub	r3, fp, #8
  102bfc:	e51b1014 	ldr	r1, [fp, #-20]	; 0xffffffec
  102c00:	e1a00003 	mov	r0, r3
  102c04:	ebffffbd 	bl	102b00 <spi_engine_queue_new_cmd>
  102c08:	e51b3008 	ldr	r3, [fp, #-8]
  102c0c:	e51b2010 	ldr	r2, [fp, #-16]
  102c10:	e5922000 	ldr	r2, [r2]
  102c14:	e5832004 	str	r2, [r3, #4]
  102c18:	e51b2008 	ldr	r2, [fp, #-8]
  102c1c:	e51b3010 	ldr	r3, [fp, #-16]
  102c20:	e5832000 	str	r2, [r3]
  102c24:	e320f000 	nop	{0}
  102c28:	e24bd004 	sub	sp, fp, #4
  102c2c:	e8bd8800 	pop	{fp, pc}

00102c30 <spi_engine_queue_get_cmd>:
  102c30:	e92d4800 	push	{fp, lr}
  102c34:	e28db004 	add	fp, sp, #4
  102c38:	e24dd010 	sub	sp, sp, #16
  102c3c:	e50b0010 	str	r0, [fp, #-16]
  102c40:	e50b1014 	str	r1, [fp, #-20]	; 0xffffffec
  102c44:	e51b3010 	ldr	r3, [fp, #-16]
  102c48:	e5933000 	ldr	r3, [r3]
  102c4c:	e3530000 	cmp	r3, #0
  102c50:	1a000001 	bne	102c5c <spi_engine_queue_get_cmd+0x2c>
  102c54:	e3e03000 	mvn	r3, #0
  102c58:	ea00001a 	b	102cc8 <spi_engine_queue_get_cmd+0x98>
  102c5c:	e51b3010 	ldr	r3, [fp, #-16]
  102c60:	e5933000 	ldr	r3, [r3]
  102c64:	e50b3008 	str	r3, [fp, #-8]
  102c68:	e51b3008 	ldr	r3, [fp, #-8]
  102c6c:	e5932000 	ldr	r2, [r3]
  102c70:	e51b3014 	ldr	r3, [fp, #-20]	; 0xffffffec
  102c74:	e5832000 	str	r2, [r3]
  102c78:	e51b3010 	ldr	r3, [fp, #-16]
  102c7c:	e5933000 	ldr	r3, [r3]
  102c80:	e5933004 	ldr	r3, [r3, #4]
  102c84:	e3530000 	cmp	r3, #0
  102c88:	0a000006 	beq	102ca8 <spi_engine_queue_get_cmd+0x78>
  102c8c:	e51b3008 	ldr	r3, [fp, #-8]
  102c90:	e5932004 	ldr	r2, [r3, #4]
  102c94:	e51b3010 	ldr	r3, [fp, #-16]
  102c98:	e5832000 	str	r2, [r3]
  102c9c:	e51b0008 	ldr	r0, [fp, #-8]
  102ca0:	eb005698 	bl	118708 <free>
  102ca4:	ea000006 	b	102cc4 <spi_engine_queue_get_cmd+0x94>
  102ca8:	e51b3010 	ldr	r3, [fp, #-16]
  102cac:	e5933000 	ldr	r3, [r3]
  102cb0:	e1a00003 	mov	r0, r3
  102cb4:	eb005693 	bl	118708 <free>
  102cb8:	e51b3010 	ldr	r3, [fp, #-16]
  102cbc:	e3a02000 	mov	r2, #0
  102cc0:	e5832000 	str	r2, [r3]
  102cc4:	e3a03000 	mov	r3, #0
  102cc8:	e1a00003 	mov	r0, r3
  102ccc:	e24bd004 	sub	sp, fp, #4
  102cd0:	e8bd8800 	pop	{fp, pc}

00102cd4 <spi_engine_queue_free>:
  102cd4:	e92d4800 	push	{fp, lr}
  102cd8:	e28db004 	add	fp, sp, #4
  102cdc:	e24dd008 	sub	sp, sp, #8
  102ce0:	e50b0008 	str	r0, [fp, #-8]
  102ce4:	e51b3008 	ldr	r3, [fp, #-8]
  102ce8:	e5933000 	ldr	r3, [r3]
  102cec:	e3530000 	cmp	r3, #0
  102cf0:	0a000009 	beq	102d1c <spi_engine_queue_free+0x48>
  102cf4:	e51b3008 	ldr	r3, [fp, #-8]
  102cf8:	e5933000 	ldr	r3, [r3]
  102cfc:	e5933004 	ldr	r3, [r3, #4]
  102d00:	e3530000 	cmp	r3, #0
  102d04:	0a000004 	beq	102d1c <spi_engine_queue_free+0x48>
  102d08:	e51b3008 	ldr	r3, [fp, #-8]
  102d0c:	e5933000 	ldr	r3, [r3]
  102d10:	e2833004 	add	r3, r3, #4
  102d14:	e1a00003 	mov	r0, r3
  102d18:	ebffffed 	bl	102cd4 <spi_engine_queue_free>
  102d1c:	e51b3008 	ldr	r3, [fp, #-8]
  102d20:	e5933000 	ldr	r3, [r3]
  102d24:	e3530000 	cmp	r3, #0
  102d28:	0a000006 	beq	102d48 <spi_engine_queue_free+0x74>
  102d2c:	e51b3008 	ldr	r3, [fp, #-8]
  102d30:	e5933000 	ldr	r3, [r3]
  102d34:	e1a00003 	mov	r0, r3
  102d38:	eb005672 	bl	118708 <free>
  102d3c:	e51b3008 	ldr	r3, [fp, #-8]
  102d40:	e3a02000 	mov	r2, #0
  102d44:	e5832000 	str	r2, [r3]
  102d48:	e3a03000 	mov	r3, #0
  102d4c:	e1a00003 	mov	r0, r3
  102d50:	e24bd004 	sub	sp, fp, #4
  102d54:	e8bd8800 	pop	{fp, pc}

00102d58 <spi_engine_write_cmd_reg>:
  102d58:	e92d4800 	push	{fp, lr}
  102d5c:	e28db004 	add	fp, sp, #4
  102d60:	e24dd010 	sub	sp, sp, #16
  102d64:	e50b0010 	str	r0, [fp, #-16]
  102d68:	e50b1014 	str	r1, [fp, #-20]	; 0xffffffec
  102d6c:	e51b3010 	ldr	r3, [fp, #-16]
  102d70:	e5d33010 	ldrb	r3, [r3, #16]
  102d74:	e2033003 	and	r3, r3, #3
  102d78:	e3530000 	cmp	r3, #0
  102d7c:	0a000005 	beq	102d98 <spi_engine_write_cmd_reg+0x40>
  102d80:	e51b2014 	ldr	r2, [fp, #-20]	; 0xffffffec
  102d84:	e3a01e11 	mov	r1, #272	; 0x110
  102d88:	e51b0010 	ldr	r0, [fp, #-16]
  102d8c:	ebfffeae 	bl	10284c <spi_engine_write>
  102d90:	e50b0008 	str	r0, [fp, #-8]
  102d94:	ea000004 	b	102dac <spi_engine_write_cmd_reg+0x54>
  102d98:	e51b2014 	ldr	r2, [fp, #-20]	; 0xffffffec
  102d9c:	e3a010e0 	mov	r1, #224	; 0xe0
  102da0:	e51b0010 	ldr	r0, [fp, #-16]
  102da4:	ebfffea8 	bl	10284c <spi_engine_write>
  102da8:	e50b0008 	str	r0, [fp, #-8]
  102dac:	e51b3008 	ldr	r3, [fp, #-8]
  102db0:	e1a00003 	mov	r0, r3
  102db4:	e24bd004 	sub	sp, fp, #4
  102db8:	e8bd8800 	pop	{fp, pc}

00102dbc <spi_engine_transfer>:
  102dbc:	e92d4800 	push	{fp, lr}
  102dc0:	e28db004 	add	fp, sp, #4
  102dc4:	e24dd010 	sub	sp, sp, #16
  102dc8:	e50b0010 	str	r0, [fp, #-16]
  102dcc:	e1a03001 	mov	r3, r1
  102dd0:	e54b3011 	strb	r3, [fp, #-17]	; 0xffffffef
  102dd4:	e1a03002 	mov	r3, r2
  102dd8:	e54b3012 	strb	r3, [fp, #-18]	; 0xffffffee
  102ddc:	e55b3012 	ldrb	r3, [fp, #-18]	; 0xffffffee
  102de0:	e1a01003 	mov	r1, r3
  102de4:	e51b0010 	ldr	r0, [fp, #-16]
  102de8:	ebfffee8 	bl	102990 <spi_get_words_number>
  102dec:	e1a03000 	mov	r3, r0
  102df0:	e54b3005 	strb	r3, [fp, #-5]
  102df4:	e51b3010 	ldr	r3, [fp, #-16]
  102df8:	e5d32011 	ldrb	r2, [r3, #17]
  102dfc:	e55b3005 	ldrb	r3, [fp, #-5]
  102e00:	e0823003 	add	r3, r2, r3
  102e04:	e6ef2073 	uxtb	r2, r3
  102e08:	e51b3010 	ldr	r3, [fp, #-16]
  102e0c:	e5c32011 	strb	r2, [r3, #17]
  102e10:	e55b3011 	ldrb	r3, [fp, #-17]	; 0xffffffef
  102e14:	e1a03403 	lsl	r3, r3, #8
  102e18:	e2032c03 	and	r2, r3, #768	; 0x300
  102e1c:	e55b3005 	ldrb	r3, [fp, #-5]
  102e20:	e2433001 	sub	r3, r3, #1
  102e24:	e1823003 	orr	r3, r2, r3
  102e28:	e1a01003 	mov	r1, r3
  102e2c:	e51b0010 	ldr	r0, [fp, #-16]
  102e30:	ebffffc8 	bl	102d58 <spi_engine_write_cmd_reg>
  102e34:	e3a03000 	mov	r3, #0
  102e38:	e1a00003 	mov	r0, r3
  102e3c:	e24bd004 	sub	sp, fp, #4
  102e40:	e8bd8800 	pop	{fp, pc}

00102e44 <spi_engine_set_cs>:
  102e44:	e92d4800 	push	{fp, lr}
  102e48:	e28db004 	add	fp, sp, #4
  102e4c:	e24dd010 	sub	sp, sp, #16
  102e50:	e50b0010 	str	r0, [fp, #-16]
  102e54:	e1a03001 	mov	r3, r1
  102e58:	e54b3011 	strb	r3, [fp, #-17]	; 0xffffffef
  102e5c:	e51b3010 	ldr	r3, [fp, #-16]
  102e60:	e593300c 	ldr	r3, [r3, #12]
  102e64:	e50b300c 	str	r3, [fp, #-12]
  102e68:	e3e03000 	mvn	r3, #0
  102e6c:	e54b3005 	strb	r3, [fp, #-5]
  102e70:	e55b3011 	ldrb	r3, [fp, #-17]	; 0xffffffef
  102e74:	e2233001 	eor	r3, r3, #1
  102e78:	e6ef3073 	uxtb	r3, r3
  102e7c:	e3530000 	cmp	r3, #0
  102e80:	0a000009 	beq	102eac <spi_engine_set_cs+0x68>
  102e84:	e51b3010 	ldr	r3, [fp, #-16]
  102e88:	e5d33004 	ldrb	r3, [r3, #4]
  102e8c:	e1a02003 	mov	r2, r3
  102e90:	e3a03001 	mov	r3, #1
  102e94:	e1a03213 	lsl	r3, r3, r2
  102e98:	e6af2073 	sxtb	r2, r3
  102e9c:	e15b30d5 	ldrsb	r3, [fp, #-5]
  102ea0:	e0233002 	eor	r3, r3, r2
  102ea4:	e6af3073 	sxtb	r3, r3
  102ea8:	e54b3005 	strb	r3, [fp, #-5]
  102eac:	e51b300c 	ldr	r3, [fp, #-12]
  102eb0:	e5d33020 	ldrb	r3, [r3, #32]
  102eb4:	e1a03403 	lsl	r3, r3, #8
  102eb8:	e2033c03 	and	r3, r3, #768	; 0x300
  102ebc:	e3832a01 	orr	r2, r3, #4096	; 0x1000
  102ec0:	e55b3005 	ldrb	r3, [fp, #-5]
  102ec4:	e1823003 	orr	r3, r2, r3
  102ec8:	e1a01003 	mov	r1, r3
  102ecc:	e51b000c 	ldr	r0, [fp, #-12]
  102ed0:	ebffffa0 	bl	102d58 <spi_engine_write_cmd_reg>
  102ed4:	e320f000 	nop	{0}
  102ed8:	e24bd004 	sub	sp, fp, #4
  102edc:	e8bd8800 	pop	{fp, pc}

00102ee0 <spi_gen_sleep_ns>:
  102ee0:	e92d4800 	push	{fp, lr}
  102ee4:	e28db004 	add	fp, sp, #4
  102ee8:	e24dd010 	sub	sp, sp, #16
  102eec:	e50b0010 	str	r0, [fp, #-16]
  102ef0:	e50b1014 	str	r1, [fp, #-20]	; 0xffffffec
  102ef4:	e51b3010 	ldr	r3, [fp, #-16]
  102ef8:	e593300c 	ldr	r3, [r3, #12]
  102efc:	e50b3008 	str	r3, [fp, #-8]
  102f00:	e24b300c 	sub	r3, fp, #12
  102f04:	e1a02003 	mov	r2, r3
  102f08:	e51b1014 	ldr	r1, [fp, #-20]	; 0xffffffec
  102f0c:	e51b0010 	ldr	r0, [fp, #-16]
  102f10:	ebfffed6 	bl	102a70 <spi_get_sleep_div>
  102f14:	e51b300c 	ldr	r3, [fp, #-12]
  102f18:	e3833c31 	orr	r3, r3, #12544	; 0x3100
  102f1c:	e1a01003 	mov	r1, r3
  102f20:	e51b0008 	ldr	r0, [fp, #-8]
  102f24:	ebffff8b 	bl	102d58 <spi_engine_write_cmd_reg>
  102f28:	e320f000 	nop	{0}
  102f2c:	e24bd004 	sub	sp, fp, #4
  102f30:	e8bd8800 	pop	{fp, pc}

00102f34 <spi_engine_write_cmd>:
  102f34:	e92d4800 	push	{fp, lr}
  102f38:	e28db004 	add	fp, sp, #4
  102f3c:	e24dd010 	sub	sp, sp, #16
  102f40:	e50b0010 	str	r0, [fp, #-16]
  102f44:	e50b1014 	str	r1, [fp, #-20]	; 0xffffffec
  102f48:	e51b3010 	ldr	r3, [fp, #-16]
  102f4c:	e593300c 	ldr	r3, [r3, #12]
  102f50:	e50b3008 	str	r3, [fp, #-8]
  102f54:	e51b3014 	ldr	r3, [fp, #-20]	; 0xffffffec
  102f58:	e1a03623 	lsr	r3, r3, #12
  102f5c:	e6ef3073 	uxtb	r3, r3
  102f60:	e203300f 	and	r3, r3, #15
  102f64:	e54b3009 	strb	r3, [fp, #-9]
  102f68:	e51b3014 	ldr	r3, [fp, #-20]	; 0xffffffec
  102f6c:	e1a03423 	lsr	r3, r3, #8
  102f70:	e6ef3073 	uxtb	r3, r3
  102f74:	e203300f 	and	r3, r3, #15
  102f78:	e54b300a 	strb	r3, [fp, #-10]
  102f7c:	e51b3014 	ldr	r3, [fp, #-20]	; 0xffffffec
  102f80:	e54b300b 	strb	r3, [fp, #-11]
  102f84:	e55b3009 	ldrb	r3, [fp, #-9]
  102f88:	e3530003 	cmp	r3, #3
  102f8c:	979ff103 	ldrls	pc, [pc, r3, lsl #2]
  102f90:	ea00002a 	b	103040 <spi_engine_write_cmd+0x10c>
  102f94:	00102fa4 	.word	0x00102fa4
  102f98:	00102fbc 	.word	0x00102fbc
  102f9c:	00103030 	.word	0x00103030
  102fa0:	00102ff4 	.word	0x00102ff4
  102fa4:	e55b200b 	ldrb	r2, [fp, #-11]
  102fa8:	e55b300a 	ldrb	r3, [fp, #-10]
  102fac:	e1a01003 	mov	r1, r3
  102fb0:	e51b0008 	ldr	r0, [fp, #-8]
  102fb4:	ebffff80 	bl	102dbc <spi_engine_transfer>
  102fb8:	ea000025 	b	103054 <spi_engine_write_cmd+0x120>
  102fbc:	e55b300b 	ldrb	r3, [fp, #-11]
  102fc0:	e35300ff 	cmp	r3, #255	; 0xff
  102fc4:	1a000003 	bne	102fd8 <spi_engine_write_cmd+0xa4>
  102fc8:	e3a01001 	mov	r1, #1
  102fcc:	e51b0010 	ldr	r0, [fp, #-16]
  102fd0:	ebffff9b 	bl	102e44 <spi_engine_set_cs>
  102fd4:	ea00001b 	b	103048 <spi_engine_write_cmd+0x114>
  102fd8:	e55b300b 	ldrb	r3, [fp, #-11]
  102fdc:	e3530000 	cmp	r3, #0
  102fe0:	1a000018 	bne	103048 <spi_engine_write_cmd+0x114>
  102fe4:	e3a01000 	mov	r1, #0
  102fe8:	e51b0010 	ldr	r0, [fp, #-16]
  102fec:	ebffff94 	bl	102e44 <spi_engine_set_cs>
  102ff0:	ea000014 	b	103048 <spi_engine_write_cmd+0x114>
  102ff4:	e55b300a 	ldrb	r3, [fp, #-10]
  102ff8:	e3530000 	cmp	r3, #0
  102ffc:	1a000003 	bne	103010 <spi_engine_write_cmd+0xdc>
  103000:	e51b1014 	ldr	r1, [fp, #-20]	; 0xffffffec
  103004:	e51b0008 	ldr	r0, [fp, #-8]
  103008:	ebffff52 	bl	102d58 <spi_engine_write_cmd_reg>
  10300c:	ea00000f 	b	103050 <spi_engine_write_cmd+0x11c>
  103010:	e55b300a 	ldrb	r3, [fp, #-10]
  103014:	e3530001 	cmp	r3, #1
  103018:	1a00000c 	bne	103050 <spi_engine_write_cmd+0x11c>
  10301c:	e55b300b 	ldrb	r3, [fp, #-11]
  103020:	e1a01003 	mov	r1, r3
  103024:	e51b0010 	ldr	r0, [fp, #-16]
  103028:	ebffffac 	bl	102ee0 <spi_gen_sleep_ns>
  10302c:	ea000007 	b	103050 <spi_engine_write_cmd+0x11c>
  103030:	e51b1014 	ldr	r1, [fp, #-20]	; 0xffffffec
  103034:	e51b0008 	ldr	r0, [fp, #-8]
  103038:	ebffff46 	bl	102d58 <spi_engine_write_cmd_reg>
  10303c:	ea000004 	b	103054 <spi_engine_write_cmd+0x120>
  103040:	e3e03000 	mvn	r3, #0
  103044:	ea000003 	b	103058 <spi_engine_write_cmd+0x124>
  103048:	e320f000 	nop	{0}
  10304c:	ea000000 	b	103054 <spi_engine_write_cmd+0x120>
  103050:	e320f000 	nop	{0}
  103054:	e3a03000 	mov	r3, #0
  103058:	e1a00003 	mov	r0, r3
  10305c:	e24bd004 	sub	sp, fp, #4
  103060:	e8bd8800 	pop	{fp, pc}

00103064 <spi_engine_compile_message>:
  103064:	e92d4800 	push	{fp, lr}
  103068:	e28db004 	add	fp, sp, #4
  10306c:	e24dd010 	sub	sp, sp, #16
  103070:	e50b0010 	str	r0, [fp, #-16]
  103074:	e50b1014 	str	r1, [fp, #-20]	; 0xffffffec
  103078:	e51b3010 	ldr	r3, [fp, #-16]
  10307c:	e593300c 	ldr	r3, [r3, #12]
  103080:	e50b3008 	str	r3, [fp, #-8]
  103084:	e51b3014 	ldr	r3, [fp, #-20]	; 0xffffffec
  103088:	e283200c 	add	r2, r3, #12
  10308c:	e51b3008 	ldr	r3, [fp, #-8]
  103090:	e5d33028 	ldrb	r3, [r3, #40]	; 0x28
  103094:	e3833c22 	orr	r3, r3, #8704	; 0x2200
  103098:	e1a01003 	mov	r1, r3
  10309c:	e1a00002 	mov	r0, r2
  1030a0:	ebfffecd 	bl	102bdc <spi_engine_queue_append_cmd>
  1030a4:	e51b3014 	ldr	r3, [fp, #-20]	; 0xffffffec
  1030a8:	e283200c 	add	r2, r3, #12
  1030ac:	e51b3010 	ldr	r3, [fp, #-16]
  1030b0:	e5d33005 	ldrb	r3, [r3, #5]
  1030b4:	e3833c21 	orr	r3, r3, #8448	; 0x2100
  1030b8:	e1a01003 	mov	r1, r3
  1030bc:	e1a00002 	mov	r0, r2
  1030c0:	ebfffec5 	bl	102bdc <spi_engine_queue_append_cmd>
  1030c4:	e51b3014 	ldr	r3, [fp, #-20]	; 0xffffffec
  1030c8:	e283200c 	add	r2, r3, #12
  1030cc:	e51b3008 	ldr	r3, [fp, #-8]
  1030d0:	e5933024 	ldr	r3, [r3, #36]	; 0x24
  1030d4:	e3833a02 	orr	r3, r3, #8192	; 0x2000
  1030d8:	e1a01003 	mov	r1, r3
  1030dc:	e1a00002 	mov	r0, r2
  1030e0:	ebfffebd 	bl	102bdc <spi_engine_queue_append_cmd>
  1030e4:	e51b3014 	ldr	r3, [fp, #-20]	; 0xffffffec
  1030e8:	e283200c 	add	r2, r3, #12
  1030ec:	e304301c 	movw	r3, #16412	; 0x401c
  1030f0:	e3403012 	movt	r3, #18
  1030f4:	e5d33000 	ldrb	r3, [r3]
  1030f8:	e3833a03 	orr	r3, r3, #12288	; 0x3000
  1030fc:	e1a01003 	mov	r1, r3
  103100:	e1a00002 	mov	r0, r2
  103104:	ebfffe98 	bl	102b6c <spi_engine_queue_add_cmd>
  103108:	e3a03000 	mov	r3, #0
  10310c:	e1a00003 	mov	r0, r3
  103110:	e24bd004 	sub	sp, fp, #4
  103114:	e8bd8800 	pop	{fp, pc}

00103118 <spi_engine_transfer_message>:
  103118:	e92d4800 	push	{fp, lr}
  10311c:	e28db004 	add	fp, sp, #4
  103120:	e24dd020 	sub	sp, sp, #32
  103124:	e50b0020 	str	r0, [fp, #-32]	; 0xffffffe0
  103128:	e50b1024 	str	r1, [fp, #-36]	; 0xffffffdc
  10312c:	e51b3020 	ldr	r3, [fp, #-32]	; 0xffffffe0
  103130:	e593300c 	ldr	r3, [r3, #12]
  103134:	e50b300c 	str	r3, [fp, #-12]
  103138:	e51b1024 	ldr	r1, [fp, #-36]	; 0xffffffdc
  10313c:	e51b0020 	ldr	r0, [fp, #-32]	; 0xffffffe0
  103140:	ebffffc7 	bl	103064 <spi_engine_compile_message>
  103144:	e51b300c 	ldr	r3, [fp, #-12]
  103148:	e5d33010 	ldrb	r3, [r3, #16]
  10314c:	e2033003 	and	r3, r3, #3
  103150:	e3530000 	cmp	r3, #0
  103154:	13a03001 	movne	r3, #1
  103158:	03a03000 	moveq	r3, #0
  10315c:	e54b300d 	strb	r3, [fp, #-13]
  103160:	ea000009 	b	10318c <spi_engine_transfer_message+0x74>
  103164:	e51b3024 	ldr	r3, [fp, #-36]	; 0xffffffdc
  103168:	e283300c 	add	r3, r3, #12
  10316c:	e24b2014 	sub	r2, fp, #20
  103170:	e1a01002 	mov	r1, r2
  103174:	e1a00003 	mov	r0, r3
  103178:	ebfffeac 	bl	102c30 <spi_engine_queue_get_cmd>
  10317c:	e51b3014 	ldr	r3, [fp, #-20]	; 0xffffffec
  103180:	e1a01003 	mov	r1, r3
  103184:	e51b0020 	ldr	r0, [fp, #-32]	; 0xffffffe0
  103188:	ebffff69 	bl	102f34 <spi_engine_write_cmd>
  10318c:	e51b3024 	ldr	r3, [fp, #-36]	; 0xffffffdc
  103190:	e593300c 	ldr	r3, [r3, #12]
  103194:	e3530000 	cmp	r3, #0
  103198:	1afffff1 	bne	103164 <spi_engine_transfer_message+0x4c>
  10319c:	e55b300d 	ldrb	r3, [fp, #-13]
  1031a0:	e3530000 	cmp	r3, #0
  1031a4:	0a000016 	beq	103204 <spi_engine_transfer_message+0xec>
  1031a8:	e3a03000 	mov	r3, #0
  1031ac:	e50b3008 	str	r3, [fp, #-8]
  1031b0:	ea00000c 	b	1031e8 <spi_engine_transfer_message+0xd0>
  1031b4:	e51b3024 	ldr	r3, [fp, #-36]	; 0xffffffdc
  1031b8:	e5932000 	ldr	r2, [r3]
  1031bc:	e51b3008 	ldr	r3, [fp, #-8]
  1031c0:	e1a03103 	lsl	r3, r3, #2
  1031c4:	e0823003 	add	r3, r2, r3
  1031c8:	e5933000 	ldr	r3, [r3]
  1031cc:	e1a02003 	mov	r2, r3
  1031d0:	e3a01f45 	mov	r1, #276	; 0x114
  1031d4:	e51b000c 	ldr	r0, [fp, #-12]
  1031d8:	ebfffd9b 	bl	10284c <spi_engine_write>
  1031dc:	e51b3008 	ldr	r3, [fp, #-8]
  1031e0:	e2833001 	add	r3, r3, #1
  1031e4:	e50b3008 	str	r3, [fp, #-8]
  1031e8:	e51b300c 	ldr	r3, [fp, #-12]
  1031ec:	e5d33011 	ldrb	r3, [r3, #17]
  1031f0:	e1a02003 	mov	r2, r3
  1031f4:	e51b3008 	ldr	r3, [fp, #-8]
  1031f8:	e1520003 	cmp	r2, r3
  1031fc:	8affffec 	bhi	1031b4 <spi_engine_transfer_message+0x9c>
  103200:	ea00003f 	b	103304 <spi_engine_transfer_message+0x1ec>
  103204:	e3a03000 	mov	r3, #0
  103208:	e50b3008 	str	r3, [fp, #-8]
  10320c:	ea00000c 	b	103244 <spi_engine_transfer_message+0x12c>
  103210:	e51b3024 	ldr	r3, [fp, #-36]	; 0xffffffdc
  103214:	e5932000 	ldr	r2, [r3]
  103218:	e51b3008 	ldr	r3, [fp, #-8]
  10321c:	e1a03103 	lsl	r3, r3, #2
  103220:	e0823003 	add	r3, r2, r3
  103224:	e5933000 	ldr	r3, [r3]
  103228:	e1a02003 	mov	r2, r3
  10322c:	e3a010e4 	mov	r1, #228	; 0xe4
  103230:	e51b000c 	ldr	r0, [fp, #-12]
  103234:	ebfffd84 	bl	10284c <spi_engine_write>
  103238:	e51b3008 	ldr	r3, [fp, #-8]
  10323c:	e2833001 	add	r3, r3, #1
  103240:	e50b3008 	str	r3, [fp, #-8]
  103244:	e51b3024 	ldr	r3, [fp, #-36]	; 0xffffffdc
  103248:	e5932008 	ldr	r2, [r3, #8]
  10324c:	e51b3008 	ldr	r3, [fp, #-8]
  103250:	e1520003 	cmp	r2, r3
  103254:	8affffed 	bhi	103210 <spi_engine_transfer_message+0xf8>
  103258:	e24b3018 	sub	r3, fp, #24
  10325c:	e1a02003 	mov	r2, r3
  103260:	e3a010c0 	mov	r1, #192	; 0xc0
  103264:	e51b000c 	ldr	r0, [fp, #-12]
  103268:	ebfffd87 	bl	10288c <spi_engine_read>
  10326c:	e304301c 	movw	r3, #16412	; 0x401c
  103270:	e3403012 	movt	r3, #18
  103274:	e5d33000 	ldrb	r3, [r3]
  103278:	e1a02003 	mov	r2, r3
  10327c:	e51b3018 	ldr	r3, [fp, #-24]	; 0xffffffe8
  103280:	e1520003 	cmp	r2, r3
  103284:	1afffff3 	bne	103258 <spi_engine_transfer_message+0x140>
  103288:	e304301c 	movw	r3, #16412	; 0x401c
  10328c:	e3403012 	movt	r3, #18
  103290:	e5d33000 	ldrb	r3, [r3]
  103294:	e2833001 	add	r3, r3, #1
  103298:	e6ef2073 	uxtb	r2, r3
  10329c:	e304301c 	movw	r3, #16412	; 0x401c
  1032a0:	e3403012 	movt	r3, #18
  1032a4:	e5c32000 	strb	r2, [r3]
  1032a8:	e3a03000 	mov	r3, #0
  1032ac:	e50b3008 	str	r3, [fp, #-8]
  1032b0:	ea00000e 	b	1032f0 <spi_engine_transfer_message+0x1d8>
  1032b4:	e24b3014 	sub	r3, fp, #20
  1032b8:	e1a02003 	mov	r2, r3
  1032bc:	e3a010e8 	mov	r1, #232	; 0xe8
  1032c0:	e51b000c 	ldr	r0, [fp, #-12]
  1032c4:	ebfffd70 	bl	10288c <spi_engine_read>
  1032c8:	e51b3024 	ldr	r3, [fp, #-36]	; 0xffffffdc
  1032cc:	e5932004 	ldr	r2, [r3, #4]
  1032d0:	e51b3008 	ldr	r3, [fp, #-8]
  1032d4:	e1a03103 	lsl	r3, r3, #2
  1032d8:	e0823003 	add	r3, r2, r3
  1032dc:	e51b2014 	ldr	r2, [fp, #-20]	; 0xffffffec
  1032e0:	e5832000 	str	r2, [r3]
  1032e4:	e51b3008 	ldr	r3, [fp, #-8]
  1032e8:	e2833001 	add	r3, r3, #1
  1032ec:	e50b3008 	str	r3, [fp, #-8]
  1032f0:	e51b3024 	ldr	r3, [fp, #-36]	; 0xffffffdc
  1032f4:	e5932008 	ldr	r2, [r3, #8]
  1032f8:	e51b3008 	ldr	r3, [fp, #-8]
  1032fc:	e1520003 	cmp	r2, r3
  103300:	8affffeb 	bhi	1032b4 <spi_engine_transfer_message+0x19c>
  103304:	e3a03000 	mov	r3, #0
  103308:	e1a00003 	mov	r0, r3
  10330c:	e24bd004 	sub	sp, fp, #4
  103310:	e8bd8800 	pop	{fp, pc}

00103314 <spi_engine_init>:
  103314:	e92d4800 	push	{fp, lr}
  103318:	e28db004 	add	fp, sp, #4
  10331c:	e24dd018 	sub	sp, sp, #24
  103320:	e50b0018 	str	r0, [fp, #-24]	; 0xffffffe8
  103324:	e50b101c 	str	r1, [fp, #-28]	; 0xffffffe4
  103328:	e51b301c 	ldr	r3, [fp, #-28]	; 0xffffffe4
  10332c:	e3530000 	cmp	r3, #0
  103330:	1a000001 	bne	10333c <spi_engine_init+0x28>
  103334:	e3e03000 	mvn	r3, #0
  103338:	ea000080 	b	103540 <spi_engine_init+0x22c>
  10333c:	e3a00010 	mov	r0, #16
  103340:	eb0054ea 	bl	1186f0 <malloc>
  103344:	e1a03000 	mov	r3, r0
  103348:	e1a02003 	mov	r2, r3
  10334c:	e51b3018 	ldr	r3, [fp, #-24]	; 0xffffffe8
  103350:	e5832000 	str	r2, [r3]
  103354:	e51b3018 	ldr	r3, [fp, #-24]	; 0xffffffe8
  103358:	e5933000 	ldr	r3, [r3]
  10335c:	e3530000 	cmp	r3, #0
  103360:	1a000005 	bne	10337c <spi_engine_init+0x68>
  103364:	e51b3018 	ldr	r3, [fp, #-24]	; 0xffffffe8
  103368:	e5933000 	ldr	r3, [r3]
  10336c:	e1a00003 	mov	r0, r3
  103370:	eb0054e4 	bl	118708 <free>
  103374:	e3e03000 	mvn	r3, #0
  103378:	ea000070 	b	103540 <spi_engine_init+0x22c>
  10337c:	e3a0002c 	mov	r0, #44	; 0x2c
  103380:	eb0054da 	bl	1186f0 <malloc>
  103384:	e1a03000 	mov	r3, r0
  103388:	e50b3008 	str	r3, [fp, #-8]
  10338c:	e51b3008 	ldr	r3, [fp, #-8]
  103390:	e3530000 	cmp	r3, #0
  103394:	1a000001 	bne	1033a0 <spi_engine_init+0x8c>
  103398:	e3e03000 	mvn	r3, #0
  10339c:	ea000067 	b	103540 <spi_engine_init+0x22c>
  1033a0:	e51b301c 	ldr	r3, [fp, #-28]	; 0xffffffe4
  1033a4:	e593300c 	ldr	r3, [r3, #12]
  1033a8:	e50b300c 	str	r3, [fp, #-12]
  1033ac:	e51b3018 	ldr	r3, [fp, #-24]	; 0xffffffe8
  1033b0:	e5933000 	ldr	r3, [r3]
  1033b4:	e51b201c 	ldr	r2, [fp, #-28]	; 0xffffffe4
  1033b8:	e5922000 	ldr	r2, [r2]
  1033bc:	e5832000 	str	r2, [r3]
  1033c0:	e51b3018 	ldr	r3, [fp, #-24]	; 0xffffffe8
  1033c4:	e5933000 	ldr	r3, [r3]
  1033c8:	e51b201c 	ldr	r2, [fp, #-28]	; 0xffffffe4
  1033cc:	e5d22004 	ldrb	r2, [r2, #4]
  1033d0:	e5c32004 	strb	r2, [r3, #4]
  1033d4:	e51b3018 	ldr	r3, [fp, #-24]	; 0xffffffe8
  1033d8:	e5933000 	ldr	r3, [r3]
  1033dc:	e51b201c 	ldr	r2, [fp, #-28]	; 0xffffffe4
  1033e0:	e5d22005 	ldrb	r2, [r2, #5]
  1033e4:	e5c32005 	strb	r2, [r3, #5]
  1033e8:	e51b3018 	ldr	r3, [fp, #-24]	; 0xffffffe8
  1033ec:	e5933000 	ldr	r3, [r3]
  1033f0:	e51b2008 	ldr	r2, [fp, #-8]
  1033f4:	e583200c 	str	r2, [r3, #12]
  1033f8:	e51b3008 	ldr	r3, [fp, #-8]
  1033fc:	e3a02000 	mov	r2, #0
  103400:	e5c32010 	strb	r2, [r3, #16]
  103404:	e51b300c 	ldr	r3, [fp, #-12]
  103408:	e5932008 	ldr	r2, [r3, #8]
  10340c:	e51b3008 	ldr	r3, [fp, #-8]
  103410:	e5832014 	str	r2, [r3, #20]
  103414:	e51b300c 	ldr	r3, [fp, #-12]
  103418:	e5d32004 	ldrb	r2, [r3, #4]
  10341c:	e51b3008 	ldr	r3, [fp, #-8]
  103420:	e5c32004 	strb	r2, [r3, #4]
  103424:	e51b300c 	ldr	r3, [fp, #-12]
  103428:	e593300c 	ldr	r3, [r3, #12]
  10342c:	e6ef2073 	uxtb	r2, r3
  103430:	e51b3008 	ldr	r3, [fp, #-8]
  103434:	e5c32020 	strb	r2, [r3, #32]
  103438:	e51b300c 	ldr	r3, [fp, #-12]
  10343c:	e5932000 	ldr	r2, [r3]
  103440:	e51b3008 	ldr	r3, [fp, #-8]
  103444:	e5832000 	str	r2, [r3]
  103448:	e51b3008 	ldr	r3, [fp, #-8]
  10344c:	e5932000 	ldr	r2, [r3]
  103450:	e51b301c 	ldr	r3, [fp, #-28]	; 0xffffffe4
  103454:	e5933000 	ldr	r3, [r3]
  103458:	e1a03083 	lsl	r3, r3, #1
  10345c:	e1a01003 	mov	r1, r3
  103460:	e1a00002 	mov	r0, r2
  103464:	eb005398 	bl	1182cc <__aeabi_uidiv>
  103468:	e1a03000 	mov	r3, r0
  10346c:	e2432001 	sub	r2, r3, #1
  103470:	e51b3008 	ldr	r3, [fp, #-8]
  103474:	e5832024 	str	r2, [r3, #36]	; 0x24
  103478:	e3a02001 	mov	r2, #1
  10347c:	e3a01040 	mov	r1, #64	; 0x40
  103480:	e51b0008 	ldr	r0, [fp, #-8]
  103484:	ebfffcf0 	bl	10284c <spi_engine_write>
  103488:	e3a00ffa 	mov	r0, #1000	; 0x3e8
  10348c:	ebfffb43 	bl	1021a0 <udelay>
  103490:	e3a02000 	mov	r2, #0
  103494:	e3a01040 	mov	r1, #64	; 0x40
  103498:	e51b0008 	ldr	r0, [fp, #-8]
  10349c:	ebfffcea 	bl	10284c <spi_engine_write>
  1034a0:	e3a020ff 	mov	r2, #255	; 0xff
  1034a4:	e3a01084 	mov	r1, #132	; 0x84
  1034a8:	e51b0008 	ldr	r0, [fp, #-8]
  1034ac:	ebfffce6 	bl	10284c <spi_engine_write>
  1034b0:	e3a02000 	mov	r2, #0
  1034b4:	e3a01080 	mov	r1, #128	; 0x80
  1034b8:	e51b0008 	ldr	r0, [fp, #-8]
  1034bc:	ebfffce2 	bl	10284c <spi_engine_write>
  1034c0:	e24b3010 	sub	r3, fp, #16
  1034c4:	e1a02003 	mov	r2, r3
  1034c8:	e3a0100c 	mov	r1, #12
  1034cc:	e51b0008 	ldr	r0, [fp, #-8]
  1034d0:	ebfffced 	bl	10288c <spi_engine_read>
  1034d4:	e51b3010 	ldr	r3, [fp, #-16]
  1034d8:	e6ef2073 	uxtb	r2, r3
  1034dc:	e51b3008 	ldr	r3, [fp, #-8]
  1034e0:	e5c32029 	strb	r2, [r3, #41]	; 0x29
  1034e4:	e51b3018 	ldr	r3, [fp, #-24]	; 0xffffffe8
  1034e8:	e5932000 	ldr	r2, [r3]
  1034ec:	e51b300c 	ldr	r3, [fp, #-12]
  1034f0:	e5d33010 	ldrb	r3, [r3, #16]
  1034f4:	e1a01003 	mov	r1, r3
  1034f8:	e1a00002 	mov	r0, r2
  1034fc:	ebfffcf2 	bl	1028cc <spi_engine_set_transfer_width>
  103500:	e24b3014 	sub	r3, fp, #20
  103504:	e1a02003 	mov	r2, r3
  103508:	e3a01000 	mov	r1, #0
  10350c:	e51b0008 	ldr	r0, [fp, #-8]
  103510:	ebfffcdd 	bl	10288c <spi_engine_read>
  103514:	e51b3014 	ldr	r3, [fp, #-20]	; 0xffffffec
  103518:	e1a01823 	lsr	r1, r3, #16
  10351c:	e51b3014 	ldr	r3, [fp, #-20]	; 0xffffffec
  103520:	e1a03423 	lsr	r3, r3, #8
  103524:	e6ef2073 	uxtb	r2, r3
  103528:	e51b3014 	ldr	r3, [fp, #-20]	; 0xffffffec
  10352c:	e6ef3073 	uxtb	r3, r3
  103530:	e302019c 	movw	r0, #8604	; 0x219c
  103534:	e3400012 	movt	r0, #18
  103538:	eb0056ad 	bl	118ff4 <printf>
  10353c:	e3a03000 	mov	r3, #0
  103540:	e1a00003 	mov	r0, r3
  103544:	e24bd004 	sub	sp, fp, #4
  103548:	e8bd8800 	pop	{fp, pc}

0010354c <spi_engine_write_and_read>:
  10354c:	e92d48f0 	push	{r4, r5, r6, r7, fp, lr}
  103550:	e28db014 	add	fp, sp, #20
  103554:	e24dd030 	sub	sp, sp, #48	; 0x30
  103558:	e50b0038 	str	r0, [fp, #-56]	; 0xffffffc8
  10355c:	e50b103c 	str	r1, [fp, #-60]	; 0xffffffc4
  103560:	e1a03002 	mov	r3, r2
  103564:	e14b33be 	strh	r3, [fp, #-62]	; 0xffffffc2
  103568:	e51b3038 	ldr	r3, [fp, #-56]	; 0xffffffc8
  10356c:	e593300c 	ldr	r3, [r3, #12]
  103570:	e50b301c 	str	r3, [fp, #-28]	; 0xffffffe4
  103574:	e51b301c 	ldr	r3, [fp, #-28]	; 0xffffffe4
  103578:	e3a02000 	mov	r2, #0
  10357c:	e5c32010 	strb	r2, [r3, #16]
  103580:	e3a02000 	mov	r2, #0
  103584:	e3a01c01 	mov	r1, #256	; 0x100
  103588:	e51b001c 	ldr	r0, [fp, #-28]	; 0xffffffe4
  10358c:	ebfffcae 	bl	10284c <spi_engine_write>
  103590:	e15b33be 	ldrh	r3, [fp, #-62]	; 0xffffffc2
  103594:	e6ef3073 	uxtb	r3, r3
  103598:	e1a01003 	mov	r1, r3
  10359c:	e51b001c 	ldr	r0, [fp, #-28]	; 0xffffffe4
  1035a0:	ebfffcfa 	bl	102990 <spi_get_words_number>
  1035a4:	e1a03000 	mov	r3, r0
  1035a8:	e54b301d 	strb	r3, [fp, #-29]	; 0xffffffe3
  1035ac:	e3a00008 	mov	r0, #8
  1035b0:	eb00544e 	bl	1186f0 <malloc>
  1035b4:	e1a03000 	mov	r3, r0
  1035b8:	e50b3028 	str	r3, [fp, #-40]	; 0xffffffd8
  1035bc:	e51b3028 	ldr	r3, [fp, #-40]	; 0xffffffd8
  1035c0:	e3530000 	cmp	r3, #0
  1035c4:	1a000001 	bne	1035d0 <spi_engine_write_and_read+0x84>
  1035c8:	e3e03000 	mvn	r3, #0
  1035cc:	ea000093 	b	103820 <spi_engine_write_and_read+0x2d4>
  1035d0:	e55b301d 	ldrb	r3, [fp, #-29]	; 0xffffffe3
  1035d4:	e3a01004 	mov	r1, #4
  1035d8:	e1a00003 	mov	r0, r3
  1035dc:	eb005413 	bl	118630 <calloc>
  1035e0:	e1a03000 	mov	r3, r0
  1035e4:	e50b3034 	str	r3, [fp, #-52]	; 0xffffffcc
  1035e8:	e55b301d 	ldrb	r3, [fp, #-29]	; 0xffffffe3
  1035ec:	e3a01004 	mov	r1, #4
  1035f0:	e1a00003 	mov	r0, r3
  1035f4:	eb00540d 	bl	118630 <calloc>
  1035f8:	e1a03000 	mov	r3, r0
  1035fc:	e50b3030 	str	r3, [fp, #-48]	; 0xffffffd0
  103600:	e55b301d 	ldrb	r3, [fp, #-29]	; 0xffffffe3
  103604:	e50b302c 	str	r3, [fp, #-44]	; 0xffffffd4
  103608:	e51b001c 	ldr	r0, [fp, #-28]	; 0xffffffe4
  10360c:	ebfffd05 	bl	102a28 <spi_get_word_lenght>
  103610:	e1a03000 	mov	r3, r0
  103614:	e54b301e 	strb	r3, [fp, #-30]	; 0xffffffe2
  103618:	e51b3028 	ldr	r3, [fp, #-40]	; 0xffffffd8
  10361c:	e3a02000 	mov	r2, #0
  103620:	e5832004 	str	r2, [r3, #4]
  103624:	e51b3028 	ldr	r3, [fp, #-40]	; 0xffffffd8
  103628:	e30123ff 	movw	r2, #5119	; 0x13ff
  10362c:	e5832000 	str	r2, [r3]
  103630:	e24b3034 	sub	r3, fp, #52	; 0x34
  103634:	e283300c 	add	r3, r3, #12
  103638:	e3a01c13 	mov	r1, #4864	; 0x1300
  10363c:	e1a00003 	mov	r0, r3
  103640:	ebfffd49 	bl	102b6c <spi_engine_queue_add_cmd>
  103644:	e15b33be 	ldrh	r3, [fp, #-62]	; 0xffffffc2
  103648:	e3833c03 	orr	r3, r3, #768	; 0x300
  10364c:	e6ff3073 	uxth	r3, r3
  103650:	e1a02003 	mov	r2, r3
  103654:	e24b3034 	sub	r3, fp, #52	; 0x34
  103658:	e283300c 	add	r3, r3, #12
  10365c:	e1a01002 	mov	r1, r2
  103660:	e1a00003 	mov	r0, r3
  103664:	ebfffd40 	bl	102b6c <spi_engine_queue_add_cmd>
  103668:	e24b3034 	sub	r3, fp, #52	; 0x34
  10366c:	e283300c 	add	r3, r3, #12
  103670:	e30113ff 	movw	r1, #5119	; 0x13ff
  103674:	e1a00003 	mov	r0, r3
  103678:	ebfffd3b 	bl	102b6c <spi_engine_queue_add_cmd>
  10367c:	e3a03000 	mov	r3, #0
  103680:	e54b3015 	strb	r3, [fp, #-21]	; 0xffffffeb
  103684:	ea000027 	b	103728 <spi_engine_write_and_read+0x1dc>
  103688:	e51b4034 	ldr	r4, [fp, #-52]	; 0xffffffcc
  10368c:	e55b3015 	ldrb	r3, [fp, #-21]	; 0xffffffeb
  103690:	e55b201e 	ldrb	r2, [fp, #-30]	; 0xffffffe2
  103694:	e1a01002 	mov	r1, r2
  103698:	e1a00003 	mov	r0, r3
  10369c:	eb00530a 	bl	1182cc <__aeabi_uidiv>
  1036a0:	e1a03000 	mov	r3, r0
  1036a4:	e6ef1073 	uxtb	r1, r3
  1036a8:	e1a03001 	mov	r3, r1
  1036ac:	e1a03103 	lsl	r3, r3, #2
  1036b0:	e0844003 	add	r4, r4, r3
  1036b4:	e51b2034 	ldr	r2, [fp, #-52]	; 0xffffffcc
  1036b8:	e1a03001 	mov	r3, r1
  1036bc:	e1a03103 	lsl	r3, r3, #2
  1036c0:	e0823003 	add	r3, r2, r3
  1036c4:	e5935000 	ldr	r5, [r3]
  1036c8:	e55b3015 	ldrb	r3, [fp, #-21]	; 0xffffffeb
  1036cc:	e51b203c 	ldr	r2, [fp, #-60]	; 0xffffffc4
  1036d0:	e0823003 	add	r3, r2, r3
  1036d4:	e5d33000 	ldrb	r3, [r3]
  1036d8:	e1a06003 	mov	r6, r3
  1036dc:	e51b301c 	ldr	r3, [fp, #-28]	; 0xffffffe4
  1036e0:	e5d33028 	ldrb	r3, [r3, #40]	; 0x28
  1036e4:	e1a07003 	mov	r7, r3
  1036e8:	e55b3015 	ldrb	r3, [fp, #-21]	; 0xffffffeb
  1036ec:	e55b201e 	ldrb	r2, [fp, #-30]	; 0xffffffe2
  1036f0:	e1a01002 	mov	r1, r2
  1036f4:	e1a00003 	mov	r0, r3
  1036f8:	eb00536e 	bl	1184b8 <__aeabi_uidivmod>
  1036fc:	e1a03001 	mov	r3, r1
  103700:	e6ef3073 	uxtb	r3, r3
  103704:	e2833001 	add	r3, r3, #1
  103708:	e1a03183 	lsl	r3, r3, #3
  10370c:	e0473003 	sub	r3, r7, r3
  103710:	e1a03316 	lsl	r3, r6, r3
  103714:	e1853003 	orr	r3, r5, r3
  103718:	e5843000 	str	r3, [r4]
  10371c:	e55b3015 	ldrb	r3, [fp, #-21]	; 0xffffffeb
  103720:	e2833001 	add	r3, r3, #1
  103724:	e54b3015 	strb	r3, [fp, #-21]	; 0xffffffeb
  103728:	e55b3015 	ldrb	r3, [fp, #-21]	; 0xffffffeb
  10372c:	e6ff3073 	uxth	r3, r3
  103730:	e15b23be 	ldrh	r2, [fp, #-62]	; 0xffffffc2
  103734:	e1520003 	cmp	r2, r3
  103738:	8affffd2 	bhi	103688 <spi_engine_write_and_read+0x13c>
  10373c:	e24b3034 	sub	r3, fp, #52	; 0x34
  103740:	e1a01003 	mov	r1, r3
  103744:	e51b0038 	ldr	r0, [fp, #-56]	; 0xffffffc8
  103748:	ebfffe72 	bl	103118 <spi_engine_transfer_message>
  10374c:	e50b0024 	str	r0, [fp, #-36]	; 0xffffffdc
  103750:	e3a03000 	mov	r3, #0
  103754:	e54b3015 	strb	r3, [fp, #-21]	; 0xffffffeb
  103758:	ea000020 	b	1037e0 <spi_engine_write_and_read+0x294>
  10375c:	e55b3015 	ldrb	r3, [fp, #-21]	; 0xffffffeb
  103760:	e51b203c 	ldr	r2, [fp, #-60]	; 0xffffffc4
  103764:	e0824003 	add	r4, r2, r3
  103768:	e51b5030 	ldr	r5, [fp, #-48]	; 0xffffffd0
  10376c:	e55b3015 	ldrb	r3, [fp, #-21]	; 0xffffffeb
  103770:	e55b201e 	ldrb	r2, [fp, #-30]	; 0xffffffe2
  103774:	e1a01002 	mov	r1, r2
  103778:	e1a00003 	mov	r0, r3
  10377c:	eb0052d2 	bl	1182cc <__aeabi_uidiv>
  103780:	e1a03000 	mov	r3, r0
  103784:	e6ef3073 	uxtb	r3, r3
  103788:	e1a03103 	lsl	r3, r3, #2
  10378c:	e0853003 	add	r3, r5, r3
  103790:	e5935000 	ldr	r5, [r3]
  103794:	e51b301c 	ldr	r3, [fp, #-28]	; 0xffffffe4
  103798:	e5d33028 	ldrb	r3, [r3, #40]	; 0x28
  10379c:	e1a06003 	mov	r6, r3
  1037a0:	e55b3015 	ldrb	r3, [fp, #-21]	; 0xffffffeb
  1037a4:	e55b201e 	ldrb	r2, [fp, #-30]	; 0xffffffe2
  1037a8:	e1a01002 	mov	r1, r2
  1037ac:	e1a00003 	mov	r0, r3
  1037b0:	eb005340 	bl	1184b8 <__aeabi_uidivmod>
  1037b4:	e1a03001 	mov	r3, r1
  1037b8:	e6ef3073 	uxtb	r3, r3
  1037bc:	e2833001 	add	r3, r3, #1
  1037c0:	e1a03183 	lsl	r3, r3, #3
  1037c4:	e0463003 	sub	r3, r6, r3
  1037c8:	e1a03335 	lsr	r3, r5, r3
  1037cc:	e6ef3073 	uxtb	r3, r3
  1037d0:	e5c43000 	strb	r3, [r4]
  1037d4:	e55b3015 	ldrb	r3, [fp, #-21]	; 0xffffffeb
  1037d8:	e2833001 	add	r3, r3, #1
  1037dc:	e54b3015 	strb	r3, [fp, #-21]	; 0xffffffeb
  1037e0:	e55b3015 	ldrb	r3, [fp, #-21]	; 0xffffffeb
  1037e4:	e6ff3073 	uxth	r3, r3
  1037e8:	e15b23be 	ldrh	r2, [fp, #-62]	; 0xffffffc2
  1037ec:	e1520003 	cmp	r2, r3
  1037f0:	8affffd9 	bhi	10375c <spi_engine_write_and_read+0x210>
  1037f4:	e24b3034 	sub	r3, fp, #52	; 0x34
  1037f8:	e283300c 	add	r3, r3, #12
  1037fc:	e1a00003 	mov	r0, r3
  103800:	ebfffd33 	bl	102cd4 <spi_engine_queue_free>
  103804:	e51b3034 	ldr	r3, [fp, #-52]	; 0xffffffcc
  103808:	e1a00003 	mov	r0, r3
  10380c:	eb0053bd 	bl	118708 <free>
  103810:	e51b3030 	ldr	r3, [fp, #-48]	; 0xffffffd0
  103814:	e1a00003 	mov	r0, r3
  103818:	eb0053ba 	bl	118708 <free>
  10381c:	e51b3024 	ldr	r3, [fp, #-36]	; 0xffffffdc
  103820:	e1a00003 	mov	r0, r3
  103824:	e24bd014 	sub	sp, fp, #20
  103828:	e8bd88f0 	pop	{r4, r5, r6, r7, fp, pc}

0010382c <spi_engine_offload_init>:
  10382c:	e92d4800 	push	{fp, lr}
  103830:	e28db004 	add	fp, sp, #4
  103834:	e24dd020 	sub	sp, sp, #32
  103838:	e50b0020 	str	r0, [fp, #-32]	; 0xffffffe0
  10383c:	e50b1024 	str	r1, [fp, #-36]	; 0xffffffdc
  103840:	e51b3020 	ldr	r3, [fp, #-32]	; 0xffffffe0
  103844:	e593300c 	ldr	r3, [r3, #12]
  103848:	e50b3008 	str	r3, [fp, #-8]
  10384c:	e51b3024 	ldr	r3, [fp, #-36]	; 0xffffffdc
  103850:	e5d32008 	ldrb	r2, [r3, #8]
  103854:	e51b3008 	ldr	r3, [fp, #-8]
  103858:	e5c32010 	strb	r2, [r3, #16]
  10385c:	e51b3024 	ldr	r3, [fp, #-36]	; 0xffffffdc
  103860:	e5d33008 	ldrb	r3, [r3, #8]
  103864:	e2033001 	and	r3, r3, #1
  103868:	e3530000 	cmp	r3, #0
  10386c:	0a000015 	beq	1038c8 <spi_engine_offload_init+0x9c>
  103870:	e30231d0 	movw	r3, #8656	; 0x21d0
  103874:	e3403012 	movt	r3, #18
  103878:	e50b3018 	str	r3, [fp, #-24]	; 0xffffffe8
  10387c:	e51b3024 	ldr	r3, [fp, #-36]	; 0xffffffdc
  103880:	e5933004 	ldr	r3, [r3, #4]
  103884:	e50b3014 	str	r3, [fp, #-20]	; 0xffffffec
  103888:	e3a03001 	mov	r3, #1
  10388c:	e54b3010 	strb	r3, [fp, #-16]
  103890:	e3a03001 	mov	r3, #1
  103894:	e50b300c 	str	r3, [fp, #-12]
  103898:	e51b3008 	ldr	r3, [fp, #-8]
  10389c:	e2833008 	add	r3, r3, #8
  1038a0:	e24b2018 	sub	r2, fp, #24
  1038a4:	e1a01002 	mov	r1, r2
  1038a8:	e1a00003 	mov	r0, r3
  1038ac:	eb00058b 	bl	104ee0 <axi_dmac_init>
  1038b0:	e51b3008 	ldr	r3, [fp, #-8]
  1038b4:	e5933008 	ldr	r3, [r3, #8]
  1038b8:	e3530000 	cmp	r3, #0
  1038bc:	1a000001 	bne	1038c8 <spi_engine_offload_init+0x9c>
  1038c0:	e3e03000 	mvn	r3, #0
  1038c4:	ea00001b 	b	103938 <spi_engine_offload_init+0x10c>
  1038c8:	e51b3024 	ldr	r3, [fp, #-36]	; 0xffffffdc
  1038cc:	e5d33008 	ldrb	r3, [r3, #8]
  1038d0:	e2033002 	and	r3, r3, #2
  1038d4:	e3530000 	cmp	r3, #0
  1038d8:	0a000015 	beq	103934 <spi_engine_offload_init+0x108>
  1038dc:	e30231dc 	movw	r3, #8668	; 0x21dc
  1038e0:	e3403012 	movt	r3, #18
  1038e4:	e50b3018 	str	r3, [fp, #-24]	; 0xffffffe8
  1038e8:	e51b3024 	ldr	r3, [fp, #-36]	; 0xffffffdc
  1038ec:	e5933000 	ldr	r3, [r3]
  1038f0:	e50b3014 	str	r3, [fp, #-20]	; 0xffffffec
  1038f4:	e3a03000 	mov	r3, #0
  1038f8:	e54b3010 	strb	r3, [fp, #-16]
  1038fc:	e3a03001 	mov	r3, #1
  103900:	e50b300c 	str	r3, [fp, #-12]
  103904:	e51b3008 	ldr	r3, [fp, #-8]
  103908:	e283300c 	add	r3, r3, #12
  10390c:	e24b2018 	sub	r2, fp, #24
  103910:	e1a01002 	mov	r1, r2
  103914:	e1a00003 	mov	r0, r3
  103918:	eb000570 	bl	104ee0 <axi_dmac_init>
  10391c:	e51b3008 	ldr	r3, [fp, #-8]
  103920:	e593300c 	ldr	r3, [r3, #12]
  103924:	e3530000 	cmp	r3, #0
  103928:	1a000001 	bne	103934 <spi_engine_offload_init+0x108>
  10392c:	e3e03000 	mvn	r3, #0
  103930:	ea000000 	b	103938 <spi_engine_offload_init+0x10c>
  103934:	e3a03000 	mov	r3, #0
  103938:	e1a00003 	mov	r0, r3
  10393c:	e24bd004 	sub	sp, fp, #4
  103940:	e8bd8800 	pop	{fp, pc}

00103944 <spi_engine_offload_transfer>:
  103944:	e24dd010 	sub	sp, sp, #16
  103948:	e92d4800 	push	{fp, lr}
  10394c:	e28db004 	add	fp, sp, #4
  103950:	e24dd028 	sub	sp, sp, #40	; 0x28
  103954:	e50b0028 	str	r0, [fp, #-40]	; 0xffffffd8
  103958:	e28b0008 	add	r0, fp, #8
  10395c:	e880000e 	stm	r0, {r1, r2, r3}
  103960:	e51b3028 	ldr	r3, [fp, #-40]	; 0xffffffd8
  103964:	e593300c 	ldr	r3, [r3, #12]
  103968:	e50b300c 	str	r3, [fp, #-12]
  10396c:	e51b300c 	ldr	r3, [fp, #-12]
  103970:	e5d33010 	ldrb	r3, [r3, #16]
  103974:	e2033003 	and	r3, r3, #3
  103978:	e3530000 	cmp	r3, #0
  10397c:	1a000001 	bne	103988 <spi_engine_offload_transfer+0x44>
  103980:	e3e03000 	mvn	r3, #0
  103984:	ea00006b 	b	103b38 <spi_engine_offload_transfer+0x1f4>
  103988:	e3a02001 	mov	r2, #1
  10398c:	e3a01f42 	mov	r1, #264	; 0x108
  103990:	e51b000c 	ldr	r0, [fp, #-12]
  103994:	ebfffbac 	bl	10284c <spi_engine_write>
  103998:	e3a02000 	mov	r2, #0
  10399c:	e3a01f42 	mov	r1, #264	; 0x108
  1039a0:	e51b000c 	ldr	r0, [fp, #-12]
  1039a4:	ebfffba8 	bl	10284c <spi_engine_write>
  1039a8:	e51b300c 	ldr	r3, [fp, #-12]
  1039ac:	e3a02000 	mov	r2, #0
  1039b0:	e5c32011 	strb	r2, [r3, #17]
  1039b4:	e51b300c 	ldr	r3, [fp, #-12]
  1039b8:	e3a02000 	mov	r2, #0
  1039bc:	e5c32012 	strb	r2, [r3, #18]
  1039c0:	e3a00008 	mov	r0, #8
  1039c4:	eb005349 	bl	1186f0 <malloc>
  1039c8:	e1a03000 	mov	r3, r0
  1039cc:	e50b3014 	str	r3, [fp, #-20]	; 0xffffffec
  1039d0:	e51b3014 	ldr	r3, [fp, #-20]	; 0xffffffec
  1039d4:	e3530000 	cmp	r3, #0
  1039d8:	1a000001 	bne	1039e4 <spi_engine_offload_transfer+0xa0>
  1039dc:	e3e03000 	mvn	r3, #0
  1039e0:	ea000054 	b	103b38 <spi_engine_offload_transfer+0x1f4>
  1039e4:	e59b3010 	ldr	r3, [fp, #16]
  1039e8:	e50b3020 	str	r3, [fp, #-32]	; 0xffffffe0
  1039ec:	e51b3014 	ldr	r3, [fp, #-20]	; 0xffffffec
  1039f0:	e3a02000 	mov	r2, #0
  1039f4:	e5832004 	str	r2, [r3, #4]
  1039f8:	e51b3014 	ldr	r3, [fp, #-20]	; 0xffffffec
  1039fc:	e59b2008 	ldr	r2, [fp, #8]
  103a00:	e5922000 	ldr	r2, [r2]
  103a04:	e5832000 	str	r2, [r3]
  103a08:	e3a03001 	mov	r3, #1
  103a0c:	e50b3008 	str	r3, [fp, #-8]
  103a10:	ea00000b 	b	103a44 <spi_engine_offload_transfer+0x100>
  103a14:	e59b2008 	ldr	r2, [fp, #8]
  103a18:	e51b3008 	ldr	r3, [fp, #-8]
  103a1c:	e2831001 	add	r1, r3, #1
  103a20:	e50b1008 	str	r1, [fp, #-8]
  103a24:	e1a03103 	lsl	r3, r3, #2
  103a28:	e0823003 	add	r3, r2, r3
  103a2c:	e5932000 	ldr	r2, [r3]
  103a30:	e24b3020 	sub	r3, fp, #32
  103a34:	e283300c 	add	r3, r3, #12
  103a38:	e1a01002 	mov	r1, r2
  103a3c:	e1a00003 	mov	r0, r3
  103a40:	ebfffc49 	bl	102b6c <spi_engine_queue_add_cmd>
  103a44:	e59b200c 	ldr	r2, [fp, #12]
  103a48:	e51b3008 	ldr	r3, [fp, #-8]
  103a4c:	e1520003 	cmp	r2, r3
  103a50:	8affffef 	bhi	103a14 <spi_engine_offload_transfer+0xd0>
  103a54:	e24b3020 	sub	r3, fp, #32
  103a58:	e1a01003 	mov	r1, r3
  103a5c:	e51b0028 	ldr	r0, [fp, #-40]	; 0xffffffd8
  103a60:	ebfffdac 	bl	103118 <spi_engine_transfer_message>
  103a64:	e51b000c 	ldr	r0, [fp, #-12]
  103a68:	ebfffbee 	bl	102a28 <spi_get_word_lenght>
  103a6c:	e1a03000 	mov	r3, r0
  103a70:	e54b300d 	strb	r3, [fp, #-13]
  103a74:	e51b300c 	ldr	r3, [fp, #-12]
  103a78:	e5d33010 	ldrb	r3, [r3, #16]
  103a7c:	e2033001 	and	r3, r3, #1
  103a80:	e3530000 	cmp	r3, #0
  103a84:	0a00000b 	beq	103ab8 <spi_engine_offload_transfer+0x174>
  103a88:	e51b300c 	ldr	r3, [fp, #-12]
  103a8c:	e5930008 	ldr	r0, [r3, #8]
  103a90:	e59b1014 	ldr	r1, [fp, #20]
  103a94:	e55b300d 	ldrb	r3, [fp, #-13]
  103a98:	e51b200c 	ldr	r2, [fp, #-12]
  103a9c:	e5d22011 	ldrb	r2, [r2, #17]
  103aa0:	e0030392 	mul	r3, r2, r3
  103aa4:	e1a02003 	mov	r2, r3
  103aa8:	e59b301c 	ldr	r3, [fp, #28]
  103aac:	e0030293 	mul	r3, r3, r2
  103ab0:	e1a02003 	mov	r2, r3
  103ab4:	eb000479 	bl	104ca0 <axi_dmac_transfer>
  103ab8:	e51b300c 	ldr	r3, [fp, #-12]
  103abc:	e5d33010 	ldrb	r3, [r3, #16]
  103ac0:	e2033002 	and	r3, r3, #2
  103ac4:	e3530000 	cmp	r3, #0
  103ac8:	0a00000b 	beq	103afc <spi_engine_offload_transfer+0x1b8>
  103acc:	e51b300c 	ldr	r3, [fp, #-12]
  103ad0:	e593000c 	ldr	r0, [r3, #12]
  103ad4:	e59b1018 	ldr	r1, [fp, #24]
  103ad8:	e55b300d 	ldrb	r3, [fp, #-13]
  103adc:	e51b200c 	ldr	r2, [fp, #-12]
  103ae0:	e5d22011 	ldrb	r2, [r2, #17]
  103ae4:	e0030392 	mul	r3, r2, r3
  103ae8:	e1a02003 	mov	r2, r3
  103aec:	e59b301c 	ldr	r3, [fp, #28]
  103af0:	e0030293 	mul	r3, r3, r2
  103af4:	e1a02003 	mov	r2, r3
  103af8:	eb000468 	bl	104ca0 <axi_dmac_transfer>
  103afc:	e3a00ffa 	mov	r0, #1000	; 0x3e8
  103b00:	ebfff9a6 	bl	1021a0 <udelay>
  103b04:	e3a02001 	mov	r2, #1
  103b08:	e3a01c01 	mov	r1, #256	; 0x100
  103b0c:	e51b000c 	ldr	r0, [fp, #-12]
  103b10:	ebfffb4d 	bl	10284c <spi_engine_write>
  103b14:	e51b300c 	ldr	r3, [fp, #-12]
  103b18:	e593300c 	ldr	r3, [r3, #12]
  103b1c:	e1a00003 	mov	r0, r3
  103b20:	eb000513 	bl	104f74 <axi_wait>
  103b24:	e24b3020 	sub	r3, fp, #32
  103b28:	e283300c 	add	r3, r3, #12
  103b2c:	e1a00003 	mov	r0, r3
  103b30:	ebfffc67 	bl	102cd4 <spi_engine_queue_free>
  103b34:	e3a03000 	mov	r3, #0
  103b38:	e1a00003 	mov	r0, r3
  103b3c:	e24bd004 	sub	sp, fp, #4
  103b40:	e8bd4800 	pop	{fp, lr}
  103b44:	e28dd010 	add	sp, sp, #16
  103b48:	e12fff1e 	bx	lr

00103b4c <spi_engine_remove>:
  103b4c:	e92d4800 	push	{fp, lr}
  103b50:	e28db004 	add	fp, sp, #4
  103b54:	e24dd010 	sub	sp, sp, #16
  103b58:	e50b0010 	str	r0, [fp, #-16]
  103b5c:	e51b3010 	ldr	r3, [fp, #-16]
  103b60:	e593300c 	ldr	r3, [r3, #12]
  103b64:	e50b3008 	str	r3, [fp, #-8]
  103b68:	e51b3008 	ldr	r3, [fp, #-8]
  103b6c:	e5d33010 	ldrb	r3, [r3, #16]
  103b70:	e2033001 	and	r3, r3, #1
  103b74:	e3530000 	cmp	r3, #0
  103b78:	0a000003 	beq	103b8c <spi_engine_remove+0x40>
  103b7c:	e51b3008 	ldr	r3, [fp, #-8]
  103b80:	e5933008 	ldr	r3, [r3, #8]
  103b84:	e1a00003 	mov	r0, r3
  103b88:	eb000515 	bl	104fe4 <axi_dmac_remove>
  103b8c:	e51b3008 	ldr	r3, [fp, #-8]
  103b90:	e5d33010 	ldrb	r3, [r3, #16]
  103b94:	e2033002 	and	r3, r3, #2
  103b98:	e3530000 	cmp	r3, #0
  103b9c:	0a000003 	beq	103bb0 <spi_engine_remove+0x64>
  103ba0:	e51b3008 	ldr	r3, [fp, #-8]
  103ba4:	e593300c 	ldr	r3, [r3, #12]
  103ba8:	e1a00003 	mov	r0, r3
  103bac:	eb00050c 	bl	104fe4 <axi_dmac_remove>
  103bb0:	e51b3010 	ldr	r3, [fp, #-16]
  103bb4:	e593300c 	ldr	r3, [r3, #12]
  103bb8:	e1a00003 	mov	r0, r3
  103bbc:	eb0052d1 	bl	118708 <free>
  103bc0:	e51b0010 	ldr	r0, [fp, #-16]
  103bc4:	eb0052cf 	bl	118708 <free>
  103bc8:	e3a03000 	mov	r3, #0
  103bcc:	e1a00003 	mov	r0, r3
  103bd0:	e24bd004 	sub	sp, fp, #4
  103bd4:	e8bd8800 	pop	{fp, pc}

00103bd8 <axi_adc_read>:
  103bd8:	e92d4800 	push	{fp, lr}
  103bdc:	e28db004 	add	fp, sp, #4
  103be0:	e24dd010 	sub	sp, sp, #16
  103be4:	e50b0008 	str	r0, [fp, #-8]
  103be8:	e50b100c 	str	r1, [fp, #-12]
  103bec:	e50b2010 	str	r2, [fp, #-16]
  103bf0:	e51b3008 	ldr	r3, [fp, #-8]
  103bf4:	e5933004 	ldr	r3, [r3, #4]
  103bf8:	e51b2010 	ldr	r2, [fp, #-16]
  103bfc:	e51b100c 	ldr	r1, [fp, #-12]
  103c00:	e1a00003 	mov	r0, r3
  103c04:	eb000505 	bl	105020 <axi_io_read>
  103c08:	e3a03000 	mov	r3, #0
  103c0c:	e1a00003 	mov	r0, r3
  103c10:	e24bd004 	sub	sp, fp, #4
  103c14:	e8bd8800 	pop	{fp, pc}

00103c18 <axi_adc_write>:
  103c18:	e92d4800 	push	{fp, lr}
  103c1c:	e28db004 	add	fp, sp, #4
  103c20:	e24dd010 	sub	sp, sp, #16
  103c24:	e50b0008 	str	r0, [fp, #-8]
  103c28:	e50b100c 	str	r1, [fp, #-12]
  103c2c:	e50b2010 	str	r2, [fp, #-16]
  103c30:	e51b3008 	ldr	r3, [fp, #-8]
  103c34:	e5933004 	ldr	r3, [r3, #4]
  103c38:	e51b2010 	ldr	r2, [fp, #-16]
  103c3c:	e51b100c 	ldr	r1, [fp, #-12]
  103c40:	e1a00003 	mov	r0, r3
  103c44:	eb000506 	bl	105064 <axi_io_write>
  103c48:	e3a03000 	mov	r3, #0
  103c4c:	e1a00003 	mov	r0, r3
  103c50:	e24bd004 	sub	sp, fp, #4
  103c54:	e8bd8800 	pop	{fp, pc}

00103c58 <axi_adc_set_pnsel>:
  103c58:	e92d4800 	push	{fp, lr}
  103c5c:	e28db004 	add	fp, sp, #4
  103c60:	e24dd018 	sub	sp, sp, #24
  103c64:	e50b0010 	str	r0, [fp, #-16]
  103c68:	e50b1014 	str	r1, [fp, #-20]	; 0xffffffec
  103c6c:	e1a03002 	mov	r3, r2
  103c70:	e54b3015 	strb	r3, [fp, #-21]	; 0xffffffeb
  103c74:	e51b3014 	ldr	r3, [fp, #-20]	; 0xffffffec
  103c78:	e1a03303 	lsl	r3, r3, #6
  103c7c:	e2833e41 	add	r3, r3, #1040	; 0x410
  103c80:	e2833008 	add	r3, r3, #8
  103c84:	e24b2008 	sub	r2, fp, #8
  103c88:	e1a01003 	mov	r1, r3
  103c8c:	e51b0010 	ldr	r0, [fp, #-16]
  103c90:	ebffffd0 	bl	103bd8 <axi_adc_read>
  103c94:	e51b3008 	ldr	r3, [fp, #-8]
  103c98:	e3c3380f 	bic	r3, r3, #983040	; 0xf0000
  103c9c:	e50b3008 	str	r3, [fp, #-8]
  103ca0:	e55b3015 	ldrb	r3, [fp, #-21]	; 0xffffffeb
  103ca4:	e1a03803 	lsl	r3, r3, #16
  103ca8:	e203280f 	and	r2, r3, #983040	; 0xf0000
  103cac:	e51b3008 	ldr	r3, [fp, #-8]
  103cb0:	e1823003 	orr	r3, r2, r3
  103cb4:	e50b3008 	str	r3, [fp, #-8]
  103cb8:	e51b3014 	ldr	r3, [fp, #-20]	; 0xffffffec
  103cbc:	e1a03303 	lsl	r3, r3, #6
  103cc0:	e2833e41 	add	r3, r3, #1040	; 0x410
  103cc4:	e2833008 	add	r3, r3, #8
  103cc8:	e51b2008 	ldr	r2, [fp, #-8]
  103ccc:	e1a01003 	mov	r1, r3
  103cd0:	e51b0010 	ldr	r0, [fp, #-16]
  103cd4:	ebffffcf 	bl	103c18 <axi_adc_write>
  103cd8:	e3a03000 	mov	r3, #0
  103cdc:	e1a00003 	mov	r0, r3
  103ce0:	e24bd004 	sub	sp, fp, #4
  103ce4:	e8bd8800 	pop	{fp, pc}

00103ce8 <axi_adc_pn_mon>:
  103ce8:	e92d4800 	push	{fp, lr}
  103cec:	e28db004 	add	fp, sp, #4
  103cf0:	e24dd018 	sub	sp, sp, #24
  103cf4:	e50b0010 	str	r0, [fp, #-16]
  103cf8:	e1a03001 	mov	r3, r1
  103cfc:	e50b2018 	str	r2, [fp, #-24]	; 0xffffffe8
  103d00:	e54b3011 	strb	r3, [fp, #-17]	; 0xffffffef
  103d04:	e3a03000 	mov	r3, #0
  103d08:	e54b3005 	strb	r3, [fp, #-5]
  103d0c:	ea00001a 	b	103d7c <axi_adc_pn_mon+0x94>
  103d10:	e55b3005 	ldrb	r3, [fp, #-5]
  103d14:	e2833010 	add	r3, r3, #16
  103d18:	e1a03303 	lsl	r3, r3, #6
  103d1c:	e1a01003 	mov	r1, r3
  103d20:	e24b300c 	sub	r3, fp, #12
  103d24:	e1a02003 	mov	r2, r3
  103d28:	e51b0010 	ldr	r0, [fp, #-16]
  103d2c:	ebffffa9 	bl	103bd8 <axi_adc_read>
  103d30:	e51b300c 	ldr	r3, [fp, #-12]
  103d34:	e3833001 	orr	r3, r3, #1
  103d38:	e50b300c 	str	r3, [fp, #-12]
  103d3c:	e55b3005 	ldrb	r3, [fp, #-5]
  103d40:	e2833010 	add	r3, r3, #16
  103d44:	e1a03303 	lsl	r3, r3, #6
  103d48:	e1a01003 	mov	r1, r3
  103d4c:	e51b300c 	ldr	r3, [fp, #-12]
  103d50:	e1a02003 	mov	r2, r3
  103d54:	e51b0010 	ldr	r0, [fp, #-16]
  103d58:	ebffffae 	bl	103c18 <axi_adc_write>
  103d5c:	e55b3005 	ldrb	r3, [fp, #-5]
  103d60:	e55b2011 	ldrb	r2, [fp, #-17]	; 0xffffffef
  103d64:	e1a01003 	mov	r1, r3
  103d68:	e51b0010 	ldr	r0, [fp, #-16]
  103d6c:	ebffffb9 	bl	103c58 <axi_adc_set_pnsel>
  103d70:	e55b3005 	ldrb	r3, [fp, #-5]
  103d74:	e2833001 	add	r3, r3, #1
  103d78:	e54b3005 	strb	r3, [fp, #-5]
  103d7c:	e51b3010 	ldr	r3, [fp, #-16]
  103d80:	e5d33008 	ldrb	r3, [r3, #8]
  103d84:	e55b2005 	ldrb	r2, [fp, #-5]
  103d88:	e1520003 	cmp	r2, r3
  103d8c:	3affffdf 	bcc	103d10 <axi_adc_pn_mon+0x28>
  103d90:	e3a00001 	mov	r0, #1
  103d94:	ebfff912 	bl	1021e4 <mdelay>
  103d98:	e3a03000 	mov	r3, #0
  103d9c:	e54b3005 	strb	r3, [fp, #-5]
  103da0:	ea00000a 	b	103dd0 <axi_adc_pn_mon+0xe8>
  103da4:	e55b3005 	ldrb	r3, [fp, #-5]
  103da8:	e1a03303 	lsl	r3, r3, #6
  103dac:	e2833b01 	add	r3, r3, #1024	; 0x400
  103db0:	e2833004 	add	r3, r3, #4
  103db4:	e3a020ff 	mov	r2, #255	; 0xff
  103db8:	e1a01003 	mov	r1, r3
  103dbc:	e51b0010 	ldr	r0, [fp, #-16]
  103dc0:	ebffff94 	bl	103c18 <axi_adc_write>
  103dc4:	e55b3005 	ldrb	r3, [fp, #-5]
  103dc8:	e2833001 	add	r3, r3, #1
  103dcc:	e54b3005 	strb	r3, [fp, #-5]
  103dd0:	e51b3010 	ldr	r3, [fp, #-16]
  103dd4:	e5d33008 	ldrb	r3, [r3, #8]
  103dd8:	e55b2005 	ldrb	r2, [fp, #-5]
  103ddc:	e1520003 	cmp	r2, r3
  103de0:	3affffef 	bcc	103da4 <axi_adc_pn_mon+0xbc>
  103de4:	e51b0018 	ldr	r0, [fp, #-24]	; 0xffffffe8
  103de8:	ebfff8fd 	bl	1021e4 <mdelay>
  103dec:	e3a03000 	mov	r3, #0
  103df0:	e54b3005 	strb	r3, [fp, #-5]
  103df4:	ea000010 	b	103e3c <axi_adc_pn_mon+0x154>
  103df8:	e55b3005 	ldrb	r3, [fp, #-5]
  103dfc:	e1a03303 	lsl	r3, r3, #6
  103e00:	e2833b01 	add	r3, r3, #1024	; 0x400
  103e04:	e2833004 	add	r3, r3, #4
  103e08:	e1a01003 	mov	r1, r3
  103e0c:	e24b300c 	sub	r3, fp, #12
  103e10:	e1a02003 	mov	r2, r3
  103e14:	e51b0010 	ldr	r0, [fp, #-16]
  103e18:	ebffff6e 	bl	103bd8 <axi_adc_read>
  103e1c:	e51b300c 	ldr	r3, [fp, #-12]
  103e20:	e3530000 	cmp	r3, #0
  103e24:	0a000001 	beq	103e30 <axi_adc_pn_mon+0x148>
  103e28:	e3e03000 	mvn	r3, #0
  103e2c:	ea000008 	b	103e54 <axi_adc_pn_mon+0x16c>
  103e30:	e55b3005 	ldrb	r3, [fp, #-5]
  103e34:	e2833001 	add	r3, r3, #1
  103e38:	e54b3005 	strb	r3, [fp, #-5]
  103e3c:	e51b3010 	ldr	r3, [fp, #-16]
  103e40:	e5d33008 	ldrb	r3, [r3, #8]
  103e44:	e55b2005 	ldrb	r2, [fp, #-5]
  103e48:	e1520003 	cmp	r2, r3
  103e4c:	3affffe9 	bcc	103df8 <axi_adc_pn_mon+0x110>
  103e50:	e3a03000 	mov	r3, #0
  103e54:	e1a00003 	mov	r0, r3
  103e58:	e24bd004 	sub	sp, fp, #4
  103e5c:	e8bd8800 	pop	{fp, pc}

00103e60 <axi_adc_get_sampling_freq>:
  103e60:	e92d4800 	push	{fp, lr}
  103e64:	e28db004 	add	fp, sp, #4
  103e68:	e24dd018 	sub	sp, sp, #24
  103e6c:	e50b0010 	str	r0, [fp, #-16]
  103e70:	e50b1014 	str	r1, [fp, #-20]	; 0xffffffec
  103e74:	e50b2018 	str	r2, [fp, #-24]	; 0xffffffe8
  103e78:	e24b3008 	sub	r3, fp, #8
  103e7c:	e1a02003 	mov	r2, r3
  103e80:	e3a01054 	mov	r1, #84	; 0x54
  103e84:	e51b0010 	ldr	r0, [fp, #-16]
  103e88:	ebffff52 	bl	103bd8 <axi_adc_read>
  103e8c:	e24b300c 	sub	r3, fp, #12
  103e90:	e1a02003 	mov	r2, r3
  103e94:	e3a01058 	mov	r1, #88	; 0x58
  103e98:	e51b0010 	ldr	r0, [fp, #-16]
  103e9c:	ebffff4d 	bl	103bd8 <axi_adc_read>
  103ea0:	e51b3008 	ldr	r3, [fp, #-8]
  103ea4:	e51b200c 	ldr	r2, [fp, #-12]
  103ea8:	e0030392 	mul	r3, r2, r3
  103eac:	e1a02003 	mov	r2, r3
  103eb0:	e3a03000 	mov	r3, #0
  103eb4:	e51b1018 	ldr	r1, [fp, #-24]	; 0xffffffe8
  103eb8:	e1c120f0 	strd	r2, [r1]
  103ebc:	e51b3018 	ldr	r3, [fp, #-24]	; 0xffffffe8
  103ec0:	e1c320d0 	ldrd	r2, [r3]
  103ec4:	e30f15e1 	movw	r1, #62945	; 0xf5e1
  103ec8:	e3401005 	movt	r1, #5
  103ecc:	e0000391 	mul	r0, r1, r3
  103ed0:	e3a01000 	mov	r1, #0
  103ed4:	e0010291 	mul	r1, r1, r2
  103ed8:	e0800001 	add	r0, r0, r1
  103edc:	e30f15e1 	movw	r1, #62945	; 0xf5e1
  103ee0:	e3401005 	movt	r1, #5
  103ee4:	e0832192 	umull	r2, r3, r2, r1
  103ee8:	e0801003 	add	r1, r0, r3
  103eec:	e1a03001 	mov	r3, r1
  103ef0:	e1a02422 	lsr	r2, r2, #8
  103ef4:	e1822c03 	orr	r2, r2, r3, lsl #24
  103ef8:	e1a03423 	lsr	r3, r3, #8
  103efc:	e51b1018 	ldr	r1, [fp, #-24]	; 0xffffffe8
  103f00:	e1c120f0 	strd	r2, [r1]
  103f04:	e3a03000 	mov	r3, #0
  103f08:	e1a00003 	mov	r0, r3
  103f0c:	e24bd004 	sub	sp, fp, #4
  103f10:	e8bd8800 	pop	{fp, pc}

00103f14 <axi_adc_idelay_set>:
  103f14:	e92d4800 	push	{fp, lr}
  103f18:	e28db004 	add	fp, sp, #4
  103f1c:	e24dd010 	sub	sp, sp, #16
  103f20:	e50b0008 	str	r0, [fp, #-8]
  103f24:	e50b100c 	str	r1, [fp, #-12]
  103f28:	e50b2010 	str	r2, [fp, #-16]
  103f2c:	e51b300c 	ldr	r3, [fp, #-12]
  103f30:	e2833c02 	add	r3, r3, #512	; 0x200
  103f34:	e1a03103 	lsl	r3, r3, #2
  103f38:	e51b2010 	ldr	r2, [fp, #-16]
  103f3c:	e1a01003 	mov	r1, r3
  103f40:	e51b0008 	ldr	r0, [fp, #-8]
  103f44:	ebffff33 	bl	103c18 <axi_adc_write>
  103f48:	e320f000 	nop	{0}
  103f4c:	e24bd004 	sub	sp, fp, #4
  103f50:	e8bd8800 	pop	{fp, pc}

00103f54 <axi_adc_delay_set>:
  103f54:	e92d4800 	push	{fp, lr}
  103f58:	e28db004 	add	fp, sp, #4
  103f5c:	e24dd020 	sub	sp, sp, #32
  103f60:	e50b0018 	str	r0, [fp, #-24]	; 0xffffffe8
  103f64:	e50b101c 	str	r1, [fp, #-28]	; 0xffffffe4
  103f68:	e50b2020 	str	r2, [fp, #-32]	; 0xffffffe0
  103f6c:	e24b3010 	sub	r3, fp, #16
  103f70:	e1a02003 	mov	r2, r3
  103f74:	e3a01000 	mov	r1, #0
  103f78:	e51b0018 	ldr	r0, [fp, #-24]	; 0xffffffe8
  103f7c:	ebffff15 	bl	103bd8 <axi_adc_read>
  103f80:	e51b3010 	ldr	r3, [fp, #-16]
  103f84:	e1a03823 	lsr	r3, r3, #16
  103f88:	e50b3010 	str	r3, [fp, #-16]
  103f8c:	e51b3010 	ldr	r3, [fp, #-16]
  103f90:	e3530008 	cmp	r3, #8
  103f94:	8a000009 	bhi	103fc0 <axi_adc_delay_set+0x6c>
  103f98:	e51b3010 	ldr	r3, [fp, #-16]
  103f9c:	e1a01003 	mov	r1, r3
  103fa0:	e30201e8 	movw	r0, #8680	; 0x21e8
  103fa4:	e3400012 	movt	r0, #18
  103fa8:	eb005411 	bl	118ff4 <printf>
  103fac:	e3020204 	movw	r0, #8708	; 0x2204
  103fb0:	e3400012 	movt	r0, #18
  103fb4:	eb00540e 	bl	118ff4 <printf>
  103fb8:	e3e03000 	mvn	r3, #0
  103fbc:	ea00001f 	b	104040 <axi_adc_delay_set+0xec>
  103fc0:	e3a03000 	mov	r3, #0
  103fc4:	e50b3008 	str	r3, [fp, #-8]
  103fc8:	ea000017 	b	10402c <axi_adc_delay_set+0xd8>
  103fcc:	e51b2020 	ldr	r2, [fp, #-32]	; 0xffffffe0
  103fd0:	e51b1008 	ldr	r1, [fp, #-8]
  103fd4:	e51b0018 	ldr	r0, [fp, #-24]	; 0xffffffe8
  103fd8:	ebffffcd 	bl	103f14 <axi_adc_idelay_set>
  103fdc:	e51b3008 	ldr	r3, [fp, #-8]
  103fe0:	e2833c02 	add	r3, r3, #512	; 0x200
  103fe4:	e1a03103 	lsl	r3, r3, #2
  103fe8:	e24b200c 	sub	r2, fp, #12
  103fec:	e1a01003 	mov	r1, r3
  103ff0:	e51b0018 	ldr	r0, [fp, #-24]	; 0xffffffe8
  103ff4:	ebfffef7 	bl	103bd8 <axi_adc_read>
  103ff8:	e51b200c 	ldr	r2, [fp, #-12]
  103ffc:	e51b3020 	ldr	r3, [fp, #-32]	; 0xffffffe0
  104000:	e1520003 	cmp	r2, r3
  104004:	0a000005 	beq	104020 <axi_adc_delay_set+0xcc>
  104008:	e51b200c 	ldr	r2, [fp, #-12]
  10400c:	e51b3020 	ldr	r3, [fp, #-32]	; 0xffffffe0
  104010:	e51b1008 	ldr	r1, [fp, #-8]
  104014:	e302023c 	movw	r0, #8764	; 0x223c
  104018:	e3400012 	movt	r0, #18
  10401c:	eb0053f4 	bl	118ff4 <printf>
  104020:	e51b3008 	ldr	r3, [fp, #-8]
  104024:	e2833001 	add	r3, r3, #1
  104028:	e50b3008 	str	r3, [fp, #-8]
  10402c:	e51b2008 	ldr	r2, [fp, #-8]
  104030:	e51b301c 	ldr	r3, [fp, #-28]	; 0xffffffe4
  104034:	e1520003 	cmp	r2, r3
  104038:	3affffe3 	bcc	103fcc <axi_adc_delay_set+0x78>
  10403c:	e3a03000 	mov	r3, #0
  104040:	e1a00003 	mov	r0, r3
  104044:	e24bd004 	sub	sp, fp, #4
  104048:	e8bd8800 	pop	{fp, pc}

0010404c <axi_adc_delay_calibrate>:
  10404c:	e92d4800 	push	{fp, lr}
  104050:	e28db004 	add	fp, sp, #4
  104054:	e24dd060 	sub	sp, sp, #96	; 0x60
  104058:	e50b0058 	str	r0, [fp, #-88]	; 0xffffffa8
  10405c:	e50b105c 	str	r1, [fp, #-92]	; 0xffffffa4
  104060:	e1a03002 	mov	r3, r2
  104064:	e54b305d 	strb	r3, [fp, #-93]	; 0xffffffa3
  104068:	e24b3030 	sub	r3, fp, #48	; 0x30
  10406c:	e3a02020 	mov	r2, #32
  104070:	e3a01000 	mov	r1, #0
  104074:	e1a00003 	mov	r0, r3
  104078:	eb005383 	bl	118e8c <memset>
  10407c:	e24b303c 	sub	r3, fp, #60	; 0x3c
  104080:	e3a02000 	mov	r2, #0
  104084:	e5832000 	str	r2, [r3]
  104088:	e5832004 	str	r2, [r3, #4]
  10408c:	e1c320b8 	strh	r2, [r3, #8]
  104090:	e24b3048 	sub	r3, fp, #72	; 0x48
  104094:	e3a02000 	mov	r2, #0
  104098:	e5832000 	str	r2, [r3]
  10409c:	e5832004 	str	r2, [r3, #4]
  1040a0:	e1c320b8 	strh	r2, [r3, #8]
  1040a4:	e3a03000 	mov	r3, #0
  1040a8:	e14b30b6 	strh	r3, [fp, #-6]
  1040ac:	e3a03020 	mov	r3, #32
  1040b0:	e14b30b8 	strh	r3, [fp, #-8]
  1040b4:	e3a03020 	mov	r3, #32
  1040b8:	e14b30ba 	strh	r3, [fp, #-10]
  1040bc:	e3a03000 	mov	r3, #0
  1040c0:	e54b300b 	strb	r3, [fp, #-11]
  1040c4:	e3a03000 	mov	r3, #0
  1040c8:	e54b300c 	strb	r3, [fp, #-12]
  1040cc:	e3a03000 	mov	r3, #0
  1040d0:	e54b300d 	strb	r3, [fp, #-13]
  1040d4:	e24b3050 	sub	r3, fp, #80	; 0x50
  1040d8:	e3a02000 	mov	r2, #0
  1040dc:	e5832000 	str	r2, [r3]
  1040e0:	e5c32004 	strb	r2, [r3, #4]
  1040e4:	e3a03000 	mov	r3, #0
  1040e8:	e54b300e 	strb	r3, [fp, #-14]
  1040ec:	e3a03000 	mov	r3, #0
  1040f0:	e54b300f 	strb	r3, [fp, #-15]
  1040f4:	e3a03020 	mov	r3, #32
  1040f8:	e54b3010 	strb	r3, [fp, #-16]
  1040fc:	e3a03000 	mov	r3, #0
  104100:	e14b30b6 	strh	r3, [fp, #-6]
  104104:	ea000023 	b	104198 <axi_adc_delay_calibrate+0x14c>
  104108:	e15b30b6 	ldrh	r3, [fp, #-6]
  10410c:	e1a02003 	mov	r2, r3
  104110:	e51b105c 	ldr	r1, [fp, #-92]	; 0xffffffa4
  104114:	e51b0058 	ldr	r0, [fp, #-88]	; 0xffffffa8
  104118:	ebffff8d 	bl	103f54 <axi_adc_delay_set>
  10411c:	e3a00014 	mov	r0, #20
  104120:	ebfff82f 	bl	1021e4 <mdelay>
  104124:	e55b305d 	ldrb	r3, [fp, #-93]	; 0xffffffa3
  104128:	e3a02064 	mov	r2, #100	; 0x64
  10412c:	e1a01003 	mov	r1, r3
  104130:	e51b0058 	ldr	r0, [fp, #-88]	; 0xffffffa8
  104134:	ebfffeeb 	bl	103ce8 <axi_adc_pn_mon>
  104138:	e1a03000 	mov	r3, r0
  10413c:	e3530000 	cmp	r3, #0
  104140:	1a00000c 	bne	104178 <axi_adc_delay_calibrate+0x12c>
  104144:	e15b30b6 	ldrh	r3, [fp, #-6]
  104148:	e24b2004 	sub	r2, fp, #4
  10414c:	e0823003 	add	r3, r2, r3
  104150:	e3a02000 	mov	r2, #0
  104154:	e543202c 	strb	r2, [r3, #-44]	; 0xffffffd4
  104158:	e15b30b8 	ldrh	r3, [fp, #-8]
  10415c:	e3530020 	cmp	r3, #32
  104160:	1a000001 	bne	10416c <axi_adc_delay_calibrate+0x120>
  104164:	e15b30b6 	ldrh	r3, [fp, #-6]
  104168:	ea000000 	b	104170 <axi_adc_delay_calibrate+0x124>
  10416c:	e15b30b8 	ldrh	r3, [fp, #-8]
  104170:	e14b30b8 	strh	r3, [fp, #-8]
  104174:	ea000004 	b	10418c <axi_adc_delay_calibrate+0x140>
  104178:	e15b30b6 	ldrh	r3, [fp, #-6]
  10417c:	e24b2004 	sub	r2, fp, #4
  104180:	e0823003 	add	r3, r2, r3
  104184:	e3a02001 	mov	r2, #1
  104188:	e543202c 	strb	r2, [r3, #-44]	; 0xffffffd4
  10418c:	e15b30b6 	ldrh	r3, [fp, #-6]
  104190:	e2833001 	add	r3, r3, #1
  104194:	e14b30b6 	strh	r3, [fp, #-6]
  104198:	e15b30b6 	ldrh	r3, [fp, #-6]
  10419c:	e353001f 	cmp	r3, #31
  1041a0:	9affffd8 	bls	104108 <axi_adc_delay_calibrate+0xbc>
  1041a4:	e15b30b8 	ldrh	r3, [fp, #-8]
  1041a8:	e353001f 	cmp	r3, #31
  1041ac:	9a00000a 	bls	1041dc <axi_adc_delay_calibrate+0x190>
  1041b0:	e30212d0 	movw	r1, #8912	; 0x22d0
  1041b4:	e3401012 	movt	r1, #18
  1041b8:	e3020270 	movw	r0, #8816	; 0x2270
  1041bc:	e3400012 	movt	r0, #18
  1041c0:	eb00538b 	bl	118ff4 <printf>
  1041c4:	e3a02000 	mov	r2, #0
  1041c8:	e51b105c 	ldr	r1, [fp, #-92]	; 0xffffffa4
  1041cc:	e51b0058 	ldr	r0, [fp, #-88]	; 0xffffffa8
  1041d0:	ebffff5f 	bl	103f54 <axi_adc_delay_set>
  1041d4:	e3e03000 	mvn	r3, #0
  1041d8:	ea00008e 	b	104418 <axi_adc_delay_calibrate+0x3cc>
  1041dc:	e3a03020 	mov	r3, #32
  1041e0:	e14b30b8 	strh	r3, [fp, #-8]
  1041e4:	e3a03020 	mov	r3, #32
  1041e8:	e14b30ba 	strh	r3, [fp, #-10]
  1041ec:	e3a03000 	mov	r3, #0
  1041f0:	e54b300f 	strb	r3, [fp, #-15]
  1041f4:	ea00004e 	b	104334 <axi_adc_delay_calibrate+0x2e8>
  1041f8:	e55b300f 	ldrb	r3, [fp, #-15]
  1041fc:	e24b2004 	sub	r2, fp, #4
  104200:	e0823003 	add	r3, r2, r3
  104204:	e553302c 	ldrb	r3, [r3, #-44]	; 0xffffffd4
  104208:	e3530000 	cmp	r3, #0
  10420c:	1a000017 	bne	104270 <axi_adc_delay_calibrate+0x224>
  104210:	e15b30b8 	ldrh	r3, [fp, #-8]
  104214:	e3530020 	cmp	r3, #32
  104218:	1a000001 	bne	104224 <axi_adc_delay_calibrate+0x1d8>
  10421c:	e55b300f 	ldrb	r3, [fp, #-15]
  104220:	e14b30b8 	strh	r3, [fp, #-8]
  104224:	e15b30b8 	ldrh	r3, [fp, #-8]
  104228:	e3530020 	cmp	r3, #32
  10422c:	0a000006 	beq	10424c <axi_adc_delay_calibrate+0x200>
  104230:	e15b30ba 	ldrh	r3, [fp, #-10]
  104234:	e3530020 	cmp	r3, #32
  104238:	0a000003 	beq	10424c <axi_adc_delay_calibrate+0x200>
  10423c:	e3a03020 	mov	r3, #32
  104240:	e14b30b8 	strh	r3, [fp, #-8]
  104244:	e3a03020 	mov	r3, #32
  104248:	e14b30ba 	strh	r3, [fp, #-10]
  10424c:	e55b300b 	ldrb	r3, [fp, #-11]
  104250:	e24b2004 	sub	r2, fp, #4
  104254:	e0822003 	add	r2, r2, r3
  104258:	e552204c 	ldrb	r2, [r2, #-76]	; 0xffffffb4
  10425c:	e2822001 	add	r2, r2, #1
  104260:	e6ef2072 	uxtb	r2, r2
  104264:	e24b1004 	sub	r1, fp, #4
  104268:	e0813003 	add	r3, r1, r3
  10426c:	e543204c 	strb	r2, [r3, #-76]	; 0xffffffb4
  104270:	e55b300f 	ldrb	r3, [fp, #-15]
  104274:	e24b2004 	sub	r2, fp, #4
  104278:	e0823003 	add	r3, r2, r3
  10427c:	e553302c 	ldrb	r3, [r3, #-44]	; 0xffffffd4
  104280:	e3530001 	cmp	r3, #1
  104284:	0a000004 	beq	10429c <axi_adc_delay_calibrate+0x250>
  104288:	e55b200f 	ldrb	r2, [fp, #-15]
  10428c:	e55b3010 	ldrb	r3, [fp, #-16]
  104290:	e2433001 	sub	r3, r3, #1
  104294:	e1520003 	cmp	r2, r3
  104298:	1a000022 	bne	104328 <axi_adc_delay_calibrate+0x2dc>
  10429c:	e15b30ba 	ldrh	r3, [fp, #-10]
  1042a0:	e3530020 	cmp	r3, #32
  1042a4:	1a000001 	bne	1042b0 <axi_adc_delay_calibrate+0x264>
  1042a8:	e55b300f 	ldrb	r3, [fp, #-15]
  1042ac:	e14b30ba 	strh	r3, [fp, #-10]
  1042b0:	e15b30b8 	ldrh	r3, [fp, #-8]
  1042b4:	e3530020 	cmp	r3, #32
  1042b8:	0a000017 	beq	10431c <axi_adc_delay_calibrate+0x2d0>
  1042bc:	e15b30ba 	ldrh	r3, [fp, #-10]
  1042c0:	e3530020 	cmp	r3, #32
  1042c4:	0a000014 	beq	10431c <axi_adc_delay_calibrate+0x2d0>
  1042c8:	e55b300b 	ldrb	r3, [fp, #-11]
  1042cc:	e1a03083 	lsl	r3, r3, #1
  1042d0:	e24b2004 	sub	r2, fp, #4
  1042d4:	e0823003 	add	r3, r2, r3
  1042d8:	e2433038 	sub	r3, r3, #56	; 0x38
  1042dc:	e15b20b8 	ldrh	r2, [fp, #-8]
  1042e0:	e1c320b0 	strh	r2, [r3]
  1042e4:	e55b300b 	ldrb	r3, [fp, #-11]
  1042e8:	e1a03083 	lsl	r3, r3, #1
  1042ec:	e24b2004 	sub	r2, fp, #4
  1042f0:	e0823003 	add	r3, r2, r3
  1042f4:	e2433044 	sub	r3, r3, #68	; 0x44
  1042f8:	e15b20ba 	ldrh	r2, [fp, #-10]
  1042fc:	e1c320b0 	strh	r2, [r3]
  104300:	e3a03020 	mov	r3, #32
  104304:	e14b30b8 	strh	r3, [fp, #-8]
  104308:	e3a03020 	mov	r3, #32
  10430c:	e14b30ba 	strh	r3, [fp, #-10]
  104310:	e55b300b 	ldrb	r3, [fp, #-11]
  104314:	e2833001 	add	r3, r3, #1
  104318:	e54b300b 	strb	r3, [fp, #-11]
  10431c:	e55b300e 	ldrb	r3, [fp, #-14]
  104320:	e2833001 	add	r3, r3, #1
  104324:	e54b300e 	strb	r3, [fp, #-14]
  104328:	e55b300f 	ldrb	r3, [fp, #-15]
  10432c:	e2833001 	add	r3, r3, #1
  104330:	e54b300f 	strb	r3, [fp, #-15]
  104334:	e55b200f 	ldrb	r2, [fp, #-15]
  104338:	e55b3010 	ldrb	r3, [fp, #-16]
  10433c:	e1520003 	cmp	r2, r3
  104340:	3affffac 	bcc	1041f8 <axi_adc_delay_calibrate+0x1ac>
  104344:	e3a03000 	mov	r3, #0
  104348:	e54b300f 	strb	r3, [fp, #-15]
  10434c:	ea000010 	b	104394 <axi_adc_delay_calibrate+0x348>
  104350:	e55b300f 	ldrb	r3, [fp, #-15]
  104354:	e24b2004 	sub	r2, fp, #4
  104358:	e0823003 	add	r3, r2, r3
  10435c:	e553304c 	ldrb	r3, [r3, #-76]	; 0xffffffb4
  104360:	e55b200d 	ldrb	r2, [fp, #-13]
  104364:	e1520003 	cmp	r2, r3
  104368:	2a000006 	bcs	104388 <axi_adc_delay_calibrate+0x33c>
  10436c:	e55b300f 	ldrb	r3, [fp, #-15]
  104370:	e24b2004 	sub	r2, fp, #4
  104374:	e0823003 	add	r3, r2, r3
  104378:	e553304c 	ldrb	r3, [r3, #-76]	; 0xffffffb4
  10437c:	e54b300d 	strb	r3, [fp, #-13]
  104380:	e55b300f 	ldrb	r3, [fp, #-15]
  104384:	e54b300c 	strb	r3, [fp, #-12]
  104388:	e55b300f 	ldrb	r3, [fp, #-15]
  10438c:	e2833001 	add	r3, r3, #1
  104390:	e54b300f 	strb	r3, [fp, #-15]
  104394:	e55b300f 	ldrb	r3, [fp, #-15]
  104398:	e3530004 	cmp	r3, #4
  10439c:	9affffeb 	bls	104350 <axi_adc_delay_calibrate+0x304>
  1043a0:	e55b300c 	ldrb	r3, [fp, #-12]
  1043a4:	e1a03083 	lsl	r3, r3, #1
  1043a8:	e24b2004 	sub	r2, fp, #4
  1043ac:	e0823003 	add	r3, r2, r3
  1043b0:	e2433038 	sub	r3, r3, #56	; 0x38
  1043b4:	e1d330b0 	ldrh	r3, [r3]
  1043b8:	e1a02003 	mov	r2, r3
  1043bc:	e55b300c 	ldrb	r3, [fp, #-12]
  1043c0:	e1a03083 	lsl	r3, r3, #1
  1043c4:	e24b1004 	sub	r1, fp, #4
  1043c8:	e0813003 	add	r3, r1, r3
  1043cc:	e2433044 	sub	r3, r3, #68	; 0x44
  1043d0:	e1d330b0 	ldrh	r3, [r3]
  1043d4:	e0823003 	add	r3, r2, r3
  1043d8:	e2433001 	sub	r3, r3, #1
  1043dc:	e1a02fa3 	lsr	r2, r3, #31
  1043e0:	e0823003 	add	r3, r2, r3
  1043e4:	e1a030c3 	asr	r3, r3, #1
  1043e8:	e14b30b6 	strh	r3, [fp, #-6]
  1043ec:	e15b30b6 	ldrh	r3, [fp, #-6]
  1043f0:	e1a01003 	mov	r1, r3
  1043f4:	e302027c 	movw	r0, #8828	; 0x227c
  1043f8:	e3400012 	movt	r0, #18
  1043fc:	eb0052fc 	bl	118ff4 <printf>
  104400:	e15b30b6 	ldrh	r3, [fp, #-6]
  104404:	e1a02003 	mov	r2, r3
  104408:	e51b105c 	ldr	r1, [fp, #-92]	; 0xffffffa4
  10440c:	e51b0058 	ldr	r0, [fp, #-88]	; 0xffffffa8
  104410:	ebfffecf 	bl	103f54 <axi_adc_delay_set>
  104414:	e3a03000 	mov	r3, #0
  104418:	e1a00003 	mov	r0, r3
  10441c:	e24bd004 	sub	sp, fp, #4
  104420:	e8bd8800 	pop	{fp, pc}

00104424 <axi_adc_set_calib_phase_scale>:
  104424:	e92d4800 	push	{fp, lr}
  104428:	e28db004 	add	fp, sp, #4
  10442c:	e24dd028 	sub	sp, sp, #40	; 0x28
  104430:	e50b0020 	str	r0, [fp, #-32]	; 0xffffffe0
  104434:	e50b1024 	str	r1, [fp, #-36]	; 0xffffffdc
  104438:	e50b2028 	str	r2, [fp, #-40]	; 0xffffffd8
  10443c:	e50b302c 	str	r3, [fp, #-44]	; 0xffffffd4
  104440:	e51b302c 	ldr	r3, [fp, #-44]	; 0xffffffd4
  104444:	e3530000 	cmp	r3, #0
  104448:	0a00000a 	beq	104478 <axi_adc_set_calib_phase_scale+0x54>
  10444c:	e3530001 	cmp	r3, #1
  104450:	0a000002 	beq	104460 <axi_adc_set_calib_phase_scale+0x3c>
  104454:	e3730001 	cmn	r3, #1
  104458:	0a000003 	beq	10446c <axi_adc_set_calib_phase_scale+0x48>
  10445c:	ea000010 	b	1044a4 <axi_adc_set_calib_phase_scale+0x80>
  104460:	e3a03901 	mov	r3, #16384	; 0x4000
  104464:	e50b3008 	str	r3, [fp, #-8]
  104468:	ea000010 	b	1044b0 <axi_adc_set_calib_phase_scale+0x8c>
  10446c:	e3a03903 	mov	r3, #49152	; 0xc000
  104470:	e50b3008 	str	r3, [fp, #-8]
  104474:	ea00000d 	b	1044b0 <axi_adc_set_calib_phase_scale+0x8c>
  104478:	e3a03000 	mov	r3, #0
  10447c:	e50b3008 	str	r3, [fp, #-8]
  104480:	e59b3004 	ldr	r3, [fp, #4]
  104484:	e3530000 	cmp	r3, #0
  104488:	aa000007 	bge	1044ac <axi_adc_set_calib_phase_scale+0x88>
  10448c:	e3a03902 	mov	r3, #32768	; 0x8000
  104490:	e50b3008 	str	r3, [fp, #-8]
  104494:	e59b3004 	ldr	r3, [fp, #4]
  104498:	e2633000 	rsb	r3, r3, #0
  10449c:	e58b3004 	str	r3, [fp, #4]
  1044a0:	ea000001 	b	1044ac <axi_adc_set_calib_phase_scale+0x88>
  1044a4:	e3e03000 	mvn	r3, #0
  1044a8:	ea000040 	b	1045b0 <axi_adc_set_calib_phase_scale+0x18c>
  1044ac:	e320f000 	nop	{0}
  1044b0:	e59b3004 	ldr	r3, [fp, #4]
  1044b4:	ee803b90 	vdup.32	d16, r3
  1044b8:	f2e000b0 	vshr.s64	d16, d16, #32
  1044bc:	f2ce05b0 	vshl.s64	d16, d16, #14
  1044c0:	e30a2120 	movw	r2, #41248	; 0xa120
  1044c4:	e3402007 	movt	r2, #7
  1044c8:	e3a03000 	mov	r3, #0
  1044cc:	ec510b30 	vmov	r0, r1, d16
  1044d0:	e0900002 	adds	r0, r0, r2
  1044d4:	e0a11003 	adc	r1, r1, r3
  1044d8:	e1a02000 	mov	r2, r0
  1044dc:	e1a03001 	mov	r3, r1
  1044e0:	e14b21f4 	strd	r2, [fp, #-20]	; 0xffffffec
  1044e4:	e24b1014 	sub	r1, fp, #20
  1044e8:	e3042240 	movw	r2, #16960	; 0x4240
  1044ec:	e340200f 	movt	r2, #15
  1044f0:	e3a03000 	mov	r3, #0
  1044f4:	e1a00001 	mov	r0, r1
  1044f8:	ebfff85b 	bl	10266c <do_div>
  1044fc:	e14b21d4 	ldrd	r2, [fp, #-20]	; 0xffffffec
  104500:	e51b3008 	ldr	r3, [fp, #-8]
  104504:	e1833002 	orr	r3, r3, r2
  104508:	e50b3008 	str	r3, [fp, #-8]
  10450c:	e51b3028 	ldr	r3, [fp, #-40]	; 0xffffffd8
  104510:	e1a03303 	lsl	r3, r3, #6
  104514:	e2833e41 	add	r3, r3, #1040	; 0x410
  104518:	e2833004 	add	r3, r3, #4
  10451c:	e24b2018 	sub	r2, fp, #24
  104520:	e1a01003 	mov	r1, r3
  104524:	e51b0020 	ldr	r0, [fp, #-32]	; 0xffffffe0
  104528:	ebfffdaa 	bl	103bd8 <axi_adc_read>
  10452c:	e51b2028 	ldr	r2, [fp, #-40]	; 0xffffffd8
  104530:	e51b3024 	ldr	r3, [fp, #-36]	; 0xffffffdc
  104534:	e0823003 	add	r3, r2, r3
  104538:	e2033001 	and	r3, r3, #1
  10453c:	e3530000 	cmp	r3, #0
  104540:	1a000008 	bne	104568 <axi_adc_set_calib_phase_scale+0x144>
  104544:	e51b3018 	ldr	r3, [fp, #-24]	; 0xffffffe8
  104548:	e6ff3073 	uxth	r3, r3
  10454c:	e50b3018 	str	r3, [fp, #-24]	; 0xffffffe8
  104550:	e51b3008 	ldr	r3, [fp, #-8]
  104554:	e1a02803 	lsl	r2, r3, #16
  104558:	e51b3018 	ldr	r3, [fp, #-24]	; 0xffffffe8
  10455c:	e1823003 	orr	r3, r2, r3
  104560:	e50b3018 	str	r3, [fp, #-24]	; 0xffffffe8
  104564:	ea000008 	b	10458c <axi_adc_set_calib_phase_scale+0x168>
  104568:	e51b3018 	ldr	r3, [fp, #-24]	; 0xffffffe8
  10456c:	e1a03823 	lsr	r3, r3, #16
  104570:	e1a03803 	lsl	r3, r3, #16
  104574:	e50b3018 	str	r3, [fp, #-24]	; 0xffffffe8
  104578:	e51b3008 	ldr	r3, [fp, #-8]
  10457c:	e6ff2073 	uxth	r2, r3
  104580:	e51b3018 	ldr	r3, [fp, #-24]	; 0xffffffe8
  104584:	e1823003 	orr	r3, r2, r3
  104588:	e50b3018 	str	r3, [fp, #-24]	; 0xffffffe8
  10458c:	e51b3028 	ldr	r3, [fp, #-40]	; 0xffffffd8
  104590:	e1a03303 	lsl	r3, r3, #6
  104594:	e2833e41 	add	r3, r3, #1040	; 0x410
  104598:	e2833004 	add	r3, r3, #4
  10459c:	e51b2018 	ldr	r2, [fp, #-24]	; 0xffffffe8
  1045a0:	e1a01003 	mov	r1, r3
  1045a4:	e51b0020 	ldr	r0, [fp, #-32]	; 0xffffffe0
  1045a8:	ebfffd9a 	bl	103c18 <axi_adc_write>
  1045ac:	e3a03000 	mov	r3, #0
  1045b0:	e1a00003 	mov	r0, r3
  1045b4:	e24bd004 	sub	sp, fp, #4
  1045b8:	e8bd8800 	pop	{fp, pc}

001045bc <axi_adc_get_calib_phase_scale>:
  1045bc:	e92d4800 	push	{fp, lr}
  1045c0:	e28db004 	add	fp, sp, #4
  1045c4:	e24dd020 	sub	sp, sp, #32
  1045c8:	e50b0018 	str	r0, [fp, #-24]	; 0xffffffe8
  1045cc:	e50b101c 	str	r1, [fp, #-28]	; 0xffffffe4
  1045d0:	e50b2020 	str	r2, [fp, #-32]	; 0xffffffe0
  1045d4:	e50b3024 	str	r3, [fp, #-36]	; 0xffffffdc
  1045d8:	e51b3020 	ldr	r3, [fp, #-32]	; 0xffffffe0
  1045dc:	e1a03303 	lsl	r3, r3, #6
  1045e0:	e2833e41 	add	r3, r3, #1040	; 0x410
  1045e4:	e2833004 	add	r3, r3, #4
  1045e8:	e24b200c 	sub	r2, fp, #12
  1045ec:	e1a01003 	mov	r1, r3
  1045f0:	e51b0018 	ldr	r0, [fp, #-24]	; 0xffffffe8
  1045f4:	ebfffd77 	bl	103bd8 <axi_adc_read>
  1045f8:	e51b201c 	ldr	r2, [fp, #-28]	; 0xffffffe4
  1045fc:	e51b3020 	ldr	r3, [fp, #-32]	; 0xffffffe0
  104600:	e0823003 	add	r3, r2, r3
  104604:	e2033001 	and	r3, r3, #1
  104608:	e3530000 	cmp	r3, #0
  10460c:	1a000003 	bne	104620 <axi_adc_get_calib_phase_scale+0x64>
  104610:	e51b300c 	ldr	r3, [fp, #-12]
  104614:	e1a03823 	lsr	r3, r3, #16
  104618:	e50b300c 	str	r3, [fp, #-12]
  10461c:	ea000002 	b	10462c <axi_adc_get_calib_phase_scale+0x70>
  104620:	e51b300c 	ldr	r3, [fp, #-12]
  104624:	e6ff3073 	uxth	r3, r3
  104628:	e50b300c 	str	r3, [fp, #-12]
  10462c:	e51b300c 	ldr	r3, [fp, #-12]
  104630:	e2033902 	and	r3, r3, #32768	; 0x8000
  104634:	e3530000 	cmp	r3, #0
  104638:	0a000002 	beq	104648 <axi_adc_get_calib_phase_scale+0x8c>
  10463c:	e3e03000 	mvn	r3, #0
  104640:	e50b3008 	str	r3, [fp, #-8]
  104644:	ea000001 	b	104650 <axi_adc_get_calib_phase_scale+0x94>
  104648:	e3a03001 	mov	r3, #1
  10464c:	e50b3008 	str	r3, [fp, #-8]
  104650:	e51b300c 	ldr	r3, [fp, #-12]
  104654:	e2033901 	and	r3, r3, #16384	; 0x4000
  104658:	e3530000 	cmp	r3, #0
  10465c:	0a000003 	beq	104670 <axi_adc_get_calib_phase_scale+0xb4>
  104660:	e51b3024 	ldr	r3, [fp, #-36]	; 0xffffffdc
  104664:	e51b2008 	ldr	r2, [fp, #-8]
  104668:	e5832000 	str	r2, [r3]
  10466c:	ea000002 	b	10467c <axi_adc_get_calib_phase_scale+0xc0>
  104670:	e51b3024 	ldr	r3, [fp, #-36]	; 0xffffffdc
  104674:	e3a02000 	mov	r2, #0
  104678:	e5832000 	str	r2, [r3]
  10467c:	e51b300c 	ldr	r3, [fp, #-12]
  104680:	e3c33903 	bic	r3, r3, #49152	; 0xc000
  104684:	e50b300c 	str	r3, [fp, #-12]
  104688:	e51b300c 	ldr	r3, [fp, #-12]
  10468c:	e1a02003 	mov	r2, r3
  104690:	e3a03000 	mov	r3, #0
  104694:	ec432b30 	vmov	d16, r2, r3
  104698:	f2c505b0 	vshl.s64	d16, d16, #5
  10469c:	ec432b31 	vmov	d17, r2, r3
  1046a0:	f37008a1 	vsub.i64	d16, d16, d17
  1046a4:	f2c905b0 	vshl.s64	d16, d16, #9
  1046a8:	ec432b31 	vmov	d17, r2, r3
  1046ac:	f27008a1 	vadd.i64	d16, d16, d17
  1046b0:	f2c615b0 	vshl.s64	d17, d16, #6
  1046b4:	f37118a0 	vsub.i64	d17, d17, d16
  1046b8:	ec510b31 	vmov	r0, r1, d17
  1046bc:	e0900002 	adds	r0, r0, r2
  1046c0:	e0a11003 	adc	r1, r1, r3
  1046c4:	e1a02000 	mov	r2, r0
  1046c8:	e1a03001 	mov	r3, r1
  1046cc:	e2922a02 	adds	r2, r2, #8192	; 0x2000
  1046d0:	e2a33000 	adc	r3, r3, #0
  1046d4:	e14b21f4 	strd	r2, [fp, #-20]	; 0xffffffec
  1046d8:	e24b1014 	sub	r1, fp, #20
  1046dc:	e3a02901 	mov	r2, #16384	; 0x4000
  1046e0:	e3a03000 	mov	r3, #0
  1046e4:	e1a00001 	mov	r0, r1
  1046e8:	ebfff7df 	bl	10266c <do_div>
  1046ec:	e51b3024 	ldr	r3, [fp, #-36]	; 0xffffffdc
  1046f0:	e5933000 	ldr	r3, [r3]
  1046f4:	e3530000 	cmp	r3, #0
  1046f8:	1a00000a 	bne	104728 <axi_adc_get_calib_phase_scale+0x16c>
  1046fc:	e51b3008 	ldr	r3, [fp, #-8]
  104700:	e1a02003 	mov	r2, r3
  104704:	e1a03fc2 	asr	r3, r2, #31
  104708:	e1a01002 	mov	r1, r2
  10470c:	e14b21d4 	ldrd	r2, [fp, #-20]	; 0xffffffec
  104710:	e1a03002 	mov	r3, r2
  104714:	e0030193 	mul	r3, r3, r1
  104718:	e1a02003 	mov	r2, r3
  10471c:	e59b3004 	ldr	r3, [fp, #4]
  104720:	e5832000 	str	r2, [r3]
  104724:	ea000002 	b	104734 <axi_adc_get_calib_phase_scale+0x178>
  104728:	e14b21d4 	ldrd	r2, [fp, #-20]	; 0xffffffec
  10472c:	e59b3004 	ldr	r3, [fp, #4]
  104730:	e5832000 	str	r2, [r3]
  104734:	e3a03000 	mov	r3, #0
  104738:	e1a00003 	mov	r0, r3
  10473c:	e24bd004 	sub	sp, fp, #4
  104740:	e8bd8800 	pop	{fp, pc}

00104744 <axi_adc_set_calib_phase>:
  104744:	e92d4800 	push	{fp, lr}
  104748:	e28db004 	add	fp, sp, #4
  10474c:	e24dd018 	sub	sp, sp, #24
  104750:	e50b0008 	str	r0, [fp, #-8]
  104754:	e50b100c 	str	r1, [fp, #-12]
  104758:	e50b2010 	str	r2, [fp, #-16]
  10475c:	e50b3014 	str	r3, [fp, #-20]	; 0xffffffec
  104760:	e51b3014 	ldr	r3, [fp, #-20]	; 0xffffffec
  104764:	e58d3000 	str	r3, [sp]
  104768:	e51b3010 	ldr	r3, [fp, #-16]
  10476c:	e51b200c 	ldr	r2, [fp, #-12]
  104770:	e3a01001 	mov	r1, #1
  104774:	e51b0008 	ldr	r0, [fp, #-8]
  104778:	ebffff29 	bl	104424 <axi_adc_set_calib_phase_scale>
  10477c:	e1a03000 	mov	r3, r0
  104780:	e1a00003 	mov	r0, r3
  104784:	e24bd004 	sub	sp, fp, #4
  104788:	e8bd8800 	pop	{fp, pc}

0010478c <axi_adc_get_calib_phase>:
  10478c:	e92d4800 	push	{fp, lr}
  104790:	e28db004 	add	fp, sp, #4
  104794:	e24dd018 	sub	sp, sp, #24
  104798:	e50b0008 	str	r0, [fp, #-8]
  10479c:	e50b100c 	str	r1, [fp, #-12]
  1047a0:	e50b2010 	str	r2, [fp, #-16]
  1047a4:	e50b3014 	str	r3, [fp, #-20]	; 0xffffffec
  1047a8:	e51b3014 	ldr	r3, [fp, #-20]	; 0xffffffec
  1047ac:	e58d3000 	str	r3, [sp]
  1047b0:	e51b3010 	ldr	r3, [fp, #-16]
  1047b4:	e51b200c 	ldr	r2, [fp, #-12]
  1047b8:	e3a01001 	mov	r1, #1
  1047bc:	e51b0008 	ldr	r0, [fp, #-8]
  1047c0:	ebffff7d 	bl	1045bc <axi_adc_get_calib_phase_scale>
  1047c4:	e1a03000 	mov	r3, r0
  1047c8:	e1a00003 	mov	r0, r3
  1047cc:	e24bd004 	sub	sp, fp, #4
  1047d0:	e8bd8800 	pop	{fp, pc}

001047d4 <axi_adc_set_calib_scale>:
  1047d4:	e92d4800 	push	{fp, lr}
  1047d8:	e28db004 	add	fp, sp, #4
  1047dc:	e24dd018 	sub	sp, sp, #24
  1047e0:	e50b0008 	str	r0, [fp, #-8]
  1047e4:	e50b100c 	str	r1, [fp, #-12]
  1047e8:	e50b2010 	str	r2, [fp, #-16]
  1047ec:	e50b3014 	str	r3, [fp, #-20]	; 0xffffffec
  1047f0:	e51b3014 	ldr	r3, [fp, #-20]	; 0xffffffec
  1047f4:	e58d3000 	str	r3, [sp]
  1047f8:	e51b3010 	ldr	r3, [fp, #-16]
  1047fc:	e51b200c 	ldr	r2, [fp, #-12]
  104800:	e3a01000 	mov	r1, #0
  104804:	e51b0008 	ldr	r0, [fp, #-8]
  104808:	ebffff05 	bl	104424 <axi_adc_set_calib_phase_scale>
  10480c:	e1a03000 	mov	r3, r0
  104810:	e1a00003 	mov	r0, r3
  104814:	e24bd004 	sub	sp, fp, #4
  104818:	e8bd8800 	pop	{fp, pc}

0010481c <axi_adc_get_calib_scale>:
  10481c:	e92d4800 	push	{fp, lr}
  104820:	e28db004 	add	fp, sp, #4
  104824:	e24dd018 	sub	sp, sp, #24
  104828:	e50b0008 	str	r0, [fp, #-8]
  10482c:	e50b100c 	str	r1, [fp, #-12]
  104830:	e50b2010 	str	r2, [fp, #-16]
  104834:	e50b3014 	str	r3, [fp, #-20]	; 0xffffffec
  104838:	e51b3014 	ldr	r3, [fp, #-20]	; 0xffffffec
  10483c:	e58d3000 	str	r3, [sp]
  104840:	e51b3010 	ldr	r3, [fp, #-16]
  104844:	e51b200c 	ldr	r2, [fp, #-12]
  104848:	e3a01000 	mov	r1, #0
  10484c:	e51b0008 	ldr	r0, [fp, #-8]
  104850:	ebffff59 	bl	1045bc <axi_adc_get_calib_phase_scale>
  104854:	e1a03000 	mov	r3, r0
  104858:	e1a00003 	mov	r0, r3
  10485c:	e24bd004 	sub	sp, fp, #4
  104860:	e8bd8800 	pop	{fp, pc}

00104864 <axi_adc_set_calib_bias>:
  104864:	e92d4800 	push	{fp, lr}
  104868:	e28db004 	add	fp, sp, #4
  10486c:	e24dd018 	sub	sp, sp, #24
  104870:	e50b0010 	str	r0, [fp, #-16]
  104874:	e50b1014 	str	r1, [fp, #-20]	; 0xffffffec
  104878:	e50b2018 	str	r2, [fp, #-24]	; 0xffffffe8
  10487c:	e50b301c 	str	r3, [fp, #-28]	; 0xffffffe4
  104880:	e51b3014 	ldr	r3, [fp, #-20]	; 0xffffffec
  104884:	e1a03303 	lsl	r3, r3, #6
  104888:	e2833e41 	add	r3, r3, #1040	; 0x410
  10488c:	e24b2008 	sub	r2, fp, #8
  104890:	e1a01003 	mov	r1, r3
  104894:	e51b0010 	ldr	r0, [fp, #-16]
  104898:	ebfffcce 	bl	103bd8 <axi_adc_read>
  10489c:	e51b3008 	ldr	r3, [fp, #-8]
  1048a0:	e6ff3073 	uxth	r3, r3
  1048a4:	e50b3008 	str	r3, [fp, #-8]
  1048a8:	e51b3018 	ldr	r3, [fp, #-24]	; 0xffffffe8
  1048ac:	e6ff3073 	uxth	r3, r3
  1048b0:	e1a03803 	lsl	r3, r3, #16
  1048b4:	e1a02003 	mov	r2, r3
  1048b8:	e51b3008 	ldr	r3, [fp, #-8]
  1048bc:	e1823003 	orr	r3, r2, r3
  1048c0:	e50b3008 	str	r3, [fp, #-8]
  1048c4:	e51b3014 	ldr	r3, [fp, #-20]	; 0xffffffec
  1048c8:	e1a03303 	lsl	r3, r3, #6
  1048cc:	e2833e41 	add	r3, r3, #1040	; 0x410
  1048d0:	e51b2008 	ldr	r2, [fp, #-8]
  1048d4:	e1a01003 	mov	r1, r3
  1048d8:	e51b0010 	ldr	r0, [fp, #-16]
  1048dc:	ebfffccd 	bl	103c18 <axi_adc_write>
  1048e0:	e3a03000 	mov	r3, #0
  1048e4:	e1a00003 	mov	r0, r3
  1048e8:	e24bd004 	sub	sp, fp, #4
  1048ec:	e8bd8800 	pop	{fp, pc}

001048f0 <axi_adc_get_calib_bias>:
  1048f0:	e92d4800 	push	{fp, lr}
  1048f4:	e28db004 	add	fp, sp, #4
  1048f8:	e24dd018 	sub	sp, sp, #24
  1048fc:	e50b0010 	str	r0, [fp, #-16]
  104900:	e50b1014 	str	r1, [fp, #-20]	; 0xffffffec
  104904:	e50b2018 	str	r2, [fp, #-24]	; 0xffffffe8
  104908:	e50b301c 	str	r3, [fp, #-28]	; 0xffffffe4
  10490c:	e51b3014 	ldr	r3, [fp, #-20]	; 0xffffffec
  104910:	e1a03303 	lsl	r3, r3, #6
  104914:	e2833e41 	add	r3, r3, #1040	; 0x410
  104918:	e24b2008 	sub	r2, fp, #8
  10491c:	e1a01003 	mov	r1, r3
  104920:	e51b0010 	ldr	r0, [fp, #-16]
  104924:	ebfffcab 	bl	103bd8 <axi_adc_read>
  104928:	e51b3008 	ldr	r3, [fp, #-8]
  10492c:	e1a03823 	lsr	r3, r3, #16
  104930:	e6ff3073 	uxth	r3, r3
  104934:	e1a02003 	mov	r2, r3
  104938:	e51b3018 	ldr	r3, [fp, #-24]	; 0xffffffe8
  10493c:	e5832000 	str	r2, [r3]
  104940:	e3a03000 	mov	r3, #0
  104944:	e1a00003 	mov	r0, r3
  104948:	e24bd004 	sub	sp, fp, #4
  10494c:	e8bd8800 	pop	{fp, pc}

00104950 <axi_adc_update_active_channels>:
  104950:	e92d4800 	push	{fp, lr}
  104954:	e28db004 	add	fp, sp, #4
  104958:	e24dd018 	sub	sp, sp, #24
  10495c:	e50b0018 	str	r0, [fp, #-24]	; 0xffffffe8
  104960:	e50b101c 	str	r1, [fp, #-28]	; 0xffffffe4
  104964:	e51b3018 	ldr	r3, [fp, #-24]	; 0xffffffe8
  104968:	e5932018 	ldr	r2, [r3, #24]
  10496c:	e51b301c 	ldr	r3, [fp, #-28]	; 0xffffffe4
  104970:	e1520003 	cmp	r2, r3
  104974:	1a000001 	bne	104980 <axi_adc_update_active_channels+0x30>
  104978:	e3a03000 	mov	r3, #0
  10497c:	ea00002e 	b	104a3c <axi_adc_update_active_channels+0xec>
  104980:	e51b3018 	ldr	r3, [fp, #-24]	; 0xffffffe8
  104984:	e51b201c 	ldr	r2, [fp, #-28]	; 0xffffffe4
  104988:	e5832018 	str	r2, [r3, #24]
  10498c:	e3a03000 	mov	r3, #0
  104990:	e50b3008 	str	r3, [fp, #-8]
  104994:	ea000021 	b	104a20 <axi_adc_update_active_channels+0xd0>
  104998:	e51b3008 	ldr	r3, [fp, #-8]
  10499c:	e2833010 	add	r3, r3, #16
  1049a0:	e1a03303 	lsl	r3, r3, #6
  1049a4:	e24b2010 	sub	r2, fp, #16
  1049a8:	e1a01003 	mov	r1, r3
  1049ac:	e51b0018 	ldr	r0, [fp, #-24]	; 0xffffffe8
  1049b0:	ebfffc88 	bl	103bd8 <axi_adc_read>
  1049b4:	e51b3010 	ldr	r3, [fp, #-16]
  1049b8:	e3c33001 	bic	r3, r3, #1
  1049bc:	e50b300c 	str	r3, [fp, #-12]
  1049c0:	e51b301c 	ldr	r3, [fp, #-28]	; 0xffffffe4
  1049c4:	e2033001 	and	r3, r3, #1
  1049c8:	e3530000 	cmp	r3, #0
  1049cc:	0a000002 	beq	1049dc <axi_adc_update_active_channels+0x8c>
  1049d0:	e51b3010 	ldr	r3, [fp, #-16]
  1049d4:	e3833001 	orr	r3, r3, #1
  1049d8:	e50b300c 	str	r3, [fp, #-12]
  1049dc:	e51b3010 	ldr	r3, [fp, #-16]
  1049e0:	e51b200c 	ldr	r2, [fp, #-12]
  1049e4:	e1520003 	cmp	r2, r3
  1049e8:	0a000006 	beq	104a08 <axi_adc_update_active_channels+0xb8>
  1049ec:	e51b3008 	ldr	r3, [fp, #-8]
  1049f0:	e2833010 	add	r3, r3, #16
  1049f4:	e1a03303 	lsl	r3, r3, #6
  1049f8:	e51b200c 	ldr	r2, [fp, #-12]
  1049fc:	e1a01003 	mov	r1, r3
  104a00:	e51b0018 	ldr	r0, [fp, #-24]	; 0xffffffe8
  104a04:	ebfffc83 	bl	103c18 <axi_adc_write>
  104a08:	e51b301c 	ldr	r3, [fp, #-28]	; 0xffffffe4
  104a0c:	e1a030a3 	lsr	r3, r3, #1
  104a10:	e50b301c 	str	r3, [fp, #-28]	; 0xffffffe4
  104a14:	e51b3008 	ldr	r3, [fp, #-8]
  104a18:	e2833001 	add	r3, r3, #1
  104a1c:	e50b3008 	str	r3, [fp, #-8]
  104a20:	e51b3018 	ldr	r3, [fp, #-24]	; 0xffffffe8
  104a24:	e5d33008 	ldrb	r3, [r3, #8]
  104a28:	e1a02003 	mov	r2, r3
  104a2c:	e51b3008 	ldr	r3, [fp, #-8]
  104a30:	e1520003 	cmp	r2, r3
  104a34:	8affffd7 	bhi	104998 <axi_adc_update_active_channels+0x48>
  104a38:	e3a03000 	mov	r3, #0
  104a3c:	e1a00003 	mov	r0, r3
  104a40:	e24bd004 	sub	sp, fp, #4
  104a44:	e8bd8800 	pop	{fp, pc}

00104a48 <axi_adc_init>:
  104a48:	e92d4800 	push	{fp, lr}
  104a4c:	e28db004 	add	fp, sp, #4
  104a50:	e24dd020 	sub	sp, sp, #32
  104a54:	e50b0020 	str	r0, [fp, #-32]	; 0xffffffe0
  104a58:	e50b1024 	str	r1, [fp, #-36]	; 0xffffffdc
  104a5c:	e3a00020 	mov	r0, #32
  104a60:	eb004f22 	bl	1186f0 <malloc>
  104a64:	e1a03000 	mov	r3, r0
  104a68:	e50b300c 	str	r3, [fp, #-12]
  104a6c:	e51b300c 	ldr	r3, [fp, #-12]
  104a70:	e3530000 	cmp	r3, #0
  104a74:	1a000001 	bne	104a80 <axi_adc_init+0x38>
  104a78:	e3e03000 	mvn	r3, #0
  104a7c:	ea00005a 	b	104bec <axi_adc_init+0x1a4>
  104a80:	e51b3024 	ldr	r3, [fp, #-36]	; 0xffffffdc
  104a84:	e5932000 	ldr	r2, [r3]
  104a88:	e51b300c 	ldr	r3, [fp, #-12]
  104a8c:	e5832000 	str	r2, [r3]
  104a90:	e51b3024 	ldr	r3, [fp, #-36]	; 0xffffffdc
  104a94:	e5932004 	ldr	r2, [r3, #4]
  104a98:	e51b300c 	ldr	r3, [fp, #-12]
  104a9c:	e5832004 	str	r2, [r3, #4]
  104aa0:	e51b3024 	ldr	r3, [fp, #-36]	; 0xffffffdc
  104aa4:	e5d32008 	ldrb	r2, [r3, #8]
  104aa8:	e51b300c 	ldr	r3, [fp, #-12]
  104aac:	e5c32008 	strb	r2, [r3, #8]
  104ab0:	e3a02000 	mov	r2, #0
  104ab4:	e3a01040 	mov	r1, #64	; 0x40
  104ab8:	e51b000c 	ldr	r0, [fp, #-12]
  104abc:	ebfffc55 	bl	103c18 <axi_adc_write>
  104ac0:	e3a02003 	mov	r2, #3
  104ac4:	e3a01040 	mov	r1, #64	; 0x40
  104ac8:	e51b000c 	ldr	r0, [fp, #-12]
  104acc:	ebfffc51 	bl	103c18 <axi_adc_write>
  104ad0:	e3a03000 	mov	r3, #0
  104ad4:	e54b3005 	strb	r3, [fp, #-5]
  104ad8:	ea000009 	b	104b04 <axi_adc_init+0xbc>
  104adc:	e55b3005 	ldrb	r3, [fp, #-5]
  104ae0:	e2833010 	add	r3, r3, #16
  104ae4:	e1a03303 	lsl	r3, r3, #6
  104ae8:	e3a02051 	mov	r2, #81	; 0x51
  104aec:	e1a01003 	mov	r1, r3
  104af0:	e51b000c 	ldr	r0, [fp, #-12]
  104af4:	ebfffc47 	bl	103c18 <axi_adc_write>
  104af8:	e55b3005 	ldrb	r3, [fp, #-5]
  104afc:	e2833001 	add	r3, r3, #1
  104b00:	e54b3005 	strb	r3, [fp, #-5]
  104b04:	e51b300c 	ldr	r3, [fp, #-12]
  104b08:	e5d33008 	ldrb	r3, [r3, #8]
  104b0c:	e55b2005 	ldrb	r2, [fp, #-5]
  104b10:	e1520003 	cmp	r2, r3
  104b14:	3afffff0 	bcc	104adc <axi_adc_init+0x94>
  104b18:	e3a00064 	mov	r0, #100	; 0x64
  104b1c:	ebfff5b0 	bl	1021e4 <mdelay>
  104b20:	e24b3010 	sub	r3, fp, #16
  104b24:	e1a02003 	mov	r2, r3
  104b28:	e3a0105c 	mov	r1, #92	; 0x5c
  104b2c:	e51b000c 	ldr	r0, [fp, #-12]
  104b30:	ebfffc28 	bl	103bd8 <axi_adc_read>
  104b34:	e24b3014 	sub	r3, fp, #20
  104b38:	e1a02003 	mov	r2, r3
  104b3c:	e3a01054 	mov	r1, #84	; 0x54
  104b40:	e51b000c 	ldr	r0, [fp, #-12]
  104b44:	ebfffc23 	bl	103bd8 <axi_adc_read>
  104b48:	e24b3018 	sub	r3, fp, #24
  104b4c:	e1a02003 	mov	r2, r3
  104b50:	e3a01058 	mov	r1, #88	; 0x58
  104b54:	e51b000c 	ldr	r0, [fp, #-12]
  104b58:	ebfffc1e 	bl	103bd8 <axi_adc_read>
  104b5c:	e51b3014 	ldr	r3, [fp, #-20]	; 0xffffffec
  104b60:	e51b2018 	ldr	r2, [fp, #-24]	; 0xffffffe8
  104b64:	e0030392 	mul	r3, r2, r3
  104b68:	e1a02003 	mov	r2, r3
  104b6c:	e3a03000 	mov	r3, #0
  104b70:	e51b100c 	ldr	r1, [fp, #-12]
  104b74:	e1c121f0 	strd	r2, [r1, #16]
  104b78:	e51b300c 	ldr	r3, [fp, #-12]
  104b7c:	e1c321d0 	ldrd	r2, [r3, #16]
  104b80:	e30f15e1 	movw	r1, #62945	; 0xf5e1
  104b84:	e3401005 	movt	r1, #5
  104b88:	e0000391 	mul	r0, r1, r3
  104b8c:	e3a01000 	mov	r1, #0
  104b90:	e0010291 	mul	r1, r1, r2
  104b94:	e0800001 	add	r0, r0, r1
  104b98:	e30f15e1 	movw	r1, #62945	; 0xf5e1
  104b9c:	e3401005 	movt	r1, #5
  104ba0:	e0832192 	umull	r2, r3, r2, r1
  104ba4:	e0801003 	add	r1, r0, r3
  104ba8:	e1a03001 	mov	r3, r1
  104bac:	e1a02422 	lsr	r2, r2, #8
  104bb0:	e1822c03 	orr	r2, r2, r3, lsl #24
  104bb4:	e1a03423 	lsr	r3, r3, #8
  104bb8:	e51b100c 	ldr	r1, [fp, #-12]
  104bbc:	e1c121f0 	strd	r2, [r1, #16]
  104bc0:	e51b300c 	ldr	r3, [fp, #-12]
  104bc4:	e5931000 	ldr	r1, [r3]
  104bc8:	e51b300c 	ldr	r3, [fp, #-12]
  104bcc:	e1c321d0 	ldrd	r2, [r3, #16]
  104bd0:	e30202a8 	movw	r0, #8872	; 0x22a8
  104bd4:	e3400012 	movt	r0, #18
  104bd8:	eb005105 	bl	118ff4 <printf>
  104bdc:	e51b3020 	ldr	r3, [fp, #-32]	; 0xffffffe0
  104be0:	e51b200c 	ldr	r2, [fp, #-12]
  104be4:	e5832000 	str	r2, [r3]
  104be8:	e3a03000 	mov	r3, #0
  104bec:	e1a00003 	mov	r0, r3
  104bf0:	e24bd004 	sub	sp, fp, #4
  104bf4:	e8bd8800 	pop	{fp, pc}

00104bf8 <axi_adc_remove>:
  104bf8:	e92d4800 	push	{fp, lr}
  104bfc:	e28db004 	add	fp, sp, #4
  104c00:	e24dd008 	sub	sp, sp, #8
  104c04:	e50b0008 	str	r0, [fp, #-8]
  104c08:	e51b0008 	ldr	r0, [fp, #-8]
  104c0c:	eb004ebd 	bl	118708 <free>
  104c10:	e3a03000 	mov	r3, #0
  104c14:	e1a00003 	mov	r0, r3
  104c18:	e24bd004 	sub	sp, fp, #4
  104c1c:	e8bd8800 	pop	{fp, pc}

00104c20 <axi_dmac_read>:
  104c20:	e92d4800 	push	{fp, lr}
  104c24:	e28db004 	add	fp, sp, #4
  104c28:	e24dd010 	sub	sp, sp, #16
  104c2c:	e50b0008 	str	r0, [fp, #-8]
  104c30:	e50b100c 	str	r1, [fp, #-12]
  104c34:	e50b2010 	str	r2, [fp, #-16]
  104c38:	e51b3008 	ldr	r3, [fp, #-8]
  104c3c:	e5933004 	ldr	r3, [r3, #4]
  104c40:	e51b2010 	ldr	r2, [fp, #-16]
  104c44:	e51b100c 	ldr	r1, [fp, #-12]
  104c48:	e1a00003 	mov	r0, r3
  104c4c:	eb0000f3 	bl	105020 <axi_io_read>
  104c50:	e3a03000 	mov	r3, #0
  104c54:	e1a00003 	mov	r0, r3
  104c58:	e24bd004 	sub	sp, fp, #4
  104c5c:	e8bd8800 	pop	{fp, pc}

00104c60 <axi_dmac_write>:
  104c60:	e92d4800 	push	{fp, lr}
  104c64:	e28db004 	add	fp, sp, #4
  104c68:	e24dd010 	sub	sp, sp, #16
  104c6c:	e50b0008 	str	r0, [fp, #-8]
  104c70:	e50b100c 	str	r1, [fp, #-12]
  104c74:	e50b2010 	str	r2, [fp, #-16]
  104c78:	e51b3008 	ldr	r3, [fp, #-8]
  104c7c:	e5933004 	ldr	r3, [r3, #4]
  104c80:	e51b2010 	ldr	r2, [fp, #-16]
  104c84:	e51b100c 	ldr	r1, [fp, #-12]
  104c88:	e1a00003 	mov	r0, r3
  104c8c:	eb0000f4 	bl	105064 <axi_io_write>
  104c90:	e3a03000 	mov	r3, #0
  104c94:	e1a00003 	mov	r0, r3
  104c98:	e24bd004 	sub	sp, fp, #4
  104c9c:	e8bd8800 	pop	{fp, pc}

00104ca0 <axi_dmac_transfer>:
  104ca0:	e92d4800 	push	{fp, lr}
  104ca4:	e28db004 	add	fp, sp, #4
  104ca8:	e24dd020 	sub	sp, sp, #32
  104cac:	e50b0018 	str	r0, [fp, #-24]	; 0xffffffe8
  104cb0:	e50b101c 	str	r1, [fp, #-28]	; 0xffffffe4
  104cb4:	e50b2020 	str	r2, [fp, #-32]	; 0xffffffe0
  104cb8:	e3a03000 	mov	r3, #0
  104cbc:	e50b3010 	str	r3, [fp, #-16]
  104cc0:	e51b3020 	ldr	r3, [fp, #-32]	; 0xffffffe0
  104cc4:	e3530000 	cmp	r3, #0
  104cc8:	1a000001 	bne	104cd4 <axi_dmac_transfer+0x34>
  104ccc:	e3a03000 	mov	r3, #0
  104cd0:	ea00007f 	b	104ed4 <axi_dmac_transfer+0x234>
  104cd4:	e3a02000 	mov	r2, #0
  104cd8:	e3a01b01 	mov	r1, #1024	; 0x400
  104cdc:	e51b0018 	ldr	r0, [fp, #-24]	; 0xffffffe8
  104ce0:	ebffffde 	bl	104c60 <axi_dmac_write>
  104ce4:	e3a02001 	mov	r2, #1
  104ce8:	e3a01b01 	mov	r1, #1024	; 0x400
  104cec:	e51b0018 	ldr	r0, [fp, #-24]	; 0xffffffe8
  104cf0:	ebffffda 	bl	104c60 <axi_dmac_write>
  104cf4:	e24b3010 	sub	r3, fp, #16
  104cf8:	e1a02003 	mov	r2, r3
  104cfc:	e3a01b01 	mov	r1, #1024	; 0x400
  104d00:	e51b0018 	ldr	r0, [fp, #-24]	; 0xffffffe8
  104d04:	ebffffc5 	bl	104c20 <axi_dmac_read>
  104d08:	e3a02000 	mov	r2, #0
  104d0c:	e3a01080 	mov	r1, #128	; 0x80
  104d10:	e51b0018 	ldr	r0, [fp, #-24]	; 0xffffffe8
  104d14:	ebffffd1 	bl	104c60 <axi_dmac_write>
  104d18:	e24b300c 	sub	r3, fp, #12
  104d1c:	e1a02003 	mov	r2, r3
  104d20:	e3a01084 	mov	r1, #132	; 0x84
  104d24:	e51b0018 	ldr	r0, [fp, #-24]	; 0xffffffe8
  104d28:	ebffffbc 	bl	104c20 <axi_dmac_read>
  104d2c:	e24b3008 	sub	r3, fp, #8
  104d30:	e1a02003 	mov	r2, r3
  104d34:	e3001404 	movw	r1, #1028	; 0x404
  104d38:	e51b0018 	ldr	r0, [fp, #-24]	; 0xffffffe8
  104d3c:	ebffffb7 	bl	104c20 <axi_dmac_read>
  104d40:	e24b300c 	sub	r3, fp, #12
  104d44:	e1a02003 	mov	r2, r3
  104d48:	e3a01084 	mov	r1, #132	; 0x84
  104d4c:	e51b0018 	ldr	r0, [fp, #-24]	; 0xffffffe8
  104d50:	ebffffb2 	bl	104c20 <axi_dmac_read>
  104d54:	e51b300c 	ldr	r3, [fp, #-12]
  104d58:	e1a02003 	mov	r2, r3
  104d5c:	e3a01084 	mov	r1, #132	; 0x84
  104d60:	e51b0018 	ldr	r0, [fp, #-24]	; 0xffffffe8
  104d64:	ebffffbd 	bl	104c60 <axi_dmac_write>
  104d68:	e51b3018 	ldr	r3, [fp, #-24]	; 0xffffffe8
  104d6c:	e5d33008 	ldrb	r3, [r3, #8]
  104d70:	e3530000 	cmp	r3, #0
  104d74:	0a000002 	beq	104d84 <axi_dmac_transfer+0xe4>
  104d78:	e3530001 	cmp	r3, #1
  104d7c:	0a000009 	beq	104da8 <axi_dmac_transfer+0x108>
  104d80:	ea000011 	b	104dcc <axi_dmac_transfer+0x12c>
  104d84:	e51b201c 	ldr	r2, [fp, #-28]	; 0xffffffe4
  104d88:	e3a01e41 	mov	r1, #1040	; 0x410
  104d8c:	e51b0018 	ldr	r0, [fp, #-24]	; 0xffffffe8
  104d90:	ebffffb2 	bl	104c60 <axi_dmac_write>
  104d94:	e3a02000 	mov	r2, #0
  104d98:	e3a01e42 	mov	r1, #1056	; 0x420
  104d9c:	e51b0018 	ldr	r0, [fp, #-24]	; 0xffffffe8
  104da0:	ebffffae 	bl	104c60 <axi_dmac_write>
  104da4:	ea00000a 	b	104dd4 <axi_dmac_transfer+0x134>
  104da8:	e51b201c 	ldr	r2, [fp, #-28]	; 0xffffffe4
  104dac:	e3001414 	movw	r1, #1044	; 0x414
  104db0:	e51b0018 	ldr	r0, [fp, #-24]	; 0xffffffe8
  104db4:	ebffffa9 	bl	104c60 <axi_dmac_write>
  104db8:	e3a02000 	mov	r2, #0
  104dbc:	e3001424 	movw	r1, #1060	; 0x424
  104dc0:	e51b0018 	ldr	r0, [fp, #-24]	; 0xffffffe8
  104dc4:	ebffffa5 	bl	104c60 <axi_dmac_write>
  104dc8:	ea000001 	b	104dd4 <axi_dmac_transfer+0x134>
  104dcc:	e3e03000 	mvn	r3, #0
  104dd0:	ea00003f 	b	104ed4 <axi_dmac_transfer+0x234>
  104dd4:	e51b3020 	ldr	r3, [fp, #-32]	; 0xffffffe0
  104dd8:	e2433001 	sub	r3, r3, #1
  104ddc:	e1a02003 	mov	r2, r3
  104de0:	e3001418 	movw	r1, #1048	; 0x418
  104de4:	e51b0018 	ldr	r0, [fp, #-24]	; 0xffffffe8
  104de8:	ebffff9c 	bl	104c60 <axi_dmac_write>
  104dec:	e3a02000 	mov	r2, #0
  104df0:	e300141c 	movw	r1, #1052	; 0x41c
  104df4:	e51b0018 	ldr	r0, [fp, #-24]	; 0xffffffe8
  104df8:	ebffff98 	bl	104c60 <axi_dmac_write>
  104dfc:	e51b3018 	ldr	r3, [fp, #-24]	; 0xffffffe8
  104e00:	e593300c 	ldr	r3, [r3, #12]
  104e04:	e1a02003 	mov	r2, r3
  104e08:	e300140c 	movw	r1, #1036	; 0x40c
  104e0c:	e51b0018 	ldr	r0, [fp, #-24]	; 0xffffffe8
  104e10:	ebffff92 	bl	104c60 <axi_dmac_write>
  104e14:	e3a02001 	mov	r2, #1
  104e18:	e3001408 	movw	r1, #1032	; 0x408
  104e1c:	e51b0018 	ldr	r0, [fp, #-24]	; 0xffffffe8
  104e20:	ebffff8e 	bl	104c60 <axi_dmac_write>
  104e24:	e51b3018 	ldr	r3, [fp, #-24]	; 0xffffffe8
  104e28:	e593300c 	ldr	r3, [r3, #12]
  104e2c:	e2033001 	and	r3, r3, #1
  104e30:	e3530000 	cmp	r3, #0
  104e34:	0a000001 	beq	104e40 <axi_dmac_transfer+0x1a0>
  104e38:	e3a03000 	mov	r3, #0
  104e3c:	ea000024 	b	104ed4 <axi_dmac_transfer+0x234>
  104e40:	e24b300c 	sub	r3, fp, #12
  104e44:	e1a02003 	mov	r2, r3
  104e48:	e3001408 	movw	r1, #1032	; 0x408
  104e4c:	e51b0018 	ldr	r0, [fp, #-24]	; 0xffffffe8
  104e50:	ebffff72 	bl	104c20 <axi_dmac_read>
  104e54:	e51b300c 	ldr	r3, [fp, #-12]
  104e58:	e3530001 	cmp	r3, #1
  104e5c:	0afffff7 	beq	104e40 <axi_dmac_transfer+0x1a0>
  104e60:	e24b300c 	sub	r3, fp, #12
  104e64:	e1a02003 	mov	r2, r3
  104e68:	e3a01084 	mov	r1, #132	; 0x84
  104e6c:	e51b0018 	ldr	r0, [fp, #-24]	; 0xffffffe8
  104e70:	ebffff6a 	bl	104c20 <axi_dmac_read>
  104e74:	e51b300c 	ldr	r3, [fp, #-12]
  104e78:	e3530003 	cmp	r3, #3
  104e7c:	1afffff7 	bne	104e60 <axi_dmac_transfer+0x1c0>
  104e80:	e51b300c 	ldr	r3, [fp, #-12]
  104e84:	e1a02003 	mov	r2, r3
  104e88:	e3a01084 	mov	r1, #132	; 0x84
  104e8c:	e51b0018 	ldr	r0, [fp, #-24]	; 0xffffffe8
  104e90:	ebffff72 	bl	104c60 <axi_dmac_write>
  104e94:	e24b300c 	sub	r3, fp, #12
  104e98:	e1a02003 	mov	r2, r3
  104e9c:	e3001428 	movw	r1, #1064	; 0x428
  104ea0:	e51b0018 	ldr	r0, [fp, #-24]	; 0xffffffe8
  104ea4:	ebffff5d 	bl	104c20 <axi_dmac_read>
  104ea8:	e51b3008 	ldr	r3, [fp, #-8]
  104eac:	e3a02001 	mov	r2, #1
  104eb0:	e1a02312 	lsl	r2, r2, r3
  104eb4:	e51b300c 	ldr	r3, [fp, #-12]
  104eb8:	e0022003 	and	r2, r2, r3
  104ebc:	e51b3008 	ldr	r3, [fp, #-8]
  104ec0:	e3a01001 	mov	r1, #1
  104ec4:	e1a03311 	lsl	r3, r1, r3
  104ec8:	e1520003 	cmp	r2, r3
  104ecc:	1afffff0 	bne	104e94 <axi_dmac_transfer+0x1f4>
  104ed0:	e3a03000 	mov	r3, #0
  104ed4:	e1a00003 	mov	r0, r3
  104ed8:	e24bd004 	sub	sp, fp, #4
  104edc:	e8bd8800 	pop	{fp, pc}

00104ee0 <axi_dmac_init>:
  104ee0:	e92d4800 	push	{fp, lr}
  104ee4:	e28db004 	add	fp, sp, #4
  104ee8:	e24dd010 	sub	sp, sp, #16
  104eec:	e50b0010 	str	r0, [fp, #-16]
  104ef0:	e50b1014 	str	r1, [fp, #-20]	; 0xffffffec
  104ef4:	e3a00010 	mov	r0, #16
  104ef8:	eb004dfc 	bl	1186f0 <malloc>
  104efc:	e1a03000 	mov	r3, r0
  104f00:	e50b3008 	str	r3, [fp, #-8]
  104f04:	e51b3008 	ldr	r3, [fp, #-8]
  104f08:	e3530000 	cmp	r3, #0
  104f0c:	1a000001 	bne	104f18 <axi_dmac_init+0x38>
  104f10:	e3e03000 	mvn	r3, #0
  104f14:	ea000013 	b	104f68 <axi_dmac_init+0x88>
  104f18:	e51b3014 	ldr	r3, [fp, #-20]	; 0xffffffec
  104f1c:	e5932000 	ldr	r2, [r3]
  104f20:	e51b3008 	ldr	r3, [fp, #-8]
  104f24:	e5832000 	str	r2, [r3]
  104f28:	e51b3014 	ldr	r3, [fp, #-20]	; 0xffffffec
  104f2c:	e5932004 	ldr	r2, [r3, #4]
  104f30:	e51b3008 	ldr	r3, [fp, #-8]
  104f34:	e5832004 	str	r2, [r3, #4]
  104f38:	e51b3014 	ldr	r3, [fp, #-20]	; 0xffffffec
  104f3c:	e5d32008 	ldrb	r2, [r3, #8]
  104f40:	e51b3008 	ldr	r3, [fp, #-8]
  104f44:	e5c32008 	strb	r2, [r3, #8]
  104f48:	e51b3014 	ldr	r3, [fp, #-20]	; 0xffffffec
  104f4c:	e593200c 	ldr	r2, [r3, #12]
  104f50:	e51b3008 	ldr	r3, [fp, #-8]
  104f54:	e583200c 	str	r2, [r3, #12]
  104f58:	e51b3010 	ldr	r3, [fp, #-16]
  104f5c:	e51b2008 	ldr	r2, [fp, #-8]
  104f60:	e5832000 	str	r2, [r3]
  104f64:	e3a03000 	mov	r3, #0
  104f68:	e1a00003 	mov	r0, r3
  104f6c:	e24bd004 	sub	sp, fp, #4
  104f70:	e8bd8800 	pop	{fp, pc}

00104f74 <axi_wait>:
  104f74:	e92d4800 	push	{fp, lr}
  104f78:	e28db004 	add	fp, sp, #4
  104f7c:	e24dd010 	sub	sp, sp, #16
  104f80:	e50b0010 	str	r0, [fp, #-16]
  104f84:	e24b3008 	sub	r3, fp, #8
  104f88:	e1a02003 	mov	r2, r3
  104f8c:	e3001404 	movw	r1, #1028	; 0x404
  104f90:	e51b0010 	ldr	r0, [fp, #-16]
  104f94:	ebffff21 	bl	104c20 <axi_dmac_read>
  104f98:	e24b300c 	sub	r3, fp, #12
  104f9c:	e1a02003 	mov	r2, r3
  104fa0:	e3001408 	movw	r1, #1032	; 0x408
  104fa4:	e51b0010 	ldr	r0, [fp, #-16]
  104fa8:	ebffff1c 	bl	104c20 <axi_dmac_read>
  104fac:	e51b300c 	ldr	r3, [fp, #-12]
  104fb0:	e3530001 	cmp	r3, #1
  104fb4:	0afffff7 	beq	104f98 <axi_wait+0x24>
  104fb8:	e24b300c 	sub	r3, fp, #12
  104fbc:	e1a02003 	mov	r2, r3
  104fc0:	e3a01084 	mov	r1, #132	; 0x84
  104fc4:	e51b0010 	ldr	r0, [fp, #-16]
  104fc8:	ebffff14 	bl	104c20 <axi_dmac_read>
  104fcc:	e51b300c 	ldr	r3, [fp, #-12]
  104fd0:	e3530003 	cmp	r3, #3
  104fd4:	1afffff7 	bne	104fb8 <axi_wait+0x44>
  104fd8:	e320f000 	nop	{0}
  104fdc:	e24bd004 	sub	sp, fp, #4
  104fe0:	e8bd8800 	pop	{fp, pc}

00104fe4 <axi_dmac_remove>:
  104fe4:	e92d4800 	push	{fp, lr}
  104fe8:	e28db004 	add	fp, sp, #4
  104fec:	e24dd008 	sub	sp, sp, #8
  104ff0:	e50b0008 	str	r0, [fp, #-8]
  104ff4:	e51b3008 	ldr	r3, [fp, #-8]
  104ff8:	e3530000 	cmp	r3, #0
  104ffc:	1a000001 	bne	105008 <axi_dmac_remove+0x24>
  105000:	e3e03000 	mvn	r3, #0
  105004:	ea000002 	b	105014 <axi_dmac_remove+0x30>
  105008:	e51b0008 	ldr	r0, [fp, #-8]
  10500c:	eb004dbd 	bl	118708 <free>
  105010:	e3a03000 	mov	r3, #0
  105014:	e1a00003 	mov	r0, r3
  105018:	e24bd004 	sub	sp, fp, #4
  10501c:	e8bd8800 	pop	{fp, pc}

00105020 <axi_io_read>:
  105020:	e52db004 	push	{fp}		; (str fp, [sp, #-4]!)
  105024:	e28db000 	add	fp, sp, #0
  105028:	e24dd014 	sub	sp, sp, #20
  10502c:	e50b0008 	str	r0, [fp, #-8]
  105030:	e50b100c 	str	r1, [fp, #-12]
  105034:	e50b2010 	str	r2, [fp, #-16]
  105038:	e51b2008 	ldr	r2, [fp, #-8]
  10503c:	e51b300c 	ldr	r3, [fp, #-12]
  105040:	e0823003 	add	r3, r2, r3
  105044:	e5932000 	ldr	r2, [r3]
  105048:	e51b3010 	ldr	r3, [fp, #-16]
  10504c:	e5832000 	str	r2, [r3]
  105050:	e3a03000 	mov	r3, #0
  105054:	e1a00003 	mov	r0, r3
  105058:	e24bd000 	sub	sp, fp, #0
  10505c:	e49db004 	pop	{fp}		; (ldr fp, [sp], #4)
  105060:	e12fff1e 	bx	lr

00105064 <axi_io_write>:
  105064:	e52db004 	push	{fp}		; (str fp, [sp, #-4]!)
  105068:	e28db000 	add	fp, sp, #0
  10506c:	e24dd014 	sub	sp, sp, #20
  105070:	e50b0008 	str	r0, [fp, #-8]
  105074:	e50b100c 	str	r1, [fp, #-12]
  105078:	e50b2010 	str	r2, [fp, #-16]
  10507c:	e51b2008 	ldr	r2, [fp, #-8]
  105080:	e51b300c 	ldr	r3, [fp, #-12]
  105084:	e0823003 	add	r3, r2, r3
  105088:	e1a02003 	mov	r2, r3
  10508c:	e51b3010 	ldr	r3, [fp, #-16]
  105090:	e5823000 	str	r3, [r2]
  105094:	e3a03000 	mov	r3, #0
  105098:	e1a00003 	mov	r0, r3
  10509c:	e24bd000 	sub	sp, fp, #0
  1050a0:	e49db004 	pop	{fp}		; (ldr fp, [sp], #4)
  1050a4:	e12fff1e 	bx	lr

001050a8 <_close>:
  1050a8:	e52db004 	push	{fp}		; (str fp, [sp, #-4]!)
  1050ac:	e28db000 	add	fp, sp, #0
  1050b0:	e24dd00c 	sub	sp, sp, #12
  1050b4:	e50b0008 	str	r0, [fp, #-8]
  1050b8:	e51b3008 	ldr	r3, [fp, #-8]
  1050bc:	e3530001 	cmp	r3, #1
  1050c0:	1a000001 	bne	1050cc <_close+0x24>
  1050c4:	e3a03000 	mov	r3, #0
  1050c8:	ea000000 	b	1050d0 <_close+0x28>
  1050cc:	e3e03000 	mvn	r3, #0
  1050d0:	e1a00003 	mov	r0, r3
  1050d4:	e24bd000 	sub	sp, fp, #0
  1050d8:	e49db004 	pop	{fp}		; (ldr fp, [sp], #4)
  1050dc:	e12fff1e 	bx	lr

001050e0 <_fstat>:
  1050e0:	e52db004 	push	{fp}		; (str fp, [sp, #-4]!)
  1050e4:	e28db000 	add	fp, sp, #0
  1050e8:	e24dd00c 	sub	sp, sp, #12
  1050ec:	e50b0008 	str	r0, [fp, #-8]
  1050f0:	e50b100c 	str	r1, [fp, #-12]
  1050f4:	e51b3008 	ldr	r3, [fp, #-8]
  1050f8:	e3530001 	cmp	r3, #1
  1050fc:	1a000001 	bne	105108 <_fstat+0x28>
  105100:	e3a03000 	mov	r3, #0
  105104:	ea000000 	b	10510c <_fstat+0x2c>
  105108:	e3e03000 	mvn	r3, #0
  10510c:	e1a00003 	mov	r0, r3
  105110:	e24bd000 	sub	sp, fp, #0
  105114:	e49db004 	pop	{fp}		; (ldr fp, [sp], #4)
  105118:	e12fff1e 	bx	lr

0010511c <_isatty>:
  10511c:	e52db004 	push	{fp}		; (str fp, [sp, #-4]!)
  105120:	e28db000 	add	fp, sp, #0
  105124:	e24dd00c 	sub	sp, sp, #12
  105128:	e50b0008 	str	r0, [fp, #-8]
  10512c:	e51b3008 	ldr	r3, [fp, #-8]
  105130:	e3530001 	cmp	r3, #1
  105134:	1a000001 	bne	105140 <_isatty+0x24>
  105138:	e3a03001 	mov	r3, #1
  10513c:	ea000000 	b	105144 <_isatty+0x28>
  105140:	e3e03000 	mvn	r3, #0
  105144:	e1a00003 	mov	r0, r3
  105148:	e24bd000 	sub	sp, fp, #0
  10514c:	e49db004 	pop	{fp}		; (ldr fp, [sp], #4)
  105150:	e12fff1e 	bx	lr

00105154 <_lseek>:
  105154:	e52db004 	push	{fp}		; (str fp, [sp, #-4]!)
  105158:	e28db000 	add	fp, sp, #0
  10515c:	e24dd014 	sub	sp, sp, #20
  105160:	e50b0008 	str	r0, [fp, #-8]
  105164:	e50b100c 	str	r1, [fp, #-12]
  105168:	e50b2010 	str	r2, [fp, #-16]
  10516c:	e51b3008 	ldr	r3, [fp, #-8]
  105170:	e3530001 	cmp	r3, #1
  105174:	1a000001 	bne	105180 <_lseek+0x2c>
  105178:	e3a03000 	mov	r3, #0
  10517c:	ea000000 	b	105184 <_lseek+0x30>
  105180:	e3e03000 	mvn	r3, #0
  105184:	e1a00003 	mov	r0, r3
  105188:	e24bd000 	sub	sp, fp, #0
  10518c:	e49db004 	pop	{fp}		; (ldr fp, [sp], #4)
  105190:	e12fff1e 	bx	lr

00105194 <_read>:
  105194:	e52db004 	push	{fp}		; (str fp, [sp, #-4]!)
  105198:	e28db000 	add	fp, sp, #0
  10519c:	e24dd014 	sub	sp, sp, #20
  1051a0:	e50b0008 	str	r0, [fp, #-8]
  1051a4:	e50b100c 	str	r1, [fp, #-12]
  1051a8:	e50b2010 	str	r2, [fp, #-16]
  1051ac:	e3e03000 	mvn	r3, #0
  1051b0:	e1a00003 	mov	r0, r3
  1051b4:	e24bd000 	sub	sp, fp, #0
  1051b8:	e49db004 	pop	{fp}		; (ldr fp, [sp], #4)
  1051bc:	e12fff1e 	bx	lr

001051c0 <_write>:
  1051c0:	e52db004 	push	{fp}		; (str fp, [sp, #-4]!)
  1051c4:	e28db000 	add	fp, sp, #0
  1051c8:	e24dd01c 	sub	sp, sp, #28
  1051cc:	e50b0010 	str	r0, [fp, #-16]
  1051d0:	e50b1014 	str	r1, [fp, #-20]	; 0xffffffec
  1051d4:	e50b2018 	str	r2, [fp, #-24]	; 0xffffffe8
  1051d8:	e50b301c 	str	r3, [fp, #-28]	; 0xffffffe4
  1051dc:	e51b3010 	ldr	r3, [fp, #-16]
  1051e0:	e3530001 	cmp	r3, #1
  1051e4:	0a000001 	beq	1051f0 <_write+0x30>
  1051e8:	e3e03000 	mvn	r3, #0
  1051ec:	ea000019 	b	105258 <_write+0x98>
  1051f0:	e3a03000 	mov	r3, #0
  1051f4:	e50b3008 	str	r3, [fp, #-8]
  1051f8:	ea000011 	b	105244 <_write+0x84>
  1051fc:	e320f000 	nop	{0}
  105200:	e3023014 	movw	r3, #8212	; 0x2014
  105204:	e34f3fc0 	movt	r3, #65472	; 0xffc0
  105208:	e5933000 	ldr	r3, [r3]
  10520c:	e1a032a3 	lsr	r3, r3, #5
  105210:	e2033001 	and	r3, r3, #1
  105214:	e3530001 	cmp	r3, #1
  105218:	1afffff8 	bne	105200 <_write+0x40>
  10521c:	e3a03a02 	mov	r3, #8192	; 0x2000
  105220:	e34f3fc0 	movt	r3, #65472	; 0xffc0
  105224:	e51b2008 	ldr	r2, [fp, #-8]
  105228:	e51b1014 	ldr	r1, [fp, #-20]	; 0xffffffec
  10522c:	e0812002 	add	r2, r1, r2
  105230:	e5d22000 	ldrb	r2, [r2]
  105234:	e5832000 	str	r2, [r3]
  105238:	e51b3008 	ldr	r3, [fp, #-8]
  10523c:	e2833001 	add	r3, r3, #1
  105240:	e50b3008 	str	r3, [fp, #-8]
  105244:	e51b2008 	ldr	r2, [fp, #-8]
  105248:	e51b3018 	ldr	r3, [fp, #-24]	; 0xffffffe8
  10524c:	e1520003 	cmp	r2, r3
  105250:	3affffe9 	bcc	1051fc <_write+0x3c>
  105254:	e51b3018 	ldr	r3, [fp, #-24]	; 0xffffffe8
  105258:	e1a00003 	mov	r0, r3
  10525c:	e24bd000 	sub	sp, fp, #0
  105260:	e49db004 	pop	{fp}		; (ldr fp, [sp], #4)
  105264:	e12fff1e 	bx	lr

00105268 <enable_all_caches>:
  105268:	e52de004 	push	{lr}		; (str lr, [sp, #-4]!)
  10526c:	eb000005 	bl	105288 <enable_MMU>
  105270:	eb000050 	bl	1053b8 <initialize_L2C>
  105274:	eb00009f 	bl	1054f8 <enable_L1_D_side_prefetch>
  105278:	eb0000a2 	bl	105508 <enable_L2_prefetch_hint>
  10527c:	eb0000b1 	bl	105548 <enable_SCU>
  105280:	eb000065 	bl	10541c <enable_caches>
  105284:	e49df004 	pop	{pc}		; (ldr pc, [sp], #4)

00105288 <enable_MMU>:
  105288:	e92d4eb0 	push	{r4, r5, r7, r9, sl, fp, lr}
  10528c:	e59f0378 	ldr	r0, [pc, #888]	; 10560c <invalidate_and_flush+0x9c>
  105290:	e3a01000 	mov	r1, #0
  105294:	e5801100 	str	r1, [r0, #256]	; 0x100
  105298:	ee110f10 	mrc	15, 0, r0, cr1, cr0, {0}
  10529c:	e3c00a01 	bic	r0, r0, #4096	; 0x1000
  1052a0:	e3c00004 	bic	r0, r0, #4
  1052a4:	e3c00001 	bic	r0, r0, #1
  1052a8:	e3c00b02 	bic	r0, r0, #2048	; 0x800
  1052ac:	ee010f10 	mcr	15, 0, r0, cr1, cr0, {0}
  1052b0:	e3a00000 	mov	r0, #0
  1052b4:	ee080f17 	mcr	15, 0, r0, cr8, cr7, {0}
  1052b8:	ee070fd5 	mcr	15, 0, r0, cr7, cr5, {6}
  1052bc:	ee300f30 	mrc	15, 1, r0, cr0, cr0, {1}
  1052c0:	e3100003 	tst	r0, #3
  1052c4:	e3a00000 	mov	r0, #0
  1052c8:	1e070f15 	mcrne	15, 0, r0, cr7, cr5, {0}
  1052cc:	ee300f30 	mrc	15, 1, r0, cr0, cr0, {1}
  1052d0:	e2103407 	ands	r3, r0, #117440512	; 0x7000000
  1052d4:	e1a03ba3 	lsr	r3, r3, #23
  1052d8:	0a00001a 	beq	105348 <Finished>
  1052dc:	e3a0a000 	mov	sl, #0

001052e0 <Loop1>:
  1052e0:	e08a20aa 	add	r2, sl, sl, lsr #1
  1052e4:	e1a01230 	lsr	r1, r0, r2
  1052e8:	e2011007 	and	r1, r1, #7
  1052ec:	e3510002 	cmp	r1, #2
  1052f0:	ba000011 	blt	10533c <Skip>
  1052f4:	ee40af10 	mcr	15, 2, sl, cr0, cr0, {0}
  1052f8:	f57ff06f 	isb	sy
  1052fc:	ee301f10 	mrc	15, 1, r1, cr0, cr0, {0}
  105300:	e2012007 	and	r2, r1, #7
  105304:	e2822004 	add	r2, r2, #4
  105308:	e59f4300 	ldr	r4, [pc, #768]	; 105610 <invalidate_and_flush+0xa0>
  10530c:	e01441a1 	ands	r4, r4, r1, lsr #3
  105310:	e16f5f14 	clz	r5, r4
  105314:	e59f72f8 	ldr	r7, [pc, #760]	; 105614 <invalidate_and_flush+0xa4>
  105318:	e01776a1 	ands	r7, r7, r1, lsr #13

0010531c <Loop2>:
  10531c:	e1a09004 	mov	r9, r4

00105320 <Loop3>:
  105320:	e18ab519 	orr	fp, sl, r9, lsl r5
  105324:	e18bb217 	orr	fp, fp, r7, lsl r2
  105328:	ee07bf56 	mcr	15, 0, fp, cr7, cr6, {2}
  10532c:	e2599001 	subs	r9, r9, #1
  105330:	aafffffa 	bge	105320 <Loop3>
  105334:	e2577001 	subs	r7, r7, #1
  105338:	aafffff7 	bge	10531c <Loop2>

0010533c <Skip>:
  10533c:	e28aa002 	add	sl, sl, #2
  105340:	e153000a 	cmp	r3, sl
  105344:	caffffe5 	bgt	1052e0 <Loop1>

00105348 <Finished>:
  105348:	e3a00000 	mov	r0, #0
  10534c:	ee070fd5 	mcr	15, 0, r0, cr7, cr5, {6}
  105350:	e3a00000 	mov	r0, #0
  105354:	ee020f50 	mcr	15, 0, r0, cr2, cr0, {2}
  105358:	e59f02b8 	ldr	r0, [pc, #696]	; 105618 <invalidate_and_flush+0xa8>
  10535c:	e3a01008 	mov	r1, #8
  105360:	e3811040 	orr	r1, r1, #64	; 0x40
  105364:	e1800001 	orr	r0, r0, r1
  105368:	ee020f10 	mcr	15, 0, r0, cr2, cr0, {0}
  10536c:	e59f02a4 	ldr	r0, [pc, #676]	; 105618 <invalidate_and_flush+0xa8>
  105370:	e59f12a4 	ldr	r1, [pc, #676]	; 10561c <invalidate_and_flush+0xac>

00105374 <init_ttb_1>:
  105374:	e3510b02 	cmp	r1, #2048	; 0x800
  105378:	459f22a0 	ldrmi	r2, [pc, #672]	; 105620 <invalidate_and_flush+0xb0>
  10537c:	559f22a0 	ldrpl	r2, [pc, #672]	; 105624 <invalidate_and_flush+0xb4>
  105380:	e1823a01 	orr	r3, r2, r1, lsl #20
  105384:	e7803101 	str	r3, [r0, r1, lsl #2]
  105388:	e2511001 	subs	r1, r1, #1
  10538c:	5afffff8 	bpl	105374 <init_ttb_1>
  105390:	ee130f10 	mrc	15, 0, r0, cr3, cr0, {0}
  105394:	e3e00000 	mvn	r0, #0
  105398:	ee030f10 	mcr	15, 0, r0, cr3, cr0, {0}
  10539c:	ee110f10 	mrc	15, 0, r0, cr1, cr0, {0}
  1053a0:	e3c00a01 	bic	r0, r0, #4096	; 0x1000
  1053a4:	e3c00004 	bic	r0, r0, #4
  1053a8:	e3c00002 	bic	r0, r0, #2
  1053ac:	e3800001 	orr	r0, r0, #1
  1053b0:	ee010f10 	mcr	15, 0, r0, cr1, cr0, {0}
  1053b4:	e8bd8eb0 	pop	{r4, r5, r7, r9, sl, fp, pc}

001053b8 <initialize_L2C>:
  1053b8:	e59f024c 	ldr	r0, [pc, #588]	; 10560c <invalidate_and_flush+0x9c>
  1053bc:	e3a01000 	mov	r1, #0
  1053c0:	e5801100 	str	r1, [r0, #256]	; 0x100
  1053c4:	e3a01806 	mov	r1, #393216	; 0x60000
  1053c8:	e3811202 	orr	r1, r1, #536870912	; 0x20000000
  1053cc:	e3811201 	orr	r1, r1, #268435456	; 0x10000000
  1053d0:	e5801104 	str	r1, [r0, #260]	; 0x104
  1053d4:	e3a01000 	mov	r1, #0
  1053d8:	e5801108 	str	r1, [r0, #264]	; 0x108
  1053dc:	e3a01000 	mov	r1, #0
  1053e0:	e580110c 	str	r1, [r0, #268]	; 0x10c
  1053e4:	e3a010ff 	mov	r1, #255	; 0xff
  1053e8:	e580177c 	str	r1, [r0, #1916]	; 0x77c

001053ec <poll_invalidate>:
  1053ec:	e590177c 	ldr	r1, [r0, #1916]	; 0x77c
  1053f0:	e3110001 	tst	r1, #1
  1053f4:	1afffffc 	bne	1053ec <poll_invalidate>
  1053f8:	e3a01007 	mov	r1, #7
  1053fc:	e5801200 	str	r1, [r0, #512]	; 0x200
  105400:	e3a01008 	mov	r1, #8
  105404:	e5801204 	str	r1, [r0, #516]	; 0x204
  105408:	e3a0100c 	mov	r1, #12
  10540c:	e5801208 	str	r1, [r0, #520]	; 0x208
  105410:	e3a01000 	mov	r1, #0
  105414:	e5801100 	str	r1, [r0, #256]	; 0x100
  105418:	e12fff1e 	bx	lr

0010541c <enable_caches>:
  10541c:	ee110f10 	mrc	15, 0, r0, cr1, cr0, {0}
  105420:	e3800a01 	orr	r0, r0, #4096	; 0x1000
  105424:	e3800004 	orr	r0, r0, #4
  105428:	e3800b02 	orr	r0, r0, #2048	; 0x800
  10542c:	ee010f10 	mcr	15, 0, r0, cr1, cr0, {0}
  105430:	e59f01d4 	ldr	r0, [pc, #468]	; 10560c <invalidate_and_flush+0x9c>
  105434:	e3a01001 	mov	r1, #1
  105438:	e5801100 	str	r1, [r0, #256]	; 0x100
  10543c:	e12fff1e 	bx	lr

00105440 <enable_L1_D>:
  105440:	ee110f10 	mrc	15, 0, r0, cr1, cr0, {0}
  105444:	e3800004 	orr	r0, r0, #4
  105448:	ee010f10 	mcr	15, 0, r0, cr1, cr0, {0}
  10544c:	e12fff1e 	bx	lr

00105450 <enable_L1_I>:
  105450:	ee110f10 	mrc	15, 0, r0, cr1, cr0, {0}
  105454:	e3800a01 	orr	r0, r0, #4096	; 0x1000
  105458:	ee010f10 	mcr	15, 0, r0, cr1, cr0, {0}
  10545c:	e12fff1e 	bx	lr

00105460 <enable_branch_prediction>:
  105460:	ee110f10 	mrc	15, 0, r0, cr1, cr0, {0}
  105464:	e3800b02 	orr	r0, r0, #2048	; 0x800
  105468:	ee010f10 	mcr	15, 0, r0, cr1, cr0, {0}
  10546c:	e12fff1e 	bx	lr

00105470 <enable_L2>:
  105470:	e59f0194 	ldr	r0, [pc, #404]	; 10560c <invalidate_and_flush+0x9c>
  105474:	e3a01001 	mov	r1, #1
  105478:	e5801100 	str	r1, [r0, #256]	; 0x100
  10547c:	e12fff1e 	bx	lr

00105480 <enable_store_buffer_device_limitation>:
  105480:	e59f0184 	ldr	r0, [pc, #388]	; 10560c <invalidate_and_flush+0x9c>
  105484:	e3a01000 	mov	r1, #0
  105488:	e5801100 	str	r1, [r0, #256]	; 0x100
  10548c:	e5901104 	ldr	r1, [r0, #260]	; 0x104
  105490:	e3811b02 	orr	r1, r1, #2048	; 0x800
  105494:	e5801104 	str	r1, [r0, #260]	; 0x104
  105498:	e3a01001 	mov	r1, #1
  10549c:	e5801100 	str	r1, [r0, #256]	; 0x100
  1054a0:	e12fff1e 	bx	lr

001054a4 <enable_early_BRESP>:
  1054a4:	e59f0160 	ldr	r0, [pc, #352]	; 10560c <invalidate_and_flush+0x9c>
  1054a8:	e3a01000 	mov	r1, #0
  1054ac:	e5801100 	str	r1, [r0, #256]	; 0x100
  1054b0:	e5901104 	ldr	r1, [r0, #260]	; 0x104
  1054b4:	e3811101 	orr	r1, r1, #1073741824	; 0x40000000
  1054b8:	e5801104 	str	r1, [r0, #260]	; 0x104
  1054bc:	e3a01001 	mov	r1, #1
  1054c0:	e5801100 	str	r1, [r0, #256]	; 0x100
  1054c4:	e12fff1e 	bx	lr

001054c8 <enable_write_full_line_zeros>:
  1054c8:	e59f013c 	ldr	r0, [pc, #316]	; 10560c <invalidate_and_flush+0x9c>
  1054cc:	e3a01000 	mov	r1, #0
  1054d0:	e5801100 	str	r1, [r0, #256]	; 0x100
  1054d4:	e5901104 	ldr	r1, [r0, #260]	; 0x104
  1054d8:	e3811101 	orr	r1, r1, #1073741824	; 0x40000000
  1054dc:	e5801104 	str	r1, [r0, #260]	; 0x104
  1054e0:	e3a01001 	mov	r1, #1
  1054e4:	e5801100 	str	r1, [r0, #256]	; 0x100
  1054e8:	ee110f30 	mrc	15, 0, r0, cr1, cr0, {1}
  1054ec:	e3800008 	orr	r0, r0, #8
  1054f0:	ee010f30 	mcr	15, 0, r0, cr1, cr0, {1}
  1054f4:	e12fff1e 	bx	lr

001054f8 <enable_L1_D_side_prefetch>:
  1054f8:	ee110f30 	mrc	15, 0, r0, cr1, cr0, {1}
  1054fc:	e3800004 	orr	r0, r0, #4
  105500:	ee010f30 	mcr	15, 0, r0, cr1, cr0, {1}
  105504:	e12fff1e 	bx	lr

00105508 <enable_L2_prefetch_hint>:
  105508:	ee110f30 	mrc	15, 0, r0, cr1, cr0, {1}
  10550c:	e3800002 	orr	r0, r0, #2
  105510:	ee010f30 	mcr	15, 0, r0, cr1, cr0, {1}
  105514:	e12fff1e 	bx	lr

00105518 <enable_exclusive_caching>:
  105518:	e59f00ec 	ldr	r0, [pc, #236]	; 10560c <invalidate_and_flush+0x9c>
  10551c:	e3a01000 	mov	r1, #0
  105520:	e5801100 	str	r1, [r0, #256]	; 0x100
  105524:	e5901104 	ldr	r1, [r0, #260]	; 0x104
  105528:	e3811a01 	orr	r1, r1, #4096	; 0x1000
  10552c:	e5801104 	str	r1, [r0, #260]	; 0x104
  105530:	e3a01001 	mov	r1, #1
  105534:	e5801100 	str	r1, [r0, #256]	; 0x100
  105538:	ee110f30 	mrc	15, 0, r0, cr1, cr0, {1}
  10553c:	e3800080 	orr	r0, r0, #128	; 0x80
  105540:	ee010f30 	mcr	15, 0, r0, cr1, cr0, {1}
  105544:	e12fff1e 	bx	lr

00105548 <enable_SCU>:
  105548:	ee9f0f10 	mrc	15, 4, r0, cr15, cr0, {0}
  10554c:	e5901000 	ldr	r1, [r0]
  105550:	e3811001 	orr	r1, r1, #1
  105554:	e5801000 	str	r1, [r0]
  105558:	e12fff1e 	bx	lr

0010555c <enable_L2_speculative_linefill>:
  10555c:	ee9f0f10 	mrc	15, 4, r0, cr15, cr0, {0}
  105560:	e5901000 	ldr	r1, [r0]
  105564:	e3811008 	orr	r1, r1, #8
  105568:	e5801000 	str	r1, [r0]
  10556c:	e12fff1e 	bx	lr

00105570 <invalidate_and_flush>:
  105570:	e92d4eb0 	push	{r4, r5, r7, r9, sl, fp, lr}
  105574:	e3a00000 	mov	r0, #0
  105578:	ee070fd5 	mcr	15, 0, r0, cr7, cr5, {6}
  10557c:	ee300f30 	mrc	15, 1, r0, cr0, cr0, {1}
  105580:	e3a00000 	mov	r0, #0
  105584:	ee070f15 	mcr	15, 0, r0, cr7, cr5, {0}
  105588:	ee300f30 	mrc	15, 1, r0, cr0, cr0, {1}
  10558c:	e2103407 	ands	r3, r0, #117440512	; 0x7000000
  105590:	e1a03ba3 	lsr	r3, r3, #23
  105594:	0a00001a 	beq	105604 <invalidate_and_flush+0x94>
  105598:	e3a0a000 	mov	sl, #0
  10559c:	e08a20aa 	add	r2, sl, sl, lsr #1
  1055a0:	e1a01230 	lsr	r1, r0, r2
  1055a4:	e2011007 	and	r1, r1, #7
  1055a8:	e3510002 	cmp	r1, #2
  1055ac:	ba000011 	blt	1055f8 <invalidate_and_flush+0x88>
  1055b0:	ee40af10 	mcr	15, 2, sl, cr0, cr0, {0}
  1055b4:	f57ff06f 	isb	sy
  1055b8:	ee301f10 	mrc	15, 1, r1, cr0, cr0, {0}
  1055bc:	e2012007 	and	r2, r1, #7
  1055c0:	e2822004 	add	r2, r2, #4
  1055c4:	e59f4044 	ldr	r4, [pc, #68]	; 105610 <invalidate_and_flush+0xa0>
  1055c8:	e01441a1 	ands	r4, r4, r1, lsr #3
  1055cc:	e16f5f14 	clz	r5, r4
  1055d0:	e59f703c 	ldr	r7, [pc, #60]	; 105614 <invalidate_and_flush+0xa4>
  1055d4:	e01776a1 	ands	r7, r7, r1, lsr #13
  1055d8:	e1a09004 	mov	r9, r4
  1055dc:	e18ab519 	orr	fp, sl, r9, lsl r5
  1055e0:	e18bb217 	orr	fp, fp, r7, lsl r2
  1055e4:	ee07bf56 	mcr	15, 0, fp, cr7, cr6, {2}
  1055e8:	e2599001 	subs	r9, r9, #1
  1055ec:	aafffffa 	bge	1055dc <invalidate_and_flush+0x6c>
  1055f0:	e2577001 	subs	r7, r7, #1
  1055f4:	aafffff7 	bge	1055d8 <invalidate_and_flush+0x68>
  1055f8:	e28aa002 	add	sl, sl, #2
  1055fc:	e153000a 	cmp	r3, sl
  105600:	caffffe5 	bgt	10559c <invalidate_and_flush+0x2c>
  105604:	f57ff04f 	dsb	sy
  105608:	e8bd8eb0 	pop	{r4, r5, r7, r9, sl, fp, pc}
  10560c:	fffef000 	.word	0xfffef000
  105610:	000003ff 	.word	0x000003ff
  105614:	00007fff 	.word	0x00007fff
  105618:	00128000 	.word	0x00128000
  10561c:	00000fff 	.word	0x00000fff
  105620:	00017c0e 	.word	0x00017c0e
  105624:	00002c02 	.word	0x00002c02

00105628 <construct_standard_st_to_mm_descriptor>:
  105628:	e52db004 	push	{fp}		; (str fp, [sp, #-4]!)
  10562c:	e28db000 	add	fp, sp, #0
  105630:	e24dd014 	sub	sp, sp, #20
  105634:	e50b0008 	str	r0, [fp, #-8]
  105638:	e50b100c 	str	r1, [fp, #-12]
  10563c:	e50b2010 	str	r2, [fp, #-16]
  105640:	e50b3014 	str	r3, [fp, #-20]	; 0xffffffec
  105644:	e51b3008 	ldr	r3, [fp, #-8]
  105648:	e3a02000 	mov	r2, #0
  10564c:	e5832000 	str	r2, [r3]
  105650:	e51b3008 	ldr	r3, [fp, #-8]
  105654:	e51b200c 	ldr	r2, [fp, #-12]
  105658:	e5832004 	str	r2, [r3, #4]
  10565c:	e51b3008 	ldr	r3, [fp, #-8]
  105660:	e51b2010 	ldr	r2, [fp, #-16]
  105664:	e5832008 	str	r2, [r3, #8]
  105668:	e51b3014 	ldr	r3, [fp, #-20]	; 0xffffffec
  10566c:	e3832102 	orr	r2, r3, #-2147483648	; 0x80000000
  105670:	e51b3008 	ldr	r3, [fp, #-8]
  105674:	e583200c 	str	r2, [r3, #12]
  105678:	e3a03000 	mov	r3, #0
  10567c:	e1a00003 	mov	r0, r3
  105680:	e24bd000 	sub	sp, fp, #0
  105684:	e49db004 	pop	{fp}		; (ldr fp, [sp], #4)
  105688:	e12fff1e 	bx	lr

0010568c <construct_standard_mm_to_st_descriptor>:
  10568c:	e52db004 	push	{fp}		; (str fp, [sp, #-4]!)
  105690:	e28db000 	add	fp, sp, #0
  105694:	e24dd014 	sub	sp, sp, #20
  105698:	e50b0008 	str	r0, [fp, #-8]
  10569c:	e50b100c 	str	r1, [fp, #-12]
  1056a0:	e50b2010 	str	r2, [fp, #-16]
  1056a4:	e50b3014 	str	r3, [fp, #-20]	; 0xffffffec
  1056a8:	e51b3008 	ldr	r3, [fp, #-8]
  1056ac:	e51b200c 	ldr	r2, [fp, #-12]
  1056b0:	e5832000 	str	r2, [r3]
  1056b4:	e51b3008 	ldr	r3, [fp, #-8]
  1056b8:	e3a02000 	mov	r2, #0
  1056bc:	e5832004 	str	r2, [r3, #4]
  1056c0:	e51b3008 	ldr	r3, [fp, #-8]
  1056c4:	e51b2010 	ldr	r2, [fp, #-16]
  1056c8:	e5832008 	str	r2, [r3, #8]
  1056cc:	e51b3014 	ldr	r3, [fp, #-20]	; 0xffffffec
  1056d0:	e3832102 	orr	r2, r3, #-2147483648	; 0x80000000
  1056d4:	e51b3008 	ldr	r3, [fp, #-8]
  1056d8:	e583200c 	str	r2, [r3, #12]
  1056dc:	e3a03000 	mov	r3, #0
  1056e0:	e1a00003 	mov	r0, r3
  1056e4:	e24bd000 	sub	sp, fp, #0
  1056e8:	e49db004 	pop	{fp}		; (ldr fp, [sp], #4)
  1056ec:	e12fff1e 	bx	lr

001056f0 <construct_standard_mm_to_mm_descriptor>:
  1056f0:	e52db004 	push	{fp}		; (str fp, [sp, #-4]!)
  1056f4:	e28db000 	add	fp, sp, #0
  1056f8:	e24dd014 	sub	sp, sp, #20
  1056fc:	e50b0008 	str	r0, [fp, #-8]
  105700:	e50b100c 	str	r1, [fp, #-12]
  105704:	e50b2010 	str	r2, [fp, #-16]
  105708:	e50b3014 	str	r3, [fp, #-20]	; 0xffffffec
  10570c:	e51b3008 	ldr	r3, [fp, #-8]
  105710:	e51b200c 	ldr	r2, [fp, #-12]
  105714:	e5832000 	str	r2, [r3]
  105718:	e51b3008 	ldr	r3, [fp, #-8]
  10571c:	e51b2010 	ldr	r2, [fp, #-16]
  105720:	e5832004 	str	r2, [r3, #4]
  105724:	e51b3008 	ldr	r3, [fp, #-8]
  105728:	e51b2014 	ldr	r2, [fp, #-20]	; 0xffffffec
  10572c:	e5832008 	str	r2, [r3, #8]
  105730:	e59b3004 	ldr	r3, [fp, #4]
  105734:	e3832102 	orr	r2, r3, #-2147483648	; 0x80000000
  105738:	e51b3008 	ldr	r3, [fp, #-8]
  10573c:	e583200c 	str	r2, [r3, #12]
  105740:	e3a03000 	mov	r3, #0
  105744:	e1a00003 	mov	r0, r3
  105748:	e24bd000 	sub	sp, fp, #0
  10574c:	e49db004 	pop	{fp}		; (ldr fp, [sp], #4)
  105750:	e12fff1e 	bx	lr

00105754 <construct_extended_st_to_mm_descriptor>:
  105754:	e52db004 	push	{fp}		; (str fp, [sp, #-4]!)
  105758:	e28db000 	add	fp, sp, #0
  10575c:	e24dd014 	sub	sp, sp, #20
  105760:	e50b0008 	str	r0, [fp, #-8]
  105764:	e50b100c 	str	r1, [fp, #-12]
  105768:	e50b2010 	str	r2, [fp, #-16]
  10576c:	e50b3014 	str	r3, [fp, #-20]	; 0xffffffec
  105770:	e51b3008 	ldr	r3, [fp, #-8]
  105774:	e3a02000 	mov	r2, #0
  105778:	e5832000 	str	r2, [r3]
  10577c:	e51b3008 	ldr	r3, [fp, #-8]
  105780:	e51b200c 	ldr	r2, [fp, #-12]
  105784:	e5832004 	str	r2, [r3, #4]
  105788:	e51b3008 	ldr	r3, [fp, #-8]
  10578c:	e51b2010 	ldr	r2, [fp, #-16]
  105790:	e5832008 	str	r2, [r3, #8]
  105794:	e51b3008 	ldr	r3, [fp, #-8]
  105798:	e1db20b4 	ldrh	r2, [fp, #4]
  10579c:	e1c320bc 	strh	r2, [r3, #12]
  1057a0:	e51b3008 	ldr	r3, [fp, #-8]
  1057a4:	e3a02000 	mov	r2, #0
  1057a8:	e5c3200e 	strb	r2, [r3, #14]
  1057ac:	e51b3008 	ldr	r3, [fp, #-8]
  1057b0:	e5db2008 	ldrb	r2, [fp, #8]
  1057b4:	e5c3200f 	strb	r2, [r3, #15]
  1057b8:	e51b3008 	ldr	r3, [fp, #-8]
  1057bc:	e3a02000 	mov	r2, #0
  1057c0:	e1c321b0 	strh	r2, [r3, #16]
  1057c4:	e51b3008 	ldr	r3, [fp, #-8]
  1057c8:	e1db20bc 	ldrh	r2, [fp, #12]
  1057cc:	e1c321b2 	strh	r2, [r3, #18]
  1057d0:	e51b3008 	ldr	r3, [fp, #-8]
  1057d4:	e3a02000 	mov	r2, #0
  1057d8:	e5832014 	str	r2, [r3, #20]
  1057dc:	e51b3008 	ldr	r3, [fp, #-8]
  1057e0:	e3a02000 	mov	r2, #0
  1057e4:	e5832018 	str	r2, [r3, #24]
  1057e8:	e51b3014 	ldr	r3, [fp, #-20]	; 0xffffffec
  1057ec:	e3832102 	orr	r2, r3, #-2147483648	; 0x80000000
  1057f0:	e51b3008 	ldr	r3, [fp, #-8]
  1057f4:	e583201c 	str	r2, [r3, #28]
  1057f8:	e3a03000 	mov	r3, #0
  1057fc:	e1a00003 	mov	r0, r3
  105800:	e24bd000 	sub	sp, fp, #0
  105804:	e49db004 	pop	{fp}		; (ldr fp, [sp], #4)
  105808:	e12fff1e 	bx	lr

0010580c <construct_extended_st_to_mm_descriptor_64>:
  10580c:	e52db004 	push	{fp}		; (str fp, [sp, #-4]!)
  105810:	e28db000 	add	fp, sp, #0
  105814:	e24dd014 	sub	sp, sp, #20
  105818:	e50b0008 	str	r0, [fp, #-8]
  10581c:	e50b100c 	str	r1, [fp, #-12]
  105820:	e50b2010 	str	r2, [fp, #-16]
  105824:	e50b3014 	str	r3, [fp, #-20]	; 0xffffffec
  105828:	e51b3008 	ldr	r3, [fp, #-8]
  10582c:	e3a02000 	mov	r2, #0
  105830:	e5832000 	str	r2, [r3]
  105834:	e51b3008 	ldr	r3, [fp, #-8]
  105838:	e51b200c 	ldr	r2, [fp, #-12]
  10583c:	e5832004 	str	r2, [r3, #4]
  105840:	e51b3008 	ldr	r3, [fp, #-8]
  105844:	e51b2014 	ldr	r2, [fp, #-20]	; 0xffffffec
  105848:	e5832008 	str	r2, [r3, #8]
  10584c:	e51b3008 	ldr	r3, [fp, #-8]
  105850:	e1db20b8 	ldrh	r2, [fp, #8]
  105854:	e1c320bc 	strh	r2, [r3, #12]
  105858:	e51b3008 	ldr	r3, [fp, #-8]
  10585c:	e3a02000 	mov	r2, #0
  105860:	e5c3200e 	strb	r2, [r3, #14]
  105864:	e51b3008 	ldr	r3, [fp, #-8]
  105868:	e5db200c 	ldrb	r2, [fp, #12]
  10586c:	e5c3200f 	strb	r2, [r3, #15]
  105870:	e51b3008 	ldr	r3, [fp, #-8]
  105874:	e3a02000 	mov	r2, #0
  105878:	e1c321b0 	strh	r2, [r3, #16]
  10587c:	e51b3008 	ldr	r3, [fp, #-8]
  105880:	e1db21b0 	ldrh	r2, [fp, #16]
  105884:	e1c321b2 	strh	r2, [r3, #18]
  105888:	e51b3008 	ldr	r3, [fp, #-8]
  10588c:	e3a02000 	mov	r2, #0
  105890:	e5832014 	str	r2, [r3, #20]
  105894:	e51b3008 	ldr	r3, [fp, #-8]
  105898:	e51b2010 	ldr	r2, [fp, #-16]
  10589c:	e5832018 	str	r2, [r3, #24]
  1058a0:	e59b3004 	ldr	r3, [fp, #4]
  1058a4:	e3832102 	orr	r2, r3, #-2147483648	; 0x80000000
  1058a8:	e51b3008 	ldr	r3, [fp, #-8]
  1058ac:	e583201c 	str	r2, [r3, #28]
  1058b0:	e3a03000 	mov	r3, #0
  1058b4:	e1a00003 	mov	r0, r3
  1058b8:	e24bd000 	sub	sp, fp, #0
  1058bc:	e49db004 	pop	{fp}		; (ldr fp, [sp], #4)
  1058c0:	e12fff1e 	bx	lr

001058c4 <construct_extended_mm_to_st_descriptor>:
  1058c4:	e52db004 	push	{fp}		; (str fp, [sp, #-4]!)
  1058c8:	e28db000 	add	fp, sp, #0
  1058cc:	e24dd014 	sub	sp, sp, #20
  1058d0:	e50b0008 	str	r0, [fp, #-8]
  1058d4:	e50b100c 	str	r1, [fp, #-12]
  1058d8:	e50b2010 	str	r2, [fp, #-16]
  1058dc:	e50b3014 	str	r3, [fp, #-20]	; 0xffffffec
  1058e0:	e51b3008 	ldr	r3, [fp, #-8]
  1058e4:	e51b200c 	ldr	r2, [fp, #-12]
  1058e8:	e5832000 	str	r2, [r3]
  1058ec:	e51b3008 	ldr	r3, [fp, #-8]
  1058f0:	e3a02000 	mov	r2, #0
  1058f4:	e5832004 	str	r2, [r3, #4]
  1058f8:	e51b3008 	ldr	r3, [fp, #-8]
  1058fc:	e51b2010 	ldr	r2, [fp, #-16]
  105900:	e5832008 	str	r2, [r3, #8]
  105904:	e51b3008 	ldr	r3, [fp, #-8]
  105908:	e1db20b4 	ldrh	r2, [fp, #4]
  10590c:	e1c320bc 	strh	r2, [r3, #12]
  105910:	e51b3008 	ldr	r3, [fp, #-8]
  105914:	e5db2008 	ldrb	r2, [fp, #8]
  105918:	e5c3200e 	strb	r2, [r3, #14]
  10591c:	e51b3008 	ldr	r3, [fp, #-8]
  105920:	e3a02000 	mov	r2, #0
  105924:	e5c3200f 	strb	r2, [r3, #15]
  105928:	e51b3008 	ldr	r3, [fp, #-8]
  10592c:	e1db20bc 	ldrh	r2, [fp, #12]
  105930:	e1c321b0 	strh	r2, [r3, #16]
  105934:	e51b3008 	ldr	r3, [fp, #-8]
  105938:	e3a02000 	mov	r2, #0
  10593c:	e1c321b2 	strh	r2, [r3, #18]
  105940:	e51b3008 	ldr	r3, [fp, #-8]
  105944:	e3a02000 	mov	r2, #0
  105948:	e5832014 	str	r2, [r3, #20]
  10594c:	e51b3008 	ldr	r3, [fp, #-8]
  105950:	e3a02000 	mov	r2, #0
  105954:	e5832018 	str	r2, [r3, #24]
  105958:	e51b3014 	ldr	r3, [fp, #-20]	; 0xffffffec
  10595c:	e3832102 	orr	r2, r3, #-2147483648	; 0x80000000
  105960:	e51b3008 	ldr	r3, [fp, #-8]
  105964:	e583201c 	str	r2, [r3, #28]
  105968:	e3a03000 	mov	r3, #0
  10596c:	e1a00003 	mov	r0, r3
  105970:	e24bd000 	sub	sp, fp, #0
  105974:	e49db004 	pop	{fp}		; (ldr fp, [sp], #4)
  105978:	e12fff1e 	bx	lr

0010597c <construct_extended_mm_to_st_descriptor_64>:
  10597c:	e52db004 	push	{fp}		; (str fp, [sp, #-4]!)
  105980:	e28db000 	add	fp, sp, #0
  105984:	e24dd014 	sub	sp, sp, #20
  105988:	e50b0008 	str	r0, [fp, #-8]
  10598c:	e50b100c 	str	r1, [fp, #-12]
  105990:	e50b2010 	str	r2, [fp, #-16]
  105994:	e50b3014 	str	r3, [fp, #-20]	; 0xffffffec
  105998:	e51b3008 	ldr	r3, [fp, #-8]
  10599c:	e51b200c 	ldr	r2, [fp, #-12]
  1059a0:	e5832000 	str	r2, [r3]
  1059a4:	e51b3008 	ldr	r3, [fp, #-8]
  1059a8:	e3a02000 	mov	r2, #0
  1059ac:	e5832004 	str	r2, [r3, #4]
  1059b0:	e51b3008 	ldr	r3, [fp, #-8]
  1059b4:	e51b2014 	ldr	r2, [fp, #-20]	; 0xffffffec
  1059b8:	e5832008 	str	r2, [r3, #8]
  1059bc:	e51b3008 	ldr	r3, [fp, #-8]
  1059c0:	e1db20b8 	ldrh	r2, [fp, #8]
  1059c4:	e1c320bc 	strh	r2, [r3, #12]
  1059c8:	e51b3008 	ldr	r3, [fp, #-8]
  1059cc:	e5db200c 	ldrb	r2, [fp, #12]
  1059d0:	e5c3200e 	strb	r2, [r3, #14]
  1059d4:	e51b3008 	ldr	r3, [fp, #-8]
  1059d8:	e3a02000 	mov	r2, #0
  1059dc:	e5c3200f 	strb	r2, [r3, #15]
  1059e0:	e51b3008 	ldr	r3, [fp, #-8]
  1059e4:	e1db21b0 	ldrh	r2, [fp, #16]
  1059e8:	e1c321b0 	strh	r2, [r3, #16]
  1059ec:	e51b3008 	ldr	r3, [fp, #-8]
  1059f0:	e3a02000 	mov	r2, #0
  1059f4:	e1c321b2 	strh	r2, [r3, #18]
  1059f8:	e51b3008 	ldr	r3, [fp, #-8]
  1059fc:	e51b2010 	ldr	r2, [fp, #-16]
  105a00:	e5832014 	str	r2, [r3, #20]
  105a04:	e51b3008 	ldr	r3, [fp, #-8]
  105a08:	e3a02000 	mov	r2, #0
  105a0c:	e5832018 	str	r2, [r3, #24]
  105a10:	e59b3004 	ldr	r3, [fp, #4]
  105a14:	e3832102 	orr	r2, r3, #-2147483648	; 0x80000000
  105a18:	e51b3008 	ldr	r3, [fp, #-8]
  105a1c:	e583201c 	str	r2, [r3, #28]
  105a20:	e3a03000 	mov	r3, #0
  105a24:	e1a00003 	mov	r0, r3
  105a28:	e24bd000 	sub	sp, fp, #0
  105a2c:	e49db004 	pop	{fp}		; (ldr fp, [sp], #4)
  105a30:	e12fff1e 	bx	lr

00105a34 <construct_extended_mm_to_mm_descriptor>:
  105a34:	e52db004 	push	{fp}		; (str fp, [sp, #-4]!)
  105a38:	e28db000 	add	fp, sp, #0
  105a3c:	e24dd014 	sub	sp, sp, #20
  105a40:	e50b0008 	str	r0, [fp, #-8]
  105a44:	e50b100c 	str	r1, [fp, #-12]
  105a48:	e50b2010 	str	r2, [fp, #-16]
  105a4c:	e50b3014 	str	r3, [fp, #-20]	; 0xffffffec
  105a50:	e51b3008 	ldr	r3, [fp, #-8]
  105a54:	e51b200c 	ldr	r2, [fp, #-12]
  105a58:	e5832000 	str	r2, [r3]
  105a5c:	e51b3008 	ldr	r3, [fp, #-8]
  105a60:	e51b2010 	ldr	r2, [fp, #-16]
  105a64:	e5832004 	str	r2, [r3, #4]
  105a68:	e51b3008 	ldr	r3, [fp, #-8]
  105a6c:	e51b2014 	ldr	r2, [fp, #-20]	; 0xffffffec
  105a70:	e5832008 	str	r2, [r3, #8]
  105a74:	e51b3008 	ldr	r3, [fp, #-8]
  105a78:	e1db20b8 	ldrh	r2, [fp, #8]
  105a7c:	e1c320bc 	strh	r2, [r3, #12]
  105a80:	e51b3008 	ldr	r3, [fp, #-8]
  105a84:	e5db200c 	ldrb	r2, [fp, #12]
  105a88:	e5c3200e 	strb	r2, [r3, #14]
  105a8c:	e51b3008 	ldr	r3, [fp, #-8]
  105a90:	e5db2010 	ldrb	r2, [fp, #16]
  105a94:	e5c3200f 	strb	r2, [r3, #15]
  105a98:	e51b3008 	ldr	r3, [fp, #-8]
  105a9c:	e1db21b4 	ldrh	r2, [fp, #20]
  105aa0:	e1c321b0 	strh	r2, [r3, #16]
  105aa4:	e51b3008 	ldr	r3, [fp, #-8]
  105aa8:	e1db21b8 	ldrh	r2, [fp, #24]
  105aac:	e1c321b2 	strh	r2, [r3, #18]
  105ab0:	e51b3008 	ldr	r3, [fp, #-8]
  105ab4:	e3a02000 	mov	r2, #0
  105ab8:	e5832014 	str	r2, [r3, #20]
  105abc:	e51b3008 	ldr	r3, [fp, #-8]
  105ac0:	e3a02000 	mov	r2, #0
  105ac4:	e5832018 	str	r2, [r3, #24]
  105ac8:	e59b3004 	ldr	r3, [fp, #4]
  105acc:	e3832102 	orr	r2, r3, #-2147483648	; 0x80000000
  105ad0:	e51b3008 	ldr	r3, [fp, #-8]
  105ad4:	e583201c 	str	r2, [r3, #28]
  105ad8:	e3a03000 	mov	r3, #0
  105adc:	e1a00003 	mov	r0, r3
  105ae0:	e24bd000 	sub	sp, fp, #0
  105ae4:	e49db004 	pop	{fp}		; (ldr fp, [sp], #4)
  105ae8:	e12fff1e 	bx	lr

00105aec <construct_extended_mm_to_mm_descriptor_64>:
  105aec:	e52db004 	push	{fp}		; (str fp, [sp, #-4]!)
  105af0:	e28db000 	add	fp, sp, #0
  105af4:	e24dd014 	sub	sp, sp, #20
  105af8:	e50b0008 	str	r0, [fp, #-8]
  105afc:	e50b100c 	str	r1, [fp, #-12]
  105b00:	e50b2010 	str	r2, [fp, #-16]
  105b04:	e50b3014 	str	r3, [fp, #-20]	; 0xffffffec
  105b08:	e51b3008 	ldr	r3, [fp, #-8]
  105b0c:	e51b200c 	ldr	r2, [fp, #-12]
  105b10:	e5832000 	str	r2, [r3]
  105b14:	e51b3008 	ldr	r3, [fp, #-8]
  105b18:	e51b2014 	ldr	r2, [fp, #-20]	; 0xffffffec
  105b1c:	e5832004 	str	r2, [r3, #4]
  105b20:	e51b3008 	ldr	r3, [fp, #-8]
  105b24:	e59b2008 	ldr	r2, [fp, #8]
  105b28:	e5832008 	str	r2, [r3, #8]
  105b2c:	e51b3008 	ldr	r3, [fp, #-8]
  105b30:	e1db21b0 	ldrh	r2, [fp, #16]
  105b34:	e1c320bc 	strh	r2, [r3, #12]
  105b38:	e51b3008 	ldr	r3, [fp, #-8]
  105b3c:	e5db2014 	ldrb	r2, [fp, #20]
  105b40:	e5c3200e 	strb	r2, [r3, #14]
  105b44:	e51b3008 	ldr	r3, [fp, #-8]
  105b48:	e5db2018 	ldrb	r2, [fp, #24]
  105b4c:	e5c3200f 	strb	r2, [r3, #15]
  105b50:	e51b3008 	ldr	r3, [fp, #-8]
  105b54:	e1db21bc 	ldrh	r2, [fp, #28]
  105b58:	e1c321b0 	strh	r2, [r3, #16]
  105b5c:	e51b3008 	ldr	r3, [fp, #-8]
  105b60:	e1db22b0 	ldrh	r2, [fp, #32]
  105b64:	e1c321b2 	strh	r2, [r3, #18]
  105b68:	e51b3008 	ldr	r3, [fp, #-8]
  105b6c:	e51b2010 	ldr	r2, [fp, #-16]
  105b70:	e5832014 	str	r2, [r3, #20]
  105b74:	e51b3008 	ldr	r3, [fp, #-8]
  105b78:	e59b2004 	ldr	r2, [fp, #4]
  105b7c:	e5832018 	str	r2, [r3, #24]
  105b80:	e59b300c 	ldr	r3, [fp, #12]
  105b84:	e3832102 	orr	r2, r3, #-2147483648	; 0x80000000
  105b88:	e51b3008 	ldr	r3, [fp, #-8]
  105b8c:	e583201c 	str	r2, [r3, #28]
  105b90:	e3a03000 	mov	r3, #0
  105b94:	e1a00003 	mov	r0, r3
  105b98:	e24bd000 	sub	sp, fp, #0
  105b9c:	e49db004 	pop	{fp}		; (ldr fp, [sp], #4)
  105ba0:	e12fff1e 	bx	lr

00105ba4 <write_standard_descriptor>:
  105ba4:	e52db004 	push	{fp}		; (str fp, [sp, #-4]!)
  105ba8:	e28db000 	add	fp, sp, #0
  105bac:	e24dd014 	sub	sp, sp, #20
  105bb0:	e50b0008 	str	r0, [fp, #-8]
  105bb4:	e50b100c 	str	r1, [fp, #-12]
  105bb8:	e50b2010 	str	r2, [fp, #-16]
  105bbc:	e51b3008 	ldr	r3, [fp, #-8]
  105bc0:	e5933000 	ldr	r3, [r3]
  105bc4:	e2033004 	and	r3, r3, #4
  105bc8:	e3530000 	cmp	r3, #0
  105bcc:	0a000001 	beq	105bd8 <write_standard_descriptor+0x34>
  105bd0:	e3e0301b 	mvn	r3, #27
  105bd4:	ea000016 	b	105c34 <write_standard_descriptor+0x90>
  105bd8:	e51b300c 	ldr	r3, [fp, #-12]
  105bdc:	e51b2010 	ldr	r2, [fp, #-16]
  105be0:	e5922000 	ldr	r2, [r2]
  105be4:	e5832000 	str	r2, [r3]
  105be8:	e51b300c 	ldr	r3, [fp, #-12]
  105bec:	e2833004 	add	r3, r3, #4
  105bf0:	e1a02003 	mov	r2, r3
  105bf4:	e51b3010 	ldr	r3, [fp, #-16]
  105bf8:	e5933004 	ldr	r3, [r3, #4]
  105bfc:	e5823000 	str	r3, [r2]
  105c00:	e51b300c 	ldr	r3, [fp, #-12]
  105c04:	e2833008 	add	r3, r3, #8
  105c08:	e1a02003 	mov	r2, r3
  105c0c:	e51b3010 	ldr	r3, [fp, #-16]
  105c10:	e5933008 	ldr	r3, [r3, #8]
  105c14:	e5823000 	str	r3, [r2]
  105c18:	e51b300c 	ldr	r3, [fp, #-12]
  105c1c:	e283300c 	add	r3, r3, #12
  105c20:	e1a02003 	mov	r2, r3
  105c24:	e51b3010 	ldr	r3, [fp, #-16]
  105c28:	e593300c 	ldr	r3, [r3, #12]
  105c2c:	e5823000 	str	r3, [r2]
  105c30:	e3a03000 	mov	r3, #0
  105c34:	e1a00003 	mov	r0, r3
  105c38:	e24bd000 	sub	sp, fp, #0
  105c3c:	e49db004 	pop	{fp}		; (ldr fp, [sp], #4)
  105c40:	e12fff1e 	bx	lr

00105c44 <write_extended_descriptor>:
  105c44:	e52db004 	push	{fp}		; (str fp, [sp, #-4]!)
  105c48:	e28db000 	add	fp, sp, #0
  105c4c:	e24dd014 	sub	sp, sp, #20
  105c50:	e50b0008 	str	r0, [fp, #-8]
  105c54:	e50b100c 	str	r1, [fp, #-12]
  105c58:	e50b2010 	str	r2, [fp, #-16]
  105c5c:	e51b3008 	ldr	r3, [fp, #-8]
  105c60:	e5933000 	ldr	r3, [r3]
  105c64:	e2033004 	and	r3, r3, #4
  105c68:	e3530000 	cmp	r3, #0
  105c6c:	0a000001 	beq	105c78 <write_extended_descriptor+0x34>
  105c70:	e3e0301b 	mvn	r3, #27
  105c74:	ea000040 	b	105d7c <write_extended_descriptor+0x138>
  105c78:	e51b300c 	ldr	r3, [fp, #-12]
  105c7c:	e51b2010 	ldr	r2, [fp, #-16]
  105c80:	e5922000 	ldr	r2, [r2]
  105c84:	e5832000 	str	r2, [r3]
  105c88:	e51b300c 	ldr	r3, [fp, #-12]
  105c8c:	e2833004 	add	r3, r3, #4
  105c90:	e1a02003 	mov	r2, r3
  105c94:	e51b3010 	ldr	r3, [fp, #-16]
  105c98:	e5933004 	ldr	r3, [r3, #4]
  105c9c:	e5823000 	str	r3, [r2]
  105ca0:	e51b300c 	ldr	r3, [fp, #-12]
  105ca4:	e2833008 	add	r3, r3, #8
  105ca8:	e1a02003 	mov	r2, r3
  105cac:	e51b3010 	ldr	r3, [fp, #-16]
  105cb0:	e5933008 	ldr	r3, [r3, #8]
  105cb4:	e5823000 	str	r3, [r2]
  105cb8:	e51b300c 	ldr	r3, [fp, #-12]
  105cbc:	e283300c 	add	r3, r3, #12
  105cc0:	e1a02003 	mov	r2, r3
  105cc4:	e51b3010 	ldr	r3, [fp, #-16]
  105cc8:	e1d330bc 	ldrh	r3, [r3, #12]
  105ccc:	e1c230b0 	strh	r3, [r2]
  105cd0:	e51b300c 	ldr	r3, [fp, #-12]
  105cd4:	e283300e 	add	r3, r3, #14
  105cd8:	e1a02003 	mov	r2, r3
  105cdc:	e51b3010 	ldr	r3, [fp, #-16]
  105ce0:	e5d3300e 	ldrb	r3, [r3, #14]
  105ce4:	e5c23000 	strb	r3, [r2]
  105ce8:	e51b300c 	ldr	r3, [fp, #-12]
  105cec:	e283300f 	add	r3, r3, #15
  105cf0:	e1a02003 	mov	r2, r3
  105cf4:	e51b3010 	ldr	r3, [fp, #-16]
  105cf8:	e5d3300f 	ldrb	r3, [r3, #15]
  105cfc:	e5c23000 	strb	r3, [r2]
  105d00:	e51b300c 	ldr	r3, [fp, #-12]
  105d04:	e2833010 	add	r3, r3, #16
  105d08:	e1a02003 	mov	r2, r3
  105d0c:	e51b3010 	ldr	r3, [fp, #-16]
  105d10:	e1d331b0 	ldrh	r3, [r3, #16]
  105d14:	e1c230b0 	strh	r3, [r2]
  105d18:	e51b300c 	ldr	r3, [fp, #-12]
  105d1c:	e2833012 	add	r3, r3, #18
  105d20:	e1a02003 	mov	r2, r3
  105d24:	e51b3010 	ldr	r3, [fp, #-16]
  105d28:	e1d331b2 	ldrh	r3, [r3, #18]
  105d2c:	e1c230b0 	strh	r3, [r2]
  105d30:	e51b300c 	ldr	r3, [fp, #-12]
  105d34:	e2833014 	add	r3, r3, #20
  105d38:	e1a02003 	mov	r2, r3
  105d3c:	e51b3010 	ldr	r3, [fp, #-16]
  105d40:	e5933014 	ldr	r3, [r3, #20]
  105d44:	e5823000 	str	r3, [r2]
  105d48:	e51b300c 	ldr	r3, [fp, #-12]
  105d4c:	e2833018 	add	r3, r3, #24
  105d50:	e1a02003 	mov	r2, r3
  105d54:	e51b3010 	ldr	r3, [fp, #-16]
  105d58:	e5933018 	ldr	r3, [r3, #24]
  105d5c:	e5823000 	str	r3, [r2]
  105d60:	e51b300c 	ldr	r3, [fp, #-12]
  105d64:	e283301c 	add	r3, r3, #28
  105d68:	e1a02003 	mov	r2, r3
  105d6c:	e51b3010 	ldr	r3, [fp, #-16]
  105d70:	e593301c 	ldr	r3, [r3, #28]
  105d74:	e5823000 	str	r3, [r2]
  105d78:	e3a03000 	mov	r3, #0
  105d7c:	e1a00003 	mov	r0, r3
  105d80:	e24bd000 	sub	sp, fp, #0
  105d84:	e49db004 	pop	{fp}		; (ldr fp, [sp], #4)
  105d88:	e12fff1e 	bx	lr

00105d8c <read_mm_response>:
  105d8c:	e52db004 	push	{fp}		; (str fp, [sp, #-4]!)
  105d90:	e28db000 	add	fp, sp, #0
  105d94:	e24dd01c 	sub	sp, sp, #28
  105d98:	e50b0010 	str	r0, [fp, #-16]
  105d9c:	e50b1014 	str	r1, [fp, #-20]	; 0xffffffec
  105da0:	e50b2018 	str	r2, [fp, #-24]	; 0xffffffe8
  105da4:	e51b3010 	ldr	r3, [fp, #-16]
  105da8:	e5933000 	ldr	r3, [r3]
  105dac:	e2033008 	and	r3, r3, #8
  105db0:	e3530000 	cmp	r3, #0
  105db4:	0a000001 	beq	105dc0 <read_mm_response+0x34>
  105db8:	e3e0303c 	mvn	r3, #60	; 0x3c
  105dbc:	ea000013 	b	105e10 <read_mm_response+0x84>
  105dc0:	e51b3014 	ldr	r3, [fp, #-20]	; 0xffffffec
  105dc4:	e5932000 	ldr	r2, [r3]
  105dc8:	e51b3018 	ldr	r3, [fp, #-24]	; 0xffffffe8
  105dcc:	e5832000 	str	r2, [r3]
  105dd0:	e51b3014 	ldr	r3, [fp, #-20]	; 0xffffffec
  105dd4:	e2833004 	add	r3, r3, #4
  105dd8:	e5933000 	ldr	r3, [r3]
  105ddc:	e50b3008 	str	r3, [fp, #-8]
  105de0:	e51b3008 	ldr	r3, [fp, #-8]
  105de4:	e6ef2073 	uxtb	r2, r3
  105de8:	e51b3018 	ldr	r3, [fp, #-24]	; 0xffffffe8
  105dec:	e5c32004 	strb	r2, [r3, #4]
  105df0:	e51b3008 	ldr	r3, [fp, #-8]
  105df4:	e1a03423 	lsr	r3, r3, #8
  105df8:	e6ef3073 	uxtb	r3, r3
  105dfc:	e2033001 	and	r3, r3, #1
  105e00:	e6ef2073 	uxtb	r2, r3
  105e04:	e51b3018 	ldr	r3, [fp, #-24]	; 0xffffffe8
  105e08:	e5c32005 	strb	r2, [r3, #5]
  105e0c:	e3a03000 	mov	r3, #0
  105e10:	e1a00003 	mov	r0, r3
  105e14:	e24bd000 	sub	sp, fp, #0
  105e18:	e49db004 	pop	{fp}		; (ldr fp, [sp], #4)
  105e1c:	e12fff1e 	bx	lr

00105e20 <read_csr_status>:
  105e20:	e52db004 	push	{fp}		; (str fp, [sp, #-4]!)
  105e24:	e28db000 	add	fp, sp, #0
  105e28:	e24dd00c 	sub	sp, sp, #12
  105e2c:	e50b0008 	str	r0, [fp, #-8]
  105e30:	e51b3008 	ldr	r3, [fp, #-8]
  105e34:	e5933000 	ldr	r3, [r3]
  105e38:	e1a00003 	mov	r0, r3
  105e3c:	e24bd000 	sub	sp, fp, #0
  105e40:	e49db004 	pop	{fp}		; (ldr fp, [sp], #4)
  105e44:	e12fff1e 	bx	lr

00105e48 <read_csr_control>:
  105e48:	e52db004 	push	{fp}		; (str fp, [sp, #-4]!)
  105e4c:	e28db000 	add	fp, sp, #0
  105e50:	e24dd00c 	sub	sp, sp, #12
  105e54:	e50b0008 	str	r0, [fp, #-8]
  105e58:	e51b3008 	ldr	r3, [fp, #-8]
  105e5c:	e2833004 	add	r3, r3, #4
  105e60:	e5933000 	ldr	r3, [r3]
  105e64:	e1a00003 	mov	r0, r3
  105e68:	e24bd000 	sub	sp, fp, #0
  105e6c:	e49db004 	pop	{fp}		; (ldr fp, [sp], #4)
  105e70:	e12fff1e 	bx	lr

00105e74 <read_csr_read_descriptor_buffer_fill_level>:
  105e74:	e52db004 	push	{fp}		; (str fp, [sp, #-4]!)
  105e78:	e28db000 	add	fp, sp, #0
  105e7c:	e24dd00c 	sub	sp, sp, #12
  105e80:	e50b0008 	str	r0, [fp, #-8]
  105e84:	e51b3008 	ldr	r3, [fp, #-8]
  105e88:	e2833008 	add	r3, r3, #8
  105e8c:	e5933000 	ldr	r3, [r3]
  105e90:	e6ff3073 	uxth	r3, r3
  105e94:	e1a00003 	mov	r0, r3
  105e98:	e24bd000 	sub	sp, fp, #0
  105e9c:	e49db004 	pop	{fp}		; (ldr fp, [sp], #4)
  105ea0:	e12fff1e 	bx	lr

00105ea4 <read_csr_write_descriptor_buffer_fill_level>:
  105ea4:	e52db004 	push	{fp}		; (str fp, [sp, #-4]!)
  105ea8:	e28db000 	add	fp, sp, #0
  105eac:	e24dd00c 	sub	sp, sp, #12
  105eb0:	e50b0008 	str	r0, [fp, #-8]
  105eb4:	e51b3008 	ldr	r3, [fp, #-8]
  105eb8:	e2833008 	add	r3, r3, #8
  105ebc:	e5933000 	ldr	r3, [r3]
  105ec0:	e1a03823 	lsr	r3, r3, #16
  105ec4:	e6ff3073 	uxth	r3, r3
  105ec8:	e1a00003 	mov	r0, r3
  105ecc:	e24bd000 	sub	sp, fp, #0
  105ed0:	e49db004 	pop	{fp}		; (ldr fp, [sp], #4)
  105ed4:	e12fff1e 	bx	lr

00105ed8 <read_csr_response_buffer_fill_level>:
  105ed8:	e52db004 	push	{fp}		; (str fp, [sp, #-4]!)
  105edc:	e28db000 	add	fp, sp, #0
  105ee0:	e24dd00c 	sub	sp, sp, #12
  105ee4:	e50b0008 	str	r0, [fp, #-8]
  105ee8:	e51b3008 	ldr	r3, [fp, #-8]
  105eec:	e283300c 	add	r3, r3, #12
  105ef0:	e5933000 	ldr	r3, [r3]
  105ef4:	e6ff3073 	uxth	r3, r3
  105ef8:	e1a00003 	mov	r0, r3
  105efc:	e24bd000 	sub	sp, fp, #0
  105f00:	e49db004 	pop	{fp}		; (ldr fp, [sp], #4)
  105f04:	e12fff1e 	bx	lr

00105f08 <read_csr_read_sequence_number>:
  105f08:	e52db004 	push	{fp}		; (str fp, [sp, #-4]!)
  105f0c:	e28db000 	add	fp, sp, #0
  105f10:	e24dd00c 	sub	sp, sp, #12
  105f14:	e50b0008 	str	r0, [fp, #-8]
  105f18:	e51b3008 	ldr	r3, [fp, #-8]
  105f1c:	e2833010 	add	r3, r3, #16
  105f20:	e5933000 	ldr	r3, [r3]
  105f24:	e6ff3073 	uxth	r3, r3
  105f28:	e1a00003 	mov	r0, r3
  105f2c:	e24bd000 	sub	sp, fp, #0
  105f30:	e49db004 	pop	{fp}		; (ldr fp, [sp], #4)
  105f34:	e12fff1e 	bx	lr

00105f38 <read_csr_write_sequence_number>:
  105f38:	e52db004 	push	{fp}		; (str fp, [sp, #-4]!)
  105f3c:	e28db000 	add	fp, sp, #0
  105f40:	e24dd00c 	sub	sp, sp, #12
  105f44:	e50b0008 	str	r0, [fp, #-8]
  105f48:	e51b3008 	ldr	r3, [fp, #-8]
  105f4c:	e2833010 	add	r3, r3, #16
  105f50:	e5933000 	ldr	r3, [r3]
  105f54:	e1a03823 	lsr	r3, r3, #16
  105f58:	e6ff3073 	uxth	r3, r3
  105f5c:	e1a00003 	mov	r0, r3
  105f60:	e24bd000 	sub	sp, fp, #0
  105f64:	e49db004 	pop	{fp}		; (ldr fp, [sp], #4)
  105f68:	e12fff1e 	bx	lr

00105f6c <read_busy>:
  105f6c:	e52db004 	push	{fp}		; (str fp, [sp, #-4]!)
  105f70:	e28db000 	add	fp, sp, #0
  105f74:	e24dd00c 	sub	sp, sp, #12
  105f78:	e50b0008 	str	r0, [fp, #-8]
  105f7c:	e51b3008 	ldr	r3, [fp, #-8]
  105f80:	e5933000 	ldr	r3, [r3]
  105f84:	e2033001 	and	r3, r3, #1
  105f88:	e3530000 	cmp	r3, #0
  105f8c:	13a03001 	movne	r3, #1
  105f90:	03a03000 	moveq	r3, #0
  105f94:	e6ef3073 	uxtb	r3, r3
  105f98:	e1a00003 	mov	r0, r3
  105f9c:	e24bd000 	sub	sp, fp, #0
  105fa0:	e49db004 	pop	{fp}		; (ldr fp, [sp], #4)
  105fa4:	e12fff1e 	bx	lr

00105fa8 <read_descriptor_buffer_empty>:
  105fa8:	e52db004 	push	{fp}		; (str fp, [sp, #-4]!)
  105fac:	e28db000 	add	fp, sp, #0
  105fb0:	e24dd00c 	sub	sp, sp, #12
  105fb4:	e50b0008 	str	r0, [fp, #-8]
  105fb8:	e51b3008 	ldr	r3, [fp, #-8]
  105fbc:	e5933000 	ldr	r3, [r3]
  105fc0:	e2033002 	and	r3, r3, #2
  105fc4:	e3530000 	cmp	r3, #0
  105fc8:	13a03001 	movne	r3, #1
  105fcc:	03a03000 	moveq	r3, #0
  105fd0:	e6ef3073 	uxtb	r3, r3
  105fd4:	e1a00003 	mov	r0, r3
  105fd8:	e24bd000 	sub	sp, fp, #0
  105fdc:	e49db004 	pop	{fp}		; (ldr fp, [sp], #4)
  105fe0:	e12fff1e 	bx	lr

00105fe4 <read_descriptor_buffer_full>:
  105fe4:	e52db004 	push	{fp}		; (str fp, [sp, #-4]!)
  105fe8:	e28db000 	add	fp, sp, #0
  105fec:	e24dd00c 	sub	sp, sp, #12
  105ff0:	e50b0008 	str	r0, [fp, #-8]
  105ff4:	e51b3008 	ldr	r3, [fp, #-8]
  105ff8:	e5933000 	ldr	r3, [r3]
  105ffc:	e2033004 	and	r3, r3, #4
  106000:	e3530000 	cmp	r3, #0
  106004:	13a03001 	movne	r3, #1
  106008:	03a03000 	moveq	r3, #0
  10600c:	e6ef3073 	uxtb	r3, r3
  106010:	e1a00003 	mov	r0, r3
  106014:	e24bd000 	sub	sp, fp, #0
  106018:	e49db004 	pop	{fp}		; (ldr fp, [sp], #4)
  10601c:	e12fff1e 	bx	lr

00106020 <read_response_buffer_empty>:
  106020:	e52db004 	push	{fp}		; (str fp, [sp, #-4]!)
  106024:	e28db000 	add	fp, sp, #0
  106028:	e24dd00c 	sub	sp, sp, #12
  10602c:	e50b0008 	str	r0, [fp, #-8]
  106030:	e51b3008 	ldr	r3, [fp, #-8]
  106034:	e5933000 	ldr	r3, [r3]
  106038:	e2033008 	and	r3, r3, #8
  10603c:	e3530000 	cmp	r3, #0
  106040:	13a03001 	movne	r3, #1
  106044:	03a03000 	moveq	r3, #0
  106048:	e6ef3073 	uxtb	r3, r3
  10604c:	e1a00003 	mov	r0, r3
  106050:	e24bd000 	sub	sp, fp, #0
  106054:	e49db004 	pop	{fp}		; (ldr fp, [sp], #4)
  106058:	e12fff1e 	bx	lr

0010605c <read_response_buffer_full>:
  10605c:	e52db004 	push	{fp}		; (str fp, [sp, #-4]!)
  106060:	e28db000 	add	fp, sp, #0
  106064:	e24dd00c 	sub	sp, sp, #12
  106068:	e50b0008 	str	r0, [fp, #-8]
  10606c:	e51b3008 	ldr	r3, [fp, #-8]
  106070:	e5933000 	ldr	r3, [r3]
  106074:	e2033010 	and	r3, r3, #16
  106078:	e3530000 	cmp	r3, #0
  10607c:	13a03001 	movne	r3, #1
  106080:	03a03000 	moveq	r3, #0
  106084:	e6ef3073 	uxtb	r3, r3
  106088:	e1a00003 	mov	r0, r3
  10608c:	e24bd000 	sub	sp, fp, #0
  106090:	e49db004 	pop	{fp}		; (ldr fp, [sp], #4)
  106094:	e12fff1e 	bx	lr

00106098 <read_stopped>:
  106098:	e52db004 	push	{fp}		; (str fp, [sp, #-4]!)
  10609c:	e28db000 	add	fp, sp, #0
  1060a0:	e24dd00c 	sub	sp, sp, #12
  1060a4:	e50b0008 	str	r0, [fp, #-8]
  1060a8:	e51b3008 	ldr	r3, [fp, #-8]
  1060ac:	e5933000 	ldr	r3, [r3]
  1060b0:	e2033020 	and	r3, r3, #32
  1060b4:	e3530000 	cmp	r3, #0
  1060b8:	13a03001 	movne	r3, #1
  1060bc:	03a03000 	moveq	r3, #0
  1060c0:	e6ef3073 	uxtb	r3, r3
  1060c4:	e1a00003 	mov	r0, r3
  1060c8:	e24bd000 	sub	sp, fp, #0
  1060cc:	e49db004 	pop	{fp}		; (ldr fp, [sp], #4)
  1060d0:	e12fff1e 	bx	lr

001060d4 <read_resetting>:
  1060d4:	e52db004 	push	{fp}		; (str fp, [sp, #-4]!)
  1060d8:	e28db000 	add	fp, sp, #0
  1060dc:	e24dd00c 	sub	sp, sp, #12
  1060e0:	e50b0008 	str	r0, [fp, #-8]
  1060e4:	e51b3008 	ldr	r3, [fp, #-8]
  1060e8:	e5933000 	ldr	r3, [r3]
  1060ec:	e2033040 	and	r3, r3, #64	; 0x40
  1060f0:	e3530000 	cmp	r3, #0
  1060f4:	13a03001 	movne	r3, #1
  1060f8:	03a03000 	moveq	r3, #0
  1060fc:	e6ef3073 	uxtb	r3, r3
