
src/hwlib.axf:     file format elf32-littlearm


Disassembly of section .text:

00100040 <__cs3_interrupt_vector>:
  100040:	18 f0 9f e5 18 f0 9f e5 18 f0 9f e5 18 f0 9f e5     ................
  100050:	18 f0 9f e5 18 f0 9f e5 18 f0 9f e5 18 f0 9f e5     ................
  100060:	80 00 10 00 00 05 12 00 04 05 12 00 08 05 12 00     ................
  100070:	0c 05 12 00 fc 04 12 00 10 05 12 00 14 05 12 00     ................

00100080 <__cs3_reset>:
  100080:	ea000022 	b	100110 <_start>

00100084 <__cs3_start_c>:
  100084:	e3008002 	movw	r8, #2
  100088:	e92d4080 	push	{r7, lr}
  10008c:	e3408000 	movt	r8, #0
  100090:	e3580000 	cmp	r8, #0
  100094:	0a00001c 	beq	10010c <__cs3_start_c+0x88>
  100098:	e301e474 	movw	lr, #5236	; 0x1474
  10009c:	e2488001 	sub	r8, r8, #1
  1000a0:	e3a04000 	mov	r4, #0
  1000a4:	e3a05000 	mov	r5, #0
  1000a8:	e340e012 	movt	lr, #18
  1000ac:	e99e1005 	ldmib	lr, {r0, r2, ip}
  1000b0:	e1500002 	cmp	r0, r2
  1000b4:	0082200c 	addeq	r2, r2, ip
  1000b8:	0a000007 	beq	1000dc <__cs3_start_c+0x58>
  1000bc:	e35c0000 	cmp	ip, #0
  1000c0:	0a000005 	beq	1000dc <__cs3_start_c+0x58>
  1000c4:	e1a03000 	mov	r3, r0
  1000c8:	e0c360d8 	ldrd	r6, [r3], #8
  1000cc:	e0431000 	sub	r1, r3, r0
  1000d0:	e0c260f8 	strd	r6, [r2], #8
  1000d4:	e151000c 	cmp	r1, ip
  1000d8:	1afffffa 	bne	1000c8 <__cs3_start_c+0x44>
  1000dc:	e59e0010 	ldr	r0, [lr, #16]
  1000e0:	e3500000 	cmp	r0, #0
  1000e4:	11a03002 	movne	r3, r2
  1000e8:	0a000003 	beq	1000fc <__cs3_start_c+0x78>
  1000ec:	e0c340f8 	strd	r4, [r3], #8
  1000f0:	e0431002 	sub	r1, r3, r2
  1000f4:	e1500001 	cmp	r0, r1
  1000f8:	1afffffb 	bne	1000ec <__cs3_start_c+0x68>
  1000fc:	e2488001 	sub	r8, r8, #1
  100100:	e28ee014 	add	lr, lr, #20
  100104:	e3780001 	cmn	r8, #1
  100108:	1affffe7 	bne	1000ac <__cs3_start_c+0x28>
  10010c:	eb0080ad 	bl	1203c8 <__cs3_premain>

00100110 <_start>:
  100110:	e51fd000 	ldr	sp, [pc, #-0]	; 100118 <_start+0x8>
  100114:	eaffffda 	b	100084 <__cs3_start_c>
  100118:	01100040 	.word	0x01100040

0010011c <deregister_tm_clones>:
  10011c:	e59f3024 	ldr	r3, [pc, #36]	; 100148 <deregister_tm_clones+0x2c>
  100120:	e30c0aa0 	movw	r0, #51872	; 0xcaa0
  100124:	e3400012 	movt	r0, #18
  100128:	e0433000 	sub	r3, r3, r0
  10012c:	e3530006 	cmp	r3, #6
  100130:	912fff1e 	bxls	lr
  100134:	e3003000 	movw	r3, #0
  100138:	e3403000 	movt	r3, #0
  10013c:	e3530000 	cmp	r3, #0
  100140:	012fff1e 	bxeq	lr
  100144:	e12fff13 	bx	r3
  100148:	0012caa3 	.word	0x0012caa3

0010014c <register_tm_clones>:
  10014c:	e30c3aa0 	movw	r3, #51872	; 0xcaa0
  100150:	e30c0aa0 	movw	r0, #51872	; 0xcaa0
  100154:	e3403012 	movt	r3, #18
  100158:	e3400012 	movt	r0, #18
  10015c:	e0431000 	sub	r1, r3, r0
  100160:	e1a01141 	asr	r1, r1, #2
  100164:	e0811fa1 	add	r1, r1, r1, lsr #31
  100168:	e1b010c1 	asrs	r1, r1, #1
  10016c:	012fff1e 	bxeq	lr
  100170:	e3003000 	movw	r3, #0
  100174:	e3403000 	movt	r3, #0
  100178:	e3530000 	cmp	r3, #0
  10017c:	012fff1e 	bxeq	lr
  100180:	e12fff13 	bx	r3

00100184 <__do_global_dtors_aux>:
  100184:	e92d4010 	push	{r4, lr}
  100188:	e30c4aa0 	movw	r4, #51872	; 0xcaa0
  10018c:	e3404012 	movt	r4, #18
  100190:	e5d43000 	ldrb	r3, [r4]
  100194:	e3530000 	cmp	r3, #0
  100198:	18bd8010 	popne	{r4, pc}
  10019c:	ebffffde 	bl	10011c <deregister_tm_clones>
  1001a0:	e3003000 	movw	r3, #0
  1001a4:	e3403000 	movt	r3, #0
  1001a8:	e3530000 	cmp	r3, #0
  1001ac:	0a000002 	beq	1001bc <__do_global_dtors_aux+0x38>
  1001b0:	e300059c 	movw	r0, #1436	; 0x59c
  1001b4:	e3400012 	movt	r0, #18
  1001b8:	e320f000 	nop	{0}
  1001bc:	e3a03001 	mov	r3, #1
  1001c0:	e5c43000 	strb	r3, [r4]
  1001c4:	e8bd8010 	pop	{r4, pc}

001001c8 <frame_dummy>:
  1001c8:	e3003000 	movw	r3, #0
  1001cc:	e92d4010 	push	{r4, lr}
  1001d0:	e3403000 	movt	r3, #0
  1001d4:	e3530000 	cmp	r3, #0
  1001d8:	0a000004 	beq	1001f0 <frame_dummy+0x28>
  1001dc:	e30c1aa4 	movw	r1, #51876	; 0xcaa4
  1001e0:	e300059c 	movw	r0, #1436	; 0x59c
  1001e4:	e3401012 	movt	r1, #18
  1001e8:	e3400012 	movt	r0, #18
  1001ec:	e320f000 	nop	{0}
  1001f0:	e3040000 	movw	r0, #16384	; 0x4000
  1001f4:	e3400012 	movt	r0, #18
  1001f8:	e5903000 	ldr	r3, [r0]
  1001fc:	e3530000 	cmp	r3, #0
  100200:	1a000001 	bne	10020c <frame_dummy+0x44>
  100204:	e8bd4010 	pop	{r4, lr}
  100208:	eaffffcf 	b	10014c <register_tm_clones>
  10020c:	e3003000 	movw	r3, #0
  100210:	e3403000 	movt	r3, #0
  100214:	e3530000 	cmp	r3, #0
  100218:	0afffff9 	beq	100204 <frame_dummy+0x3c>
  10021c:	e12fff33 	blx	r3
  100220:	eafffff7 	b	100204 <frame_dummy+0x3c>

00100224 <main>:
  100224:	e92d4830 	push	{r4, r5, fp, lr}
  100228:	e28db00c 	add	fp, sp, #12
  10022c:	e24dd078 	sub	sp, sp, #120	; 0x78
  100230:	e50b0058 	str	r0, [fp, #-88]	; 0xffffffa8
  100234:	e50b105c 	str	r1, [fp, #-92]	; 0xffffffa4
  100238:	e30005a8 	movw	r0, #1448	; 0x5a8
  10023c:	e3400012 	movt	r0, #18
  100240:	eb00541d 	bl	1152bc <puts>
  100244:	e3a03000 	mov	r3, #0
  100248:	e50b3014 	str	r3, [fp, #-20]	; 0xffffffec
  10024c:	e3a03000 	mov	r3, #0
  100250:	e54b3030 	strb	r3, [fp, #-48]	; 0xffffffd0
  100254:	e3a03000 	mov	r3, #0
  100258:	e54b302f 	strb	r3, [fp, #-47]	; 0xffffffd1
  10025c:	e3a03000 	mov	r3, #0
  100260:	e54b302e 	strb	r3, [fp, #-46]	; 0xffffffd2
  100264:	e3a0306c 	mov	r3, #108	; 0x6c
  100268:	e54b302d 	strb	r3, [fp, #-45]	; 0xffffffd3
  10026c:	e3003648 	movw	r3, #1608	; 0x648
  100270:	e3403012 	movt	r3, #18
  100274:	e24bc03c 	sub	ip, fp, #60	; 0x3c
  100278:	e8930007 	ldm	r3, {r0, r1, r2}
  10027c:	e88c0007 	stm	ip, {r0, r1, r2}
  100280:	eb000079 	bl	10046c <cache_fun>
  100284:	e3044034 	movw	r4, #16436	; 0x4034
  100288:	e3404012 	movt	r4, #18
  10028c:	e24b5020 	sub	r5, fp, #32
  100290:	e24b3024 	sub	r3, fp, #36	; 0x24
  100294:	e58d3024 	str	r3, [sp, #36]	; 0x24
  100298:	e1a0e00d 	mov	lr, sp
  10029c:	e284c00c 	add	ip, r4, #12
  1002a0:	e8bc000f 	ldm	ip!, {r0, r1, r2, r3}
  1002a4:	e8ae000f 	stmia	lr!, {r0, r1, r2, r3}
  1002a8:	e8bc000f 	ldm	ip!, {r0, r1, r2, r3}
  1002ac:	e8ae000f 	stmia	lr!, {r0, r1, r2, r3}
  1002b0:	e59c3000 	ldr	r3, [ip]
  1002b4:	e58e3000 	str	r3, [lr]
  1002b8:	e894000e 	ldm	r4, {r1, r2, r3}
  1002bc:	e1a00005 	mov	r0, r5
  1002c0:	eb000b27 	bl	102f64 <ad77681_setup>
  1002c4:	e3044034 	movw	r4, #16436	; 0x4034
  1002c8:	e3404012 	movt	r4, #18
  1002cc:	e24b5020 	sub	r5, fp, #32
  1002d0:	e24b3024 	sub	r3, fp, #36	; 0x24
  1002d4:	e58d3024 	str	r3, [sp, #36]	; 0x24
  1002d8:	e1a0e00d 	mov	lr, sp
  1002dc:	e284c00c 	add	ip, r4, #12
  1002e0:	e8bc000f 	ldm	ip!, {r0, r1, r2, r3}
  1002e4:	e8ae000f 	stmia	lr!, {r0, r1, r2, r3}
  1002e8:	e8bc000f 	ldm	ip!, {r0, r1, r2, r3}
  1002ec:	e8ae000f 	stmia	lr!, {r0, r1, r2, r3}
  1002f0:	e59c3000 	ldr	r3, [ip]
  1002f4:	e58e3000 	str	r3, [lr]
  1002f8:	e894000e 	ldm	r4, {r1, r2, r3}
  1002fc:	e1a00005 	mov	r0, r5
  100300:	eb000b17 	bl	102f64 <ad77681_setup>
  100304:	e51b3020 	ldr	r3, [fp, #-32]	; 0xffffffe0
  100308:	e3a01001 	mov	r1, #1
  10030c:	e1a00003 	mov	r0, r3
  100310:	eb00060c 	bl	101b48 <ad77681_set_continuos_read>
  100314:	e51b3020 	ldr	r3, [fp, #-32]	; 0xffffffe0
  100318:	e5933000 	ldr	r3, [r3]
  10031c:	e24b203c 	sub	r2, fp, #60	; 0x3c
  100320:	e1a01002 	mov	r1, r2
  100324:	e1a00003 	mov	r0, r3
  100328:	eb0010bb 	bl	10461c <spi_engine_offload_init>
  10032c:	e50b0018 	str	r0, [fp, #-24]	; 0xffffffe8
  100330:	e51b3018 	ldr	r3, [fp, #-24]	; 0xffffffe8
  100334:	e3530000 	cmp	r3, #0
  100338:	0a000001 	beq	100344 <main+0x120>
  10033c:	e3e03000 	mvn	r3, #0
  100340:	ea000046 	b	100460 <main+0x23c>
  100344:	e3043008 	movw	r3, #16392	; 0x4008
  100348:	e3403012 	movt	r3, #18
  10034c:	e50b3050 	str	r3, [fp, #-80]	; 0xffffffb0
  100350:	e3a03006 	mov	r3, #6
  100354:	e50b304c 	str	r3, [fp, #-76]	; 0xffffffb4
  100358:	e51b3048 	ldr	r3, [fp, #-72]	; 0xffffffb8
  10035c:	e51b2030 	ldr	r2, [fp, #-48]	; 0xffffffd0
  100360:	e5832000 	str	r2, [r3]
  100364:	e24b3054 	sub	r3, fp, #84	; 0x54
  100368:	e1a01003 	mov	r1, r3
  10036c:	e3a00b01 	mov	r0, #1024	; 0x400
  100370:	eb004842 	bl	112480 <align_malloc>
  100374:	e50b001c 	str	r0, [fp, #-28]	; 0xffffffe4
  100378:	e3a02b01 	mov	r2, #1024	; 0x400
  10037c:	e3a01000 	mov	r1, #0
  100380:	e51b001c 	ldr	r0, [fp, #-28]	; 0xffffffe4
  100384:	eb005324 	bl	11501c <memset>
  100388:	e51b301c 	ldr	r3, [fp, #-28]	; 0xffffffe4
  10038c:	e50b3040 	str	r3, [fp, #-64]	; 0xffffffc0
  100390:	e51b3040 	ldr	r3, [fp, #-64]	; 0xffffffc0
  100394:	e1a01003 	mov	r1, r3
  100398:	e30005d0 	movw	r0, #1488	; 0x5d0
  10039c:	e3400012 	movt	r0, #18
  1003a0:	eb005377 	bl	115184 <printf>
  1003a4:	e51b3020 	ldr	r3, [fp, #-32]	; 0xffffffe0
  1003a8:	e593c000 	ldr	ip, [r3]
  1003ac:	e3a03020 	mov	r3, #32
  1003b0:	e58d3008 	str	r3, [sp, #8]
  1003b4:	e1a0200d 	mov	r2, sp
  1003b8:	e24b3044 	sub	r3, fp, #68	; 0x44
  1003bc:	e8930003 	ldm	r3, {r0, r1}
  1003c0:	e8820003 	stm	r2, {r0, r1}
  1003c4:	e24b3050 	sub	r3, fp, #80	; 0x50
  1003c8:	e893000e 	ldm	r3, {r1, r2, r3}
  1003cc:	e1a0000c 	mov	r0, ip
  1003d0:	eb0010d7 	bl	104734 <spi_engine_offload_transfer>
  1003d4:	e50b0018 	str	r0, [fp, #-24]	; 0xffffffe8
  1003d8:	e51b3018 	ldr	r3, [fp, #-24]	; 0xffffffe8
  1003dc:	e3530000 	cmp	r3, #0
  1003e0:	0a000001 	beq	1003ec <main+0x1c8>
  1003e4:	e51b3018 	ldr	r3, [fp, #-24]	; 0xffffffe8
  1003e8:	ea00001c 	b	100460 <main+0x23c>
  1003ec:	e51b301c 	ldr	r3, [fp, #-28]	; 0xffffffe4
  1003f0:	e50b3014 	str	r3, [fp, #-20]	; 0xffffffec
  1003f4:	e51b3040 	ldr	r3, [fp, #-64]	; 0xffffffc0
  1003f8:	e3a01b01 	mov	r1, #1024	; 0x400
  1003fc:	e1a00003 	mov	r0, r3
  100400:	eb004865 	bl	11259c <alt_cache_system_invalidate>
  100404:	e3a03000 	mov	r3, #0
  100408:	e50b3010 	str	r3, [fp, #-16]
  10040c:	ea00000c 	b	100444 <main+0x220>
  100410:	e51b1014 	ldr	r1, [fp, #-20]	; 0xffffffec
  100414:	e51b3014 	ldr	r3, [fp, #-20]	; 0xffffffec
  100418:	e5933000 	ldr	r3, [r3]
  10041c:	e1a02003 	mov	r2, r3
  100420:	e3000618 	movw	r0, #1560	; 0x618
  100424:	e3400012 	movt	r0, #18
  100428:	eb005355 	bl	115184 <printf>
  10042c:	e51b3014 	ldr	r3, [fp, #-20]	; 0xffffffec
  100430:	e2833004 	add	r3, r3, #4
  100434:	e50b3014 	str	r3, [fp, #-20]	; 0xffffffec
  100438:	e51b3010 	ldr	r3, [fp, #-16]
  10043c:	e2833001 	add	r3, r3, #1
  100440:	e50b3010 	str	r3, [fp, #-16]
  100444:	e51b3010 	ldr	r3, [fp, #-16]
  100448:	e353001f 	cmp	r3, #31
  10044c:	9affffef 	bls	100410 <main+0x1ec>
  100450:	e3000644 	movw	r0, #1604	; 0x644
  100454:	e3400012 	movt	r0, #18
  100458:	eb005397 	bl	1152bc <puts>
  10045c:	e3a03000 	mov	r3, #0
  100460:	e1a00003 	mov	r0, r3
  100464:	e24bd00c 	sub	sp, fp, #12
  100468:	e8bd8830 	pop	{r4, r5, fp, pc}

0010046c <cache_fun>:
  10046c:	e92d4800 	push	{fp, lr}
  100470:	e28db004 	add	fp, sp, #4
  100474:	e3a00009 	mov	r0, #9
  100478:	eb000001 	bl	100484 <cache_configuration>
  10047c:	e320f000 	nop	{0}
  100480:	e8bd8800 	pop	{fp, pc}

00100484 <cache_configuration>:
  100484:	e92d4800 	push	{fp, lr}
  100488:	e28db004 	add	fp, sp, #4
  10048c:	e24dd008 	sub	sp, sp, #8
  100490:	e50b0008 	str	r0, [fp, #-8]
  100494:	e51b3008 	ldr	r3, [fp, #-8]
  100498:	e3530000 	cmp	r3, #0
  10049c:	ca000003 	bgt	1004b0 <cache_configuration+0x2c>
  1004a0:	e3000654 	movw	r0, #1620	; 0x654
  1004a4:	e3400012 	movt	r0, #18
  1004a8:	eb005335 	bl	115184 <printf>
  1004ac:	ea0000a2 	b	10073c <cache_configuration+0x2b8>
  1004b0:	e51b3008 	ldr	r3, [fp, #-8]
  1004b4:	e3530001 	cmp	r3, #1
  1004b8:	ca000004 	bgt	1004d0 <cache_configuration+0x4c>
  1004bc:	e3000670 	movw	r0, #1648	; 0x670
  1004c0:	e3400012 	movt	r0, #18
  1004c4:	eb00532e 	bl	115184 <printf>
  1004c8:	eb0012f0 	bl	105090 <enable_MMU>
  1004cc:	ea00009a 	b	10073c <cache_configuration+0x2b8>
  1004d0:	e51b3008 	ldr	r3, [fp, #-8]
  1004d4:	e3530002 	cmp	r3, #2
  1004d8:	ca000005 	bgt	1004f4 <cache_configuration+0x70>
  1004dc:	e3000690 	movw	r0, #1680	; 0x690
  1004e0:	e3400012 	movt	r0, #18
  1004e4:	eb005326 	bl	115184 <printf>
  1004e8:	eb0012e8 	bl	105090 <enable_MMU>
  1004ec:	eb001333 	bl	1051c0 <initialize_L2C>
  1004f0:	ea000091 	b	10073c <cache_configuration+0x2b8>
  1004f4:	e51b3008 	ldr	r3, [fp, #-8]
  1004f8:	e3530003 	cmp	r3, #3
  1004fc:	ca000006 	bgt	10051c <cache_configuration+0x98>
  100500:	e30006bc 	movw	r0, #1724	; 0x6bc
  100504:	e3400012 	movt	r0, #18
  100508:	eb00531d 	bl	115184 <printf>
  10050c:	eb0012df 	bl	105090 <enable_MMU>
  100510:	eb00132a 	bl	1051c0 <initialize_L2C>
  100514:	eb00138d 	bl	105350 <enable_SCU>
  100518:	ea000087 	b	10073c <cache_configuration+0x2b8>
  10051c:	e51b3008 	ldr	r3, [fp, #-8]
  100520:	e3530004 	cmp	r3, #4
  100524:	ca000007 	bgt	100548 <cache_configuration+0xc4>
  100528:	e30006f0 	movw	r0, #1776	; 0x6f0
  10052c:	e3400012 	movt	r0, #18
  100530:	eb005313 	bl	115184 <printf>
  100534:	eb0012d5 	bl	105090 <enable_MMU>
  100538:	eb001320 	bl	1051c0 <initialize_L2C>
  10053c:	eb001383 	bl	105350 <enable_SCU>
  100540:	eb001344 	bl	105258 <enable_L1_I>
  100544:	ea00007c 	b	10073c <cache_configuration+0x2b8>
  100548:	e51b3008 	ldr	r3, [fp, #-8]
  10054c:	e3530005 	cmp	r3, #5
  100550:	ca000008 	bgt	100578 <cache_configuration+0xf4>
  100554:	e3000708 	movw	r0, #1800	; 0x708
  100558:	e3400012 	movt	r0, #18
  10055c:	eb005308 	bl	115184 <printf>
  100560:	eb0012ca 	bl	105090 <enable_MMU>
  100564:	eb001315 	bl	1051c0 <initialize_L2C>
  100568:	eb001378 	bl	105350 <enable_SCU>
  10056c:	eb001339 	bl	105258 <enable_L1_I>
  100570:	eb00133c 	bl	105268 <enable_branch_prediction>
  100574:	ea000070 	b	10073c <cache_configuration+0x2b8>
  100578:	e51b3008 	ldr	r3, [fp, #-8]
  10057c:	e3530006 	cmp	r3, #6
  100580:	ca000009 	bgt	1005ac <cache_configuration+0x128>
  100584:	e3000738 	movw	r0, #1848	; 0x738
  100588:	e3400012 	movt	r0, #18
  10058c:	eb0052fc 	bl	115184 <printf>
  100590:	eb0012be 	bl	105090 <enable_MMU>
  100594:	eb001309 	bl	1051c0 <initialize_L2C>
  100598:	eb00136c 	bl	105350 <enable_SCU>
  10059c:	eb001329 	bl	105248 <enable_L1_D>
  1005a0:	eb00132c 	bl	105258 <enable_L1_I>
  1005a4:	eb00132f 	bl	105268 <enable_branch_prediction>
  1005a8:	ea000063 	b	10073c <cache_configuration+0x2b8>
  1005ac:	e51b3008 	ldr	r3, [fp, #-8]
  1005b0:	e3530007 	cmp	r3, #7
  1005b4:	ca00000a 	bgt	1005e4 <cache_configuration+0x160>
  1005b8:	e300076c 	movw	r0, #1900	; 0x76c
  1005bc:	e3400012 	movt	r0, #18
  1005c0:	eb0052ef 	bl	115184 <printf>
  1005c4:	eb0012b1 	bl	105090 <enable_MMU>
  1005c8:	eb0012fc 	bl	1051c0 <initialize_L2C>
  1005cc:	eb00134b 	bl	105300 <enable_L1_D_side_prefetch>
  1005d0:	eb00135e 	bl	105350 <enable_SCU>
  1005d4:	eb00131b 	bl	105248 <enable_L1_D>
  1005d8:	eb00131e 	bl	105258 <enable_L1_I>
  1005dc:	eb001321 	bl	105268 <enable_branch_prediction>
  1005e0:	ea000055 	b	10073c <cache_configuration+0x2b8>
  1005e4:	e51b3008 	ldr	r3, [fp, #-8]
  1005e8:	e3530008 	cmp	r3, #8
  1005ec:	ca000008 	bgt	100614 <cache_configuration+0x190>
  1005f0:	e30007b8 	movw	r0, #1976	; 0x7b8
  1005f4:	e3400012 	movt	r0, #18
  1005f8:	eb0052e1 	bl	115184 <printf>
  1005fc:	eb0012a3 	bl	105090 <enable_MMU>
  100600:	eb0012ee 	bl	1051c0 <initialize_L2C>
  100604:	eb00133d 	bl	105300 <enable_L1_D_side_prefetch>
  100608:	eb001350 	bl	105350 <enable_SCU>
  10060c:	eb001304 	bl	105224 <enable_caches>
  100610:	ea000049 	b	10073c <cache_configuration+0x2b8>
  100614:	e51b3008 	ldr	r3, [fp, #-8]
  100618:	e3530009 	cmp	r3, #9
  10061c:	ca000009 	bgt	100648 <cache_configuration+0x1c4>
  100620:	e3000804 	movw	r0, #2052	; 0x804
  100624:	e3400012 	movt	r0, #18
  100628:	eb0052d5 	bl	115184 <printf>
  10062c:	eb001297 	bl	105090 <enable_MMU>
  100630:	eb0012e2 	bl	1051c0 <initialize_L2C>
  100634:	eb001331 	bl	105300 <enable_L1_D_side_prefetch>
  100638:	eb001334 	bl	105310 <enable_L2_prefetch_hint>
  10063c:	eb001343 	bl	105350 <enable_SCU>
  100640:	eb0012f7 	bl	105224 <enable_caches>
  100644:	ea00003c 	b	10073c <cache_configuration+0x2b8>
  100648:	e51b3008 	ldr	r3, [fp, #-8]
  10064c:	e353000a 	cmp	r3, #10
  100650:	ca00000a 	bgt	100680 <cache_configuration+0x1fc>
  100654:	e3000838 	movw	r0, #2104	; 0x838
  100658:	e3400012 	movt	r0, #18
  10065c:	eb0052c8 	bl	115184 <printf>
  100660:	eb00128a 	bl	105090 <enable_MMU>
  100664:	eb0012d5 	bl	1051c0 <initialize_L2C>
  100668:	eb001324 	bl	105300 <enable_L1_D_side_prefetch>
  10066c:	eb001327 	bl	105310 <enable_L2_prefetch_hint>
  100670:	eb001336 	bl	105350 <enable_SCU>
  100674:	eb001315 	bl	1052d0 <enable_write_full_line_zeros>
  100678:	eb0012e9 	bl	105224 <enable_caches>
  10067c:	ea00002e 	b	10073c <cache_configuration+0x2b8>
  100680:	e51b3008 	ldr	r3, [fp, #-8]
  100684:	e353000b 	cmp	r3, #11
  100688:	ca00000b 	bgt	1006bc <cache_configuration+0x238>
  10068c:	e3000874 	movw	r0, #2164	; 0x874
  100690:	e3400012 	movt	r0, #18
  100694:	eb0052ba 	bl	115184 <printf>
  100698:	eb00127c 	bl	105090 <enable_MMU>
  10069c:	eb0012c7 	bl	1051c0 <initialize_L2C>
  1006a0:	eb001316 	bl	105300 <enable_L1_D_side_prefetch>
  1006a4:	eb001319 	bl	105310 <enable_L2_prefetch_hint>
  1006a8:	eb001328 	bl	105350 <enable_SCU>
  1006ac:	eb00132c 	bl	105364 <enable_L2_speculative_linefill>
  1006b0:	eb001306 	bl	1052d0 <enable_write_full_line_zeros>
  1006b4:	eb0012da 	bl	105224 <enable_caches>
  1006b8:	ea00001f 	b	10073c <cache_configuration+0x2b8>
  1006bc:	e51b3008 	ldr	r3, [fp, #-8]
  1006c0:	e353000c 	cmp	r3, #12
  1006c4:	ca00000c 	bgt	1006fc <cache_configuration+0x278>
  1006c8:	e30008c0 	movw	r0, #2240	; 0x8c0
  1006cc:	e3400012 	movt	r0, #18
  1006d0:	eb0052ab 	bl	115184 <printf>
  1006d4:	eb00126d 	bl	105090 <enable_MMU>
  1006d8:	eb0012b8 	bl	1051c0 <initialize_L2C>
  1006dc:	eb001307 	bl	105300 <enable_L1_D_side_prefetch>
  1006e0:	eb00130a 	bl	105310 <enable_L2_prefetch_hint>
  1006e4:	eb001319 	bl	105350 <enable_SCU>
  1006e8:	eb00131d 	bl	105364 <enable_L2_speculative_linefill>
  1006ec:	eb0012f7 	bl	1052d0 <enable_write_full_line_zeros>
  1006f0:	eb0012ed 	bl	1052ac <enable_early_BRESP>
  1006f4:	eb0012ca 	bl	105224 <enable_caches>
  1006f8:	ea00000f 	b	10073c <cache_configuration+0x2b8>
  1006fc:	e51b3008 	ldr	r3, [fp, #-8]
  100700:	e353000d 	cmp	r3, #13
  100704:	ca00000c 	bgt	10073c <cache_configuration+0x2b8>
  100708:	e3000900 	movw	r0, #2304	; 0x900
  10070c:	e3400012 	movt	r0, #18
  100710:	eb00529b 	bl	115184 <printf>
  100714:	eb00125d 	bl	105090 <enable_MMU>
  100718:	eb0012a8 	bl	1051c0 <initialize_L2C>
  10071c:	eb0012f7 	bl	105300 <enable_L1_D_side_prefetch>
  100720:	eb0012fa 	bl	105310 <enable_L2_prefetch_hint>
  100724:	eb001309 	bl	105350 <enable_SCU>
  100728:	eb00130d 	bl	105364 <enable_L2_speculative_linefill>
  10072c:	eb0012e7 	bl	1052d0 <enable_write_full_line_zeros>
  100730:	eb0012dd 	bl	1052ac <enable_early_BRESP>
  100734:	eb0012d3 	bl	105288 <enable_store_buffer_device_limitation>
  100738:	eb0012b9 	bl	105224 <enable_caches>
  10073c:	e320f000 	nop	{0}
  100740:	e24bd004 	sub	sp, fp, #4
  100744:	e8bd8800 	pop	{fp, pc}

00100748 <ad77681_compute_crc8>:
  100748:	e52db004 	push	{fp}		; (str fp, [sp, #-4]!)
  10074c:	e28db000 	add	fp, sp, #0
  100750:	e24dd014 	sub	sp, sp, #20
  100754:	e50b0010 	str	r0, [fp, #-16]
  100758:	e1a03001 	mov	r3, r1
  10075c:	e54b3011 	strb	r3, [fp, #-17]	; 0xffffffef
  100760:	e1a03002 	mov	r3, r2
  100764:	e54b3012 	strb	r3, [fp, #-18]	; 0xffffffee
  100768:	e55b3012 	ldrb	r3, [fp, #-18]	; 0xffffffee
  10076c:	e54b3006 	strb	r3, [fp, #-6]
  100770:	ea000029 	b	10081c <ad77681_compute_crc8+0xd4>
  100774:	e3e0307f 	mvn	r3, #127	; 0x7f
  100778:	e54b3005 	strb	r3, [fp, #-5]
  10077c:	ea00001d 	b	1007f8 <ad77681_compute_crc8+0xb0>
  100780:	e15b30d6 	ldrsb	r3, [fp, #-6]
  100784:	e6ef3073 	uxtb	r3, r3
  100788:	e1a033a3 	lsr	r3, r3, #7
  10078c:	e6ef2073 	uxtb	r2, r3
  100790:	e51b3010 	ldr	r3, [fp, #-16]
  100794:	e5d31000 	ldrb	r1, [r3]
  100798:	e55b3005 	ldrb	r3, [fp, #-5]
  10079c:	e0033001 	and	r3, r3, r1
  1007a0:	e6ef3073 	uxtb	r3, r3
  1007a4:	e3530000 	cmp	r3, #0
  1007a8:	13a03001 	movne	r3, #1
  1007ac:	03a03000 	moveq	r3, #0
  1007b0:	e6ef3073 	uxtb	r3, r3
  1007b4:	e0233002 	eor	r3, r3, r2
  1007b8:	e6ef3073 	uxtb	r3, r3
  1007bc:	e3530000 	cmp	r3, #0
  1007c0:	0a000006 	beq	1007e0 <ad77681_compute_crc8+0x98>
  1007c4:	e55b3006 	ldrb	r3, [fp, #-6]
  1007c8:	e1a03083 	lsl	r3, r3, #1
  1007cc:	e54b3006 	strb	r3, [fp, #-6]
  1007d0:	e55b3006 	ldrb	r3, [fp, #-6]
  1007d4:	e2233007 	eor	r3, r3, #7
  1007d8:	e54b3006 	strb	r3, [fp, #-6]
  1007dc:	ea000002 	b	1007ec <ad77681_compute_crc8+0xa4>
  1007e0:	e55b3006 	ldrb	r3, [fp, #-6]
  1007e4:	e1a03083 	lsl	r3, r3, #1
  1007e8:	e54b3006 	strb	r3, [fp, #-6]
  1007ec:	e55b3005 	ldrb	r3, [fp, #-5]
  1007f0:	e1a030a3 	lsr	r3, r3, #1
  1007f4:	e54b3005 	strb	r3, [fp, #-5]
  1007f8:	e55b3005 	ldrb	r3, [fp, #-5]
  1007fc:	e3530000 	cmp	r3, #0
  100800:	1affffde 	bne	100780 <ad77681_compute_crc8+0x38>
  100804:	e51b3010 	ldr	r3, [fp, #-16]
  100808:	e2833001 	add	r3, r3, #1
  10080c:	e50b3010 	str	r3, [fp, #-16]
  100810:	e55b3011 	ldrb	r3, [fp, #-17]	; 0xffffffef
  100814:	e2433001 	sub	r3, r3, #1
  100818:	e54b3011 	strb	r3, [fp, #-17]	; 0xffffffef
  10081c:	e55b3011 	ldrb	r3, [fp, #-17]	; 0xffffffef
  100820:	e3530000 	cmp	r3, #0
  100824:	1affffd2 	bne	100774 <ad77681_compute_crc8+0x2c>
  100828:	e55b3006 	ldrb	r3, [fp, #-6]
  10082c:	e1a00003 	mov	r0, r3
  100830:	e24bd000 	sub	sp, fp, #0
  100834:	e49db004 	pop	{fp}		; (ldr fp, [sp], #4)
  100838:	e12fff1e 	bx	lr

0010083c <ad77681_compute_xor>:
  10083c:	e92d4800 	push	{fp, lr}
  100840:	e28db004 	add	fp, sp, #4
  100844:	e24dd010 	sub	sp, sp, #16
  100848:	e50b0010 	str	r0, [fp, #-16]
  10084c:	e1a03001 	mov	r3, r1
  100850:	e54b3011 	strb	r3, [fp, #-17]	; 0xffffffef
  100854:	e1a03002 	mov	r3, r2
  100858:	e54b3012 	strb	r3, [fp, #-18]	; 0xffffffee
  10085c:	e300095c 	movw	r0, #2396	; 0x95c
  100860:	e3400012 	movt	r0, #18
  100864:	eb005294 	bl	1152bc <puts>
  100868:	e55b3012 	ldrb	r3, [fp, #-18]	; 0xffffffee
  10086c:	e54b3005 	strb	r3, [fp, #-5]
  100870:	e3a03000 	mov	r3, #0
  100874:	e54b3006 	strb	r3, [fp, #-6]
  100878:	ea000012 	b	1008c8 <ad77681_compute_xor+0x8c>
  10087c:	e55b3006 	ldrb	r3, [fp, #-6]
  100880:	e51b2010 	ldr	r2, [fp, #-16]
  100884:	e5d22000 	ldrb	r2, [r2]
  100888:	e24b1004 	sub	r1, fp, #4
  10088c:	e0813003 	add	r3, r1, r3
  100890:	e5432008 	strb	r2, [r3, #-8]
  100894:	e55b3006 	ldrb	r3, [fp, #-6]
  100898:	e24b2004 	sub	r2, fp, #4
  10089c:	e0823003 	add	r3, r2, r3
  1008a0:	e5532008 	ldrb	r2, [r3, #-8]
  1008a4:	e55b3005 	ldrb	r3, [fp, #-5]
  1008a8:	e0233002 	eor	r3, r3, r2
  1008ac:	e54b3005 	strb	r3, [fp, #-5]
  1008b0:	e51b3010 	ldr	r3, [fp, #-16]
  1008b4:	e2833001 	add	r3, r3, #1
  1008b8:	e50b3010 	str	r3, [fp, #-16]
  1008bc:	e55b3006 	ldrb	r3, [fp, #-6]
  1008c0:	e2833001 	add	r3, r3, #1
  1008c4:	e54b3006 	strb	r3, [fp, #-6]
  1008c8:	e55b2006 	ldrb	r2, [fp, #-6]
  1008cc:	e55b3011 	ldrb	r3, [fp, #-17]	; 0xffffffef
  1008d0:	e1520003 	cmp	r2, r3
  1008d4:	3affffe8 	bcc	10087c <ad77681_compute_xor+0x40>
  1008d8:	e55b3005 	ldrb	r3, [fp, #-5]
  1008dc:	e1a00003 	mov	r0, r3
  1008e0:	e24bd004 	sub	sp, fp, #4
  1008e4:	e8bd8800 	pop	{fp, pc}

001008e8 <ad77681_spi_reg_read>:
  1008e8:	e92d4800 	push	{fp, lr}
  1008ec:	e28db004 	add	fp, sp, #4
  1008f0:	e24dd020 	sub	sp, sp, #32
  1008f4:	e50b0018 	str	r0, [fp, #-24]	; 0xffffffe8
  1008f8:	e1a03001 	mov	r3, r1
  1008fc:	e50b2020 	str	r2, [fp, #-32]	; 0xffffffe0
  100900:	e54b3019 	strb	r3, [fp, #-25]	; 0xffffffe7
  100904:	e51b3018 	ldr	r3, [fp, #-24]	; 0xffffffe8
  100908:	e5d3300a 	ldrb	r3, [r3, #10]
  10090c:	e3530002 	cmp	r3, #2
  100910:	1a000001 	bne	10091c <ad77681_spi_reg_read+0x34>
  100914:	e3a03002 	mov	r3, #2
  100918:	ea000000 	b	100920 <ad77681_spi_reg_read+0x38>
  10091c:	e3a03003 	mov	r3, #3
  100920:	e54b300a 	strb	r3, [fp, #-10]
  100924:	e55b3019 	ldrb	r3, [fp, #-25]	; 0xffffffe7
  100928:	e3833040 	orr	r3, r3, #64	; 0x40
  10092c:	e6ef3073 	uxtb	r3, r3
  100930:	e54b3010 	strb	r3, [fp, #-16]
  100934:	e3a03000 	mov	r3, #0
  100938:	e54b300f 	strb	r3, [fp, #-15]
  10093c:	e51b3018 	ldr	r3, [fp, #-24]	; 0xffffffe8
  100940:	e5933000 	ldr	r3, [r3]
  100944:	e55b200a 	ldrb	r2, [fp, #-10]
  100948:	e6ff2072 	uxth	r2, r2
  10094c:	e24b1010 	sub	r1, fp, #16
  100950:	e1a00003 	mov	r0, r3
  100954:	eb000b0c 	bl	10358c <spi_write_and_read>
  100958:	e50b0008 	str	r0, [fp, #-8]
  10095c:	e51b3008 	ldr	r3, [fp, #-8]
  100960:	e3530000 	cmp	r3, #0
  100964:	aa000004 	bge	10097c <ad77681_spi_reg_read+0x94>
  100968:	e3000978 	movw	r0, #2424	; 0x978
  10096c:	e3400012 	movt	r0, #18
  100970:	eb005251 	bl	1152bc <puts>
  100974:	e51b3008 	ldr	r3, [fp, #-8]
  100978:	ea000033 	b	100a4c <ad77681_spi_reg_read+0x164>
  10097c:	e51b3018 	ldr	r3, [fp, #-24]	; 0xffffffe8
  100980:	e5d3300a 	ldrb	r3, [r3, #10]
  100984:	e3530002 	cmp	r3, #2
  100988:	0a000022 	beq	100a18 <ad77681_spi_reg_read+0x130>
  10098c:	e55b3019 	ldrb	r3, [fp, #-25]	; 0xffffffe7
  100990:	e3833040 	orr	r3, r3, #64	; 0x40
  100994:	e6ef3073 	uxtb	r3, r3
  100998:	e54b3014 	strb	r3, [fp, #-20]	; 0xffffffec
  10099c:	e55b300f 	ldrb	r3, [fp, #-15]
  1009a0:	e54b3013 	strb	r3, [fp, #-19]	; 0xffffffed
  1009a4:	e51b3018 	ldr	r3, [fp, #-24]	; 0xffffffe8
  1009a8:	e5d3300a 	ldrb	r3, [r3, #10]
  1009ac:	e3530001 	cmp	r3, #1
  1009b0:	1a000007 	bne	1009d4 <ad77681_spi_reg_read+0xec>
  1009b4:	e24b3014 	sub	r3, fp, #20
  1009b8:	e3a02000 	mov	r2, #0
  1009bc:	e3a01002 	mov	r1, #2
  1009c0:	e1a00003 	mov	r0, r3
  1009c4:	ebffff9c 	bl	10083c <ad77681_compute_xor>
  1009c8:	e1a03000 	mov	r3, r0
  1009cc:	e54b3009 	strb	r3, [fp, #-9]
  1009d0:	ea00000a 	b	100a00 <ad77681_spi_reg_read+0x118>
  1009d4:	e51b3018 	ldr	r3, [fp, #-24]	; 0xffffffe8
  1009d8:	e5d3300a 	ldrb	r3, [r3, #10]
  1009dc:	e3530000 	cmp	r3, #0
  1009e0:	1a000006 	bne	100a00 <ad77681_spi_reg_read+0x118>
  1009e4:	e24b3014 	sub	r3, fp, #20
  1009e8:	e3a02000 	mov	r2, #0
  1009ec:	e3a01002 	mov	r1, #2
  1009f0:	e1a00003 	mov	r0, r3
  1009f4:	ebffff53 	bl	100748 <ad77681_compute_crc8>
  1009f8:	e1a03000 	mov	r3, r0
  1009fc:	e54b3009 	strb	r3, [fp, #-9]
  100a00:	e55b300e 	ldrb	r3, [fp, #-14]
  100a04:	e55b2009 	ldrb	r2, [fp, #-9]
  100a08:	e1520003 	cmp	r2, r3
  100a0c:	0a000001 	beq	100a18 <ad77681_spi_reg_read+0x130>
  100a10:	e3e03000 	mvn	r3, #0
  100a14:	e50b3008 	str	r3, [fp, #-8]
  100a18:	e55b3019 	ldrb	r3, [fp, #-25]	; 0xffffffe7
  100a1c:	e3833040 	orr	r3, r3, #64	; 0x40
  100a20:	e6ef2073 	uxtb	r2, r3
  100a24:	e51b3020 	ldr	r3, [fp, #-32]	; 0xffffffe0
  100a28:	e5c32000 	strb	r2, [r3]
  100a2c:	e51b3020 	ldr	r3, [fp, #-32]	; 0xffffffe0
  100a30:	e2832001 	add	r2, r3, #1
  100a34:	e24b3010 	sub	r3, fp, #16
  100a38:	e2833001 	add	r3, r3, #1
  100a3c:	e1d330b0 	ldrh	r3, [r3]
  100a40:	e6ff3073 	uxth	r3, r3
  100a44:	e1c230b0 	strh	r3, [r2]
  100a48:	e51b3008 	ldr	r3, [fp, #-8]
  100a4c:	e1a00003 	mov	r0, r3
  100a50:	e24bd004 	sub	sp, fp, #4
  100a54:	e8bd8800 	pop	{fp, pc}

00100a58 <ad77681_spi_reg_write>:
  100a58:	e92d4800 	push	{fp, lr}
  100a5c:	e28db004 	add	fp, sp, #4
  100a60:	e24dd010 	sub	sp, sp, #16
  100a64:	e50b0010 	str	r0, [fp, #-16]
  100a68:	e1a03001 	mov	r3, r1
  100a6c:	e54b3011 	strb	r3, [fp, #-17]	; 0xffffffef
  100a70:	e1a03002 	mov	r3, r2
  100a74:	e54b3012 	strb	r3, [fp, #-18]	; 0xffffffee
  100a78:	e51b3010 	ldr	r3, [fp, #-16]
  100a7c:	e5d3300a 	ldrb	r3, [r3, #10]
  100a80:	e3530002 	cmp	r3, #2
  100a84:	1a000001 	bne	100a90 <ad77681_spi_reg_write+0x38>
  100a88:	e3a03002 	mov	r3, #2
  100a8c:	ea000000 	b	100a94 <ad77681_spi_reg_write+0x3c>
  100a90:	e3a03003 	mov	r3, #3
  100a94:	e54b3005 	strb	r3, [fp, #-5]
  100a98:	e55b3011 	ldrb	r3, [fp, #-17]	; 0xffffffef
  100a9c:	e3c33040 	bic	r3, r3, #64	; 0x40
  100aa0:	e6ef3073 	uxtb	r3, r3
  100aa4:	e54b3008 	strb	r3, [fp, #-8]
  100aa8:	e55b3012 	ldrb	r3, [fp, #-18]	; 0xffffffee
  100aac:	e54b3007 	strb	r3, [fp, #-7]
  100ab0:	e51b3010 	ldr	r3, [fp, #-16]
  100ab4:	e5d3300a 	ldrb	r3, [r3, #10]
  100ab8:	e3530002 	cmp	r3, #2
  100abc:	0a000006 	beq	100adc <ad77681_spi_reg_write+0x84>
  100ac0:	e24b3008 	sub	r3, fp, #8
  100ac4:	e3a02000 	mov	r2, #0
  100ac8:	e3a01002 	mov	r1, #2
  100acc:	e1a00003 	mov	r0, r3
  100ad0:	ebffff1c 	bl	100748 <ad77681_compute_crc8>
  100ad4:	e1a03000 	mov	r3, r0
  100ad8:	e54b3006 	strb	r3, [fp, #-6]
  100adc:	e51b3010 	ldr	r3, [fp, #-16]
  100ae0:	e5933000 	ldr	r3, [r3]
  100ae4:	e55b2005 	ldrb	r2, [fp, #-5]
  100ae8:	e6ff2072 	uxth	r2, r2
  100aec:	e24b1008 	sub	r1, fp, #8
  100af0:	e1a00003 	mov	r0, r3
  100af4:	eb000aa4 	bl	10358c <spi_write_and_read>
  100af8:	e1a03000 	mov	r3, r0
  100afc:	e1a00003 	mov	r0, r3
  100b00:	e24bd004 	sub	sp, fp, #4
  100b04:	e8bd8800 	pop	{fp, pc}

00100b08 <ad77681_spi_read_mask>:
  100b08:	e92d4800 	push	{fp, lr}
  100b0c:	e28db004 	add	fp, sp, #4
  100b10:	e24dd018 	sub	sp, sp, #24
  100b14:	e50b0010 	str	r0, [fp, #-16]
  100b18:	e50b3018 	str	r3, [fp, #-24]	; 0xffffffe8
  100b1c:	e1a03001 	mov	r3, r1
  100b20:	e54b3011 	strb	r3, [fp, #-17]	; 0xffffffef
  100b24:	e1a03002 	mov	r3, r2
  100b28:	e54b3012 	strb	r3, [fp, #-18]	; 0xffffffee
  100b2c:	e24b200c 	sub	r2, fp, #12
  100b30:	e55b3011 	ldrb	r3, [fp, #-17]	; 0xffffffef
  100b34:	e1a01003 	mov	r1, r3
  100b38:	e51b0010 	ldr	r0, [fp, #-16]
  100b3c:	ebffff69 	bl	1008e8 <ad77681_spi_reg_read>
  100b40:	e50b0008 	str	r0, [fp, #-8]
  100b44:	e55b200b 	ldrb	r2, [fp, #-11]
  100b48:	e55b3012 	ldrb	r3, [fp, #-18]	; 0xffffffee
  100b4c:	e0033002 	and	r3, r3, r2
  100b50:	e6ef2073 	uxtb	r2, r3
  100b54:	e51b3018 	ldr	r3, [fp, #-24]	; 0xffffffe8
  100b58:	e5c32000 	strb	r2, [r3]
  100b5c:	e51b3008 	ldr	r3, [fp, #-8]
  100b60:	e1a00003 	mov	r0, r3
  100b64:	e24bd004 	sub	sp, fp, #4
  100b68:	e8bd8800 	pop	{fp, pc}

00100b6c <ad77681_spi_write_mask>:
  100b6c:	e92d4800 	push	{fp, lr}
  100b70:	e28db004 	add	fp, sp, #4
  100b74:	e24dd010 	sub	sp, sp, #16
  100b78:	e50b0010 	str	r0, [fp, #-16]
  100b7c:	e1a00001 	mov	r0, r1
  100b80:	e1a01002 	mov	r1, r2
  100b84:	e1a02003 	mov	r2, r3
  100b88:	e1a03000 	mov	r3, r0
  100b8c:	e54b3011 	strb	r3, [fp, #-17]	; 0xffffffef
  100b90:	e1a03001 	mov	r3, r1
  100b94:	e54b3012 	strb	r3, [fp, #-18]	; 0xffffffee
  100b98:	e1a03002 	mov	r3, r2
  100b9c:	e54b3013 	strb	r3, [fp, #-19]	; 0xffffffed
  100ba0:	e24b200c 	sub	r2, fp, #12
  100ba4:	e55b3011 	ldrb	r3, [fp, #-17]	; 0xffffffef
  100ba8:	e1a01003 	mov	r1, r3
  100bac:	e51b0010 	ldr	r0, [fp, #-16]
  100bb0:	ebffff4c 	bl	1008e8 <ad77681_spi_reg_read>
  100bb4:	e50b0008 	str	r0, [fp, #-8]
  100bb8:	e55b300b 	ldrb	r3, [fp, #-11]
  100bbc:	e6af2073 	sxtb	r2, r3
  100bc0:	e15b31d2 	ldrsb	r3, [fp, #-18]	; 0xffffffee
  100bc4:	e1e03003 	mvn	r3, r3
  100bc8:	e6af3073 	sxtb	r3, r3
  100bcc:	e0033002 	and	r3, r3, r2
  100bd0:	e6af3073 	sxtb	r3, r3
  100bd4:	e6ef3073 	uxtb	r3, r3
  100bd8:	e54b300b 	strb	r3, [fp, #-11]
  100bdc:	e55b200b 	ldrb	r2, [fp, #-11]
  100be0:	e55b3013 	ldrb	r3, [fp, #-19]	; 0xffffffed
  100be4:	e1823003 	orr	r3, r2, r3
  100be8:	e6ef3073 	uxtb	r3, r3
  100bec:	e54b300b 	strb	r3, [fp, #-11]
  100bf0:	e55b200b 	ldrb	r2, [fp, #-11]
  100bf4:	e55b3011 	ldrb	r3, [fp, #-17]	; 0xffffffef
  100bf8:	e1a01003 	mov	r1, r3
  100bfc:	e51b0010 	ldr	r0, [fp, #-16]
  100c00:	ebffff94 	bl	100a58 <ad77681_spi_reg_write>
  100c04:	e1a02000 	mov	r2, r0
  100c08:	e51b3008 	ldr	r3, [fp, #-8]
  100c0c:	e1833002 	orr	r3, r3, r2
  100c10:	e50b3008 	str	r3, [fp, #-8]
  100c14:	e51b3008 	ldr	r3, [fp, #-8]
  100c18:	e1a00003 	mov	r0, r3
  100c1c:	e24bd004 	sub	sp, fp, #4
  100c20:	e8bd8800 	pop	{fp, pc}

00100c24 <ad77681_get_rx_buf_len>:
  100c24:	e52db004 	push	{fp}		; (str fp, [sp, #-4]!)
  100c28:	e28db000 	add	fp, sp, #0
  100c2c:	e24dd014 	sub	sp, sp, #20
  100c30:	e50b0010 	str	r0, [fp, #-16]
  100c34:	e3a03000 	mov	r3, #0
  100c38:	e54b3005 	strb	r3, [fp, #-5]
  100c3c:	e3a03000 	mov	r3, #0
  100c40:	e54b3006 	strb	r3, [fp, #-6]
  100c44:	e3a03000 	mov	r3, #0
  100c48:	e54b3007 	strb	r3, [fp, #-7]
  100c4c:	e3a03000 	mov	r3, #0
  100c50:	e54b3008 	strb	r3, [fp, #-8]
  100c54:	e3a03003 	mov	r3, #3
  100c58:	e54b3006 	strb	r3, [fp, #-6]
  100c5c:	e51b3010 	ldr	r3, [fp, #-16]
  100c60:	e5d3300a 	ldrb	r3, [r3, #10]
  100c64:	e3530002 	cmp	r3, #2
  100c68:	13a03001 	movne	r3, #1
  100c6c:	03a03000 	moveq	r3, #0
  100c70:	e6ef3073 	uxtb	r3, r3
  100c74:	e54b3007 	strb	r3, [fp, #-7]
  100c78:	e51b3010 	ldr	r3, [fp, #-16]
  100c7c:	e5d3300b 	ldrb	r3, [r3, #11]
  100c80:	e54b3008 	strb	r3, [fp, #-8]
  100c84:	e55b2006 	ldrb	r2, [fp, #-6]
  100c88:	e55b3007 	ldrb	r3, [fp, #-7]
  100c8c:	e0823003 	add	r3, r2, r3
  100c90:	e6ef2073 	uxtb	r2, r3
  100c94:	e55b3008 	ldrb	r3, [fp, #-8]
  100c98:	e0823003 	add	r3, r2, r3
  100c9c:	e54b3005 	strb	r3, [fp, #-5]
  100ca0:	e55b3005 	ldrb	r3, [fp, #-5]
  100ca4:	e1a00003 	mov	r0, r3
  100ca8:	e24bd000 	sub	sp, fp, #0
  100cac:	e49db004 	pop	{fp}		; (ldr fp, [sp], #4)
  100cb0:	e12fff1e 	bx	lr

00100cb4 <ad77681_get_frame_16bit>:
  100cb4:	e52db004 	push	{fp}		; (str fp, [sp, #-4]!)
  100cb8:	e28db000 	add	fp, sp, #0
  100cbc:	e24dd014 	sub	sp, sp, #20
  100cc0:	e50b0010 	str	r0, [fp, #-16]
  100cc4:	e51b3010 	ldr	r3, [fp, #-16]
  100cc8:	e5d33009 	ldrb	r3, [r3, #9]
  100ccc:	e3530000 	cmp	r3, #0
  100cd0:	1a000002 	bne	100ce0 <ad77681_get_frame_16bit+0x2c>
  100cd4:	e3a03003 	mov	r3, #3
  100cd8:	e54b3005 	strb	r3, [fp, #-5]
  100cdc:	ea000001 	b	100ce8 <ad77681_get_frame_16bit+0x34>
  100ce0:	e3a03002 	mov	r3, #2
  100ce4:	e54b3005 	strb	r3, [fp, #-5]
  100ce8:	e51b3010 	ldr	r3, [fp, #-16]
  100cec:	e5d3300a 	ldrb	r3, [r3, #10]
  100cf0:	e3530002 	cmp	r3, #2
  100cf4:	0a000002 	beq	100d04 <ad77681_get_frame_16bit+0x50>
  100cf8:	e55b3005 	ldrb	r3, [fp, #-5]
  100cfc:	e2833001 	add	r3, r3, #1
  100d00:	e54b3005 	strb	r3, [fp, #-5]
  100d04:	e51b3010 	ldr	r3, [fp, #-16]
  100d08:	e5d3300b 	ldrb	r3, [r3, #11]
  100d0c:	e3530000 	cmp	r3, #0
  100d10:	0a000002 	beq	100d20 <ad77681_get_frame_16bit+0x6c>
  100d14:	e55b3005 	ldrb	r3, [fp, #-5]
  100d18:	e2833001 	add	r3, r3, #1
  100d1c:	e54b3005 	strb	r3, [fp, #-5]
  100d20:	e55b3005 	ldrb	r3, [fp, #-5]
  100d24:	e2033001 	and	r3, r3, #1
  100d28:	e6ef3073 	uxtb	r3, r3
  100d2c:	e3530000 	cmp	r3, #0
  100d30:	0a000005 	beq	100d4c <ad77681_get_frame_16bit+0x98>
  100d34:	e55b3005 	ldrb	r3, [fp, #-5]
  100d38:	e1a030a3 	lsr	r3, r3, #1
  100d3c:	e6ef3073 	uxtb	r3, r3
  100d40:	e2833001 	add	r3, r3, #1
  100d44:	e54b3006 	strb	r3, [fp, #-6]
  100d48:	ea000002 	b	100d58 <ad77681_get_frame_16bit+0xa4>
  100d4c:	e55b3005 	ldrb	r3, [fp, #-5]
  100d50:	e1a030a3 	lsr	r3, r3, #1
  100d54:	e54b3006 	strb	r3, [fp, #-6]
  100d58:	e51b3010 	ldr	r3, [fp, #-16]
  100d5c:	e55b2006 	ldrb	r2, [fp, #-6]
  100d60:	e5c32020 	strb	r2, [r3, #32]
  100d64:	e55b3006 	ldrb	r3, [fp, #-6]
  100d68:	e1a00003 	mov	r0, r3
  100d6c:	e24bd000 	sub	sp, fp, #0
  100d70:	e49db004 	pop	{fp}		; (ldr fp, [sp], #4)
  100d74:	e12fff1e 	bx	lr

00100d78 <ad77681_spi_read_adc_data>:
  100d78:	e92d4800 	push	{fp, lr}
  100d7c:	e28db004 	add	fp, sp, #4
  100d80:	e24dd020 	sub	sp, sp, #32
  100d84:	e50b0020 	str	r0, [fp, #-32]	; 0xffffffe0
  100d88:	e50b1024 	str	r1, [fp, #-36]	; 0xffffffdc
  100d8c:	e3000998 	movw	r0, #2456	; 0x998
  100d90:	e3400012 	movt	r0, #18
  100d94:	eb005148 	bl	1152bc <puts>
  100d98:	e3a03000 	mov	r3, #0
  100d9c:	e54b3005 	strb	r3, [fp, #-5]
  100da0:	e51b3020 	ldr	r3, [fp, #-32]	; 0xffffffe0
  100da4:	e5d33009 	ldrb	r3, [r3, #9]
  100da8:	e3530000 	cmp	r3, #0
  100dac:	1a000003 	bne	100dc0 <ad77681_spi_read_adc_data+0x48>
  100db0:	e55b3005 	ldrb	r3, [fp, #-5]
  100db4:	e2833003 	add	r3, r3, #3
  100db8:	e54b3005 	strb	r3, [fp, #-5]
  100dbc:	ea000002 	b	100dcc <ad77681_spi_read_adc_data+0x54>
  100dc0:	e55b3005 	ldrb	r3, [fp, #-5]
  100dc4:	e2833002 	add	r3, r3, #2
  100dc8:	e54b3005 	strb	r3, [fp, #-5]
  100dcc:	e51b3020 	ldr	r3, [fp, #-32]	; 0xffffffe0
  100dd0:	e5d3300a 	ldrb	r3, [r3, #10]
  100dd4:	e3530002 	cmp	r3, #2
  100dd8:	0a000002 	beq	100de8 <ad77681_spi_read_adc_data+0x70>
  100ddc:	e55b3005 	ldrb	r3, [fp, #-5]
  100de0:	e2833001 	add	r3, r3, #1
  100de4:	e54b3005 	strb	r3, [fp, #-5]
  100de8:	e51b3020 	ldr	r3, [fp, #-32]	; 0xffffffe0
  100dec:	e5d3300b 	ldrb	r3, [r3, #11]
  100df0:	e3530000 	cmp	r3, #0
  100df4:	0a000002 	beq	100e04 <ad77681_spi_read_adc_data+0x8c>
  100df8:	e55b3005 	ldrb	r3, [fp, #-5]
  100dfc:	e2833001 	add	r3, r3, #1
  100e00:	e54b3005 	strb	r3, [fp, #-5]
  100e04:	e3a0306c 	mov	r3, #108	; 0x6c
  100e08:	e54b301c 	strb	r3, [fp, #-28]	; 0xffffffe4
  100e0c:	e3a03000 	mov	r3, #0
  100e10:	e54b301b 	strb	r3, [fp, #-27]	; 0xffffffe5
  100e14:	e3a03000 	mov	r3, #0
  100e18:	e54b301a 	strb	r3, [fp, #-26]	; 0xffffffe6
  100e1c:	e3a03000 	mov	r3, #0
  100e20:	e54b3019 	strb	r3, [fp, #-25]	; 0xffffffe7
  100e24:	e3a03000 	mov	r3, #0
  100e28:	e54b3018 	strb	r3, [fp, #-24]	; 0xffffffe8
  100e2c:	e3a03000 	mov	r3, #0
  100e30:	e54b3017 	strb	r3, [fp, #-23]	; 0xffffffe9
  100e34:	e51b3020 	ldr	r3, [fp, #-32]	; 0xffffffe0
  100e38:	e5930000 	ldr	r0, [r3]
  100e3c:	e55b3005 	ldrb	r3, [fp, #-5]
  100e40:	e6ff3073 	uxth	r3, r3
  100e44:	e2833001 	add	r3, r3, #1
  100e48:	e6ff2073 	uxth	r2, r3
  100e4c:	e24b301c 	sub	r3, fp, #28
  100e50:	e1a01003 	mov	r1, r3
  100e54:	eb0009cc 	bl	10358c <spi_write_and_read>
  100e58:	e50b000c 	str	r0, [fp, #-12]
  100e5c:	e51b300c 	ldr	r3, [fp, #-12]
  100e60:	e3530000 	cmp	r3, #0
  100e64:	aa000001 	bge	100e70 <ad77681_spi_read_adc_data+0xf8>
  100e68:	e51b300c 	ldr	r3, [fp, #-12]
  100e6c:	ea000018 	b	100ed4 <ad77681_spi_read_adc_data+0x15c>
  100e70:	e51b3020 	ldr	r3, [fp, #-32]	; 0xffffffe0
  100e74:	e5d3300a 	ldrb	r3, [r3, #10]
  100e78:	e3530000 	cmp	r3, #0
  100e7c:	1a00000c 	bne	100eb4 <ad77681_spi_read_adc_data+0x13c>
  100e80:	e24b3014 	sub	r3, fp, #20
  100e84:	e24b201c 	sub	r2, fp, #28
  100e88:	e8920003 	ldm	r2, {r0, r1}
  100e8c:	e5830000 	str	r0, [r3]
  100e90:	e2833004 	add	r3, r3, #4
  100e94:	e1c310b0 	strh	r1, [r3]
  100e98:	e24b3014 	sub	r3, fp, #20
  100e9c:	e3a02000 	mov	r2, #0
  100ea0:	e3a01004 	mov	r1, #4
  100ea4:	e1a00003 	mov	r0, r3
  100ea8:	ebfffe26 	bl	100748 <ad77681_compute_crc8>
  100eac:	e1a03000 	mov	r3, r0
  100eb0:	e54b300d 	strb	r3, [fp, #-13]
  100eb4:	e51b3024 	ldr	r3, [fp, #-36]	; 0xffffffdc
  100eb8:	e1a02003 	mov	r2, r3
  100ebc:	e24b301c 	sub	r3, fp, #28
  100ec0:	e5930000 	ldr	r0, [r3]
  100ec4:	e5820000 	str	r0, [r2]
  100ec8:	e1d330b4 	ldrh	r3, [r3, #4]
  100ecc:	e1c230b4 	strh	r3, [r2, #4]
  100ed0:	e51b300c 	ldr	r3, [fp, #-12]
  100ed4:	e1a00003 	mov	r0, r3
  100ed8:	e24bd004 	sub	sp, fp, #4
  100edc:	e8bd8800 	pop	{fp, pc}

00100ee0 <ad77681_CRC_status_handling>:
  100ee0:	e92d4800 	push	{fp, lr}
  100ee4:	e28db004 	add	fp, sp, #4
  100ee8:	e24dd060 	sub	sp, sp, #96	; 0x60
  100eec:	e50b0058 	str	r0, [fp, #-88]	; 0xffffffa8
  100ef0:	e50b105c 	str	r1, [fp, #-92]	; 0xffffffa4
  100ef4:	e3a03000 	mov	r3, #0
  100ef8:	e50b3008 	str	r3, [fp, #-8]
  100efc:	e3a03000 	mov	r3, #0
  100f00:	e54b3009 	strb	r3, [fp, #-9]
  100f04:	e3a03000 	mov	r3, #0
  100f08:	e54b300a 	strb	r3, [fp, #-10]
  100f0c:	e3a03000 	mov	r3, #0
  100f10:	e54b300b 	strb	r3, [fp, #-11]
  100f14:	e3a03000 	mov	r3, #0
  100f18:	e54b300c 	strb	r3, [fp, #-12]
  100f1c:	e51b3058 	ldr	r3, [fp, #-88]	; 0xffffffa8
  100f20:	e5d3300b 	ldrb	r3, [r3, #11]
  100f24:	e3530000 	cmp	r3, #0
  100f28:	0a00000e 	beq	100f68 <ad77681_CRC_status_handling+0x88>
  100f2c:	e51b3058 	ldr	r3, [fp, #-88]	; 0xffffffa8
  100f30:	e5d33009 	ldrb	r3, [r3, #9]
  100f34:	e3530000 	cmp	r3, #0
  100f38:	1a000004 	bne	100f50 <ad77681_CRC_status_handling+0x70>
  100f3c:	e51b305c 	ldr	r3, [fp, #-92]	; 0xffffffa4
  100f40:	e2833002 	add	r3, r3, #2
  100f44:	e1d330b0 	ldrh	r3, [r3]
  100f48:	e54b3009 	strb	r3, [fp, #-9]
  100f4c:	ea000005 	b	100f68 <ad77681_CRC_status_handling+0x88>
  100f50:	e51b305c 	ldr	r3, [fp, #-92]	; 0xffffffa4
  100f54:	e2833002 	add	r3, r3, #2
  100f58:	e1d330b0 	ldrh	r3, [r3]
  100f5c:	e1a03423 	lsr	r3, r3, #8
  100f60:	e6ff3073 	uxth	r3, r3
  100f64:	e54b3009 	strb	r3, [fp, #-9]
  100f68:	e51b3058 	ldr	r3, [fp, #-88]	; 0xffffffa8
  100f6c:	e5d3300a 	ldrb	r3, [r3, #10]
  100f70:	e3530002 	cmp	r3, #2
  100f74:	0a0000cf 	beq	1012b8 <ad77681_CRC_status_handling+0x3d8>
  100f78:	e51b3058 	ldr	r3, [fp, #-88]	; 0xffffffa8
  100f7c:	e5d3300b 	ldrb	r3, [r3, #11]
  100f80:	e3530001 	cmp	r3, #1
  100f84:	03a03001 	moveq	r3, #1
  100f88:	13a03000 	movne	r3, #0
  100f8c:	e6ef2073 	uxtb	r2, r3
  100f90:	e51b3058 	ldr	r3, [fp, #-88]	; 0xffffffa8
  100f94:	e5d33009 	ldrb	r3, [r3, #9]
  100f98:	e3530000 	cmp	r3, #0
  100f9c:	03a03001 	moveq	r3, #1
  100fa0:	13a03000 	movne	r3, #0
  100fa4:	e6ef3073 	uxtb	r3, r3
  100fa8:	e0033002 	and	r3, r3, r2
  100fac:	e6ef3073 	uxtb	r3, r3
  100fb0:	e3530000 	cmp	r3, #0
  100fb4:	0a000008 	beq	100fdc <ad77681_CRC_status_handling+0xfc>
  100fb8:	e51b305c 	ldr	r3, [fp, #-92]	; 0xffffffa4
  100fbc:	e2833004 	add	r3, r3, #4
  100fc0:	e1d330b0 	ldrh	r3, [r3]
  100fc4:	e1a03423 	lsr	r3, r3, #8
  100fc8:	e6ff3073 	uxth	r3, r3
  100fcc:	e54b300b 	strb	r3, [fp, #-11]
  100fd0:	e3a03004 	mov	r3, #4
  100fd4:	e54b300c 	strb	r3, [fp, #-12]
  100fd8:	ea000045 	b	1010f4 <ad77681_CRC_status_handling+0x214>
  100fdc:	e51b3058 	ldr	r3, [fp, #-88]	; 0xffffffa8
  100fe0:	e5d3300b 	ldrb	r3, [r3, #11]
  100fe4:	e3530001 	cmp	r3, #1
  100fe8:	03a03001 	moveq	r3, #1
  100fec:	13a03000 	movne	r3, #0
  100ff0:	e6ef2073 	uxtb	r2, r3
  100ff4:	e51b3058 	ldr	r3, [fp, #-88]	; 0xffffffa8
  100ff8:	e5d33009 	ldrb	r3, [r3, #9]
  100ffc:	e3530001 	cmp	r3, #1
  101000:	03a03001 	moveq	r3, #1
  101004:	13a03000 	movne	r3, #0
  101008:	e6ef3073 	uxtb	r3, r3
  10100c:	e0033002 	and	r3, r3, r2
  101010:	e6ef3073 	uxtb	r3, r3
  101014:	e3530000 	cmp	r3, #0
  101018:	0a000006 	beq	101038 <ad77681_CRC_status_handling+0x158>
  10101c:	e51b305c 	ldr	r3, [fp, #-92]	; 0xffffffa4
  101020:	e2833002 	add	r3, r3, #2
  101024:	e1d330b0 	ldrh	r3, [r3]
  101028:	e54b300b 	strb	r3, [fp, #-11]
  10102c:	e3a03003 	mov	r3, #3
  101030:	e54b300c 	strb	r3, [fp, #-12]
  101034:	ea00002e 	b	1010f4 <ad77681_CRC_status_handling+0x214>
  101038:	e51b3058 	ldr	r3, [fp, #-88]	; 0xffffffa8
  10103c:	e5d3300b 	ldrb	r3, [r3, #11]
  101040:	e3530000 	cmp	r3, #0
  101044:	03a03001 	moveq	r3, #1
  101048:	13a03000 	movne	r3, #0
  10104c:	e6ef2073 	uxtb	r2, r3
  101050:	e51b3058 	ldr	r3, [fp, #-88]	; 0xffffffa8
  101054:	e5d33009 	ldrb	r3, [r3, #9]
  101058:	e3530000 	cmp	r3, #0
  10105c:	03a03001 	moveq	r3, #1
  101060:	13a03000 	movne	r3, #0
  101064:	e6ef3073 	uxtb	r3, r3
  101068:	e0033002 	and	r3, r3, r2
  10106c:	e6ef3073 	uxtb	r3, r3
  101070:	e3530000 	cmp	r3, #0
  101074:	0a000006 	beq	101094 <ad77681_CRC_status_handling+0x1b4>
  101078:	e51b305c 	ldr	r3, [fp, #-92]	; 0xffffffa4
  10107c:	e2833002 	add	r3, r3, #2
  101080:	e1d330b0 	ldrh	r3, [r3]
  101084:	e54b300b 	strb	r3, [fp, #-11]
  101088:	e3a03003 	mov	r3, #3
  10108c:	e54b300c 	strb	r3, [fp, #-12]
  101090:	ea000017 	b	1010f4 <ad77681_CRC_status_handling+0x214>
  101094:	e51b3058 	ldr	r3, [fp, #-88]	; 0xffffffa8
  101098:	e5d3300b 	ldrb	r3, [r3, #11]
  10109c:	e3530000 	cmp	r3, #0
  1010a0:	03a03001 	moveq	r3, #1
  1010a4:	13a03000 	movne	r3, #0
  1010a8:	e6ef2073 	uxtb	r2, r3
  1010ac:	e51b3058 	ldr	r3, [fp, #-88]	; 0xffffffa8
  1010b0:	e5d33009 	ldrb	r3, [r3, #9]
  1010b4:	e3530001 	cmp	r3, #1
  1010b8:	03a03001 	moveq	r3, #1
  1010bc:	13a03000 	movne	r3, #0
  1010c0:	e6ef3073 	uxtb	r3, r3
  1010c4:	e0033002 	and	r3, r3, r2
  1010c8:	e6ef3073 	uxtb	r3, r3
  1010cc:	e3530000 	cmp	r3, #0
  1010d0:	0a000007 	beq	1010f4 <ad77681_CRC_status_handling+0x214>
  1010d4:	e51b305c 	ldr	r3, [fp, #-92]	; 0xffffffa4
  1010d8:	e2833002 	add	r3, r3, #2
  1010dc:	e1d330b0 	ldrh	r3, [r3]
  1010e0:	e1a03423 	lsr	r3, r3, #8
  1010e4:	e6ff3073 	uxth	r3, r3
  1010e8:	e54b300b 	strb	r3, [fp, #-11]
  1010ec:	e3a03002 	mov	r3, #2
  1010f0:	e54b300c 	strb	r3, [fp, #-12]
  1010f4:	e3a03000 	mov	r3, #0
  1010f8:	e54b300d 	strb	r3, [fp, #-13]
  1010fc:	ea000022 	b	10118c <ad77681_CRC_status_handling+0x2ac>
  101100:	e55b300d 	ldrb	r3, [fp, #-13]
  101104:	e2033001 	and	r3, r3, #1
  101108:	e6ef3073 	uxtb	r3, r3
  10110c:	e3530000 	cmp	r3, #0
  101110:	0a00000c 	beq	101148 <ad77681_CRC_status_handling+0x268>
  101114:	e55b300d 	ldrb	r3, [fp, #-13]
  101118:	e55b200d 	ldrb	r2, [fp, #-13]
  10111c:	e1a020a2 	lsr	r2, r2, #1
  101120:	e6ef2072 	uxtb	r2, r2
  101124:	e1a02082 	lsl	r2, r2, #1
  101128:	e51b105c 	ldr	r1, [fp, #-92]	; 0xffffffa4
  10112c:	e0812002 	add	r2, r1, r2
  101130:	e1d220b0 	ldrh	r2, [r2]
  101134:	e6ef2072 	uxtb	r2, r2
  101138:	e24b1004 	sub	r1, fp, #4
  10113c:	e0813003 	add	r3, r1, r3
  101140:	e5432010 	strb	r2, [r3, #-16]
  101144:	ea00000d 	b	101180 <ad77681_CRC_status_handling+0x2a0>
  101148:	e55b300d 	ldrb	r3, [fp, #-13]
  10114c:	e55b200d 	ldrb	r2, [fp, #-13]
  101150:	e1a020a2 	lsr	r2, r2, #1
  101154:	e6ef2072 	uxtb	r2, r2
  101158:	e1a02082 	lsl	r2, r2, #1
  10115c:	e51b105c 	ldr	r1, [fp, #-92]	; 0xffffffa4
  101160:	e0812002 	add	r2, r1, r2
  101164:	e1d220b0 	ldrh	r2, [r2]
  101168:	e1a02422 	lsr	r2, r2, #8
  10116c:	e6ff2072 	uxth	r2, r2
  101170:	e6ef2072 	uxtb	r2, r2
  101174:	e24b1004 	sub	r1, fp, #4
  101178:	e0813003 	add	r3, r1, r3
  10117c:	e5432010 	strb	r2, [r3, #-16]
  101180:	e55b300d 	ldrb	r3, [fp, #-13]
  101184:	e2833001 	add	r3, r3, #1
  101188:	e54b300d 	strb	r3, [fp, #-13]
  10118c:	e55b200d 	ldrb	r2, [fp, #-13]
  101190:	e55b300c 	ldrb	r3, [fp, #-12]
  101194:	e1520003 	cmp	r2, r3
  101198:	3affffd8 	bcc	101100 <ad77681_CRC_status_handling+0x220>
  10119c:	e51b3058 	ldr	r3, [fp, #-88]	; 0xffffffa8
  1011a0:	e5d3300a 	ldrb	r3, [r3, #10]
  1011a4:	e3530000 	cmp	r3, #0
  1011a8:	1a000007 	bne	1011cc <ad77681_CRC_status_handling+0x2ec>
  1011ac:	e55b100c 	ldrb	r1, [fp, #-12]
  1011b0:	e24b3014 	sub	r3, fp, #20
  1011b4:	e3a02003 	mov	r2, #3
  1011b8:	e1a00003 	mov	r0, r3
  1011bc:	ebfffd61 	bl	100748 <ad77681_compute_crc8>
  1011c0:	e1a03000 	mov	r3, r0
  1011c4:	e54b300a 	strb	r3, [fp, #-10]
  1011c8:	ea00000a 	b	1011f8 <ad77681_CRC_status_handling+0x318>
  1011cc:	e51b3058 	ldr	r3, [fp, #-88]	; 0xffffffa8
  1011d0:	e5d3300a 	ldrb	r3, [r3, #10]
  1011d4:	e3530001 	cmp	r3, #1
  1011d8:	1a000006 	bne	1011f8 <ad77681_CRC_status_handling+0x318>
  1011dc:	e55b100c 	ldrb	r1, [fp, #-12]
  1011e0:	e24b3014 	sub	r3, fp, #20
  1011e4:	e3a0206c 	mov	r2, #108	; 0x6c
  1011e8:	e1a00003 	mov	r0, r3
  1011ec:	ebfffd92 	bl	10083c <ad77681_compute_xor>
  1011f0:	e1a03000 	mov	r3, r0
  1011f4:	e54b300a 	strb	r3, [fp, #-10]
  1011f8:	e55b200a 	ldrb	r2, [fp, #-10]
  1011fc:	e55b300b 	ldrb	r3, [fp, #-11]
  101200:	e1520003 	cmp	r2, r3
  101204:	0a000001 	beq	101210 <ad77681_CRC_status_handling+0x330>
  101208:	e3e03000 	mvn	r3, #0
  10120c:	e50b3008 	str	r3, [fp, #-8]
  101210:	e24b304c 	sub	r3, fp, #76	; 0x4c
  101214:	e3a02000 	mov	r2, #0
  101218:	e1c320b0 	strh	r2, [r3]
  10121c:	e5c32002 	strb	r2, [r3, #2]
  101220:	e3a0304f 	mov	r3, #79	; 0x4f
  101224:	e54b304c 	strb	r3, [fp, #-76]	; 0xffffffb4
  101228:	e3a0304b 	mov	r3, #75	; 0x4b
  10122c:	e54b304b 	strb	r3, [fp, #-75]	; 0xffffffb5
  101230:	e24b3054 	sub	r3, fp, #84	; 0x54
  101234:	e3a02000 	mov	r2, #0
  101238:	e5832000 	str	r2, [r3]
  10123c:	e1c320b4 	strh	r2, [r3, #4]
  101240:	e3a03046 	mov	r3, #70	; 0x46
  101244:	e54b3054 	strb	r3, [fp, #-84]	; 0xffffffac
  101248:	e3a03041 	mov	r3, #65	; 0x41
  10124c:	e54b3053 	strb	r3, [fp, #-83]	; 0xffffffad
  101250:	e3a03055 	mov	r3, #85	; 0x55
  101254:	e54b3052 	strb	r3, [fp, #-82]	; 0xffffffae
  101258:	e3a0304c 	mov	r3, #76	; 0x4c
  10125c:	e54b3051 	strb	r3, [fp, #-81]	; 0xffffffaf
  101260:	e3a03054 	mov	r3, #84	; 0x54
  101264:	e54b3050 	strb	r3, [fp, #-80]	; 0xffffffb0
  101268:	e55b100b 	ldrb	r1, [fp, #-11]
  10126c:	e55bc00a 	ldrb	ip, [fp, #-10]
  101270:	e55b2009 	ldrb	r2, [fp, #-9]
  101274:	e51b3008 	ldr	r3, [fp, #-8]
  101278:	e3730001 	cmn	r3, #1
  10127c:	1a000001 	bne	101288 <ad77681_CRC_status_handling+0x3a8>
  101280:	e24b3054 	sub	r3, fp, #84	; 0x54
  101284:	ea000000 	b	10128c <ad77681_CRC_status_handling+0x3ac>
  101288:	e24b304c 	sub	r3, fp, #76	; 0x4c
  10128c:	e24b0048 	sub	r0, fp, #72	; 0x48
  101290:	e58d3004 	str	r3, [sp, #4]
  101294:	e58d2000 	str	r2, [sp]
  101298:	e1a0300c 	mov	r3, ip
  10129c:	e1a02001 	mov	r2, r1
  1012a0:	e30019b4 	movw	r1, #2484	; 0x9b4
  1012a4:	e3401012 	movt	r1, #18
  1012a8:	eb005031 	bl	115374 <sprintf>
  1012ac:	e24b3048 	sub	r3, fp, #72	; 0x48
  1012b0:	e1a00003 	mov	r0, r3
  1012b4:	eb004fb2 	bl	115184 <printf>
  1012b8:	e51b3008 	ldr	r3, [fp, #-8]
  1012bc:	e1a00003 	mov	r0, r3
  1012c0:	e24bd004 	sub	sp, fp, #4
  1012c4:	e8bd8800 	pop	{fp, pc}

001012c8 <ad77681_data_to_voltage>:
  1012c8:	e52db004 	push	{fp}		; (str fp, [sp, #-4]!)
  1012cc:	e28db000 	add	fp, sp, #0
  1012d0:	e24dd01c 	sub	sp, sp, #28
  1012d4:	e50b0010 	str	r0, [fp, #-16]
  1012d8:	e50b1014 	str	r1, [fp, #-20]	; 0xffffffec
  1012dc:	e50b2018 	str	r2, [fp, #-24]	; 0xffffffe8
  1012e0:	e51b3014 	ldr	r3, [fp, #-20]	; 0xffffffec
  1012e4:	e5933000 	ldr	r3, [r3]
  1012e8:	e2033502 	and	r3, r3, #8388608	; 0x800000
  1012ec:	e3530000 	cmp	r3, #0
  1012f0:	0a000004 	beq	101308 <ad77681_data_to_voltage+0x40>
  1012f4:	e51b3014 	ldr	r3, [fp, #-20]	; 0xffffffec
  1012f8:	e5933000 	ldr	r3, [r3]
  1012fc:	e38334ff 	orr	r3, r3, #-16777216	; 0xff000000
  101300:	e50b3008 	str	r3, [fp, #-8]
  101304:	ea000002 	b	101314 <ad77681_data_to_voltage+0x4c>
  101308:	e51b3014 	ldr	r3, [fp, #-20]	; 0xffffffec
  10130c:	e5933000 	ldr	r3, [r3]
  101310:	e50b3008 	str	r3, [fp, #-8]
  101314:	e51b3010 	ldr	r3, [fp, #-16]
  101318:	e1d331b6 	ldrh	r3, [r3, #22]
  10131c:	ee073a90 	vmov	s15, r3
  101320:	eef81b67 	vcvt.f64.u32	d17, s15
  101324:	eddf2b0f 	vldr	d18, [pc, #60]	; 101368 <ad77681_data_to_voltage+0xa0>
  101328:	eec10ba2 	vdiv.f64	d16, d17, d18
  10132c:	ee700ba0 	vadd.f64	d16, d16, d16
  101330:	eddf2b0e 	vldr	d18, [pc, #56]	; 101370 <ad77681_data_to_voltage+0xa8>
  101334:	eec01ba2 	vdiv.f64	d17, d16, d18
  101338:	e51b3008 	ldr	r3, [fp, #-8]
  10133c:	ee073a90 	vmov	s15, r3
  101340:	eef80be7 	vcvt.f64.s32	d16, s15
  101344:	ee610ba0 	vmul.f64	d16, d17, d16
  101348:	e51b3018 	ldr	r3, [fp, #-24]	; 0xffffffe8
  10134c:	edc30b00 	vstr	d16, [r3]
  101350:	e3a03000 	mov	r3, #0
  101354:	e1a00003 	mov	r0, r3
  101358:	e24bd000 	sub	sp, fp, #0
  10135c:	e49db004 	pop	{fp}		; (ldr fp, [sp], #4)
  101360:	e12fff1e 	bx	lr
  101364:	e320f000 	nop	{0}
  101368:	00000000 	.word	0x00000000
  10136c:	408f4000 	.word	0x408f4000
  101370:	00000000 	.word	0x00000000
  101374:	41700000 	.word	0x41700000

00101378 <ad77681_update_sample_rate>:
  101378:	e92d4800 	push	{fp, lr}
  10137c:	e28db004 	add	fp, sp, #4
  101380:	e24dd010 	sub	sp, sp, #16
  101384:	e50b0010 	str	r0, [fp, #-16]
  101388:	e51b3010 	ldr	r3, [fp, #-16]
  10138c:	e5d33005 	ldrb	r3, [r3, #5]
  101390:	e3530003 	cmp	r3, #3
  101394:	979ff103 	ldrls	pc, [pc, r3, lsl #2]
  101398:	ea00000f 	b	1013dc <ad77681_update_sample_rate+0x64>
  10139c:	001013ac 	.word	0x001013ac
  1013a0:	001013b8 	.word	0x001013b8
  1013a4:	001013c4 	.word	0x001013c4
  1013a8:	001013d0 	.word	0x001013d0
  1013ac:	e3a03010 	mov	r3, #16
  1013b0:	e54b3005 	strb	r3, [fp, #-5]
  1013b4:	ea00000a 	b	1013e4 <ad77681_update_sample_rate+0x6c>
  1013b8:	e3a03008 	mov	r3, #8
  1013bc:	e54b3005 	strb	r3, [fp, #-5]
  1013c0:	ea000007 	b	1013e4 <ad77681_update_sample_rate+0x6c>
  1013c4:	e3a03004 	mov	r3, #4
  1013c8:	e54b3005 	strb	r3, [fp, #-5]
  1013cc:	ea000004 	b	1013e4 <ad77681_update_sample_rate+0x6c>
  1013d0:	e3a03002 	mov	r3, #2
  1013d4:	e54b3005 	strb	r3, [fp, #-5]
  1013d8:	ea000001 	b	1013e4 <ad77681_update_sample_rate+0x6c>
  1013dc:	e3e03000 	mvn	r3, #0
  1013e0:	ea000048 	b	101508 <ad77681_update_sample_rate+0x190>
  1013e4:	e51b3010 	ldr	r3, [fp, #-16]
  1013e8:	e5d33011 	ldrb	r3, [r3, #17]
  1013ec:	e2433001 	sub	r3, r3, #1
  1013f0:	e3530003 	cmp	r3, #3
  1013f4:	979ff103 	ldrls	pc, [pc, r3, lsl #2]
  1013f8:	ea000030 	b	1014c0 <ad77681_update_sample_rate+0x148>
  1013fc:	0010148c 	.word	0x0010148c
  101400:	00101498 	.word	0x00101498
  101404:	001014a4 	.word	0x001014a4
  101408:	0010140c 	.word	0x0010140c
  10140c:	e51b3010 	ldr	r3, [fp, #-16]
  101410:	e5d33012 	ldrb	r3, [r3, #18]
  101414:	e3530005 	cmp	r3, #5
  101418:	979ff103 	ldrls	pc, [pc, r3, lsl #2]
  10141c:	ea000017 	b	101480 <ad77681_update_sample_rate+0x108>
  101420:	00101438 	.word	0x00101438
  101424:	00101444 	.word	0x00101444
  101428:	00101450 	.word	0x00101450
  10142c:	0010145c 	.word	0x0010145c
  101430:	00101468 	.word	0x00101468
  101434:	00101474 	.word	0x00101474
  101438:	e3a03020 	mov	r3, #32
  10143c:	e14b30b8 	strh	r3, [fp, #-8]
  101440:	ea000010 	b	101488 <ad77681_update_sample_rate+0x110>
  101444:	e3a03040 	mov	r3, #64	; 0x40
  101448:	e14b30b8 	strh	r3, [fp, #-8]
  10144c:	ea00000d 	b	101488 <ad77681_update_sample_rate+0x110>
  101450:	e3a03080 	mov	r3, #128	; 0x80
  101454:	e14b30b8 	strh	r3, [fp, #-8]
  101458:	ea00000a 	b	101488 <ad77681_update_sample_rate+0x110>
  10145c:	e3a03c01 	mov	r3, #256	; 0x100
  101460:	e14b30b8 	strh	r3, [fp, #-8]
  101464:	ea000007 	b	101488 <ad77681_update_sample_rate+0x110>
  101468:	e3a03c02 	mov	r3, #512	; 0x200
  10146c:	e14b30b8 	strh	r3, [fp, #-8]
  101470:	ea000004 	b	101488 <ad77681_update_sample_rate+0x110>
  101474:	e3a03b01 	mov	r3, #1024	; 0x400
  101478:	e14b30b8 	strh	r3, [fp, #-8]
  10147c:	ea000001 	b	101488 <ad77681_update_sample_rate+0x110>
  101480:	e3e03000 	mvn	r3, #0
  101484:	ea00001f 	b	101508 <ad77681_update_sample_rate+0x190>
  101488:	ea00000e 	b	1014c8 <ad77681_update_sample_rate+0x150>
  10148c:	e3a03008 	mov	r3, #8
  101490:	e14b30b8 	strh	r3, [fp, #-8]
  101494:	ea00000b 	b	1014c8 <ad77681_update_sample_rate+0x150>
  101498:	e3a03010 	mov	r3, #16
  10149c:	e14b30b8 	strh	r3, [fp, #-8]
  1014a0:	ea000008 	b	1014c8 <ad77681_update_sample_rate+0x150>
  1014a4:	e51b3010 	ldr	r3, [fp, #-16]
  1014a8:	e1d331b4 	ldrh	r3, [r3, #20]
  1014ac:	e2833001 	add	r3, r3, #1
  1014b0:	e6ff3073 	uxth	r3, r3
  1014b4:	e1a03283 	lsl	r3, r3, #5
  1014b8:	e14b30b8 	strh	r3, [fp, #-8]
  1014bc:	ea000001 	b	1014c8 <ad77681_update_sample_rate+0x150>
  1014c0:	e3e03000 	mvn	r3, #0
  1014c4:	ea00000f 	b	101508 <ad77681_update_sample_rate+0x190>
  1014c8:	e51b3010 	ldr	r3, [fp, #-16]
  1014cc:	e1d331b8 	ldrh	r3, [r3, #24]
  1014d0:	e1a00003 	mov	r0, r3
  1014d4:	e15b30b8 	ldrh	r3, [fp, #-8]
  1014d8:	e55b2005 	ldrb	r2, [fp, #-5]
  1014dc:	e0030392 	mul	r3, r2, r3
  1014e0:	e1a01003 	mov	r1, r3
  1014e4:	eb004bce 	bl	114424 <__aeabi_idiv>
  1014e8:	e1a03000 	mov	r3, r0
  1014ec:	e1a02003 	mov	r2, r3
  1014f0:	e3a03ffa 	mov	r3, #1000	; 0x3e8
  1014f4:	e0030293 	mul	r3, r3, r2
  1014f8:	e1a02003 	mov	r2, r3
  1014fc:	e51b3010 	ldr	r3, [fp, #-16]
  101500:	e583201c 	str	r2, [r3, #28]
  101504:	e3a03000 	mov	r3, #0
  101508:	e1a00003 	mov	r0, r3
  10150c:	e24bd004 	sub	sp, fp, #4
  101510:	e8bd8800 	pop	{fp, pc}

00101514 <ad77681_SINC3_ODR>:
  101514:	e52db004 	push	{fp}		; (str fp, [sp, #-4]!)
  101518:	e28db000 	add	fp, sp, #0
  10151c:	e24dd01c 	sub	sp, sp, #28
  101520:	e50b0010 	str	r0, [fp, #-16]
  101524:	e50b1014 	str	r1, [fp, #-20]	; 0xffffffec
  101528:	e50b2018 	str	r2, [fp, #-24]	; 0xffffffe8
  10152c:	ed5b7a06 	vldr	s15, [fp, #-24]	; 0xffffffe8
  101530:	eef57ac0 	vcmpe.f32	s15, #0.0
  101534:	eef1fa10 	vmrs	APSR_nzcv, fpscr
  101538:	5a000001 	bpl	101544 <ad77681_SINC3_ODR+0x30>
  10153c:	e3e03000 	mvn	r3, #0
  101540:	ea000036 	b	101620 <ad77681_SINC3_ODR+0x10c>
  101544:	e51b3010 	ldr	r3, [fp, #-16]
  101548:	e5d33005 	ldrb	r3, [r3, #5]
  10154c:	e3530003 	cmp	r3, #3
  101550:	979ff103 	ldrls	pc, [pc, r3, lsl #2]
  101554:	ea00000f 	b	101598 <ad77681_SINC3_ODR+0x84>
  101558:	00101568 	.word	0x00101568
  10155c:	00101574 	.word	0x00101574
  101560:	00101580 	.word	0x00101580
  101564:	0010158c 	.word	0x0010158c
  101568:	e3a03010 	mov	r3, #16
  10156c:	e54b3005 	strb	r3, [fp, #-5]
  101570:	ea00000a 	b	1015a0 <ad77681_SINC3_ODR+0x8c>
  101574:	e3a03008 	mov	r3, #8
  101578:	e54b3005 	strb	r3, [fp, #-5]
  10157c:	ea000007 	b	1015a0 <ad77681_SINC3_ODR+0x8c>
  101580:	e3a03004 	mov	r3, #4
  101584:	e54b3005 	strb	r3, [fp, #-5]
  101588:	ea000004 	b	1015a0 <ad77681_SINC3_ODR+0x8c>
  10158c:	e3a03002 	mov	r3, #2
  101590:	e54b3005 	strb	r3, [fp, #-5]
  101594:	ea000001 	b	1015a0 <ad77681_SINC3_ODR+0x8c>
  101598:	e3e03000 	mvn	r3, #0
  10159c:	ea00001f 	b	101620 <ad77681_SINC3_ODR+0x10c>
  1015a0:	e51b3010 	ldr	r3, [fp, #-16]
  1015a4:	e1d331b8 	ldrh	r3, [r3, #24]
  1015a8:	ee073a90 	vmov	s15, r3
  1015ac:	eef80be7 	vcvt.f64.s32	d16, s15
  1015b0:	eddf1b1e 	vldr	d17, [pc, #120]	; 101630 <ad77681_SINC3_ODR+0x11c>
  1015b4:	ee600ba1 	vmul.f64	d16, d16, d17
  1015b8:	eef76be0 	vcvt.f32.f64	s13, d16
  1015bc:	e55b3005 	ldrb	r3, [fp, #-5]
  1015c0:	e1a03283 	lsl	r3, r3, #5
  1015c4:	ee073a90 	vmov	s15, r3
  1015c8:	eeb87ae7 	vcvt.f32.s32	s14, s15
  1015cc:	ed5b7a06 	vldr	s15, [fp, #-24]	; 0xffffffe8
  1015d0:	ee277a27 	vmul.f32	s14, s14, s15
  1015d4:	eec67a87 	vdiv.f32	s15, s13, s14
  1015d8:	eeb77a00 	vmov.f32	s14, #112	; 0x3f800000  1.0
  1015dc:	ee777ac7 	vsub.f32	s15, s15, s14
  1015e0:	ed4b7a03 	vstr	s15, [fp, #-12]
  1015e4:	ed5b7a03 	vldr	s15, [fp, #-12]
  1015e8:	ed9f7a12 	vldr	s14, [pc, #72]	; 101638 <ad77681_SINC3_ODR+0x124>
  1015ec:	eef47ac7 	vcmpe.f32	s15, s14
  1015f0:	eef1fa10 	vmrs	APSR_nzcv, fpscr
  1015f4:	5a000008 	bpl	10161c <ad77681_SINC3_ODR+0x108>
  1015f8:	ed5b7a03 	vldr	s15, [fp, #-12]
  1015fc:	eefc7ae7 	vcvt.u32.f32	s15, s15
  101600:	ed4b7a07 	vstr	s15, [fp, #-28]	; 0xffffffe4
  101604:	e15b31bc 	ldrh	r3, [fp, #-28]	; 0xffffffe4
  101608:	e6ff2073 	uxth	r2, r3
  10160c:	e51b3014 	ldr	r3, [fp, #-20]	; 0xffffffec
  101610:	e1c320b0 	strh	r2, [r3]
  101614:	e3a03000 	mov	r3, #0
  101618:	ea000000 	b	101620 <ad77681_SINC3_ODR+0x10c>
  10161c:	e3e03000 	mvn	r3, #0
  101620:	e1a00003 	mov	r0, r3
  101624:	e24bd000 	sub	sp, fp, #0
  101628:	e49db004 	pop	{fp}		; (ldr fp, [sp], #4)
  10162c:	e12fff1e 	bx	lr
  101630:	00000000 	.word	0x00000000
  101634:	408f4000 	.word	0x408f4000
  101638:	46000400 	.word	0x46000400

0010163c <ad77681_set_power_mode>:
  10163c:	e92d4800 	push	{fp, lr}
  101640:	e28db004 	add	fp, sp, #4
  101644:	e24dd010 	sub	sp, sp, #16
  101648:	e50b0010 	str	r0, [fp, #-16]
  10164c:	e1a03001 	mov	r3, r1
  101650:	e54b3011 	strb	r3, [fp, #-17]	; 0xffffffef
  101654:	e55b3011 	ldrb	r3, [fp, #-17]	; 0xffffffef
  101658:	e2033003 	and	r3, r3, #3
  10165c:	e6ef3073 	uxtb	r3, r3
  101660:	e3a02003 	mov	r2, #3
  101664:	e3a01015 	mov	r1, #21
  101668:	e51b0010 	ldr	r0, [fp, #-16]
  10166c:	ebfffd3e 	bl	100b6c <ad77681_spi_write_mask>
  101670:	e50b0008 	str	r0, [fp, #-8]
  101674:	e51b3008 	ldr	r3, [fp, #-8]
  101678:	e3530000 	cmp	r3, #0
  10167c:	1a000002 	bne	10168c <ad77681_set_power_mode+0x50>
  101680:	e51b3010 	ldr	r3, [fp, #-16]
  101684:	e55b2011 	ldrb	r2, [fp, #-17]	; 0xffffffef
  101688:	e5c32004 	strb	r2, [r3, #4]
  10168c:	e51b3008 	ldr	r3, [fp, #-8]
  101690:	e1a00003 	mov	r0, r3
  101694:	e24bd004 	sub	sp, fp, #4
  101698:	e8bd8800 	pop	{fp, pc}

0010169c <ad77681_set_mclk_div>:
  10169c:	e92d4800 	push	{fp, lr}
  1016a0:	e28db004 	add	fp, sp, #4
  1016a4:	e24dd010 	sub	sp, sp, #16
  1016a8:	e50b0010 	str	r0, [fp, #-16]
  1016ac:	e1a03001 	mov	r3, r1
  1016b0:	e54b3011 	strb	r3, [fp, #-17]	; 0xffffffef
  1016b4:	e55b3011 	ldrb	r3, [fp, #-17]	; 0xffffffef
  1016b8:	e1a03203 	lsl	r3, r3, #4
  1016bc:	e6ef3073 	uxtb	r3, r3
  1016c0:	e2033030 	and	r3, r3, #48	; 0x30
  1016c4:	e6ef3073 	uxtb	r3, r3
  1016c8:	e3a02030 	mov	r2, #48	; 0x30
  1016cc:	e3a01015 	mov	r1, #21
  1016d0:	e51b0010 	ldr	r0, [fp, #-16]
  1016d4:	ebfffd24 	bl	100b6c <ad77681_spi_write_mask>
  1016d8:	e50b0008 	str	r0, [fp, #-8]
  1016dc:	e51b3008 	ldr	r3, [fp, #-8]
  1016e0:	e3530000 	cmp	r3, #0
  1016e4:	1a000002 	bne	1016f4 <ad77681_set_mclk_div+0x58>
  1016e8:	e51b3010 	ldr	r3, [fp, #-16]
  1016ec:	e55b2011 	ldrb	r2, [fp, #-17]	; 0xffffffef
  1016f0:	e5c32005 	strb	r2, [r3, #5]
  1016f4:	e51b3008 	ldr	r3, [fp, #-8]
  1016f8:	e1a00003 	mov	r0, r3
  1016fc:	e24bd004 	sub	sp, fp, #4
  101700:	e8bd8800 	pop	{fp, pc}

00101704 <ad77681_set_VCM_output>:
  101704:	e92d4800 	push	{fp, lr}
  101708:	e28db004 	add	fp, sp, #4
  10170c:	e24dd010 	sub	sp, sp, #16
  101710:	e50b0010 	str	r0, [fp, #-16]
  101714:	e1a03001 	mov	r3, r1
  101718:	e54b3011 	strb	r3, [fp, #-17]	; 0xffffffef
  10171c:	e55b3011 	ldrb	r3, [fp, #-17]	; 0xffffffef
  101720:	e2033007 	and	r3, r3, #7
  101724:	e6ef3073 	uxtb	r3, r3
  101728:	e3a02007 	mov	r2, #7
  10172c:	e3a01017 	mov	r1, #23
  101730:	e51b0010 	ldr	r0, [fp, #-16]
  101734:	ebfffd0c 	bl	100b6c <ad77681_spi_write_mask>
  101738:	e50b0008 	str	r0, [fp, #-8]
  10173c:	e51b3008 	ldr	r3, [fp, #-8]
  101740:	e3530000 	cmp	r3, #0
  101744:	1a000002 	bne	101754 <ad77681_set_VCM_output+0x50>
  101748:	e51b3010 	ldr	r3, [fp, #-16]
  10174c:	e55b2011 	ldrb	r2, [fp, #-17]	; 0xffffffef
  101750:	e5c3200c 	strb	r2, [r3, #12]
  101754:	e51b3008 	ldr	r3, [fp, #-8]
  101758:	e1a00003 	mov	r0, r3
  10175c:	e24bd004 	sub	sp, fp, #4
  101760:	e8bd8800 	pop	{fp, pc}

00101764 <ad77681_set_AINn_buffer>:
  101764:	e92d4800 	push	{fp, lr}
  101768:	e28db004 	add	fp, sp, #4
  10176c:	e24dd010 	sub	sp, sp, #16
  101770:	e50b0010 	str	r0, [fp, #-16]
  101774:	e1a03001 	mov	r3, r1
  101778:	e54b3011 	strb	r3, [fp, #-17]	; 0xffffffef
  10177c:	e55b3011 	ldrb	r3, [fp, #-17]	; 0xffffffef
  101780:	e2033001 	and	r3, r3, #1
  101784:	e6ef3073 	uxtb	r3, r3
  101788:	e3a02001 	mov	r2, #1
  10178c:	e3a01016 	mov	r1, #22
  101790:	e51b0010 	ldr	r0, [fp, #-16]
  101794:	ebfffcf4 	bl	100b6c <ad77681_spi_write_mask>
  101798:	e50b0008 	str	r0, [fp, #-8]
  10179c:	e51b3008 	ldr	r3, [fp, #-8]
  1017a0:	e3530000 	cmp	r3, #0
  1017a4:	1a000002 	bne	1017b4 <ad77681_set_AINn_buffer+0x50>
  1017a8:	e51b3010 	ldr	r3, [fp, #-16]
  1017ac:	e55b2011 	ldrb	r2, [fp, #-17]	; 0xffffffef
  1017b0:	e5c3200d 	strb	r2, [r3, #13]
  1017b4:	e51b3008 	ldr	r3, [fp, #-8]
  1017b8:	e1a00003 	mov	r0, r3
  1017bc:	e24bd004 	sub	sp, fp, #4
  1017c0:	e8bd8800 	pop	{fp, pc}

001017c4 <ad77681_set_AINp_buffer>:
  1017c4:	e92d4800 	push	{fp, lr}
  1017c8:	e28db004 	add	fp, sp, #4
  1017cc:	e24dd010 	sub	sp, sp, #16
  1017d0:	e50b0010 	str	r0, [fp, #-16]
  1017d4:	e1a03001 	mov	r3, r1
  1017d8:	e54b3011 	strb	r3, [fp, #-17]	; 0xffffffef
  1017dc:	e55b3011 	ldrb	r3, [fp, #-17]	; 0xffffffef
  1017e0:	e1a03083 	lsl	r3, r3, #1
  1017e4:	e6ef3073 	uxtb	r3, r3
  1017e8:	e2033002 	and	r3, r3, #2
  1017ec:	e6ef3073 	uxtb	r3, r3
  1017f0:	e3a02002 	mov	r2, #2
  1017f4:	e3a01016 	mov	r1, #22
  1017f8:	e51b0010 	ldr	r0, [fp, #-16]
  1017fc:	ebfffcda 	bl	100b6c <ad77681_spi_write_mask>
  101800:	e50b0008 	str	r0, [fp, #-8]
  101804:	e51b3008 	ldr	r3, [fp, #-8]
  101808:	e3530000 	cmp	r3, #0
  10180c:	1a000002 	bne	10181c <ad77681_set_AINp_buffer+0x58>
  101810:	e51b3010 	ldr	r3, [fp, #-16]
  101814:	e55b2011 	ldrb	r2, [fp, #-17]	; 0xffffffef
  101818:	e5c3200e 	strb	r2, [r3, #14]
  10181c:	e51b3008 	ldr	r3, [fp, #-8]
  101820:	e1a00003 	mov	r0, r3
  101824:	e24bd004 	sub	sp, fp, #4
  101828:	e8bd8800 	pop	{fp, pc}

0010182c <ad77681_set_REFn_buffer>:
  10182c:	e92d4800 	push	{fp, lr}
  101830:	e28db004 	add	fp, sp, #4
  101834:	e24dd010 	sub	sp, sp, #16
  101838:	e50b0010 	str	r0, [fp, #-16]
  10183c:	e1a03001 	mov	r3, r1
  101840:	e54b3011 	strb	r3, [fp, #-17]	; 0xffffffef
  101844:	e55b3011 	ldrb	r3, [fp, #-17]	; 0xffffffef
  101848:	e1a03203 	lsl	r3, r3, #4
  10184c:	e6ef3073 	uxtb	r3, r3
  101850:	e2033030 	and	r3, r3, #48	; 0x30
  101854:	e6ef3073 	uxtb	r3, r3
  101858:	e3a02030 	mov	r2, #48	; 0x30
  10185c:	e3a01016 	mov	r1, #22
  101860:	e51b0010 	ldr	r0, [fp, #-16]
  101864:	ebfffcc0 	bl	100b6c <ad77681_spi_write_mask>
  101868:	e50b0008 	str	r0, [fp, #-8]
  10186c:	e51b3008 	ldr	r3, [fp, #-8]
  101870:	e3530000 	cmp	r3, #0
  101874:	1a000002 	bne	101884 <ad77681_set_REFn_buffer+0x58>
  101878:	e51b3010 	ldr	r3, [fp, #-16]
  10187c:	e55b2011 	ldrb	r2, [fp, #-17]	; 0xffffffef
  101880:	e5c3200f 	strb	r2, [r3, #15]
  101884:	e51b3008 	ldr	r3, [fp, #-8]
  101888:	e1a00003 	mov	r0, r3
  10188c:	e24bd004 	sub	sp, fp, #4
  101890:	e8bd8800 	pop	{fp, pc}

00101894 <ad77681_set_REFp_buffer>:
  101894:	e92d4800 	push	{fp, lr}
  101898:	e28db004 	add	fp, sp, #4
  10189c:	e24dd010 	sub	sp, sp, #16
  1018a0:	e50b0010 	str	r0, [fp, #-16]
  1018a4:	e1a03001 	mov	r3, r1
  1018a8:	e54b3011 	strb	r3, [fp, #-17]	; 0xffffffef
  1018ac:	e55b3011 	ldrb	r3, [fp, #-17]	; 0xffffffef
  1018b0:	e1a03303 	lsl	r3, r3, #6
  1018b4:	e6ef3073 	uxtb	r3, r3
  1018b8:	e3a020c0 	mov	r2, #192	; 0xc0
  1018bc:	e3a01016 	mov	r1, #22
  1018c0:	e51b0010 	ldr	r0, [fp, #-16]
  1018c4:	ebfffca8 	bl	100b6c <ad77681_spi_write_mask>
  1018c8:	e50b0008 	str	r0, [fp, #-8]
  1018cc:	e51b3008 	ldr	r3, [fp, #-8]
  1018d0:	e3530000 	cmp	r3, #0
  1018d4:	1a000004 	bne	1018ec <ad77681_set_REFp_buffer+0x58>
  1018d8:	e51b3010 	ldr	r3, [fp, #-16]
  1018dc:	e55b2011 	ldrb	r2, [fp, #-17]	; 0xffffffef
  1018e0:	e5c32010 	strb	r2, [r3, #16]
  1018e4:	e51b3008 	ldr	r3, [fp, #-8]
  1018e8:	ea000000 	b	1018f0 <ad77681_set_REFp_buffer+0x5c>
  1018ec:	e3e03000 	mvn	r3, #0
  1018f0:	e1a00003 	mov	r0, r3
  1018f4:	e24bd004 	sub	sp, fp, #4
  1018f8:	e8bd8800 	pop	{fp, pc}

001018fc <ad77681_set_filter_type>:
  1018fc:	e92d4800 	push	{fp, lr}
  101900:	e28db004 	add	fp, sp, #4
  101904:	e24dd010 	sub	sp, sp, #16
  101908:	e50b0010 	str	r0, [fp, #-16]
  10190c:	e1a00001 	mov	r0, r1
  101910:	e1a01002 	mov	r1, r2
  101914:	e1a02000 	mov	r2, r0
  101918:	e54b2011 	strb	r2, [fp, #-17]	; 0xffffffef
  10191c:	e1a02001 	mov	r2, r1
  101920:	e54b2012 	strb	r2, [fp, #-18]	; 0xffffffee
  101924:	e14b31b4 	strh	r3, [fp, #-20]	; 0xffffffec
  101928:	e3a02000 	mov	r2, #0
  10192c:	e3a01019 	mov	r1, #25
  101930:	e51b0010 	ldr	r0, [fp, #-16]
  101934:	ebfffc47 	bl	100a58 <ad77681_spi_reg_write>
  101938:	e50b0008 	str	r0, [fp, #-8]
  10193c:	e55b3012 	ldrb	r3, [fp, #-18]	; 0xffffffee
  101940:	e3530001 	cmp	r3, #1
  101944:	0a000002 	beq	101954 <ad77681_set_filter_type+0x58>
  101948:	e55b3012 	ldrb	r3, [fp, #-18]	; 0xffffffee
  10194c:	e3530002 	cmp	r3, #2
  101950:	1a00000d 	bne	10198c <ad77681_set_filter_type+0x90>
  101954:	e55b3012 	ldrb	r3, [fp, #-18]	; 0xffffffee
  101958:	e1a03203 	lsl	r3, r3, #4
  10195c:	e6ef3073 	uxtb	r3, r3
  101960:	e2033070 	and	r3, r3, #112	; 0x70
  101964:	e6ef3073 	uxtb	r3, r3
  101968:	e3a02070 	mov	r2, #112	; 0x70
  10196c:	e3a01019 	mov	r1, #25
  101970:	e51b0010 	ldr	r0, [fp, #-16]
  101974:	ebfffc7c 	bl	100b6c <ad77681_spi_write_mask>
  101978:	e1a02000 	mov	r2, r0
  10197c:	e51b3008 	ldr	r3, [fp, #-8]
  101980:	e1833002 	orr	r3, r3, r2
  101984:	e50b3008 	str	r3, [fp, #-8]
  101988:	ea000049 	b	101ab4 <ad77681_set_filter_type+0x1b8>
  10198c:	e55b3012 	ldrb	r3, [fp, #-18]	; 0xffffffee
  101990:	e3530000 	cmp	r3, #0
  101994:	0a000002 	beq	1019a4 <ad77681_set_filter_type+0xa8>
  101998:	e55b3012 	ldrb	r3, [fp, #-18]	; 0xffffffee
  10199c:	e3530004 	cmp	r3, #4
  1019a0:	1a000018 	bne	101a08 <ad77681_set_filter_type+0x10c>
  1019a4:	e55b3012 	ldrb	r3, [fp, #-18]	; 0xffffffee
  1019a8:	e1a03203 	lsl	r3, r3, #4
  1019ac:	e6ef3073 	uxtb	r3, r3
  1019b0:	e2033070 	and	r3, r3, #112	; 0x70
  1019b4:	e6ef3073 	uxtb	r3, r3
  1019b8:	e3a02070 	mov	r2, #112	; 0x70
  1019bc:	e3a01019 	mov	r1, #25
  1019c0:	e51b0010 	ldr	r0, [fp, #-16]
  1019c4:	ebfffc68 	bl	100b6c <ad77681_spi_write_mask>
  1019c8:	e1a02000 	mov	r2, r0
  1019cc:	e51b3008 	ldr	r3, [fp, #-8]
  1019d0:	e1833002 	orr	r3, r3, r2
  1019d4:	e50b3008 	str	r3, [fp, #-8]
  1019d8:	e55b3011 	ldrb	r3, [fp, #-17]	; 0xffffffef
  1019dc:	e2033007 	and	r3, r3, #7
  1019e0:	e6ef3073 	uxtb	r3, r3
  1019e4:	e3a02007 	mov	r2, #7
  1019e8:	e3a01019 	mov	r1, #25
  1019ec:	e51b0010 	ldr	r0, [fp, #-16]
  1019f0:	ebfffc5d 	bl	100b6c <ad77681_spi_write_mask>
  1019f4:	e1a02000 	mov	r2, r0
  1019f8:	e51b3008 	ldr	r3, [fp, #-8]
  1019fc:	e1833002 	orr	r3, r3, r2
  101a00:	e50b3008 	str	r3, [fp, #-8]
  101a04:	ea00002a 	b	101ab4 <ad77681_set_filter_type+0x1b8>
  101a08:	e3a03000 	mov	r3, #0
  101a0c:	e54b3009 	strb	r3, [fp, #-9]
  101a10:	e3a03000 	mov	r3, #0
  101a14:	e54b300a 	strb	r3, [fp, #-10]
  101a18:	e15b31b4 	ldrh	r3, [fp, #-20]	; 0xffffffec
  101a1c:	e1a03423 	lsr	r3, r3, #8
  101a20:	e6ff3073 	uxth	r3, r3
  101a24:	e54b300a 	strb	r3, [fp, #-10]
  101a28:	e15b31b4 	ldrh	r3, [fp, #-20]	; 0xffffffec
  101a2c:	e54b3009 	strb	r3, [fp, #-9]
  101a30:	e55b3012 	ldrb	r3, [fp, #-18]	; 0xffffffee
  101a34:	e1a03203 	lsl	r3, r3, #4
  101a38:	e6ef3073 	uxtb	r3, r3
  101a3c:	e2033070 	and	r3, r3, #112	; 0x70
  101a40:	e6ef3073 	uxtb	r3, r3
  101a44:	e3a02070 	mov	r2, #112	; 0x70
  101a48:	e3a01019 	mov	r1, #25
  101a4c:	e51b0010 	ldr	r0, [fp, #-16]
  101a50:	ebfffc45 	bl	100b6c <ad77681_spi_write_mask>
  101a54:	e1a02000 	mov	r2, r0
  101a58:	e51b3008 	ldr	r3, [fp, #-8]
  101a5c:	e1833002 	orr	r3, r3, r2
  101a60:	e50b3008 	str	r3, [fp, #-8]
  101a64:	e55b300a 	ldrb	r3, [fp, #-10]
  101a68:	e203300f 	and	r3, r3, #15
  101a6c:	e6ef3073 	uxtb	r3, r3
  101a70:	e3a0200f 	mov	r2, #15
  101a74:	e3a0101a 	mov	r1, #26
  101a78:	e51b0010 	ldr	r0, [fp, #-16]
  101a7c:	ebfffc3a 	bl	100b6c <ad77681_spi_write_mask>
  101a80:	e1a02000 	mov	r2, r0
  101a84:	e51b3008 	ldr	r3, [fp, #-8]
  101a88:	e1833002 	orr	r3, r3, r2
  101a8c:	e50b3008 	str	r3, [fp, #-8]
  101a90:	e55b3009 	ldrb	r3, [fp, #-9]
  101a94:	e3a020ff 	mov	r2, #255	; 0xff
  101a98:	e3a0101b 	mov	r1, #27
  101a9c:	e51b0010 	ldr	r0, [fp, #-16]
  101aa0:	ebfffc31 	bl	100b6c <ad77681_spi_write_mask>
  101aa4:	e1a02000 	mov	r2, r0
  101aa8:	e51b3008 	ldr	r3, [fp, #-8]
  101aac:	e1833002 	orr	r3, r3, r2
  101ab0:	e50b3008 	str	r3, [fp, #-8]
  101ab4:	e51b3008 	ldr	r3, [fp, #-8]
  101ab8:	e3530000 	cmp	r3, #0
  101abc:	1a00000b 	bne	101af0 <ad77681_set_filter_type+0x1f4>
  101ac0:	e51b3010 	ldr	r3, [fp, #-16]
  101ac4:	e55b2011 	ldrb	r2, [fp, #-17]	; 0xffffffef
  101ac8:	e5c32012 	strb	r2, [r3, #18]
  101acc:	e51b3010 	ldr	r3, [fp, #-16]
  101ad0:	e55b2012 	ldrb	r2, [fp, #-18]	; 0xffffffee
  101ad4:	e5c32011 	strb	r2, [r3, #17]
  101ad8:	e51b0010 	ldr	r0, [fp, #-16]
  101adc:	eb000120 	bl	101f64 <ad77681_initiate_sync>
  101ae0:	e1a02000 	mov	r2, r0
  101ae4:	e51b3008 	ldr	r3, [fp, #-8]
  101ae8:	e1833002 	orr	r3, r3, r2
  101aec:	e50b3008 	str	r3, [fp, #-8]
  101af0:	e51b3008 	ldr	r3, [fp, #-8]
  101af4:	e1a00003 	mov	r0, r3
  101af8:	e24bd004 	sub	sp, fp, #4
  101afc:	e8bd8800 	pop	{fp, pc}

00101b00 <ad77681_set_50HZ_rejection>:
  101b00:	e92d4800 	push	{fp, lr}
  101b04:	e28db004 	add	fp, sp, #4
  101b08:	e24dd010 	sub	sp, sp, #16
  101b0c:	e50b0010 	str	r0, [fp, #-16]
  101b10:	e1a03001 	mov	r3, r1
  101b14:	e54b3011 	strb	r3, [fp, #-17]	; 0xffffffef
  101b18:	e55b3011 	ldrb	r3, [fp, #-17]	; 0xffffffef
  101b1c:	e1a03383 	lsl	r3, r3, #7
  101b20:	e6ef3073 	uxtb	r3, r3
  101b24:	e3a02080 	mov	r2, #128	; 0x80
  101b28:	e3a01019 	mov	r1, #25
  101b2c:	e51b0010 	ldr	r0, [fp, #-16]
  101b30:	ebfffc0d 	bl	100b6c <ad77681_spi_write_mask>
  101b34:	e50b0008 	str	r0, [fp, #-8]
  101b38:	e51b3008 	ldr	r3, [fp, #-8]
  101b3c:	e1a00003 	mov	r0, r3
  101b40:	e24bd004 	sub	sp, fp, #4
  101b44:	e8bd8800 	pop	{fp, pc}

00101b48 <ad77681_set_continuos_read>:
  101b48:	e92d4800 	push	{fp, lr}
  101b4c:	e28db004 	add	fp, sp, #4
  101b50:	e24dd010 	sub	sp, sp, #16
  101b54:	e50b0010 	str	r0, [fp, #-16]
  101b58:	e1a03001 	mov	r3, r1
  101b5c:	e54b3011 	strb	r3, [fp, #-17]	; 0xffffffef
  101b60:	e30009c8 	movw	r0, #2504	; 0x9c8
  101b64:	e3400012 	movt	r0, #18
  101b68:	eb004dd3 	bl	1152bc <puts>
  101b6c:	e55b3011 	ldrb	r3, [fp, #-17]	; 0xffffffef
  101b70:	e3530000 	cmp	r3, #0
  101b74:	0a000008 	beq	101b9c <ad77681_set_continuos_read+0x54>
  101b78:	e55b3011 	ldrb	r3, [fp, #-17]	; 0xffffffef
  101b7c:	e2033001 	and	r3, r3, #1
  101b80:	e6ef3073 	uxtb	r3, r3
  101b84:	e3a02001 	mov	r2, #1
  101b88:	e3a01014 	mov	r1, #20
  101b8c:	e51b0010 	ldr	r0, [fp, #-16]
  101b90:	ebfffbf5 	bl	100b6c <ad77681_spi_write_mask>
  101b94:	e50b0008 	str	r0, [fp, #-8]
  101b98:	ea000008 	b	101bc0 <ad77681_set_continuos_read+0x78>
  101b9c:	e3a0306c 	mov	r3, #108	; 0x6c
  101ba0:	e54b3009 	strb	r3, [fp, #-9]
  101ba4:	e51b3010 	ldr	r3, [fp, #-16]
  101ba8:	e5933000 	ldr	r3, [r3]
  101bac:	e24b1009 	sub	r1, fp, #9
  101bb0:	e3a02001 	mov	r2, #1
  101bb4:	e1a00003 	mov	r0, r3
  101bb8:	eb000673 	bl	10358c <spi_write_and_read>
  101bbc:	e50b0008 	str	r0, [fp, #-8]
  101bc0:	e51b3008 	ldr	r3, [fp, #-8]
  101bc4:	e1a00003 	mov	r0, r3
  101bc8:	e24bd004 	sub	sp, fp, #4
  101bcc:	e8bd8800 	pop	{fp, pc}

00101bd0 <ad77681_power_down>:
  101bd0:	e92d4800 	push	{fp, lr}
  101bd4:	e28db004 	add	fp, sp, #4
  101bd8:	e24dd018 	sub	sp, sp, #24
  101bdc:	e50b0018 	str	r0, [fp, #-24]	; 0xffffffe8
  101be0:	e1a03001 	mov	r3, r1
  101be4:	e54b3019 	strb	r3, [fp, #-25]	; 0xffffffe7
  101be8:	e55b3019 	ldrb	r3, [fp, #-25]	; 0xffffffe7
  101bec:	e3530001 	cmp	r3, #1
  101bf0:	1a000005 	bne	101c0c <ad77681_power_down+0x3c>
  101bf4:	e3a02008 	mov	r2, #8
  101bf8:	e3a01015 	mov	r1, #21
  101bfc:	e51b0018 	ldr	r0, [fp, #-24]	; 0xffffffe8
  101c00:	ebfffb94 	bl	100a58 <ad77681_spi_reg_write>
  101c04:	e50b0008 	str	r0, [fp, #-8]
  101c08:	ea00000c 	b	101c40 <ad77681_power_down+0x70>
  101c0c:	e24b3010 	sub	r3, fp, #16
  101c10:	e3a02000 	mov	r2, #0
  101c14:	e5832000 	str	r2, [r3]
  101c18:	e5832004 	str	r2, [r3, #4]
  101c1c:	e3e0307f 	mvn	r3, #127	; 0x7f
  101c20:	e54b3010 	strb	r3, [fp, #-16]
  101c24:	e51b3018 	ldr	r3, [fp, #-24]	; 0xffffffe8
  101c28:	e5933000 	ldr	r3, [r3]
  101c2c:	e24b1010 	sub	r1, fp, #16
  101c30:	e3a02008 	mov	r2, #8
  101c34:	e1a00003 	mov	r0, r3
  101c38:	eb000653 	bl	10358c <spi_write_and_read>
  101c3c:	e50b0008 	str	r0, [fp, #-8]
  101c40:	e51b3008 	ldr	r3, [fp, #-8]
  101c44:	e1a00003 	mov	r0, r3
  101c48:	e24bd004 	sub	sp, fp, #4
  101c4c:	e8bd8800 	pop	{fp, pc}

00101c50 <ad77681_set_conv_mode>:
  101c50:	e92d4800 	push	{fp, lr}
  101c54:	e28db004 	add	fp, sp, #4
  101c58:	e24dd010 	sub	sp, sp, #16
  101c5c:	e50b0010 	str	r0, [fp, #-16]
  101c60:	e1a00001 	mov	r0, r1
  101c64:	e1a01002 	mov	r1, r2
  101c68:	e1a02003 	mov	r2, r3
  101c6c:	e1a03000 	mov	r3, r0
  101c70:	e54b3011 	strb	r3, [fp, #-17]	; 0xffffffef
  101c74:	e1a03001 	mov	r3, r1
  101c78:	e54b3012 	strb	r3, [fp, #-18]	; 0xffffffee
  101c7c:	e1a03002 	mov	r3, r2
  101c80:	e54b3013 	strb	r3, [fp, #-19]	; 0xffffffed
  101c84:	e55b3011 	ldrb	r3, [fp, #-17]	; 0xffffffef
  101c88:	e2033007 	and	r3, r3, #7
  101c8c:	e6ef3073 	uxtb	r3, r3
  101c90:	e3a02007 	mov	r2, #7
  101c94:	e3a01018 	mov	r1, #24
  101c98:	e51b0010 	ldr	r0, [fp, #-16]
  101c9c:	ebfffbb2 	bl	100b6c <ad77681_spi_write_mask>
  101ca0:	e50b0008 	str	r0, [fp, #-8]
  101ca4:	e55b3012 	ldrb	r3, [fp, #-18]	; 0xffffffee
  101ca8:	e1a03203 	lsl	r3, r3, #4
  101cac:	e6ef3073 	uxtb	r3, r3
  101cb0:	e3a020f0 	mov	r2, #240	; 0xf0
  101cb4:	e3a01018 	mov	r1, #24
  101cb8:	e51b0010 	ldr	r0, [fp, #-16]
  101cbc:	ebfffbaa 	bl	100b6c <ad77681_spi_write_mask>
  101cc0:	e1a02000 	mov	r2, r0
  101cc4:	e51b3008 	ldr	r3, [fp, #-8]
  101cc8:	e1833002 	orr	r3, r3, r2
  101ccc:	e50b3008 	str	r3, [fp, #-8]
  101cd0:	e55b3013 	ldrb	r3, [fp, #-19]	; 0xffffffed
  101cd4:	e1a03183 	lsl	r3, r3, #3
  101cd8:	e6ef3073 	uxtb	r3, r3
  101cdc:	e2033008 	and	r3, r3, #8
  101ce0:	e6ef3073 	uxtb	r3, r3
  101ce4:	e3a02008 	mov	r2, #8
  101ce8:	e3a01018 	mov	r1, #24
  101cec:	e51b0010 	ldr	r0, [fp, #-16]
  101cf0:	ebfffb9d 	bl	100b6c <ad77681_spi_write_mask>
  101cf4:	e1a02000 	mov	r2, r0
  101cf8:	e51b3008 	ldr	r3, [fp, #-8]
  101cfc:	e1833002 	orr	r3, r3, r2
  101d00:	e50b3008 	str	r3, [fp, #-8]
  101d04:	e51b3008 	ldr	r3, [fp, #-8]
  101d08:	e3530000 	cmp	r3, #0
  101d0c:	1a000008 	bne	101d34 <ad77681_set_conv_mode+0xe4>
  101d10:	e51b3010 	ldr	r3, [fp, #-16]
  101d14:	e55b2011 	ldrb	r2, [fp, #-17]	; 0xffffffef
  101d18:	e5c32006 	strb	r2, [r3, #6]
  101d1c:	e51b3010 	ldr	r3, [fp, #-16]
  101d20:	e55b2012 	ldrb	r2, [fp, #-18]	; 0xffffffee
  101d24:	e5c32007 	strb	r2, [r3, #7]
  101d28:	e51b3010 	ldr	r3, [fp, #-16]
  101d2c:	e55b2013 	ldrb	r2, [fp, #-19]	; 0xffffffed
  101d30:	e5c32008 	strb	r2, [r3, #8]
  101d34:	e51b3008 	ldr	r3, [fp, #-8]
  101d38:	e1a00003 	mov	r0, r3
  101d3c:	e24bd004 	sub	sp, fp, #4
  101d40:	e8bd8800 	pop	{fp, pc}

00101d44 <ad77681_set_convlen>:
  101d44:	e92d4800 	push	{fp, lr}
  101d48:	e28db004 	add	fp, sp, #4
  101d4c:	e24dd010 	sub	sp, sp, #16
  101d50:	e50b0010 	str	r0, [fp, #-16]
  101d54:	e1a03001 	mov	r3, r1
  101d58:	e54b3011 	strb	r3, [fp, #-17]	; 0xffffffef
  101d5c:	e55b3011 	ldrb	r3, [fp, #-17]	; 0xffffffef
  101d60:	e1a03183 	lsl	r3, r3, #3
  101d64:	e6ef3073 	uxtb	r3, r3
  101d68:	e2033008 	and	r3, r3, #8
  101d6c:	e6ef3073 	uxtb	r3, r3
  101d70:	e3a02008 	mov	r2, #8
  101d74:	e3a01014 	mov	r1, #20
  101d78:	e51b0010 	ldr	r0, [fp, #-16]
  101d7c:	ebfffb7a 	bl	100b6c <ad77681_spi_write_mask>
  101d80:	e50b0008 	str	r0, [fp, #-8]
  101d84:	e51b3008 	ldr	r3, [fp, #-8]
  101d88:	e3530000 	cmp	r3, #0
  101d8c:	1a000004 	bne	101da4 <ad77681_set_convlen+0x60>
  101d90:	e51b3010 	ldr	r3, [fp, #-16]
  101d94:	e55b2011 	ldrb	r2, [fp, #-17]	; 0xffffffef
  101d98:	e5c32009 	strb	r2, [r3, #9]
  101d9c:	e51b0010 	ldr	r0, [fp, #-16]
  101da0:	ebfffbc3 	bl	100cb4 <ad77681_get_frame_16bit>
  101da4:	e51b3008 	ldr	r3, [fp, #-8]
  101da8:	e1a00003 	mov	r0, r3
  101dac:	e24bd004 	sub	sp, fp, #4
  101db0:	e8bd8800 	pop	{fp, pc}

00101db4 <ad77681_set_crc_sel>:
  101db4:	e92d4800 	push	{fp, lr}
  101db8:	e28db004 	add	fp, sp, #4
  101dbc:	e24dd010 	sub	sp, sp, #16
  101dc0:	e50b0010 	str	r0, [fp, #-16]
  101dc4:	e1a03001 	mov	r3, r1
  101dc8:	e54b3011 	strb	r3, [fp, #-17]	; 0xffffffef
  101dcc:	e55b3011 	ldrb	r3, [fp, #-17]	; 0xffffffef
  101dd0:	e3530002 	cmp	r3, #2
  101dd4:	1a000006 	bne	101df4 <ad77681_set_crc_sel+0x40>
  101dd8:	e3a03000 	mov	r3, #0
  101ddc:	e3a02040 	mov	r2, #64	; 0x40
  101de0:	e3a01014 	mov	r1, #20
  101de4:	e51b0010 	ldr	r0, [fp, #-16]
  101de8:	ebfffb5f 	bl	100b6c <ad77681_spi_write_mask>
  101dec:	e50b0008 	str	r0, [fp, #-8]
  101df0:	ea000012 	b	101e40 <ad77681_set_crc_sel+0x8c>
  101df4:	e3a03040 	mov	r3, #64	; 0x40
  101df8:	e3a02040 	mov	r2, #64	; 0x40
  101dfc:	e3a01014 	mov	r1, #20
  101e00:	e51b0010 	ldr	r0, [fp, #-16]
  101e04:	ebfffb58 	bl	100b6c <ad77681_spi_write_mask>
  101e08:	e50b0008 	str	r0, [fp, #-8]
  101e0c:	e55b3011 	ldrb	r3, [fp, #-17]	; 0xffffffef
  101e10:	e1a03283 	lsl	r3, r3, #5
  101e14:	e6ef3073 	uxtb	r3, r3
  101e18:	e2033020 	and	r3, r3, #32
  101e1c:	e6ef3073 	uxtb	r3, r3
  101e20:	e3a02020 	mov	r2, #32
  101e24:	e3a01014 	mov	r1, #20
  101e28:	e51b0010 	ldr	r0, [fp, #-16]
  101e2c:	ebfffb4e 	bl	100b6c <ad77681_spi_write_mask>
  101e30:	e1a02000 	mov	r2, r0
  101e34:	e51b3008 	ldr	r3, [fp, #-8]
  101e38:	e1833002 	orr	r3, r3, r2
  101e3c:	e50b3008 	str	r3, [fp, #-8]
  101e40:	e51b3008 	ldr	r3, [fp, #-8]
  101e44:	e3530000 	cmp	r3, #0
  101e48:	1a000004 	bne	101e60 <ad77681_set_crc_sel+0xac>
  101e4c:	e51b3010 	ldr	r3, [fp, #-16]
  101e50:	e55b2011 	ldrb	r2, [fp, #-17]	; 0xffffffef
  101e54:	e5c3200a 	strb	r2, [r3, #10]
  101e58:	e51b0010 	ldr	r0, [fp, #-16]
  101e5c:	ebfffb94 	bl	100cb4 <ad77681_get_frame_16bit>
  101e60:	e51b3008 	ldr	r3, [fp, #-8]
  101e64:	e1a00003 	mov	r0, r3
  101e68:	e24bd004 	sub	sp, fp, #4
  101e6c:	e8bd8800 	pop	{fp, pc}

00101e70 <ad77681_set_status_bit>:
  101e70:	e92d4800 	push	{fp, lr}
  101e74:	e28db004 	add	fp, sp, #4
  101e78:	e24dd010 	sub	sp, sp, #16
  101e7c:	e50b0010 	str	r0, [fp, #-16]
  101e80:	e1a03001 	mov	r3, r1
  101e84:	e54b3011 	strb	r3, [fp, #-17]	; 0xffffffef
  101e88:	e55b3011 	ldrb	r3, [fp, #-17]	; 0xffffffef
  101e8c:	e1a03203 	lsl	r3, r3, #4
  101e90:	e6ef3073 	uxtb	r3, r3
  101e94:	e2033010 	and	r3, r3, #16
  101e98:	e6ef3073 	uxtb	r3, r3
  101e9c:	e3a02010 	mov	r2, #16
  101ea0:	e3a01014 	mov	r1, #20
  101ea4:	e51b0010 	ldr	r0, [fp, #-16]
  101ea8:	ebfffb2f 	bl	100b6c <ad77681_spi_write_mask>
  101eac:	e50b0008 	str	r0, [fp, #-8]
  101eb0:	e51b3008 	ldr	r3, [fp, #-8]
  101eb4:	e3530000 	cmp	r3, #0
  101eb8:	1a000004 	bne	101ed0 <ad77681_set_status_bit+0x60>
  101ebc:	e55b2011 	ldrb	r2, [fp, #-17]	; 0xffffffef
  101ec0:	e51b3010 	ldr	r3, [fp, #-16]
  101ec4:	e5c3200b 	strb	r2, [r3, #11]
  101ec8:	e51b0010 	ldr	r0, [fp, #-16]
  101ecc:	ebfffb78 	bl	100cb4 <ad77681_get_frame_16bit>
  101ed0:	e51b3008 	ldr	r3, [fp, #-8]
  101ed4:	e1a00003 	mov	r0, r3
  101ed8:	e24bd004 	sub	sp, fp, #4
  101edc:	e8bd8800 	pop	{fp, pc}

00101ee0 <ad77681_soft_reset>:
  101ee0:	e92d4800 	push	{fp, lr}
  101ee4:	e28db004 	add	fp, sp, #4
  101ee8:	e24dd010 	sub	sp, sp, #16
  101eec:	e50b0010 	str	r0, [fp, #-16]
  101ef0:	e3a03000 	mov	r3, #0
  101ef4:	e50b3008 	str	r3, [fp, #-8]
  101ef8:	e3a03003 	mov	r3, #3
  101efc:	e3a02003 	mov	r2, #3
  101f00:	e3a0101d 	mov	r1, #29
  101f04:	e51b0010 	ldr	r0, [fp, #-16]
  101f08:	ebfffb17 	bl	100b6c <ad77681_spi_write_mask>
  101f0c:	e1a02000 	mov	r2, r0
  101f10:	e51b3008 	ldr	r3, [fp, #-8]
  101f14:	e1833002 	orr	r3, r3, r2
  101f18:	e50b3008 	str	r3, [fp, #-8]
  101f1c:	e3a03002 	mov	r3, #2
  101f20:	e3a02003 	mov	r2, #3
  101f24:	e3a0101d 	mov	r1, #29
  101f28:	e51b0010 	ldr	r0, [fp, #-16]
  101f2c:	ebfffb0e 	bl	100b6c <ad77681_spi_write_mask>
  101f30:	e1a02000 	mov	r2, r0
  101f34:	e51b3008 	ldr	r3, [fp, #-8]
  101f38:	e1833002 	orr	r3, r3, r2
  101f3c:	e50b3008 	str	r3, [fp, #-8]
  101f40:	e51b3008 	ldr	r3, [fp, #-8]
  101f44:	e1a01003 	mov	r1, r3
  101f48:	e30009ec 	movw	r0, #2540	; 0x9ec
  101f4c:	e3400012 	movt	r0, #18
  101f50:	eb004c8b 	bl	115184 <printf>
  101f54:	e51b3008 	ldr	r3, [fp, #-8]
  101f58:	e1a00003 	mov	r0, r3
  101f5c:	e24bd004 	sub	sp, fp, #4
  101f60:	e8bd8800 	pop	{fp, pc}

00101f64 <ad77681_initiate_sync>:
  101f64:	e92d4800 	push	{fp, lr}
  101f68:	e28db004 	add	fp, sp, #4
  101f6c:	e24dd008 	sub	sp, sp, #8
  101f70:	e50b0008 	str	r0, [fp, #-8]
  101f74:	e3a03000 	mov	r3, #0
  101f78:	e3a02080 	mov	r2, #128	; 0x80
  101f7c:	e3a0101d 	mov	r1, #29
  101f80:	e51b0008 	ldr	r0, [fp, #-8]
  101f84:	ebfffaf8 	bl	100b6c <ad77681_spi_write_mask>
  101f88:	e1a03000 	mov	r3, r0
  101f8c:	e1a00003 	mov	r0, r3
  101f90:	e24bd004 	sub	sp, fp, #4
  101f94:	e8bd8800 	pop	{fp, pc}

00101f98 <ad77681_apply_offset>:
  101f98:	e92d4800 	push	{fp, lr}
  101f9c:	e28db004 	add	fp, sp, #4
  101fa0:	e24dd010 	sub	sp, sp, #16
  101fa4:	e50b0010 	str	r0, [fp, #-16]
  101fa8:	e50b1014 	str	r1, [fp, #-20]	; 0xffffffec
  101fac:	e3a03000 	mov	r3, #0
  101fb0:	e54b3005 	strb	r3, [fp, #-5]
  101fb4:	e3a03000 	mov	r3, #0
  101fb8:	e54b3006 	strb	r3, [fp, #-6]
  101fbc:	e3a03000 	mov	r3, #0
  101fc0:	e54b3007 	strb	r3, [fp, #-7]
  101fc4:	e51b3014 	ldr	r3, [fp, #-20]	; 0xffffffec
  101fc8:	e1a03823 	lsr	r3, r3, #16
  101fcc:	e54b3005 	strb	r3, [fp, #-5]
  101fd0:	e51b3014 	ldr	r3, [fp, #-20]	; 0xffffffec
  101fd4:	e1a03423 	lsr	r3, r3, #8
  101fd8:	e54b3006 	strb	r3, [fp, #-6]
  101fdc:	e51b3014 	ldr	r3, [fp, #-20]	; 0xffffffec
  101fe0:	e54b3007 	strb	r3, [fp, #-7]
  101fe4:	e55b3005 	ldrb	r3, [fp, #-5]
  101fe8:	e3a020ff 	mov	r2, #255	; 0xff
  101fec:	e3a01021 	mov	r1, #33	; 0x21
  101ff0:	e51b0010 	ldr	r0, [fp, #-16]
  101ff4:	ebfffadc 	bl	100b6c <ad77681_spi_write_mask>
  101ff8:	e50b000c 	str	r0, [fp, #-12]
  101ffc:	e55b3006 	ldrb	r3, [fp, #-6]
  102000:	e3a020ff 	mov	r2, #255	; 0xff
  102004:	e3a01022 	mov	r1, #34	; 0x22
  102008:	e51b0010 	ldr	r0, [fp, #-16]
  10200c:	ebfffad6 	bl	100b6c <ad77681_spi_write_mask>
  102010:	e1a02000 	mov	r2, r0
  102014:	e51b300c 	ldr	r3, [fp, #-12]
  102018:	e1833002 	orr	r3, r3, r2
  10201c:	e50b300c 	str	r3, [fp, #-12]
  102020:	e55b3007 	ldrb	r3, [fp, #-7]
  102024:	e3a020ff 	mov	r2, #255	; 0xff
  102028:	e3a01023 	mov	r1, #35	; 0x23
  10202c:	e51b0010 	ldr	r0, [fp, #-16]
  102030:	ebfffacd 	bl	100b6c <ad77681_spi_write_mask>
  102034:	e1a02000 	mov	r2, r0
  102038:	e51b300c 	ldr	r3, [fp, #-12]
  10203c:	e1833002 	orr	r3, r3, r2
  102040:	e50b300c 	str	r3, [fp, #-12]
  102044:	e51b300c 	ldr	r3, [fp, #-12]
  102048:	e1a00003 	mov	r0, r3
  10204c:	e24bd004 	sub	sp, fp, #4
  102050:	e8bd8800 	pop	{fp, pc}

00102054 <ad77681_apply_gain>:
  102054:	e92d4800 	push	{fp, lr}
  102058:	e28db004 	add	fp, sp, #4
  10205c:	e24dd010 	sub	sp, sp, #16
  102060:	e50b0010 	str	r0, [fp, #-16]
  102064:	e50b1014 	str	r1, [fp, #-20]	; 0xffffffec
  102068:	e3a03000 	mov	r3, #0
  10206c:	e54b3005 	strb	r3, [fp, #-5]
  102070:	e3a03000 	mov	r3, #0
  102074:	e54b3006 	strb	r3, [fp, #-6]
  102078:	e3a03000 	mov	r3, #0
  10207c:	e54b3007 	strb	r3, [fp, #-7]
  102080:	e51b3014 	ldr	r3, [fp, #-20]	; 0xffffffec
  102084:	e1a03823 	lsr	r3, r3, #16
  102088:	e54b3005 	strb	r3, [fp, #-5]
  10208c:	e51b3014 	ldr	r3, [fp, #-20]	; 0xffffffec
  102090:	e1a03423 	lsr	r3, r3, #8
  102094:	e54b3006 	strb	r3, [fp, #-6]
  102098:	e51b3014 	ldr	r3, [fp, #-20]	; 0xffffffec
  10209c:	e54b3007 	strb	r3, [fp, #-7]
  1020a0:	e55b3005 	ldrb	r3, [fp, #-5]
  1020a4:	e3a020ff 	mov	r2, #255	; 0xff
  1020a8:	e3a01024 	mov	r1, #36	; 0x24
  1020ac:	e51b0010 	ldr	r0, [fp, #-16]
  1020b0:	ebfffaad 	bl	100b6c <ad77681_spi_write_mask>
  1020b4:	e50b000c 	str	r0, [fp, #-12]
  1020b8:	e55b3006 	ldrb	r3, [fp, #-6]
  1020bc:	e3a020ff 	mov	r2, #255	; 0xff
  1020c0:	e3a01025 	mov	r1, #37	; 0x25
  1020c4:	e51b0010 	ldr	r0, [fp, #-16]
  1020c8:	ebfffaa7 	bl	100b6c <ad77681_spi_write_mask>
  1020cc:	e1a02000 	mov	r2, r0
  1020d0:	e51b300c 	ldr	r3, [fp, #-12]
  1020d4:	e1833002 	orr	r3, r3, r2
  1020d8:	e50b300c 	str	r3, [fp, #-12]
  1020dc:	e55b3007 	ldrb	r3, [fp, #-7]
  1020e0:	e3a020ff 	mov	r2, #255	; 0xff
  1020e4:	e3a01026 	mov	r1, #38	; 0x26
  1020e8:	e51b0010 	ldr	r0, [fp, #-16]
  1020ec:	ebfffa9e 	bl	100b6c <ad77681_spi_write_mask>
  1020f0:	e1a02000 	mov	r2, r0
  1020f4:	e51b300c 	ldr	r3, [fp, #-12]
  1020f8:	e1833002 	orr	r3, r3, r2
  1020fc:	e50b300c 	str	r3, [fp, #-12]
  102100:	e51b300c 	ldr	r3, [fp, #-12]
  102104:	e1a00003 	mov	r0, r3
  102108:	e24bd004 	sub	sp, fp, #4
  10210c:	e8bd8800 	pop	{fp, pc}

00102110 <ad77681_programmable_filter>:
  102110:	e92d4800 	push	{fp, lr}
  102114:	e28db004 	add	fp, sp, #4
  102118:	e24dd030 	sub	sp, sp, #48	; 0x30
  10211c:	e50b0028 	str	r0, [fp, #-40]	; 0xffffffd8
  102120:	e50b102c 	str	r1, [fp, #-44]	; 0xffffffd4
  102124:	e1a03002 	mov	r3, r2
  102128:	e54b302d 	strb	r3, [fp, #-45]	; 0xffffffd3
  10212c:	e3a03000 	mov	r3, #0
  102130:	e54b3021 	strb	r3, [fp, #-33]	; 0xffffffdf
  102134:	e3a03038 	mov	r3, #56	; 0x38
  102138:	e54b3007 	strb	r3, [fp, #-7]
  10213c:	e3e03053 	mvn	r3, #83	; 0x53
  102140:	e54b3008 	strb	r3, [fp, #-8]
  102144:	e3a03045 	mov	r3, #69	; 0x45
  102148:	e54b3009 	strb	r3, [fp, #-9]
  10214c:	e3a03055 	mov	r3, #85	; 0x55
  102150:	e54b300a 	strb	r3, [fp, #-10]
  102154:	e3a03000 	mov	r3, #0
  102158:	e3443a80 	movt	r3, #19072	; 0x4a80
  10215c:	e50b3010 	str	r3, [fp, #-16]
  102160:	e3a03040 	mov	r3, #64	; 0x40
  102164:	e3a02070 	mov	r2, #112	; 0x70
  102168:	e3a01019 	mov	r1, #25
  10216c:	e51b0028 	ldr	r0, [fp, #-40]	; 0xffffffd8
  102170:	ebfffa7d 	bl	100b6c <ad77681_spi_write_mask>
  102174:	e50b0014 	str	r0, [fp, #-20]	; 0xffffffec
  102178:	e51b3014 	ldr	r3, [fp, #-20]	; 0xffffffec
  10217c:	e3530000 	cmp	r3, #0
  102180:	aa000001 	bge	10218c <ad77681_programmable_filter+0x7c>
  102184:	e51b3014 	ldr	r3, [fp, #-20]	; 0xffffffec
  102188:	ea0000ae 	b	102448 <ad77681_programmable_filter+0x338>
  10218c:	e55b3008 	ldrb	r3, [fp, #-8]
  102190:	e3a020ff 	mov	r2, #255	; 0xff
  102194:	e3a01034 	mov	r1, #52	; 0x34
  102198:	e51b0028 	ldr	r0, [fp, #-40]	; 0xffffffd8
  10219c:	ebfffa72 	bl	100b6c <ad77681_spi_write_mask>
  1021a0:	e50b0014 	str	r0, [fp, #-20]	; 0xffffffec
  1021a4:	e51b3014 	ldr	r3, [fp, #-20]	; 0xffffffec
  1021a8:	e3530000 	cmp	r3, #0
  1021ac:	aa000001 	bge	1021b8 <ad77681_programmable_filter+0xa8>
  1021b0:	e51b3014 	ldr	r3, [fp, #-20]	; 0xffffffec
  1021b4:	ea0000a3 	b	102448 <ad77681_programmable_filter+0x338>
  1021b8:	e55b3009 	ldrb	r3, [fp, #-9]
  1021bc:	e3a020ff 	mov	r2, #255	; 0xff
  1021c0:	e3a01034 	mov	r1, #52	; 0x34
  1021c4:	e51b0028 	ldr	r0, [fp, #-40]	; 0xffffffd8
  1021c8:	ebfffa67 	bl	100b6c <ad77681_spi_write_mask>
  1021cc:	e50b0014 	str	r0, [fp, #-20]	; 0xffffffec
  1021d0:	e51b3014 	ldr	r3, [fp, #-20]	; 0xffffffec
  1021d4:	e3530000 	cmp	r3, #0
  1021d8:	aa000001 	bge	1021e4 <ad77681_programmable_filter+0xd4>
  1021dc:	e51b3014 	ldr	r3, [fp, #-20]	; 0xffffffec
  1021e0:	ea000098 	b	102448 <ad77681_programmable_filter+0x338>
  1021e4:	e24b3021 	sub	r3, fp, #33	; 0x21
  1021e8:	e3a02001 	mov	r2, #1
  1021ec:	e3a01034 	mov	r1, #52	; 0x34
  1021f0:	e51b0028 	ldr	r0, [fp, #-40]	; 0xffffffd8
  1021f4:	ebfffa43 	bl	100b08 <ad77681_spi_read_mask>
  1021f8:	e50b0014 	str	r0, [fp, #-20]	; 0xffffffec
  1021fc:	e51b3014 	ldr	r3, [fp, #-20]	; 0xffffffec
  102200:	e3530000 	cmp	r3, #0
  102204:	ba000002 	blt	102214 <ad77681_programmable_filter+0x104>
  102208:	e55b3021 	ldrb	r3, [fp, #-33]	; 0xffffffdf
  10220c:	e3530001 	cmp	r3, #1
  102210:	0a000001 	beq	10221c <ad77681_programmable_filter+0x10c>
  102214:	e3e03000 	mvn	r3, #0
  102218:	ea00008a 	b	102448 <ad77681_programmable_filter+0x338>
  10221c:	e3e0303f 	mvn	r3, #63	; 0x3f
  102220:	e54b3006 	strb	r3, [fp, #-6]
  102224:	e3a03000 	mov	r3, #0
  102228:	e54b3005 	strb	r3, [fp, #-5]
  10222c:	ea000049 	b	102358 <ad77681_programmable_filter+0x248>
  102230:	e55b3006 	ldrb	r3, [fp, #-6]
  102234:	e1a02003 	mov	r2, r3
  102238:	e3a01032 	mov	r1, #50	; 0x32
  10223c:	e51b0028 	ldr	r0, [fp, #-40]	; 0xffffffd8
  102240:	ebfffa04 	bl	100a58 <ad77681_spi_reg_write>
  102244:	e50b0014 	str	r0, [fp, #-20]	; 0xffffffec
  102248:	e51b3014 	ldr	r3, [fp, #-20]	; 0xffffffec
  10224c:	e3530000 	cmp	r3, #0
  102250:	aa000001 	bge	10225c <ad77681_programmable_filter+0x14c>
  102254:	e51b3014 	ldr	r3, [fp, #-20]	; 0xffffffec
  102258:	ea00007a 	b	102448 <ad77681_programmable_filter+0x338>
  10225c:	e55b202d 	ldrb	r2, [fp, #-45]	; 0xffffffd3
  102260:	e55b3005 	ldrb	r3, [fp, #-5]
  102264:	e0822003 	add	r2, r2, r3
  102268:	e55b3007 	ldrb	r3, [fp, #-7]
  10226c:	e1520003 	cmp	r2, r3
  102270:	aa000008 	bge	102298 <ad77681_programmable_filter+0x188>
  102274:	e3a03033 	mov	r3, #51	; 0x33
  102278:	e54b3020 	strb	r3, [fp, #-32]	; 0xffffffe0
  10227c:	e3a03000 	mov	r3, #0
  102280:	e54b301f 	strb	r3, [fp, #-31]	; 0xffffffe1
  102284:	e3a03000 	mov	r3, #0
  102288:	e54b301e 	strb	r3, [fp, #-30]	; 0xffffffe2
  10228c:	e3a03000 	mov	r3, #0
  102290:	e54b301d 	strb	r3, [fp, #-29]	; 0xffffffe3
  102294:	ea00001d 	b	102310 <ad77681_programmable_filter+0x200>
  102298:	e55b202d 	ldrb	r2, [fp, #-45]	; 0xffffffd3
  10229c:	e55b3005 	ldrb	r3, [fp, #-5]
  1022a0:	e0823003 	add	r3, r2, r3
  1022a4:	e6ef2073 	uxtb	r2, r3
  1022a8:	e55b3007 	ldrb	r3, [fp, #-7]
  1022ac:	e0423003 	sub	r3, r2, r3
  1022b0:	e54b3015 	strb	r3, [fp, #-21]	; 0xffffffeb
  1022b4:	e55b3015 	ldrb	r3, [fp, #-21]	; 0xffffffeb
  1022b8:	e1a03103 	lsl	r3, r3, #2
  1022bc:	e51b202c 	ldr	r2, [fp, #-44]	; 0xffffffd4
  1022c0:	e0823003 	add	r3, r2, r3
  1022c4:	ed937a00 	vldr	s14, [r3]
  1022c8:	ed5b7a04 	vldr	s15, [fp, #-16]
  1022cc:	ee677a27 	vmul.f32	s15, s14, s15
  1022d0:	eefd7ae7 	vcvt.s32.f32	s15, s15
  1022d4:	ee173a90 	vmov	r3, s15
  1022d8:	e50b301c 	str	r3, [fp, #-28]	; 0xffffffe4
  1022dc:	e3a03033 	mov	r3, #51	; 0x33
  1022e0:	e54b3020 	strb	r3, [fp, #-32]	; 0xffffffe0
  1022e4:	e51b301c 	ldr	r3, [fp, #-28]	; 0xffffffe4
  1022e8:	e1a03843 	asr	r3, r3, #16
  1022ec:	e6ef3073 	uxtb	r3, r3
  1022f0:	e54b301f 	strb	r3, [fp, #-31]	; 0xffffffe1
  1022f4:	e51b301c 	ldr	r3, [fp, #-28]	; 0xffffffe4
  1022f8:	e1a03443 	asr	r3, r3, #8
  1022fc:	e6ef3073 	uxtb	r3, r3
  102300:	e54b301e 	strb	r3, [fp, #-30]	; 0xffffffe2
  102304:	e51b301c 	ldr	r3, [fp, #-28]	; 0xffffffe4
  102308:	e6ef3073 	uxtb	r3, r3
  10230c:	e54b301d 	strb	r3, [fp, #-29]	; 0xffffffe3
  102310:	e51b3028 	ldr	r3, [fp, #-40]	; 0xffffffd8
  102314:	e5933000 	ldr	r3, [r3]
  102318:	e24b1020 	sub	r1, fp, #32
  10231c:	e3a02004 	mov	r2, #4
  102320:	e1a00003 	mov	r0, r3
  102324:	eb000498 	bl	10358c <spi_write_and_read>
  102328:	e50b0014 	str	r0, [fp, #-20]	; 0xffffffec
  10232c:	e51b3014 	ldr	r3, [fp, #-20]	; 0xffffffec
  102330:	e3530000 	cmp	r3, #0
  102334:	aa000001 	bge	102340 <ad77681_programmable_filter+0x230>
  102338:	e51b3014 	ldr	r3, [fp, #-20]	; 0xffffffec
  10233c:	ea000041 	b	102448 <ad77681_programmable_filter+0x338>
  102340:	e55b3006 	ldrb	r3, [fp, #-6]
  102344:	e2833001 	add	r3, r3, #1
  102348:	e54b3006 	strb	r3, [fp, #-6]
  10234c:	e55b3005 	ldrb	r3, [fp, #-5]
  102350:	e2833001 	add	r3, r3, #1
  102354:	e54b3005 	strb	r3, [fp, #-5]
  102358:	e55b2005 	ldrb	r2, [fp, #-5]
  10235c:	e55b3007 	ldrb	r3, [fp, #-7]
  102360:	e1520003 	cmp	r2, r3
  102364:	3affffb1 	bcc	102230 <ad77681_programmable_filter+0x120>
  102368:	e3a03000 	mov	r3, #0
  10236c:	e3a02040 	mov	r2, #64	; 0x40
  102370:	e3a01032 	mov	r1, #50	; 0x32
  102374:	e51b0028 	ldr	r0, [fp, #-40]	; 0xffffffd8
  102378:	ebfff9fb 	bl	100b6c <ad77681_spi_write_mask>
  10237c:	e50b0014 	str	r0, [fp, #-20]	; 0xffffffec
  102380:	e51b3014 	ldr	r3, [fp, #-20]	; 0xffffffec
  102384:	e3530000 	cmp	r3, #0
  102388:	aa000001 	bge	102394 <ad77681_programmable_filter+0x284>
  10238c:	e51b3014 	ldr	r3, [fp, #-20]	; 0xffffffec
  102390:	ea00002c 	b	102448 <ad77681_programmable_filter+0x338>
  102394:	e3a03000 	mov	r3, #0
  102398:	e3a02080 	mov	r2, #128	; 0x80
  10239c:	e3a01032 	mov	r1, #50	; 0x32
  1023a0:	e51b0028 	ldr	r0, [fp, #-40]	; 0xffffffd8
  1023a4:	ebfff9f0 	bl	100b6c <ad77681_spi_write_mask>
  1023a8:	e50b0014 	str	r0, [fp, #-20]	; 0xffffffec
  1023ac:	e51b3014 	ldr	r3, [fp, #-20]	; 0xffffffec
  1023b0:	e3530000 	cmp	r3, #0
  1023b4:	aa000001 	bge	1023c0 <ad77681_programmable_filter+0x2b0>
  1023b8:	e51b3014 	ldr	r3, [fp, #-20]	; 0xffffffec
  1023bc:	ea000021 	b	102448 <ad77681_programmable_filter+0x338>
  1023c0:	e3a03033 	mov	r3, #51	; 0x33
  1023c4:	e54b3020 	strb	r3, [fp, #-32]	; 0xffffffe0
  1023c8:	e3e0307f 	mvn	r3, #127	; 0x7f
  1023cc:	e54b301f 	strb	r3, [fp, #-31]	; 0xffffffe1
  1023d0:	e3a03000 	mov	r3, #0
  1023d4:	e54b301e 	strb	r3, [fp, #-30]	; 0xffffffe2
  1023d8:	e3a03000 	mov	r3, #0
  1023dc:	e54b301d 	strb	r3, [fp, #-29]	; 0xffffffe3
  1023e0:	e51b3028 	ldr	r3, [fp, #-40]	; 0xffffffd8
  1023e4:	e5933000 	ldr	r3, [r3]
  1023e8:	e24b1020 	sub	r1, fp, #32
  1023ec:	e3a02004 	mov	r2, #4
  1023f0:	e1a00003 	mov	r0, r3
  1023f4:	eb000464 	bl	10358c <spi_write_and_read>
  1023f8:	e50b0014 	str	r0, [fp, #-20]	; 0xffffffec
  1023fc:	e51b3014 	ldr	r3, [fp, #-20]	; 0xffffffec
  102400:	e3530000 	cmp	r3, #0
  102404:	aa000001 	bge	102410 <ad77681_programmable_filter+0x300>
  102408:	e51b3014 	ldr	r3, [fp, #-20]	; 0xffffffec
  10240c:	ea00000d 	b	102448 <ad77681_programmable_filter+0x338>
  102410:	e55b300a 	ldrb	r3, [fp, #-10]
  102414:	e3a020ff 	mov	r2, #255	; 0xff
  102418:	e3a01034 	mov	r1, #52	; 0x34
  10241c:	e51b0028 	ldr	r0, [fp, #-40]	; 0xffffffd8
  102420:	ebfff9d1 	bl	100b6c <ad77681_spi_write_mask>
  102424:	e50b0014 	str	r0, [fp, #-20]	; 0xffffffec
  102428:	e51b3014 	ldr	r3, [fp, #-20]	; 0xffffffec
  10242c:	e3530000 	cmp	r3, #0
  102430:	aa000001 	bge	10243c <ad77681_programmable_filter+0x32c>
  102434:	e51b3014 	ldr	r3, [fp, #-20]	; 0xffffffec
  102438:	ea000002 	b	102448 <ad77681_programmable_filter+0x338>
  10243c:	e51b0028 	ldr	r0, [fp, #-40]	; 0xffffffd8
  102440:	ebfffec7 	bl	101f64 <ad77681_initiate_sync>
  102444:	e51b3014 	ldr	r3, [fp, #-20]	; 0xffffffec
  102448:	e1a00003 	mov	r0, r3
  10244c:	e24bd004 	sub	sp, fp, #4
  102450:	e8bd8800 	pop	{fp, pc}

00102454 <ad77681_gpio_read>:
  102454:	e92d4800 	push	{fp, lr}
  102458:	e28db004 	add	fp, sp, #4
  10245c:	e24dd018 	sub	sp, sp, #24
  102460:	e50b0010 	str	r0, [fp, #-16]
  102464:	e50b1014 	str	r1, [fp, #-20]	; 0xffffffec
  102468:	e1a03002 	mov	r3, r2
  10246c:	e54b3015 	strb	r3, [fp, #-21]	; 0xffffffeb
  102470:	e55b3015 	ldrb	r3, [fp, #-21]	; 0xffffffeb
  102474:	e3530004 	cmp	r3, #4
  102478:	979ff103 	ldrls	pc, [pc, r3, lsl #2]
  10247c:	ea000027 	b	102520 <ad77681_gpio_read+0xcc>
  102480:	00102494 	.word	0x00102494
  102484:	001024b0 	.word	0x001024b0
  102488:	001024cc 	.word	0x001024cc
  10248c:	001024e8 	.word	0x001024e8
  102490:	00102504 	.word	0x00102504
  102494:	e51b3014 	ldr	r3, [fp, #-20]	; 0xffffffec
  102498:	e3a02001 	mov	r2, #1
  10249c:	e3a01020 	mov	r1, #32
  1024a0:	e51b0010 	ldr	r0, [fp, #-16]
  1024a4:	ebfff997 	bl	100b08 <ad77681_spi_read_mask>
  1024a8:	e50b0008 	str	r0, [fp, #-8]
  1024ac:	ea00001d 	b	102528 <ad77681_gpio_read+0xd4>
  1024b0:	e51b3014 	ldr	r3, [fp, #-20]	; 0xffffffec
  1024b4:	e3a02002 	mov	r2, #2
  1024b8:	e3a01020 	mov	r1, #32
  1024bc:	e51b0010 	ldr	r0, [fp, #-16]
  1024c0:	ebfff990 	bl	100b08 <ad77681_spi_read_mask>
  1024c4:	e50b0008 	str	r0, [fp, #-8]
  1024c8:	ea000016 	b	102528 <ad77681_gpio_read+0xd4>
  1024cc:	e51b3014 	ldr	r3, [fp, #-20]	; 0xffffffec
  1024d0:	e3a02004 	mov	r2, #4
  1024d4:	e3a01020 	mov	r1, #32
  1024d8:	e51b0010 	ldr	r0, [fp, #-16]
  1024dc:	ebfff989 	bl	100b08 <ad77681_spi_read_mask>
  1024e0:	e50b0008 	str	r0, [fp, #-8]
  1024e4:	ea00000f 	b	102528 <ad77681_gpio_read+0xd4>
  1024e8:	e51b3014 	ldr	r3, [fp, #-20]	; 0xffffffec
  1024ec:	e3a02008 	mov	r2, #8
  1024f0:	e3a01020 	mov	r1, #32
  1024f4:	e51b0010 	ldr	r0, [fp, #-16]
  1024f8:	ebfff982 	bl	100b08 <ad77681_spi_read_mask>
  1024fc:	e50b0008 	str	r0, [fp, #-8]
  102500:	ea000008 	b	102528 <ad77681_gpio_read+0xd4>
  102504:	e51b3014 	ldr	r3, [fp, #-20]	; 0xffffffec
  102508:	e3a0200f 	mov	r2, #15
  10250c:	e3a01020 	mov	r1, #32
  102510:	e51b0010 	ldr	r0, [fp, #-16]
  102514:	ebfff97b 	bl	100b08 <ad77681_spi_read_mask>
  102518:	e50b0008 	str	r0, [fp, #-8]
  10251c:	ea000001 	b	102528 <ad77681_gpio_read+0xd4>
  102520:	e3e03000 	mvn	r3, #0
  102524:	ea000000 	b	10252c <ad77681_gpio_read+0xd8>
  102528:	e51b3008 	ldr	r3, [fp, #-8]
  10252c:	e1a00003 	mov	r0, r3
  102530:	e24bd004 	sub	sp, fp, #4
  102534:	e8bd8800 	pop	{fp, pc}

00102538 <ad77681_gpio_write>:
  102538:	e92d4800 	push	{fp, lr}
  10253c:	e28db004 	add	fp, sp, #4
  102540:	e24dd010 	sub	sp, sp, #16
  102544:	e50b0010 	str	r0, [fp, #-16]
  102548:	e1a03001 	mov	r3, r1
  10254c:	e54b3011 	strb	r3, [fp, #-17]	; 0xffffffef
  102550:	e1a03002 	mov	r3, r2
  102554:	e54b3012 	strb	r3, [fp, #-18]	; 0xffffffee
  102558:	e55b3012 	ldrb	r3, [fp, #-18]	; 0xffffffee
  10255c:	e3530004 	cmp	r3, #4
  102560:	979ff103 	ldrls	pc, [pc, r3, lsl #2]
  102564:	ea000037 	b	102648 <ad77681_gpio_write+0x110>
  102568:	0010257c 	.word	0x0010257c
  10256c:	001025a0 	.word	0x001025a0
  102570:	001025cc 	.word	0x001025cc
  102574:	001025f8 	.word	0x001025f8
  102578:	00102624 	.word	0x00102624
  10257c:	e55b3011 	ldrb	r3, [fp, #-17]	; 0xffffffef
  102580:	e2033001 	and	r3, r3, #1
  102584:	e6ef3073 	uxtb	r3, r3
  102588:	e3a02001 	mov	r2, #1
  10258c:	e3a0101f 	mov	r1, #31
  102590:	e51b0010 	ldr	r0, [fp, #-16]
  102594:	ebfff974 	bl	100b6c <ad77681_spi_write_mask>
  102598:	e50b0008 	str	r0, [fp, #-8]
  10259c:	ea00002b 	b	102650 <ad77681_gpio_write+0x118>
  1025a0:	e55b3011 	ldrb	r3, [fp, #-17]	; 0xffffffef
  1025a4:	e1a03083 	lsl	r3, r3, #1
  1025a8:	e6ef3073 	uxtb	r3, r3
  1025ac:	e2033002 	and	r3, r3, #2
  1025b0:	e6ef3073 	uxtb	r3, r3
  1025b4:	e3a02002 	mov	r2, #2
  1025b8:	e3a0101f 	mov	r1, #31
  1025bc:	e51b0010 	ldr	r0, [fp, #-16]
  1025c0:	ebfff969 	bl	100b6c <ad77681_spi_write_mask>
  1025c4:	e50b0008 	str	r0, [fp, #-8]
  1025c8:	ea000020 	b	102650 <ad77681_gpio_write+0x118>
  1025cc:	e55b3011 	ldrb	r3, [fp, #-17]	; 0xffffffef
  1025d0:	e1a03103 	lsl	r3, r3, #2
  1025d4:	e6ef3073 	uxtb	r3, r3
  1025d8:	e2033004 	and	r3, r3, #4
  1025dc:	e6ef3073 	uxtb	r3, r3
  1025e0:	e3a02004 	mov	r2, #4
  1025e4:	e3a0101f 	mov	r1, #31
  1025e8:	e51b0010 	ldr	r0, [fp, #-16]
  1025ec:	ebfff95e 	bl	100b6c <ad77681_spi_write_mask>
  1025f0:	e50b0008 	str	r0, [fp, #-8]
  1025f4:	ea000015 	b	102650 <ad77681_gpio_write+0x118>
  1025f8:	e55b3011 	ldrb	r3, [fp, #-17]	; 0xffffffef
  1025fc:	e1a03183 	lsl	r3, r3, #3
  102600:	e6ef3073 	uxtb	r3, r3
  102604:	e2033008 	and	r3, r3, #8
  102608:	e6ef3073 	uxtb	r3, r3
  10260c:	e3a02008 	mov	r2, #8
  102610:	e3a0101f 	mov	r1, #31
  102614:	e51b0010 	ldr	r0, [fp, #-16]
  102618:	ebfff953 	bl	100b6c <ad77681_spi_write_mask>
  10261c:	e50b0008 	str	r0, [fp, #-8]
  102620:	ea00000a 	b	102650 <ad77681_gpio_write+0x118>
  102624:	e55b3011 	ldrb	r3, [fp, #-17]	; 0xffffffef
  102628:	e203300f 	and	r3, r3, #15
  10262c:	e6ef3073 	uxtb	r3, r3
  102630:	e3a0200f 	mov	r2, #15
  102634:	e3a0101f 	mov	r1, #31
  102638:	e51b0010 	ldr	r0, [fp, #-16]
  10263c:	ebfff94a 	bl	100b6c <ad77681_spi_write_mask>
  102640:	e50b0008 	str	r0, [fp, #-8]
  102644:	ea000001 	b	102650 <ad77681_gpio_write+0x118>
  102648:	e3e03000 	mvn	r3, #0
  10264c:	ea000000 	b	102654 <ad77681_gpio_write+0x11c>
  102650:	e51b3008 	ldr	r3, [fp, #-8]
  102654:	e1a00003 	mov	r0, r3
  102658:	e24bd004 	sub	sp, fp, #4
  10265c:	e8bd8800 	pop	{fp, pc}

00102660 <ad77681_gpio_inout>:
  102660:	e92d4800 	push	{fp, lr}
  102664:	e28db004 	add	fp, sp, #4
  102668:	e24dd010 	sub	sp, sp, #16
  10266c:	e50b0010 	str	r0, [fp, #-16]
  102670:	e1a03001 	mov	r3, r1
  102674:	e54b3011 	strb	r3, [fp, #-17]	; 0xffffffef
  102678:	e1a03002 	mov	r3, r2
  10267c:	e54b3012 	strb	r3, [fp, #-18]	; 0xffffffee
  102680:	e55b3012 	ldrb	r3, [fp, #-18]	; 0xffffffee
  102684:	e3530004 	cmp	r3, #4
  102688:	979ff103 	ldrls	pc, [pc, r3, lsl #2]
  10268c:	ea000037 	b	102770 <ad77681_gpio_inout+0x110>
  102690:	001026a4 	.word	0x001026a4
  102694:	001026c8 	.word	0x001026c8
  102698:	001026f4 	.word	0x001026f4
  10269c:	00102720 	.word	0x00102720
  1026a0:	0010274c 	.word	0x0010274c
  1026a4:	e55b3011 	ldrb	r3, [fp, #-17]	; 0xffffffef
  1026a8:	e2033001 	and	r3, r3, #1
  1026ac:	e6ef3073 	uxtb	r3, r3
  1026b0:	e3a02001 	mov	r2, #1
  1026b4:	e3a0101e 	mov	r1, #30
  1026b8:	e51b0010 	ldr	r0, [fp, #-16]
  1026bc:	ebfff92a 	bl	100b6c <ad77681_spi_write_mask>
  1026c0:	e50b0008 	str	r0, [fp, #-8]
  1026c4:	ea00002b 	b	102778 <ad77681_gpio_inout+0x118>
  1026c8:	e55b3011 	ldrb	r3, [fp, #-17]	; 0xffffffef
  1026cc:	e1a03083 	lsl	r3, r3, #1
  1026d0:	e6ef3073 	uxtb	r3, r3
  1026d4:	e2033002 	and	r3, r3, #2
  1026d8:	e6ef3073 	uxtb	r3, r3
  1026dc:	e3a02002 	mov	r2, #2
  1026e0:	e3a0101e 	mov	r1, #30
  1026e4:	e51b0010 	ldr	r0, [fp, #-16]
  1026e8:	ebfff91f 	bl	100b6c <ad77681_spi_write_mask>
  1026ec:	e50b0008 	str	r0, [fp, #-8]
  1026f0:	ea000020 	b	102778 <ad77681_gpio_inout+0x118>
  1026f4:	e55b3011 	ldrb	r3, [fp, #-17]	; 0xffffffef
  1026f8:	e1a03103 	lsl	r3, r3, #2
  1026fc:	e6ef3073 	uxtb	r3, r3
  102700:	e2033004 	and	r3, r3, #4
  102704:	e6ef3073 	uxtb	r3, r3
  102708:	e3a02004 	mov	r2, #4
  10270c:	e3a0101e 	mov	r1, #30
  102710:	e51b0010 	ldr	r0, [fp, #-16]
  102714:	ebfff914 	bl	100b6c <ad77681_spi_write_mask>
  102718:	e50b0008 	str	r0, [fp, #-8]
  10271c:	ea000015 	b	102778 <ad77681_gpio_inout+0x118>
  102720:	e55b3011 	ldrb	r3, [fp, #-17]	; 0xffffffef
  102724:	e1a03183 	lsl	r3, r3, #3
  102728:	e6ef3073 	uxtb	r3, r3
  10272c:	e2033008 	and	r3, r3, #8
  102730:	e6ef3073 	uxtb	r3, r3
  102734:	e3a02008 	mov	r2, #8
  102738:	e3a0101e 	mov	r1, #30
  10273c:	e51b0010 	ldr	r0, [fp, #-16]
  102740:	ebfff909 	bl	100b6c <ad77681_spi_write_mask>
  102744:	e50b0008 	str	r0, [fp, #-8]
  102748:	ea00000a 	b	102778 <ad77681_gpio_inout+0x118>
  10274c:	e55b3011 	ldrb	r3, [fp, #-17]	; 0xffffffef
  102750:	e203300f 	and	r3, r3, #15
  102754:	e6ef3073 	uxtb	r3, r3
  102758:	e3a0200f 	mov	r2, #15
  10275c:	e3a0101e 	mov	r1, #30
  102760:	e51b0010 	ldr	r0, [fp, #-16]
  102764:	ebfff900 	bl	100b6c <ad77681_spi_write_mask>
  102768:	e50b0008 	str	r0, [fp, #-8]
  10276c:	ea000001 	b	102778 <ad77681_gpio_inout+0x118>
  102770:	e3e03000 	mvn	r3, #0
  102774:	ea000000 	b	10277c <ad77681_gpio_inout+0x11c>
  102778:	e51b3008 	ldr	r3, [fp, #-8]
  10277c:	e1a00003 	mov	r0, r3
  102780:	e24bd004 	sub	sp, fp, #4
  102784:	e8bd8800 	pop	{fp, pc}

00102788 <ad77681_global_gpio>:
  102788:	e92d4800 	push	{fp, lr}
  10278c:	e28db004 	add	fp, sp, #4
  102790:	e24dd008 	sub	sp, sp, #8
  102794:	e50b0008 	str	r0, [fp, #-8]
  102798:	e1a03001 	mov	r3, r1
  10279c:	e54b3009 	strb	r3, [fp, #-9]
  1027a0:	e55b3009 	ldrb	r3, [fp, #-9]
  1027a4:	e1a03383 	lsl	r3, r3, #7
  1027a8:	e6ef3073 	uxtb	r3, r3
  1027ac:	e3a02080 	mov	r2, #128	; 0x80
  1027b0:	e3a0101e 	mov	r1, #30
  1027b4:	e51b0008 	ldr	r0, [fp, #-8]
  1027b8:	ebfff8eb 	bl	100b6c <ad77681_spi_write_mask>
  1027bc:	e1a03000 	mov	r3, r0
  1027c0:	e1a00003 	mov	r0, r3
  1027c4:	e24bd004 	sub	sp, fp, #4
  1027c8:	e8bd8800 	pop	{fp, pc}

001027cc <ad77681_scratchpad>:
  1027cc:	e92d4800 	push	{fp, lr}
  1027d0:	e28db004 	add	fp, sp, #4
  1027d4:	e24dd018 	sub	sp, sp, #24
  1027d8:	e50b0018 	str	r0, [fp, #-24]	; 0xffffffe8
  1027dc:	e50b101c 	str	r1, [fp, #-28]	; 0xffffffe4
  1027e0:	e3000a18 	movw	r0, #2584	; 0xa18
  1027e4:	e3400012 	movt	r0, #18
  1027e8:	eb004ab3 	bl	1152bc <puts>
  1027ec:	e51b301c 	ldr	r3, [fp, #-28]	; 0xffffffe4
  1027f0:	e5d33000 	ldrb	r3, [r3]
  1027f4:	e54b3005 	strb	r3, [fp, #-5]
  1027f8:	e3a03000 	mov	r3, #0
  1027fc:	e54b300d 	strb	r3, [fp, #-13]
  102800:	e55b3005 	ldrb	r3, [fp, #-5]
  102804:	e3a020ff 	mov	r2, #255	; 0xff
  102808:	e3a0100a 	mov	r1, #10
  10280c:	e51b0018 	ldr	r0, [fp, #-24]	; 0xffffffe8
  102810:	ebfff8d5 	bl	100b6c <ad77681_spi_write_mask>
  102814:	e50b000c 	str	r0, [fp, #-12]
  102818:	e24b300d 	sub	r3, fp, #13
  10281c:	e3a020ff 	mov	r2, #255	; 0xff
  102820:	e3a0100a 	mov	r1, #10
  102824:	e51b0018 	ldr	r0, [fp, #-24]	; 0xffffffe8
  102828:	ebfff8b6 	bl	100b08 <ad77681_spi_read_mask>
  10282c:	e1a02000 	mov	r2, r0
  102830:	e51b300c 	ldr	r3, [fp, #-12]
  102834:	e1833002 	orr	r3, r3, r2
  102838:	e50b300c 	str	r3, [fp, #-12]
  10283c:	e55b300d 	ldrb	r3, [fp, #-13]
  102840:	e55b2005 	ldrb	r2, [fp, #-5]
  102844:	e1520003 	cmp	r2, r3
  102848:	0a000001 	beq	102854 <ad77681_scratchpad+0x88>
  10284c:	e3e03000 	mvn	r3, #0
  102850:	ea000000 	b	102858 <ad77681_scratchpad+0x8c>
  102854:	e51b300c 	ldr	r3, [fp, #-12]
  102858:	e1a00003 	mov	r0, r3
  10285c:	e24bd004 	sub	sp, fp, #4
  102860:	e8bd8800 	pop	{fp, pc}

00102864 <ad77681_gpio_open_drain>:
  102864:	e92d4800 	push	{fp, lr}
  102868:	e28db004 	add	fp, sp, #4
  10286c:	e24dd010 	sub	sp, sp, #16
  102870:	e50b0010 	str	r0, [fp, #-16]
  102874:	e1a03001 	mov	r3, r1
  102878:	e54b3011 	strb	r3, [fp, #-17]	; 0xffffffef
  10287c:	e1a03002 	mov	r3, r2
  102880:	e54b3012 	strb	r3, [fp, #-18]	; 0xffffffee
  102884:	e55b3011 	ldrb	r3, [fp, #-17]	; 0xffffffef
  102888:	e3530004 	cmp	r3, #4
  10288c:	979ff103 	ldrls	pc, [pc, r3, lsl #2]
  102890:	ea000030 	b	102958 <ad77681_gpio_open_drain+0xf4>
  102894:	001028a8 	.word	0x001028a8
  102898:	001028d4 	.word	0x001028d4
  10289c:	00102900 	.word	0x00102900
  1028a0:	00102958 	.word	0x00102958
  1028a4:	0010292c 	.word	0x0010292c
  1028a8:	e55b3012 	ldrb	r3, [fp, #-18]	; 0xffffffee
  1028ac:	e1a03203 	lsl	r3, r3, #4
  1028b0:	e6ef3073 	uxtb	r3, r3
  1028b4:	e2033010 	and	r3, r3, #16
  1028b8:	e6ef3073 	uxtb	r3, r3
  1028bc:	e3a02010 	mov	r2, #16
  1028c0:	e3a0101e 	mov	r1, #30
  1028c4:	e51b0010 	ldr	r0, [fp, #-16]
  1028c8:	ebfff8a7 	bl	100b6c <ad77681_spi_write_mask>
  1028cc:	e50b0008 	str	r0, [fp, #-8]
  1028d0:	ea000022 	b	102960 <ad77681_gpio_open_drain+0xfc>
  1028d4:	e55b3012 	ldrb	r3, [fp, #-18]	; 0xffffffee
  1028d8:	e1a03283 	lsl	r3, r3, #5
  1028dc:	e6ef3073 	uxtb	r3, r3
  1028e0:	e2033020 	and	r3, r3, #32
  1028e4:	e6ef3073 	uxtb	r3, r3
  1028e8:	e3a02020 	mov	r2, #32
  1028ec:	e3a0101e 	mov	r1, #30
  1028f0:	e51b0010 	ldr	r0, [fp, #-16]
  1028f4:	ebfff89c 	bl	100b6c <ad77681_spi_write_mask>
  1028f8:	e50b0008 	str	r0, [fp, #-8]
  1028fc:	ea000017 	b	102960 <ad77681_gpio_open_drain+0xfc>
  102900:	e55b3012 	ldrb	r3, [fp, #-18]	; 0xffffffee
  102904:	e1a03303 	lsl	r3, r3, #6
  102908:	e6ef3073 	uxtb	r3, r3
  10290c:	e2033040 	and	r3, r3, #64	; 0x40
  102910:	e6ef3073 	uxtb	r3, r3
  102914:	e3a02040 	mov	r2, #64	; 0x40
  102918:	e3a0101e 	mov	r1, #30
  10291c:	e51b0010 	ldr	r0, [fp, #-16]
  102920:	ebfff891 	bl	100b6c <ad77681_spi_write_mask>
  102924:	e50b0008 	str	r0, [fp, #-8]
  102928:	ea00000c 	b	102960 <ad77681_gpio_open_drain+0xfc>
  10292c:	e55b3012 	ldrb	r3, [fp, #-18]	; 0xffffffee
  102930:	e1a03203 	lsl	r3, r3, #4
  102934:	e6ef3073 	uxtb	r3, r3
  102938:	e2033070 	and	r3, r3, #112	; 0x70
  10293c:	e6ef3073 	uxtb	r3, r3
  102940:	e3a02070 	mov	r2, #112	; 0x70
  102944:	e3a0101e 	mov	r1, #30
  102948:	e51b0010 	ldr	r0, [fp, #-16]
  10294c:	ebfff886 	bl	100b6c <ad77681_spi_write_mask>
  102950:	e50b0008 	str	r0, [fp, #-8]
  102954:	ea000001 	b	102960 <ad77681_gpio_open_drain+0xfc>
  102958:	e3e03000 	mvn	r3, #0
  10295c:	ea000000 	b	102964 <ad77681_gpio_open_drain+0x100>
  102960:	e51b3008 	ldr	r3, [fp, #-8]
  102964:	e1a00003 	mov	r0, r3
  102968:	e24bd004 	sub	sp, fp, #4
  10296c:	e8bd8800 	pop	{fp, pc}

00102970 <ad77681_clear_error_flags>:
  102970:	e92d4800 	push	{fp, lr}
  102974:	e28db004 	add	fp, sp, #4
  102978:	e24dd010 	sub	sp, sp, #16
  10297c:	e50b0010 	str	r0, [fp, #-16]
  102980:	e3a03010 	mov	r3, #16
  102984:	e3a02010 	mov	r2, #16
  102988:	e3a0102e 	mov	r1, #46	; 0x2e
  10298c:	e51b0010 	ldr	r0, [fp, #-16]
  102990:	ebfff875 	bl	100b6c <ad77681_spi_write_mask>
  102994:	e50b0008 	str	r0, [fp, #-8]
  102998:	e3a03004 	mov	r3, #4
  10299c:	e3a02004 	mov	r2, #4
  1029a0:	e3a0102e 	mov	r1, #46	; 0x2e
  1029a4:	e51b0010 	ldr	r0, [fp, #-16]
  1029a8:	ebfff86f 	bl	100b6c <ad77681_spi_write_mask>
  1029ac:	e1a02000 	mov	r2, r0
  1029b0:	e51b3008 	ldr	r3, [fp, #-8]
  1029b4:	e1833002 	orr	r3, r3, r2
  1029b8:	e50b3008 	str	r3, [fp, #-8]
  1029bc:	e3a03002 	mov	r3, #2
  1029c0:	e3a02002 	mov	r2, #2
  1029c4:	e3a0102e 	mov	r1, #46	; 0x2e
  1029c8:	e51b0010 	ldr	r0, [fp, #-16]
  1029cc:	ebfff866 	bl	100b6c <ad77681_spi_write_mask>
  1029d0:	e1a02000 	mov	r2, r0
  1029d4:	e51b3008 	ldr	r3, [fp, #-8]
  1029d8:	e1833002 	orr	r3, r3, r2
  1029dc:	e50b3008 	str	r3, [fp, #-8]
  1029e0:	e3a03001 	mov	r3, #1
  1029e4:	e3a02001 	mov	r2, #1
  1029e8:	e3a0102e 	mov	r1, #46	; 0x2e
  1029ec:	e51b0010 	ldr	r0, [fp, #-16]
  1029f0:	ebfff85d 	bl	100b6c <ad77681_spi_write_mask>
  1029f4:	e1a02000 	mov	r2, r0
  1029f8:	e51b3008 	ldr	r3, [fp, #-8]
  1029fc:	e1833002 	orr	r3, r3, r2
  102a00:	e50b3008 	str	r3, [fp, #-8]
  102a04:	e51b3008 	ldr	r3, [fp, #-8]
  102a08:	e1a00003 	mov	r0, r3
  102a0c:	e24bd004 	sub	sp, fp, #4
  102a10:	e8bd8800 	pop	{fp, pc}

00102a14 <ad77681_error_flags_enabe>:
  102a14:	e92d4800 	push	{fp, lr}
  102a18:	e28db004 	add	fp, sp, #4
  102a1c:	e24dd010 	sub	sp, sp, #16
  102a20:	e50b0010 	str	r0, [fp, #-16]
  102a24:	e3a03010 	mov	r3, #16
  102a28:	e3a02010 	mov	r2, #16
  102a2c:	e3a01028 	mov	r1, #40	; 0x28
  102a30:	e51b0010 	ldr	r0, [fp, #-16]
  102a34:	ebfff84c 	bl	100b6c <ad77681_spi_write_mask>
  102a38:	e50b0008 	str	r0, [fp, #-8]
  102a3c:	e3a03008 	mov	r3, #8
  102a40:	e3a02008 	mov	r2, #8
  102a44:	e3a01028 	mov	r1, #40	; 0x28
  102a48:	e51b0010 	ldr	r0, [fp, #-16]
  102a4c:	ebfff846 	bl	100b6c <ad77681_spi_write_mask>
  102a50:	e1a02000 	mov	r2, r0
  102a54:	e51b3008 	ldr	r3, [fp, #-8]
  102a58:	e1833002 	orr	r3, r3, r2
  102a5c:	e50b3008 	str	r3, [fp, #-8]
  102a60:	e3a03004 	mov	r3, #4
  102a64:	e3a02004 	mov	r2, #4
  102a68:	e3a01028 	mov	r1, #40	; 0x28
  102a6c:	e51b0010 	ldr	r0, [fp, #-16]
  102a70:	ebfff83d 	bl	100b6c <ad77681_spi_write_mask>
  102a74:	e1a02000 	mov	r2, r0
  102a78:	e51b3008 	ldr	r3, [fp, #-8]
  102a7c:	e1833002 	orr	r3, r3, r2
  102a80:	e50b3008 	str	r3, [fp, #-8]
  102a84:	e3a03002 	mov	r3, #2
  102a88:	e3a02002 	mov	r2, #2
  102a8c:	e3a01028 	mov	r1, #40	; 0x28
  102a90:	e51b0010 	ldr	r0, [fp, #-16]
  102a94:	ebfff834 	bl	100b6c <ad77681_spi_write_mask>
  102a98:	e1a02000 	mov	r2, r0
  102a9c:	e51b3008 	ldr	r3, [fp, #-8]
  102aa0:	e1833002 	orr	r3, r3, r2
  102aa4:	e50b3008 	str	r3, [fp, #-8]
  102aa8:	e3a03020 	mov	r3, #32
  102aac:	e3a02020 	mov	r2, #32
  102ab0:	e3a01029 	mov	r1, #41	; 0x29
  102ab4:	e51b0010 	ldr	r0, [fp, #-16]
  102ab8:	ebfff82b 	bl	100b6c <ad77681_spi_write_mask>
  102abc:	e1a02000 	mov	r2, r0
  102ac0:	e51b3008 	ldr	r3, [fp, #-8]
  102ac4:	e1833002 	orr	r3, r3, r2
  102ac8:	e50b3008 	str	r3, [fp, #-8]
  102acc:	e3a03010 	mov	r3, #16
  102ad0:	e3a02010 	mov	r2, #16
  102ad4:	e3a01029 	mov	r1, #41	; 0x29
  102ad8:	e51b0010 	ldr	r0, [fp, #-16]
  102adc:	ebfff822 	bl	100b6c <ad77681_spi_write_mask>
  102ae0:	e1a02000 	mov	r2, r0
  102ae4:	e51b3008 	ldr	r3, [fp, #-8]
  102ae8:	e1833002 	orr	r3, r3, r2
  102aec:	e50b3008 	str	r3, [fp, #-8]
  102af0:	e3a03004 	mov	r3, #4
  102af4:	e3a02004 	mov	r2, #4
  102af8:	e3a01029 	mov	r1, #41	; 0x29
  102afc:	e51b0010 	ldr	r0, [fp, #-16]
  102b00:	ebfff819 	bl	100b6c <ad77681_spi_write_mask>
  102b04:	e1a02000 	mov	r2, r0
  102b08:	e51b3008 	ldr	r3, [fp, #-8]
  102b0c:	e1833002 	orr	r3, r3, r2
  102b10:	e50b3008 	str	r3, [fp, #-8]
  102b14:	e3a03002 	mov	r3, #2
  102b18:	e3a02002 	mov	r2, #2
  102b1c:	e3a01029 	mov	r1, #41	; 0x29
  102b20:	e51b0010 	ldr	r0, [fp, #-16]
  102b24:	ebfff810 	bl	100b6c <ad77681_spi_write_mask>
  102b28:	e1a02000 	mov	r2, r0
  102b2c:	e51b3008 	ldr	r3, [fp, #-8]
  102b30:	e1833002 	orr	r3, r3, r2
  102b34:	e50b3008 	str	r3, [fp, #-8]
  102b38:	e3a03001 	mov	r3, #1
  102b3c:	e3a02001 	mov	r2, #1
  102b40:	e3a01029 	mov	r1, #41	; 0x29
  102b44:	e51b0010 	ldr	r0, [fp, #-16]
  102b48:	ebfff807 	bl	100b6c <ad77681_spi_write_mask>
  102b4c:	e1a02000 	mov	r2, r0
  102b50:	e51b3008 	ldr	r3, [fp, #-8]
  102b54:	e1833002 	orr	r3, r3, r2
  102b58:	e50b3008 	str	r3, [fp, #-8]
  102b5c:	e3a03010 	mov	r3, #16
  102b60:	e3a02010 	mov	r2, #16
  102b64:	e3a0102a 	mov	r1, #42	; 0x2a
  102b68:	e51b0010 	ldr	r0, [fp, #-16]
  102b6c:	ebfff7fe 	bl	100b6c <ad77681_spi_write_mask>
  102b70:	e1a02000 	mov	r2, r0
  102b74:	e51b3008 	ldr	r3, [fp, #-8]
  102b78:	e1833002 	orr	r3, r3, r2
  102b7c:	e50b3008 	str	r3, [fp, #-8]
  102b80:	e3a03008 	mov	r3, #8
  102b84:	e3a02008 	mov	r2, #8
  102b88:	e3a0102a 	mov	r1, #42	; 0x2a
  102b8c:	e51b0010 	ldr	r0, [fp, #-16]
  102b90:	ebfff7f5 	bl	100b6c <ad77681_spi_write_mask>
  102b94:	e1a02000 	mov	r2, r0
  102b98:	e51b3008 	ldr	r3, [fp, #-8]
  102b9c:	e1833002 	orr	r3, r3, r2
  102ba0:	e50b3008 	str	r3, [fp, #-8]
  102ba4:	e3a03004 	mov	r3, #4
  102ba8:	e3a02004 	mov	r2, #4
  102bac:	e3a0102a 	mov	r1, #42	; 0x2a
  102bb0:	e51b0010 	ldr	r0, [fp, #-16]
  102bb4:	ebfff7ec 	bl	100b6c <ad77681_spi_write_mask>
  102bb8:	e1a02000 	mov	r2, r0
  102bbc:	e51b3008 	ldr	r3, [fp, #-8]
  102bc0:	e1833002 	orr	r3, r3, r2
  102bc4:	e50b3008 	str	r3, [fp, #-8]
  102bc8:	e3a03001 	mov	r3, #1
  102bcc:	e3a02001 	mov	r2, #1
  102bd0:	e3a0102a 	mov	r1, #42	; 0x2a
  102bd4:	e51b0010 	ldr	r0, [fp, #-16]
  102bd8:	ebfff7e3 	bl	100b6c <ad77681_spi_write_mask>
  102bdc:	e1a02000 	mov	r2, r0
  102be0:	e51b3008 	ldr	r3, [fp, #-8]
  102be4:	e1833002 	orr	r3, r3, r2
  102be8:	e50b3008 	str	r3, [fp, #-8]
  102bec:	e51b3008 	ldr	r3, [fp, #-8]
  102bf0:	e1a00003 	mov	r0, r3
  102bf4:	e24bd004 	sub	sp, fp, #4
  102bf8:	e8bd8800 	pop	{fp, pc}

00102bfc <ad77681_status>:
  102bfc:	e92d4800 	push	{fp, lr}
  102c00:	e28db004 	add	fp, sp, #4
  102c04:	e24dd010 	sub	sp, sp, #16
  102c08:	e50b0010 	str	r0, [fp, #-16]
  102c0c:	e50b1014 	str	r1, [fp, #-20]	; 0xffffffec
  102c10:	e24b300c 	sub	r3, fp, #12
  102c14:	e1a02003 	mov	r2, r3
  102c18:	e3a0102d 	mov	r1, #45	; 0x2d
  102c1c:	e51b0010 	ldr	r0, [fp, #-16]
  102c20:	ebfff730 	bl	1008e8 <ad77681_spi_reg_read>
  102c24:	e50b0008 	str	r0, [fp, #-8]
  102c28:	e55b300b 	ldrb	r3, [fp, #-11]
  102c2c:	e2033080 	and	r3, r3, #128	; 0x80
  102c30:	e3530000 	cmp	r3, #0
  102c34:	13a03001 	movne	r3, #1
  102c38:	03a03000 	moveq	r3, #0
  102c3c:	e6ef2073 	uxtb	r2, r3
  102c40:	e51b3014 	ldr	r3, [fp, #-20]	; 0xffffffec
  102c44:	e5c32000 	strb	r2, [r3]
  102c48:	e55b300b 	ldrb	r3, [fp, #-11]
  102c4c:	e2033040 	and	r3, r3, #64	; 0x40
  102c50:	e3530000 	cmp	r3, #0
  102c54:	13a03001 	movne	r3, #1
  102c58:	03a03000 	moveq	r3, #0
  102c5c:	e6ef2073 	uxtb	r2, r3
  102c60:	e51b3014 	ldr	r3, [fp, #-20]	; 0xffffffec
  102c64:	e5c32001 	strb	r2, [r3, #1]
  102c68:	e55b300b 	ldrb	r3, [fp, #-11]
  102c6c:	e2033020 	and	r3, r3, #32
  102c70:	e3530000 	cmp	r3, #0
  102c74:	13a03001 	movne	r3, #1
  102c78:	03a03000 	moveq	r3, #0
  102c7c:	e6ef2073 	uxtb	r2, r3
  102c80:	e51b3014 	ldr	r3, [fp, #-20]	; 0xffffffec
  102c84:	e5c32002 	strb	r2, [r3, #2]
  102c88:	e55b300b 	ldrb	r3, [fp, #-11]
  102c8c:	e2033010 	and	r3, r3, #16
  102c90:	e3530000 	cmp	r3, #0
  102c94:	13a03001 	movne	r3, #1
  102c98:	03a03000 	moveq	r3, #0
  102c9c:	e6ef2073 	uxtb	r2, r3
  102ca0:	e51b3014 	ldr	r3, [fp, #-20]	; 0xffffffec
  102ca4:	e5c32003 	strb	r2, [r3, #3]
  102ca8:	e55b300b 	ldrb	r3, [fp, #-11]
  102cac:	e2033008 	and	r3, r3, #8
  102cb0:	e3530000 	cmp	r3, #0
  102cb4:	13a03001 	movne	r3, #1
  102cb8:	03a03000 	moveq	r3, #0
  102cbc:	e6ef2073 	uxtb	r2, r3
  102cc0:	e51b3014 	ldr	r3, [fp, #-20]	; 0xffffffec
  102cc4:	e5c32004 	strb	r2, [r3, #4]
  102cc8:	e55b300b 	ldrb	r3, [fp, #-11]
  102ccc:	e2033004 	and	r3, r3, #4
  102cd0:	e3530000 	cmp	r3, #0
  102cd4:	13a03001 	movne	r3, #1
  102cd8:	03a03000 	moveq	r3, #0
  102cdc:	e6ef2073 	uxtb	r2, r3
  102ce0:	e51b3014 	ldr	r3, [fp, #-20]	; 0xffffffec
  102ce4:	e5c32005 	strb	r2, [r3, #5]
  102ce8:	e55b300b 	ldrb	r3, [fp, #-11]
  102cec:	e2033002 	and	r3, r3, #2
  102cf0:	e3530000 	cmp	r3, #0
  102cf4:	13a03001 	movne	r3, #1
  102cf8:	03a03000 	moveq	r3, #0
  102cfc:	e6ef2073 	uxtb	r2, r3
  102d00:	e51b3014 	ldr	r3, [fp, #-20]	; 0xffffffec
  102d04:	e5c32006 	strb	r2, [r3, #6]
  102d08:	e55b300b 	ldrb	r3, [fp, #-11]
  102d0c:	e2033001 	and	r3, r3, #1
  102d10:	e3530000 	cmp	r3, #0
  102d14:	13a03001 	movne	r3, #1
  102d18:	03a03000 	moveq	r3, #0
  102d1c:	e6ef2073 	uxtb	r2, r3
  102d20:	e51b3014 	ldr	r3, [fp, #-20]	; 0xffffffec
  102d24:	e5c32007 	strb	r2, [r3, #7]
  102d28:	e24b300c 	sub	r3, fp, #12
  102d2c:	e1a02003 	mov	r2, r3
  102d30:	e3a0102e 	mov	r1, #46	; 0x2e
  102d34:	e51b0010 	ldr	r0, [fp, #-16]
  102d38:	ebfff6ea 	bl	1008e8 <ad77681_spi_reg_read>
  102d3c:	e1a02000 	mov	r2, r0
  102d40:	e51b3008 	ldr	r3, [fp, #-8]
  102d44:	e1833002 	orr	r3, r3, r2
  102d48:	e50b3008 	str	r3, [fp, #-8]
  102d4c:	e55b300b 	ldrb	r3, [fp, #-11]
  102d50:	e2033010 	and	r3, r3, #16
  102d54:	e3530000 	cmp	r3, #0
  102d58:	13a03001 	movne	r3, #1
  102d5c:	03a03000 	moveq	r3, #0
  102d60:	e6ef2073 	uxtb	r2, r3
  102d64:	e51b3014 	ldr	r3, [fp, #-20]	; 0xffffffec
  102d68:	e5c32008 	strb	r2, [r3, #8]
  102d6c:	e55b300b 	ldrb	r3, [fp, #-11]
  102d70:	e2033008 	and	r3, r3, #8
  102d74:	e3530000 	cmp	r3, #0
  102d78:	13a03001 	movne	r3, #1
  102d7c:	03a03000 	moveq	r3, #0
  102d80:	e6ef2073 	uxtb	r2, r3
  102d84:	e51b3014 	ldr	r3, [fp, #-20]	; 0xffffffec
  102d88:	e5c32009 	strb	r2, [r3, #9]
  102d8c:	e55b300b 	ldrb	r3, [fp, #-11]
  102d90:	e2033004 	and	r3, r3, #4
  102d94:	e3530000 	cmp	r3, #0
  102d98:	13a03001 	movne	r3, #1
  102d9c:	03a03000 	moveq	r3, #0
  102da0:	e6ef2073 	uxtb	r2, r3
  102da4:	e51b3014 	ldr	r3, [fp, #-20]	; 0xffffffec
  102da8:	e5c3200a 	strb	r2, [r3, #10]
  102dac:	e55b300b 	ldrb	r3, [fp, #-11]
  102db0:	e2033002 	and	r3, r3, #2
  102db4:	e3530000 	cmp	r3, #0
  102db8:	13a03001 	movne	r3, #1
  102dbc:	03a03000 	moveq	r3, #0
  102dc0:	e6ef2073 	uxtb	r2, r3
  102dc4:	e51b3014 	ldr	r3, [fp, #-20]	; 0xffffffec
  102dc8:	e5c3200b 	strb	r2, [r3, #11]
  102dcc:	e55b300b 	ldrb	r3, [fp, #-11]
  102dd0:	e2033001 	and	r3, r3, #1
  102dd4:	e3530000 	cmp	r3, #0
  102dd8:	13a03001 	movne	r3, #1
  102ddc:	03a03000 	moveq	r3, #0
  102de0:	e6ef2073 	uxtb	r2, r3
  102de4:	e51b3014 	ldr	r3, [fp, #-20]	; 0xffffffec
  102de8:	e5c3200c 	strb	r2, [r3, #12]
  102dec:	e24b300c 	sub	r3, fp, #12
  102df0:	e1a02003 	mov	r2, r3
  102df4:	e3a0102f 	mov	r1, #47	; 0x2f
  102df8:	e51b0010 	ldr	r0, [fp, #-16]
  102dfc:	ebfff6b9 	bl	1008e8 <ad77681_spi_reg_read>
  102e00:	e1a02000 	mov	r2, r0
  102e04:	e51b3008 	ldr	r3, [fp, #-8]
  102e08:	e1833002 	orr	r3, r3, r2
  102e0c:	e50b3008 	str	r3, [fp, #-8]
  102e10:	e55b300b 	ldrb	r3, [fp, #-11]
  102e14:	e2033020 	and	r3, r3, #32
  102e18:	e3530000 	cmp	r3, #0
  102e1c:	13a03001 	movne	r3, #1
  102e20:	03a03000 	moveq	r3, #0
  102e24:	e6ef2073 	uxtb	r2, r3
  102e28:	e51b3014 	ldr	r3, [fp, #-20]	; 0xffffffec
  102e2c:	e5c3200d 	strb	r2, [r3, #13]
  102e30:	e55b300b 	ldrb	r3, [fp, #-11]
  102e34:	e2033010 	and	r3, r3, #16
  102e38:	e3530000 	cmp	r3, #0
  102e3c:	13a03001 	movne	r3, #1
  102e40:	03a03000 	moveq	r3, #0
  102e44:	e6ef2073 	uxtb	r2, r3
  102e48:	e51b3014 	ldr	r3, [fp, #-20]	; 0xffffffec
  102e4c:	e5c3200e 	strb	r2, [r3, #14]
  102e50:	e55b300b 	ldrb	r3, [fp, #-11]
  102e54:	e2033008 	and	r3, r3, #8
  102e58:	e3530000 	cmp	r3, #0
  102e5c:	13a03001 	movne	r3, #1
  102e60:	03a03000 	moveq	r3, #0
  102e64:	e6ef2073 	uxtb	r2, r3
  102e68:	e51b3014 	ldr	r3, [fp, #-20]	; 0xffffffec
  102e6c:	e5c3200f 	strb	r2, [r3, #15]
  102e70:	e55b300b 	ldrb	r3, [fp, #-11]
  102e74:	e2033004 	and	r3, r3, #4
  102e78:	e3530000 	cmp	r3, #0
  102e7c:	13a03001 	movne	r3, #1
  102e80:	03a03000 	moveq	r3, #0
  102e84:	e6ef2073 	uxtb	r2, r3
  102e88:	e51b3014 	ldr	r3, [fp, #-20]	; 0xffffffec
  102e8c:	e5c32010 	strb	r2, [r3, #16]
  102e90:	e55b300b 	ldrb	r3, [fp, #-11]
  102e94:	e2033002 	and	r3, r3, #2
  102e98:	e3530000 	cmp	r3, #0
  102e9c:	13a03001 	movne	r3, #1
  102ea0:	03a03000 	moveq	r3, #0
  102ea4:	e6ef2073 	uxtb	r2, r3
  102ea8:	e51b3014 	ldr	r3, [fp, #-20]	; 0xffffffec
  102eac:	e5c32011 	strb	r2, [r3, #17]
  102eb0:	e55b300b 	ldrb	r3, [fp, #-11]
  102eb4:	e2033001 	and	r3, r3, #1
  102eb8:	e3530000 	cmp	r3, #0
  102ebc:	13a03001 	movne	r3, #1
  102ec0:	03a03000 	moveq	r3, #0
  102ec4:	e6ef2073 	uxtb	r2, r3
  102ec8:	e51b3014 	ldr	r3, [fp, #-20]	; 0xffffffec
  102ecc:	e5c32012 	strb	r2, [r3, #18]
  102ed0:	e24b300c 	sub	r3, fp, #12
  102ed4:	e1a02003 	mov	r2, r3
  102ed8:	e3a01030 	mov	r1, #48	; 0x30
  102edc:	e51b0010 	ldr	r0, [fp, #-16]
  102ee0:	ebfff680 	bl	1008e8 <ad77681_spi_reg_read>
  102ee4:	e1a02000 	mov	r2, r0
  102ee8:	e51b3008 	ldr	r3, [fp, #-8]
  102eec:	e1833002 	orr	r3, r3, r2
  102ef0:	e50b3008 	str	r3, [fp, #-8]
  102ef4:	e55b300b 	ldrb	r3, [fp, #-11]
  102ef8:	e2033010 	and	r3, r3, #16
  102efc:	e3530000 	cmp	r3, #0
  102f00:	13a03001 	movne	r3, #1
  102f04:	03a03000 	moveq	r3, #0
  102f08:	e6ef2073 	uxtb	r2, r3
  102f0c:	e51b3014 	ldr	r3, [fp, #-20]	; 0xffffffec
  102f10:	e5c32013 	strb	r2, [r3, #19]
  102f14:	e55b300b 	ldrb	r3, [fp, #-11]
  102f18:	e2033008 	and	r3, r3, #8
  102f1c:	e3530000 	cmp	r3, #0
  102f20:	13a03001 	movne	r3, #1
  102f24:	03a03000 	moveq	r3, #0
  102f28:	e6ef2073 	uxtb	r2, r3
  102f2c:	e51b3014 	ldr	r3, [fp, #-20]	; 0xffffffec
  102f30:	e5c32014 	strb	r2, [r3, #20]
  102f34:	e55b300b 	ldrb	r3, [fp, #-11]
  102f38:	e2033004 	and	r3, r3, #4
  102f3c:	e3530000 	cmp	r3, #0
  102f40:	13a03001 	movne	r3, #1
  102f44:	03a03000 	moveq	r3, #0
  102f48:	e6ef2073 	uxtb	r2, r3
  102f4c:	e51b3014 	ldr	r3, [fp, #-20]	; 0xffffffec
  102f50:	e5c32015 	strb	r2, [r3, #21]
  102f54:	e51b3008 	ldr	r3, [fp, #-8]
  102f58:	e1a00003 	mov	r0, r3
  102f5c:	e24bd004 	sub	sp, fp, #4
  102f60:	e8bd8800 	pop	{fp, pc}

00102f64 <ad77681_setup>:
  102f64:	e24dd010 	sub	sp, sp, #16
  102f68:	e92d4800 	push	{fp, lr}
  102f6c:	e28db004 	add	fp, sp, #4
  102f70:	e24dd038 	sub	sp, sp, #56	; 0x38
  102f74:	e50b0038 	str	r0, [fp, #-56]	; 0xffffffc8
  102f78:	e28b0008 	add	r0, fp, #8
  102f7c:	e880000e 	stm	r0, {r1, r2, r3}
  102f80:	e3a0300a 	mov	r3, #10
  102f84:	e50b3008 	str	r3, [fp, #-8]
  102f88:	e3a03000 	mov	r3, #0
  102f8c:	e50b300c 	str	r3, [fp, #-12]
  102f90:	e3a03a01 	mov	r3, #4096	; 0x1000
  102f94:	e34f3fff 	movt	r3, #65535	; 0xffff
  102f98:	e50b3010 	str	r3, [fp, #-16]
  102f9c:	e51b2008 	ldr	r2, [fp, #-8]
  102fa0:	e51b100c 	ldr	r1, [fp, #-12]
  102fa4:	e51b0010 	ldr	r0, [fp, #-16]
  102fa8:	eb0007af 	bl	104e6c <axi_io_write>
  102fac:	e3a03000 	mov	r3, #0
  102fb0:	e50b302c 	str	r3, [fp, #-44]	; 0xffffffd4
  102fb4:	e24b302c 	sub	r3, fp, #44	; 0x2c
  102fb8:	e1a02003 	mov	r2, r3
  102fbc:	e51b100c 	ldr	r1, [fp, #-12]
  102fc0:	e51b0010 	ldr	r0, [fp, #-16]
  102fc4:	eb000797 	bl	104e28 <axi_io_read>
  102fc8:	e3a00024 	mov	r0, #36	; 0x24
  102fcc:	eb00462b 	bl	114880 <malloc>
  102fd0:	e1a03000 	mov	r3, r0
  102fd4:	e50b3014 	str	r3, [fp, #-20]	; 0xffffffec
  102fd8:	e51b3014 	ldr	r3, [fp, #-20]	; 0xffffffec
  102fdc:	e3530000 	cmp	r3, #0
  102fe0:	1a000001 	bne	102fec <ad77681_setup+0x88>
  102fe4:	e3e03000 	mvn	r3, #0
  102fe8:	ea000134 	b	1034c0 <ad77681_setup+0x55c>
  102fec:	e3a00016 	mov	r0, #22
  102ff0:	eb004622 	bl	114880 <malloc>
  102ff4:	e1a03000 	mov	r3, r0
  102ff8:	e50b3018 	str	r3, [fp, #-24]	; 0xffffffe8
  102ffc:	e51b3018 	ldr	r3, [fp, #-24]	; 0xffffffe8
  103000:	e3530000 	cmp	r3, #0
  103004:	1a000003 	bne	103018 <ad77681_setup+0xb4>
  103008:	e51b0014 	ldr	r0, [fp, #-20]	; 0xffffffec
  10300c:	eb004621 	bl	114898 <free>
  103010:	e3e03000 	mvn	r3, #0
  103014:	ea000129 	b	1034c0 <ad77681_setup+0x55c>
  103018:	e5db2018 	ldrb	r2, [fp, #24]
  10301c:	e51b3014 	ldr	r3, [fp, #-20]	; 0xffffffec
  103020:	e5c32004 	strb	r2, [r3, #4]
  103024:	e5db2019 	ldrb	r2, [fp, #25]
  103028:	e51b3014 	ldr	r3, [fp, #-20]	; 0xffffffec
  10302c:	e5c32005 	strb	r2, [r3, #5]
  103030:	e5db201c 	ldrb	r2, [fp, #28]
  103034:	e51b3014 	ldr	r3, [fp, #-20]	; 0xffffffec
  103038:	e5c32008 	strb	r2, [r3, #8]
  10303c:	e5db201a 	ldrb	r2, [fp, #26]
  103040:	e51b3014 	ldr	r3, [fp, #-20]	; 0xffffffec
  103044:	e5c32006 	strb	r2, [r3, #6]
  103048:	e5db201b 	ldrb	r2, [fp, #27]
  10304c:	e51b3014 	ldr	r3, [fp, #-20]	; 0xffffffec
  103050:	e5c32007 	strb	r2, [r3, #7]
  103054:	e5db201d 	ldrb	r2, [fp, #29]
  103058:	e51b3014 	ldr	r3, [fp, #-20]	; 0xffffffec
  10305c:	e5c32009 	strb	r2, [r3, #9]
  103060:	e51b3014 	ldr	r3, [fp, #-20]	; 0xffffffec
  103064:	e3a02002 	mov	r2, #2
  103068:	e5c3200a 	strb	r2, [r3, #10]
  10306c:	e5db201f 	ldrb	r2, [fp, #31]
  103070:	e51b3014 	ldr	r3, [fp, #-20]	; 0xffffffec
  103074:	e5c3200b 	strb	r2, [r3, #11]
  103078:	e5db2020 	ldrb	r2, [fp, #32]
  10307c:	e51b3014 	ldr	r3, [fp, #-20]	; 0xffffffec
  103080:	e5c3200c 	strb	r2, [r3, #12]
  103084:	e5db2021 	ldrb	r2, [fp, #33]	; 0x21
  103088:	e51b3014 	ldr	r3, [fp, #-20]	; 0xffffffec
  10308c:	e5c3200d 	strb	r2, [r3, #13]
  103090:	e5db2022 	ldrb	r2, [fp, #34]	; 0x22
  103094:	e51b3014 	ldr	r3, [fp, #-20]	; 0xffffffec
  103098:	e5c3200e 	strb	r2, [r3, #14]
  10309c:	e5db2023 	ldrb	r2, [fp, #35]	; 0x23
  1030a0:	e51b3014 	ldr	r3, [fp, #-20]	; 0xffffffec
  1030a4:	e5c3200f 	strb	r2, [r3, #15]
  1030a8:	e5db2024 	ldrb	r2, [fp, #36]	; 0x24
  1030ac:	e51b3014 	ldr	r3, [fp, #-20]	; 0xffffffec
  1030b0:	e5c32010 	strb	r2, [r3, #16]
  1030b4:	e5db2025 	ldrb	r2, [fp, #37]	; 0x25
  1030b8:	e51b3014 	ldr	r3, [fp, #-20]	; 0xffffffec
  1030bc:	e5c32011 	strb	r2, [r3, #17]
  1030c0:	e5db2026 	ldrb	r2, [fp, #38]	; 0x26
  1030c4:	e51b3014 	ldr	r3, [fp, #-20]	; 0xffffffec
  1030c8:	e5c32012 	strb	r2, [r3, #18]
  1030cc:	e1db22b8 	ldrh	r2, [fp, #40]	; 0x28
  1030d0:	e51b3014 	ldr	r3, [fp, #-20]	; 0xffffffec
  1030d4:	e1c321b4 	strh	r2, [r3, #20]
  1030d8:	e1db22ba 	ldrh	r2, [fp, #42]	; 0x2a
  1030dc:	e51b3014 	ldr	r3, [fp, #-20]	; 0xffffffec
  1030e0:	e1c321b6 	strh	r2, [r3, #22]
  1030e4:	e1db22bc 	ldrh	r2, [fp, #44]	; 0x2c
  1030e8:	e51b3014 	ldr	r3, [fp, #-20]	; 0xffffffec
  1030ec:	e1c321b8 	strh	r2, [r3, #24]
  1030f0:	e59b2030 	ldr	r2, [fp, #48]	; 0x30
  1030f4:	e51b3014 	ldr	r3, [fp, #-20]	; 0xffffffec
  1030f8:	e583201c 	str	r2, [r3, #28]
  1030fc:	e5db2034 	ldrb	r2, [fp, #52]	; 0x34
  103100:	e51b3014 	ldr	r3, [fp, #-20]	; 0xffffffec
  103104:	e5c32020 	strb	r2, [r3, #32]
  103108:	e51b3014 	ldr	r3, [fp, #-20]	; 0xffffffec
  10310c:	e28b2008 	add	r2, fp, #8
  103110:	e1a01002 	mov	r1, r2
  103114:	e1a00003 	mov	r0, r3
  103118:	eb0000ed 	bl	1034d4 <spi_init>
  10311c:	e50b001c 	str	r0, [fp, #-28]	; 0xffffffe4
  103120:	e51b301c 	ldr	r3, [fp, #-28]	; 0xffffffe4
  103124:	e3530000 	cmp	r3, #0
  103128:	aa000005 	bge	103144 <ad77681_setup+0x1e0>
  10312c:	e51b0014 	ldr	r0, [fp, #-20]	; 0xffffffec
  103130:	eb0045d8 	bl	114898 <free>
  103134:	e51b0018 	ldr	r0, [fp, #-24]	; 0xffffffe8
  103138:	eb0045d6 	bl	114898 <free>
  10313c:	e51b301c 	ldr	r3, [fp, #-28]	; 0xffffffe4
  103140:	ea0000de 	b	1034c0 <ad77681_setup+0x55c>
  103144:	e3a03050 	mov	r3, #80	; 0x50
  103148:	e34f3f22 	movt	r3, #65314	; 0xff22
  10314c:	e50b3020 	str	r3, [fp, #-32]	; 0xffffffe0
  103150:	e3a03000 	mov	r3, #0
  103154:	e50b3030 	str	r3, [fp, #-48]	; 0xffffffd0
  103158:	e3a03004 	mov	r3, #4
  10315c:	e50b3024 	str	r3, [fp, #-36]	; 0xffffffdc
  103160:	e3a03000 	mov	r3, #0
  103164:	e50b3028 	str	r3, [fp, #-40]	; 0xffffffd8
  103168:	e51b3030 	ldr	r3, [fp, #-48]	; 0xffffffd0
  10316c:	e3833008 	orr	r3, r3, #8
  103170:	e50b3030 	str	r3, [fp, #-48]	; 0xffffffd0
  103174:	e51b3030 	ldr	r3, [fp, #-48]	; 0xffffffd0
  103178:	e1a02003 	mov	r2, r3
  10317c:	e51b1024 	ldr	r1, [fp, #-36]	; 0xffffffdc
  103180:	e51b0020 	ldr	r0, [fp, #-32]	; 0xffffffe0
  103184:	eb000738 	bl	104e6c <axi_io_write>
  103188:	e51b3030 	ldr	r3, [fp, #-48]	; 0xffffffd0
  10318c:	e1a01003 	mov	r1, r3
  103190:	e3000a34 	movw	r0, #2612	; 0xa34
  103194:	e3400012 	movt	r0, #18
  103198:	eb0047f9 	bl	115184 <printf>
  10319c:	e3a03000 	mov	r3, #0
  1031a0:	e50b3030 	str	r3, [fp, #-48]	; 0xffffffd0
  1031a4:	e24b3030 	sub	r3, fp, #48	; 0x30
  1031a8:	e1a02003 	mov	r2, r3
  1031ac:	e51b1024 	ldr	r1, [fp, #-36]	; 0xffffffdc
  1031b0:	e51b0020 	ldr	r0, [fp, #-32]	; 0xffffffe0
  1031b4:	eb00071b 	bl	104e28 <axi_io_read>
  1031b8:	e3a03000 	mov	r3, #0
  1031bc:	e50b3030 	str	r3, [fp, #-48]	; 0xffffffd0
  1031c0:	e24b3030 	sub	r3, fp, #48	; 0x30
  1031c4:	e1a02003 	mov	r2, r3
  1031c8:	e51b1028 	ldr	r1, [fp, #-40]	; 0xffffffd8
  1031cc:	e51b0020 	ldr	r0, [fp, #-32]	; 0xffffffe0
  1031d0:	eb000714 	bl	104e28 <axi_io_read>
  1031d4:	e51b3030 	ldr	r3, [fp, #-48]	; 0xffffffd0
  1031d8:	e3833008 	orr	r3, r3, #8
  1031dc:	e50b3030 	str	r3, [fp, #-48]	; 0xffffffd0
  1031e0:	e51b3030 	ldr	r3, [fp, #-48]	; 0xffffffd0
  1031e4:	e1a02003 	mov	r2, r3
  1031e8:	e51b1028 	ldr	r1, [fp, #-40]	; 0xffffffd8
  1031ec:	e51b0020 	ldr	r0, [fp, #-32]	; 0xffffffe0
  1031f0:	eb00071d 	bl	104e6c <axi_io_write>
  1031f4:	e3a03000 	mov	r3, #0
  1031f8:	e50b3030 	str	r3, [fp, #-48]	; 0xffffffd0
  1031fc:	e24b3030 	sub	r3, fp, #48	; 0x30
  103200:	e1a02003 	mov	r2, r3
  103204:	e51b1028 	ldr	r1, [fp, #-40]	; 0xffffffd8
  103208:	e51b0020 	ldr	r0, [fp, #-32]	; 0xffffffe0
  10320c:	eb000705 	bl	104e28 <axi_io_read>
  103210:	e51b3030 	ldr	r3, [fp, #-48]	; 0xffffffd0
  103214:	e3c33008 	bic	r3, r3, #8
  103218:	e50b3030 	str	r3, [fp, #-48]	; 0xffffffd0
  10321c:	e51b3030 	ldr	r3, [fp, #-48]	; 0xffffffd0
  103220:	e1a02003 	mov	r2, r3
  103224:	e51b1028 	ldr	r1, [fp, #-40]	; 0xffffffd8
  103228:	e51b0020 	ldr	r0, [fp, #-32]	; 0xffffffe0
  10322c:	eb00070e 	bl	104e6c <axi_io_write>
  103230:	e51b0014 	ldr	r0, [fp, #-20]	; 0xffffffec
  103234:	ebfffb29 	bl	101ee0 <ad77681_soft_reset>
  103238:	e1a02000 	mov	r2, r0
  10323c:	e51b301c 	ldr	r3, [fp, #-28]	; 0xffffffe4
  103240:	e1833002 	orr	r3, r3, r2
  103244:	e50b301c 	str	r3, [fp, #-28]	; 0xffffffe4
  103248:	e51b3014 	ldr	r3, [fp, #-20]	; 0xffffffec
  10324c:	e5d33004 	ldrb	r3, [r3, #4]
  103250:	e1a01003 	mov	r1, r3
  103254:	e51b0014 	ldr	r0, [fp, #-20]	; 0xffffffec
  103258:	ebfff8f7 	bl	10163c <ad77681_set_power_mode>
  10325c:	e1a02000 	mov	r2, r0
  103260:	e51b301c 	ldr	r3, [fp, #-28]	; 0xffffffe4
  103264:	e1833002 	orr	r3, r3, r2
  103268:	e50b301c 	str	r3, [fp, #-28]	; 0xffffffe4
  10326c:	e51b3014 	ldr	r3, [fp, #-20]	; 0xffffffec
  103270:	e5d33005 	ldrb	r3, [r3, #5]
  103274:	e1a01003 	mov	r1, r3
  103278:	e51b0014 	ldr	r0, [fp, #-20]	; 0xffffffec
  10327c:	ebfff906 	bl	10169c <ad77681_set_mclk_div>
  103280:	e1a02000 	mov	r2, r0
  103284:	e51b301c 	ldr	r3, [fp, #-28]	; 0xffffffe4
  103288:	e1833002 	orr	r3, r3, r2
  10328c:	e50b301c 	str	r3, [fp, #-28]	; 0xffffffe4
  103290:	e51b3014 	ldr	r3, [fp, #-20]	; 0xffffffec
  103294:	e5d31006 	ldrb	r1, [r3, #6]
  103298:	e51b3014 	ldr	r3, [fp, #-20]	; 0xffffffec
  10329c:	e5d32007 	ldrb	r2, [r3, #7]
  1032a0:	e51b3014 	ldr	r3, [fp, #-20]	; 0xffffffec
  1032a4:	e5d33008 	ldrb	r3, [r3, #8]
  1032a8:	e51b0014 	ldr	r0, [fp, #-20]	; 0xffffffec
  1032ac:	ebfffa67 	bl	101c50 <ad77681_set_conv_mode>
  1032b0:	e1a02000 	mov	r2, r0
  1032b4:	e51b301c 	ldr	r3, [fp, #-28]	; 0xffffffe4
  1032b8:	e1833002 	orr	r3, r3, r2
  1032bc:	e50b301c 	str	r3, [fp, #-28]	; 0xffffffe4
  1032c0:	e51b3014 	ldr	r3, [fp, #-20]	; 0xffffffec
  1032c4:	e5d33009 	ldrb	r3, [r3, #9]
  1032c8:	e1a01003 	mov	r1, r3
  1032cc:	e51b0014 	ldr	r0, [fp, #-20]	; 0xffffffec
  1032d0:	ebfffa9b 	bl	101d44 <ad77681_set_convlen>
  1032d4:	e1a02000 	mov	r2, r0
  1032d8:	e51b301c 	ldr	r3, [fp, #-28]	; 0xffffffe4
  1032dc:	e1833002 	orr	r3, r3, r2
  1032e0:	e50b301c 	str	r3, [fp, #-28]	; 0xffffffe4
  1032e4:	e51b3014 	ldr	r3, [fp, #-20]	; 0xffffffec
  1032e8:	e5d3300b 	ldrb	r3, [r3, #11]
  1032ec:	e3530000 	cmp	r3, #0
  1032f0:	13a03001 	movne	r3, #1
  1032f4:	03a03000 	moveq	r3, #0
  1032f8:	e6ef3073 	uxtb	r3, r3
  1032fc:	e1a01003 	mov	r1, r3
  103300:	e51b0014 	ldr	r0, [fp, #-20]	; 0xffffffec
  103304:	ebfffad9 	bl	101e70 <ad77681_set_status_bit>
  103308:	e1a02000 	mov	r2, r0
  10330c:	e51b301c 	ldr	r3, [fp, #-28]	; 0xffffffe4
  103310:	e1833002 	orr	r3, r3, r2
  103314:	e50b301c 	str	r3, [fp, #-28]	; 0xffffffe4
  103318:	e5db301e 	ldrb	r3, [fp, #30]
  10331c:	e1a01003 	mov	r1, r3
  103320:	e51b0014 	ldr	r0, [fp, #-20]	; 0xffffffec
  103324:	ebfffaa2 	bl	101db4 <ad77681_set_crc_sel>
  103328:	e1a02000 	mov	r2, r0
  10332c:	e51b301c 	ldr	r3, [fp, #-28]	; 0xffffffe4
  103330:	e1833002 	orr	r3, r3, r2
  103334:	e50b301c 	str	r3, [fp, #-28]	; 0xffffffe4
  103338:	e51b3014 	ldr	r3, [fp, #-20]	; 0xffffffec
  10333c:	e5d3300c 	ldrb	r3, [r3, #12]
  103340:	e1a01003 	mov	r1, r3
  103344:	e51b0014 	ldr	r0, [fp, #-20]	; 0xffffffec
  103348:	ebfff8ed 	bl	101704 <ad77681_set_VCM_output>
  10334c:	e1a02000 	mov	r2, r0
  103350:	e51b301c 	ldr	r3, [fp, #-28]	; 0xffffffe4
  103354:	e1833002 	orr	r3, r3, r2
  103358:	e50b301c 	str	r3, [fp, #-28]	; 0xffffffe4
  10335c:	e51b3014 	ldr	r3, [fp, #-20]	; 0xffffffec
  103360:	e5d3300d 	ldrb	r3, [r3, #13]
  103364:	e1a01003 	mov	r1, r3
  103368:	e51b0014 	ldr	r0, [fp, #-20]	; 0xffffffec
  10336c:	ebfff8fc 	bl	101764 <ad77681_set_AINn_buffer>
  103370:	e1a02000 	mov	r2, r0
  103374:	e51b301c 	ldr	r3, [fp, #-28]	; 0xffffffe4
  103378:	e1833002 	orr	r3, r3, r2
  10337c:	e50b301c 	str	r3, [fp, #-28]	; 0xffffffe4
  103380:	e51b3014 	ldr	r3, [fp, #-20]	; 0xffffffec
  103384:	e5d3300e 	ldrb	r3, [r3, #14]
  103388:	e1a01003 	mov	r1, r3
  10338c:	e51b0014 	ldr	r0, [fp, #-20]	; 0xffffffec
  103390:	ebfff90b 	bl	1017c4 <ad77681_set_AINp_buffer>
  103394:	e1a02000 	mov	r2, r0
  103398:	e51b301c 	ldr	r3, [fp, #-28]	; 0xffffffe4
  10339c:	e1833002 	orr	r3, r3, r2
  1033a0:	e50b301c 	str	r3, [fp, #-28]	; 0xffffffe4
  1033a4:	e51b3014 	ldr	r3, [fp, #-20]	; 0xffffffec
  1033a8:	e5d3300f 	ldrb	r3, [r3, #15]
  1033ac:	e1a01003 	mov	r1, r3
  1033b0:	e51b0014 	ldr	r0, [fp, #-20]	; 0xffffffec
  1033b4:	ebfff91c 	bl	10182c <ad77681_set_REFn_buffer>
  1033b8:	e1a02000 	mov	r2, r0
  1033bc:	e51b301c 	ldr	r3, [fp, #-28]	; 0xffffffe4
  1033c0:	e1833002 	orr	r3, r3, r2
  1033c4:	e50b301c 	str	r3, [fp, #-28]	; 0xffffffe4
  1033c8:	e51b3014 	ldr	r3, [fp, #-20]	; 0xffffffec
  1033cc:	e5d33010 	ldrb	r3, [r3, #16]
  1033d0:	e1a01003 	mov	r1, r3
  1033d4:	e51b0014 	ldr	r0, [fp, #-20]	; 0xffffffec
  1033d8:	ebfff92d 	bl	101894 <ad77681_set_REFp_buffer>
  1033dc:	e1a02000 	mov	r2, r0
  1033e0:	e51b301c 	ldr	r3, [fp, #-28]	; 0xffffffe4
  1033e4:	e1833002 	orr	r3, r3, r2
  1033e8:	e50b301c 	str	r3, [fp, #-28]	; 0xffffffe4
  1033ec:	e51b3014 	ldr	r3, [fp, #-20]	; 0xffffffec
  1033f0:	e5d31012 	ldrb	r1, [r3, #18]
  1033f4:	e51b3014 	ldr	r3, [fp, #-20]	; 0xffffffec
  1033f8:	e5d32011 	ldrb	r2, [r3, #17]
  1033fc:	e51b3014 	ldr	r3, [fp, #-20]	; 0xffffffec
  103400:	e1d331b4 	ldrh	r3, [r3, #20]
  103404:	e51b0014 	ldr	r0, [fp, #-20]	; 0xffffffec
  103408:	ebfff93b 	bl	1018fc <ad77681_set_filter_type>
  10340c:	e1a02000 	mov	r2, r0
  103410:	e51b301c 	ldr	r3, [fp, #-28]	; 0xffffffe4
  103414:	e1833002 	orr	r3, r3, r2
  103418:	e50b301c 	str	r3, [fp, #-28]	; 0xffffffe4
  10341c:	e51b0014 	ldr	r0, [fp, #-20]	; 0xffffffec
  103420:	ebfffd7b 	bl	102a14 <ad77681_error_flags_enabe>
  103424:	e1a02000 	mov	r2, r0
  103428:	e51b301c 	ldr	r3, [fp, #-28]	; 0xffffffe4
  10342c:	e1833002 	orr	r3, r3, r2
  103430:	e50b301c 	str	r3, [fp, #-28]	; 0xffffffe4
  103434:	e51b0014 	ldr	r0, [fp, #-20]	; 0xffffffec
  103438:	ebfffd4c 	bl	102970 <ad77681_clear_error_flags>
  10343c:	e1a02000 	mov	r2, r0
  103440:	e51b301c 	ldr	r3, [fp, #-28]	; 0xffffffe4
  103444:	e1833002 	orr	r3, r3, r2
  103448:	e50b301c 	str	r3, [fp, #-28]	; 0xffffffe4
  10344c:	e51b1018 	ldr	r1, [fp, #-24]	; 0xffffffe8
  103450:	e51b0014 	ldr	r0, [fp, #-20]	; 0xffffffec
  103454:	ebfffde8 	bl	102bfc <ad77681_status>
  103458:	e1a02000 	mov	r2, r0
  10345c:	e51b301c 	ldr	r3, [fp, #-28]	; 0xffffffe4
  103460:	e1833002 	orr	r3, r3, r2
  103464:	e50b301c 	str	r3, [fp, #-28]	; 0xffffffe4
  103468:	e51b0014 	ldr	r0, [fp, #-20]	; 0xffffffec
  10346c:	ebfff610 	bl	100cb4 <ad77681_get_frame_16bit>
  103470:	e51b0014 	ldr	r0, [fp, #-20]	; 0xffffffec
  103474:	ebfff7bf 	bl	101378 <ad77681_update_sample_rate>
  103478:	e59b3038 	ldr	r3, [fp, #56]	; 0x38
  10347c:	e51b2018 	ldr	r2, [fp, #-24]	; 0xffffffe8
  103480:	e5832000 	str	r2, [r3]
  103484:	e51b3038 	ldr	r3, [fp, #-56]	; 0xffffffc8
  103488:	e51b2014 	ldr	r2, [fp, #-20]	; 0xffffffec
  10348c:	e5832000 	str	r2, [r3]
  103490:	e51b301c 	ldr	r3, [fp, #-28]	; 0xffffffe4
  103494:	e3530000 	cmp	r3, #0
  103498:	1a000003 	bne	1034ac <ad77681_setup+0x548>
  10349c:	e3000a58 	movw	r0, #2648	; 0xa58
  1034a0:	e3400012 	movt	r0, #18
  1034a4:	eb004784 	bl	1152bc <puts>
  1034a8:	ea000003 	b	1034bc <ad77681_setup+0x558>
  1034ac:	e51b101c 	ldr	r1, [fp, #-28]	; 0xffffffe4
  1034b0:	e3000a7c 	movw	r0, #2684	; 0xa7c
  1034b4:	e3400012 	movt	r0, #18
  1034b8:	eb004731 	bl	115184 <printf>
  1034bc:	e51b301c 	ldr	r3, [fp, #-28]	; 0xffffffe4
  1034c0:	e1a00003 	mov	r0, r3
  1034c4:	e24bd004 	sub	sp, fp, #4
  1034c8:	e8bd4800 	pop	{fp, lr}
  1034cc:	e28dd010 	add	sp, sp, #16
  1034d0:	e12fff1e 	bx	lr

001034d4 <spi_init>:
  1034d4:	e92d4800 	push	{fp, lr}
  1034d8:	e28db004 	add	fp, sp, #4
  1034dc:	e24dd008 	sub	sp, sp, #8
  1034e0:	e50b0008 	str	r0, [fp, #-8]
  1034e4:	e50b100c 	str	r1, [fp, #-12]
  1034e8:	e3000aa0 	movw	r0, #2720	; 0xaa0
  1034ec:	e3400012 	movt	r0, #18
  1034f0:	eb004771 	bl	1152bc <puts>
  1034f4:	e51b300c 	ldr	r3, [fp, #-12]
  1034f8:	e3530000 	cmp	r3, #0
  1034fc:	1a000001 	bne	103508 <spi_init+0x34>
  103500:	e3e03000 	mvn	r3, #0
  103504:	ea000010 	b	10354c <spi_init+0x78>
  103508:	e51b300c 	ldr	r3, [fp, #-12]
  10350c:	e5933008 	ldr	r3, [r3, #8]
  103510:	e5933000 	ldr	r3, [r3]
  103514:	e51b100c 	ldr	r1, [fp, #-12]
  103518:	e51b0008 	ldr	r0, [fp, #-8]
  10351c:	e12fff33 	blx	r3
  103520:	e1a03000 	mov	r3, r0
  103524:	e3530000 	cmp	r3, #0
  103528:	0a000001 	beq	103534 <spi_init+0x60>
  10352c:	e3e03000 	mvn	r3, #0
  103530:	ea000005 	b	10354c <spi_init+0x78>
  103534:	e51b3008 	ldr	r3, [fp, #-8]
  103538:	e5933000 	ldr	r3, [r3]
  10353c:	e51b200c 	ldr	r2, [fp, #-12]
  103540:	e5922008 	ldr	r2, [r2, #8]
  103544:	e5832008 	str	r2, [r3, #8]
  103548:	e3a03000 	mov	r3, #0
  10354c:	e1a00003 	mov	r0, r3
  103550:	e24bd004 	sub	sp, fp, #4
  103554:	e8bd8800 	pop	{fp, pc}

00103558 <spi_remove>:
  103558:	e92d4800 	push	{fp, lr}
  10355c:	e28db004 	add	fp, sp, #4
  103560:	e24dd008 	sub	sp, sp, #8
  103564:	e50b0008 	str	r0, [fp, #-8]
  103568:	e51b3008 	ldr	r3, [fp, #-8]
  10356c:	e5933008 	ldr	r3, [r3, #8]
  103570:	e5933008 	ldr	r3, [r3, #8]
  103574:	e51b0008 	ldr	r0, [fp, #-8]
  103578:	e12fff33 	blx	r3
  10357c:	e1a03000 	mov	r3, r0
  103580:	e1a00003 	mov	r0, r3
  103584:	e24bd004 	sub	sp, fp, #4
  103588:	e8bd8800 	pop	{fp, pc}

0010358c <spi_write_and_read>:
  10358c:	e92d4800 	push	{fp, lr}
  103590:	e28db004 	add	fp, sp, #4
  103594:	e24dd010 	sub	sp, sp, #16
  103598:	e50b0008 	str	r0, [fp, #-8]
  10359c:	e50b100c 	str	r1, [fp, #-12]
  1035a0:	e1a03002 	mov	r3, r2
  1035a4:	e14b30be 	strh	r3, [fp, #-14]
  1035a8:	e51b3008 	ldr	r3, [fp, #-8]
  1035ac:	e5933008 	ldr	r3, [r3, #8]
  1035b0:	e5933004 	ldr	r3, [r3, #4]
  1035b4:	e15b20be 	ldrh	r2, [fp, #-14]
  1035b8:	e51b100c 	ldr	r1, [fp, #-12]
  1035bc:	e51b0008 	ldr	r0, [fp, #-8]
  1035c0:	e12fff33 	blx	r3
  1035c4:	e1a03000 	mov	r3, r0
  1035c8:	e1a00003 	mov	r0, r3
  1035cc:	e24bd004 	sub	sp, fp, #4
  1035d0:	e8bd8800 	pop	{fp, pc}

001035d4 <spi_engine_write>:
  1035d4:	e92d4800 	push	{fp, lr}
  1035d8:	e28db004 	add	fp, sp, #4
  1035dc:	e24dd018 	sub	sp, sp, #24
  1035e0:	e50b0010 	str	r0, [fp, #-16]
  1035e4:	e50b1014 	str	r1, [fp, #-20]	; 0xffffffec
  1035e8:	e50b2018 	str	r2, [fp, #-24]	; 0xffffffe8
  1035ec:	e51b3010 	ldr	r3, [fp, #-16]
  1035f0:	e5933014 	ldr	r3, [r3, #20]
  1035f4:	e51b2018 	ldr	r2, [fp, #-24]	; 0xffffffe8
  1035f8:	e51b1014 	ldr	r1, [fp, #-20]	; 0xffffffec
  1035fc:	e1a00003 	mov	r0, r3
  103600:	eb000619 	bl	104e6c <axi_io_write>
  103604:	e3a03000 	mov	r3, #0
  103608:	e50b3008 	str	r3, [fp, #-8]
  10360c:	e51b3010 	ldr	r3, [fp, #-16]
  103610:	e5933014 	ldr	r3, [r3, #20]
  103614:	e24b2008 	sub	r2, fp, #8
  103618:	e51b1014 	ldr	r1, [fp, #-20]	; 0xffffffec
  10361c:	e1a00003 	mov	r0, r3
  103620:	eb000600 	bl	104e28 <axi_io_read>
  103624:	e3a03000 	mov	r3, #0
  103628:	e1a00003 	mov	r0, r3
  10362c:	e24bd004 	sub	sp, fp, #4
  103630:	e8bd8800 	pop	{fp, pc}

00103634 <spi_engine_read>:
  103634:	e92d4800 	push	{fp, lr}
  103638:	e28db004 	add	fp, sp, #4
  10363c:	e24dd010 	sub	sp, sp, #16
  103640:	e50b0008 	str	r0, [fp, #-8]
  103644:	e50b100c 	str	r1, [fp, #-12]
  103648:	e50b2010 	str	r2, [fp, #-16]
  10364c:	e51b3008 	ldr	r3, [fp, #-8]
  103650:	e5933014 	ldr	r3, [r3, #20]
  103654:	e51b2010 	ldr	r2, [fp, #-16]
  103658:	e51b100c 	ldr	r1, [fp, #-12]
  10365c:	e1a00003 	mov	r0, r3
  103660:	eb0005f0 	bl	104e28 <axi_io_read>
  103664:	e3a03000 	mov	r3, #0
  103668:	e1a00003 	mov	r0, r3
  10366c:	e24bd004 	sub	sp, fp, #4
  103670:	e8bd8800 	pop	{fp, pc}

00103674 <spi_engine_set_transfer_width>:
  103674:	e52db004 	push	{fp}		; (str fp, [sp, #-4]!)
  103678:	e28db000 	add	fp, sp, #0
  10367c:	e24dd014 	sub	sp, sp, #20
  103680:	e50b0010 	str	r0, [fp, #-16]
  103684:	e1a03001 	mov	r3, r1
  103688:	e54b3011 	strb	r3, [fp, #-17]	; 0xffffffef
  10368c:	e51b3010 	ldr	r3, [fp, #-16]
  103690:	e593300c 	ldr	r3, [r3, #12]
  103694:	e50b3008 	str	r3, [fp, #-8]
  103698:	e51b3008 	ldr	r3, [fp, #-8]
  10369c:	e5d33029 	ldrb	r3, [r3, #41]	; 0x29
  1036a0:	e55b2011 	ldrb	r2, [fp, #-17]	; 0xffffffef
  1036a4:	e1520003 	cmp	r2, r3
  1036a8:	9a000004 	bls	1036c0 <spi_engine_set_transfer_width+0x4c>
  1036ac:	e51b3008 	ldr	r3, [fp, #-8]
  1036b0:	e5d32029 	ldrb	r2, [r3, #41]	; 0x29
  1036b4:	e51b3008 	ldr	r3, [fp, #-8]
  1036b8:	e5c32028 	strb	r2, [r3, #40]	; 0x28
  1036bc:	ea000002 	b	1036cc <spi_engine_set_transfer_width+0x58>
  1036c0:	e51b3008 	ldr	r3, [fp, #-8]
  1036c4:	e55b2011 	ldrb	r2, [fp, #-17]	; 0xffffffef
  1036c8:	e5c32028 	strb	r2, [r3, #40]	; 0x28
  1036cc:	e3a03000 	mov	r3, #0
  1036d0:	e1a00003 	mov	r0, r3
  1036d4:	e24bd000 	sub	sp, fp, #0
  1036d8:	e49db004 	pop	{fp}		; (ldr fp, [sp], #4)
  1036dc:	e12fff1e 	bx	lr

001036e0 <spi_engine_set_speed>:
  1036e0:	e92d4800 	push	{fp, lr}
  1036e4:	e28db004 	add	fp, sp, #4
  1036e8:	e24dd010 	sub	sp, sp, #16
  1036ec:	e50b0010 	str	r0, [fp, #-16]
  1036f0:	e50b1014 	str	r1, [fp, #-20]	; 0xffffffec
  1036f4:	e51b3010 	ldr	r3, [fp, #-16]
  1036f8:	e593300c 	ldr	r3, [r3, #12]
  1036fc:	e50b3008 	str	r3, [fp, #-8]
  103700:	e51b3008 	ldr	r3, [fp, #-8]
  103704:	e5932000 	ldr	r2, [r3]
  103708:	e51b3014 	ldr	r3, [fp, #-20]	; 0xffffffec
  10370c:	e1a03083 	lsl	r3, r3, #1
  103710:	e1a01003 	mov	r1, r3
  103714:	e1a00002 	mov	r0, r2
  103718:	eb0042be 	bl	114218 <__aeabi_uidiv>
  10371c:	e1a03000 	mov	r3, r0
  103720:	e2432001 	sub	r2, r3, #1
  103724:	e51b3008 	ldr	r3, [fp, #-8]
  103728:	e5832024 	str	r2, [r3, #36]	; 0x24
  10372c:	e320f000 	nop	{0}
  103730:	e24bd004 	sub	sp, fp, #4
  103734:	e8bd8800 	pop	{fp, pc}

00103738 <spi_get_words_number>:
  103738:	e92d4800 	push	{fp, lr}
  10373c:	e28db004 	add	fp, sp, #4
  103740:	e24dd010 	sub	sp, sp, #16
  103744:	e50b0010 	str	r0, [fp, #-16]
  103748:	e1a03001 	mov	r3, r1
  10374c:	e54b3011 	strb	r3, [fp, #-17]	; 0xffffffef
  103750:	e51b3010 	ldr	r3, [fp, #-16]
  103754:	e5d33028 	ldrb	r3, [r3, #40]	; 0x28
  103758:	e1a031a3 	lsr	r3, r3, #3
  10375c:	e54b3006 	strb	r3, [fp, #-6]
  103760:	e55b3011 	ldrb	r3, [fp, #-17]	; 0xffffffef
  103764:	e55b2006 	ldrb	r2, [fp, #-6]
  103768:	e1a01002 	mov	r1, r2
  10376c:	e1a00003 	mov	r0, r3
  103770:	eb0042a8 	bl	114218 <__aeabi_uidiv>
  103774:	e1a03000 	mov	r3, r0
  103778:	e54b3005 	strb	r3, [fp, #-5]
  10377c:	e55b3011 	ldrb	r3, [fp, #-17]	; 0xffffffef
  103780:	e55b2006 	ldrb	r2, [fp, #-6]
  103784:	e1a01002 	mov	r1, r2
  103788:	e1a00003 	mov	r0, r3
  10378c:	eb00431c 	bl	114404 <__aeabi_uidivmod>
  103790:	e1a03001 	mov	r3, r1
  103794:	e6ef3073 	uxtb	r3, r3
  103798:	e3530000 	cmp	r3, #0
  10379c:	0a000002 	beq	1037ac <spi_get_words_number+0x74>
  1037a0:	e55b3005 	ldrb	r3, [fp, #-5]
  1037a4:	e2833001 	add	r3, r3, #1
  1037a8:	e54b3005 	strb	r3, [fp, #-5]
  1037ac:	e55b3005 	ldrb	r3, [fp, #-5]
  1037b0:	e1a00003 	mov	r0, r3
  1037b4:	e24bd004 	sub	sp, fp, #4
  1037b8:	e8bd8800 	pop	{fp, pc}

001037bc <spi_get_word_lenght>:
  1037bc:	e52db004 	push	{fp}		; (str fp, [sp, #-4]!)
  1037c0:	e28db000 	add	fp, sp, #0
  1037c4:	e24dd014 	sub	sp, sp, #20
  1037c8:	e50b0010 	str	r0, [fp, #-16]
  1037cc:	e51b3010 	ldr	r3, [fp, #-16]
  1037d0:	e5d33028 	ldrb	r3, [r3, #40]	; 0x28
  1037d4:	e1a031a3 	lsr	r3, r3, #3
  1037d8:	e54b3005 	strb	r3, [fp, #-5]
  1037dc:	e55b3005 	ldrb	r3, [fp, #-5]
  1037e0:	e1a00003 	mov	r0, r3
  1037e4:	e24bd000 	sub	sp, fp, #0
  1037e8:	e49db004 	pop	{fp}		; (ldr fp, [sp], #4)
  1037ec:	e12fff1e 	bx	lr

001037f0 <spi_get_sleep_div>:
  1037f0:	e92d4800 	push	{fp, lr}
  1037f4:	e28db004 	add	fp, sp, #4
  1037f8:	e24dd018 	sub	sp, sp, #24
  1037fc:	e50b0010 	str	r0, [fp, #-16]
  103800:	e50b1014 	str	r1, [fp, #-20]	; 0xffffffec
  103804:	e50b2018 	str	r2, [fp, #-24]	; 0xffffffe8
  103808:	e51b3010 	ldr	r3, [fp, #-16]
  10380c:	e593300c 	ldr	r3, [r3, #12]
  103810:	e50b3008 	str	r3, [fp, #-8]
  103814:	e51b3010 	ldr	r3, [fp, #-16]
  103818:	e5932000 	ldr	r2, [r3]
  10381c:	e30d3e83 	movw	r3, #56963	; 0xde83
  103820:	e344331b 	movt	r3, #17179	; 0x431b
  103824:	e0832392 	umull	r2, r3, r2, r3
  103828:	e1a03923 	lsr	r3, r3, #18
  10382c:	e51b2014 	ldr	r2, [fp, #-20]	; 0xffffffec
  103830:	e0020392 	mul	r2, r2, r3
  103834:	e3043dd3 	movw	r3, #19923	; 0x4dd3
  103838:	e3413062 	movt	r3, #4194	; 0x1062
  10383c:	e0832392 	umull	r2, r3, r2, r3
  103840:	e1a02323 	lsr	r2, r3, #6
  103844:	e51b3008 	ldr	r3, [fp, #-8]
  103848:	e5933024 	ldr	r3, [r3, #36]	; 0x24
  10384c:	e2833001 	add	r3, r3, #1
  103850:	e1a03083 	lsl	r3, r3, #1
  103854:	e1a01003 	mov	r1, r3
  103858:	e1a00002 	mov	r0, r2
  10385c:	eb00426d 	bl	114218 <__aeabi_uidiv>
  103860:	e1a03000 	mov	r3, r0
  103864:	e2432001 	sub	r2, r3, #1
  103868:	e51b3018 	ldr	r3, [fp, #-24]	; 0xffffffe8
  10386c:	e5832000 	str	r2, [r3]
  103870:	e3a03000 	mov	r3, #0
  103874:	e1a00003 	mov	r0, r3
  103878:	e24bd004 	sub	sp, fp, #4
  10387c:	e8bd8800 	pop	{fp, pc}

00103880 <spi_engine_queue_new_cmd>:
  103880:	e92d4800 	push	{fp, lr}
  103884:	e28db004 	add	fp, sp, #4
  103888:	e24dd010 	sub	sp, sp, #16
  10388c:	e50b0010 	str	r0, [fp, #-16]
  103890:	e50b1014 	str	r1, [fp, #-20]	; 0xffffffec
  103894:	e3a00008 	mov	r0, #8
  103898:	eb0043f8 	bl	114880 <malloc>
  10389c:	e1a03000 	mov	r3, r0
  1038a0:	e50b3008 	str	r3, [fp, #-8]
  1038a4:	e51b3008 	ldr	r3, [fp, #-8]
  1038a8:	e3530000 	cmp	r3, #0
  1038ac:	1a000001 	bne	1038b8 <spi_engine_queue_new_cmd+0x38>
  1038b0:	e3e03000 	mvn	r3, #0
  1038b4:	ea000009 	b	1038e0 <spi_engine_queue_new_cmd+0x60>
  1038b8:	e51b3008 	ldr	r3, [fp, #-8]
  1038bc:	e51b2014 	ldr	r2, [fp, #-20]	; 0xffffffec
  1038c0:	e5832000 	str	r2, [r3]
  1038c4:	e51b3008 	ldr	r3, [fp, #-8]
  1038c8:	e3a02000 	mov	r2, #0
  1038cc:	e5832004 	str	r2, [r3, #4]
  1038d0:	e51b3010 	ldr	r3, [fp, #-16]
  1038d4:	e51b2008 	ldr	r2, [fp, #-8]
  1038d8:	e5832000 	str	r2, [r3]
  1038dc:	e3a03000 	mov	r3, #0
  1038e0:	e1a00003 	mov	r0, r3
  1038e4:	e24bd004 	sub	sp, fp, #4
  1038e8:	e8bd8800 	pop	{fp, pc}

001038ec <spi_engine_queue_add_cmd>:
  1038ec:	e92d4800 	push	{fp, lr}
  1038f0:	e28db004 	add	fp, sp, #4
  1038f4:	e24dd010 	sub	sp, sp, #16
  1038f8:	e50b0010 	str	r0, [fp, #-16]
  1038fc:	e50b1014 	str	r1, [fp, #-20]	; 0xffffffec
  103900:	e3a03000 	mov	r3, #0
  103904:	e50b300c 	str	r3, [fp, #-12]
  103908:	e51b3010 	ldr	r3, [fp, #-16]
  10390c:	e5933000 	ldr	r3, [r3]
  103910:	e50b3008 	str	r3, [fp, #-8]
  103914:	ea000002 	b	103924 <spi_engine_queue_add_cmd+0x38>
  103918:	e51b3008 	ldr	r3, [fp, #-8]
  10391c:	e5933004 	ldr	r3, [r3, #4]
  103920:	e50b3008 	str	r3, [fp, #-8]
  103924:	e51b3008 	ldr	r3, [fp, #-8]
  103928:	e5933004 	ldr	r3, [r3, #4]
  10392c:	e3530000 	cmp	r3, #0
  103930:	1afffff8 	bne	103918 <spi_engine_queue_add_cmd+0x2c>
  103934:	e24b300c 	sub	r3, fp, #12
  103938:	e51b1014 	ldr	r1, [fp, #-20]	; 0xffffffec
  10393c:	e1a00003 	mov	r0, r3
  103940:	ebffffce 	bl	103880 <spi_engine_queue_new_cmd>
  103944:	e51b200c 	ldr	r2, [fp, #-12]
  103948:	e51b3008 	ldr	r3, [fp, #-8]
  10394c:	e5832004 	str	r2, [r3, #4]
  103950:	e320f000 	nop	{0}
  103954:	e24bd004 	sub	sp, fp, #4
  103958:	e8bd8800 	pop	{fp, pc}

0010395c <spi_engine_queue_append_cmd>:
  10395c:	e92d4800 	push	{fp, lr}
  103960:	e28db004 	add	fp, sp, #4
  103964:	e24dd010 	sub	sp, sp, #16
  103968:	e50b0010 	str	r0, [fp, #-16]
  10396c:	e50b1014 	str	r1, [fp, #-20]	; 0xffffffec
  103970:	e3a03000 	mov	r3, #0
  103974:	e50b3008 	str	r3, [fp, #-8]
  103978:	e24b3008 	sub	r3, fp, #8
  10397c:	e51b1014 	ldr	r1, [fp, #-20]	; 0xffffffec
  103980:	e1a00003 	mov	r0, r3
  103984:	ebffffbd 	bl	103880 <spi_engine_queue_new_cmd>
  103988:	e51b3008 	ldr	r3, [fp, #-8]
  10398c:	e51b2010 	ldr	r2, [fp, #-16]
  103990:	e5922000 	ldr	r2, [r2]
  103994:	e5832004 	str	r2, [r3, #4]
  103998:	e51b2008 	ldr	r2, [fp, #-8]
  10399c:	e51b3010 	ldr	r3, [fp, #-16]
  1039a0:	e5832000 	str	r2, [r3]
  1039a4:	e320f000 	nop	{0}
  1039a8:	e24bd004 	sub	sp, fp, #4
  1039ac:	e8bd8800 	pop	{fp, pc}

001039b0 <spi_engine_queue_get_cmd>:
  1039b0:	e92d4800 	push	{fp, lr}
  1039b4:	e28db004 	add	fp, sp, #4
  1039b8:	e24dd010 	sub	sp, sp, #16
  1039bc:	e50b0010 	str	r0, [fp, #-16]
  1039c0:	e50b1014 	str	r1, [fp, #-20]	; 0xffffffec
  1039c4:	e51b3010 	ldr	r3, [fp, #-16]
  1039c8:	e5933000 	ldr	r3, [r3]
  1039cc:	e3530000 	cmp	r3, #0
  1039d0:	1a000001 	bne	1039dc <spi_engine_queue_get_cmd+0x2c>
  1039d4:	e3e03000 	mvn	r3, #0
  1039d8:	ea00001a 	b	103a48 <spi_engine_queue_get_cmd+0x98>
  1039dc:	e51b3010 	ldr	r3, [fp, #-16]
  1039e0:	e5933000 	ldr	r3, [r3]
  1039e4:	e50b3008 	str	r3, [fp, #-8]
  1039e8:	e51b3008 	ldr	r3, [fp, #-8]
  1039ec:	e5932000 	ldr	r2, [r3]
  1039f0:	e51b3014 	ldr	r3, [fp, #-20]	; 0xffffffec
  1039f4:	e5832000 	str	r2, [r3]
  1039f8:	e51b3010 	ldr	r3, [fp, #-16]
  1039fc:	e5933000 	ldr	r3, [r3]
  103a00:	e5933004 	ldr	r3, [r3, #4]
  103a04:	e3530000 	cmp	r3, #0
  103a08:	0a000006 	beq	103a28 <spi_engine_queue_get_cmd+0x78>
  103a0c:	e51b3008 	ldr	r3, [fp, #-8]
  103a10:	e5932004 	ldr	r2, [r3, #4]
  103a14:	e51b3010 	ldr	r3, [fp, #-16]
  103a18:	e5832000 	str	r2, [r3]
  103a1c:	e51b0008 	ldr	r0, [fp, #-8]
  103a20:	eb00439c 	bl	114898 <free>
  103a24:	ea000006 	b	103a44 <spi_engine_queue_get_cmd+0x94>
  103a28:	e51b3010 	ldr	r3, [fp, #-16]
  103a2c:	e5933000 	ldr	r3, [r3]
  103a30:	e1a00003 	mov	r0, r3
  103a34:	eb004397 	bl	114898 <free>
  103a38:	e51b3010 	ldr	r3, [fp, #-16]
  103a3c:	e3a02000 	mov	r2, #0
  103a40:	e5832000 	str	r2, [r3]
  103a44:	e3a03000 	mov	r3, #0
  103a48:	e1a00003 	mov	r0, r3
  103a4c:	e24bd004 	sub	sp, fp, #4
  103a50:	e8bd8800 	pop	{fp, pc}

00103a54 <spi_engine_queue_free>:
  103a54:	e92d4800 	push	{fp, lr}
  103a58:	e28db004 	add	fp, sp, #4
  103a5c:	e24dd008 	sub	sp, sp, #8
  103a60:	e50b0008 	str	r0, [fp, #-8]
  103a64:	e51b3008 	ldr	r3, [fp, #-8]
  103a68:	e5933000 	ldr	r3, [r3]
  103a6c:	e3530000 	cmp	r3, #0
  103a70:	0a000009 	beq	103a9c <spi_engine_queue_free+0x48>
  103a74:	e51b3008 	ldr	r3, [fp, #-8]
  103a78:	e5933000 	ldr	r3, [r3]
  103a7c:	e5933004 	ldr	r3, [r3, #4]
  103a80:	e3530000 	cmp	r3, #0
  103a84:	0a000004 	beq	103a9c <spi_engine_queue_free+0x48>
  103a88:	e51b3008 	ldr	r3, [fp, #-8]
  103a8c:	e5933000 	ldr	r3, [r3]
  103a90:	e2833004 	add	r3, r3, #4
  103a94:	e1a00003 	mov	r0, r3
  103a98:	ebffffed 	bl	103a54 <spi_engine_queue_free>
  103a9c:	e51b3008 	ldr	r3, [fp, #-8]
  103aa0:	e5933000 	ldr	r3, [r3]
  103aa4:	e3530000 	cmp	r3, #0
  103aa8:	0a000006 	beq	103ac8 <spi_engine_queue_free+0x74>
  103aac:	e51b3008 	ldr	r3, [fp, #-8]
  103ab0:	e5933000 	ldr	r3, [r3]
  103ab4:	e1a00003 	mov	r0, r3
  103ab8:	eb004376 	bl	114898 <free>
  103abc:	e51b3008 	ldr	r3, [fp, #-8]
  103ac0:	e3a02000 	mov	r2, #0
  103ac4:	e5832000 	str	r2, [r3]
  103ac8:	e3a03000 	mov	r3, #0
  103acc:	e1a00003 	mov	r0, r3
  103ad0:	e24bd004 	sub	sp, fp, #4
  103ad4:	e8bd8800 	pop	{fp, pc}

00103ad8 <spi_engine_write_cmd_reg>:
  103ad8:	e92d4800 	push	{fp, lr}
  103adc:	e28db004 	add	fp, sp, #4
  103ae0:	e24dd010 	sub	sp, sp, #16
  103ae4:	e50b0010 	str	r0, [fp, #-16]
  103ae8:	e50b1014 	str	r1, [fp, #-20]	; 0xffffffec
  103aec:	e51b3010 	ldr	r3, [fp, #-16]
  103af0:	e5d33010 	ldrb	r3, [r3, #16]
  103af4:	e2033003 	and	r3, r3, #3
  103af8:	e3530000 	cmp	r3, #0
  103afc:	0a000005 	beq	103b18 <spi_engine_write_cmd_reg+0x40>
  103b00:	e51b2014 	ldr	r2, [fp, #-20]	; 0xffffffec
  103b04:	e3a01e11 	mov	r1, #272	; 0x110
  103b08:	e51b0010 	ldr	r0, [fp, #-16]
  103b0c:	ebfffeb0 	bl	1035d4 <spi_engine_write>
  103b10:	e50b0008 	str	r0, [fp, #-8]
  103b14:	ea000004 	b	103b2c <spi_engine_write_cmd_reg+0x54>
  103b18:	e51b2014 	ldr	r2, [fp, #-20]	; 0xffffffec
  103b1c:	e3a010e0 	mov	r1, #224	; 0xe0
  103b20:	e51b0010 	ldr	r0, [fp, #-16]
  103b24:	ebfffeaa 	bl	1035d4 <spi_engine_write>
  103b28:	e50b0008 	str	r0, [fp, #-8]
  103b2c:	e51b3008 	ldr	r3, [fp, #-8]
  103b30:	e1a00003 	mov	r0, r3
  103b34:	e24bd004 	sub	sp, fp, #4
  103b38:	e8bd8800 	pop	{fp, pc}

00103b3c <spi_engine_transfer>:
  103b3c:	e92d4800 	push	{fp, lr}
  103b40:	e28db004 	add	fp, sp, #4
  103b44:	e24dd010 	sub	sp, sp, #16
  103b48:	e50b0010 	str	r0, [fp, #-16]
  103b4c:	e1a03001 	mov	r3, r1
  103b50:	e54b3011 	strb	r3, [fp, #-17]	; 0xffffffef
  103b54:	e1a03002 	mov	r3, r2
  103b58:	e54b3012 	strb	r3, [fp, #-18]	; 0xffffffee
  103b5c:	e55b3012 	ldrb	r3, [fp, #-18]	; 0xffffffee
  103b60:	e1a01003 	mov	r1, r3
  103b64:	e51b0010 	ldr	r0, [fp, #-16]
  103b68:	ebfffef2 	bl	103738 <spi_get_words_number>
  103b6c:	e1a03000 	mov	r3, r0
  103b70:	e54b3005 	strb	r3, [fp, #-5]
  103b74:	e51b3010 	ldr	r3, [fp, #-16]
  103b78:	e5d32011 	ldrb	r2, [r3, #17]
  103b7c:	e55b3005 	ldrb	r3, [fp, #-5]
  103b80:	e0823003 	add	r3, r2, r3
  103b84:	e6ef2073 	uxtb	r2, r3
  103b88:	e51b3010 	ldr	r3, [fp, #-16]
  103b8c:	e5c32011 	strb	r2, [r3, #17]
  103b90:	e55b3011 	ldrb	r3, [fp, #-17]	; 0xffffffef
  103b94:	e1a03403 	lsl	r3, r3, #8
  103b98:	e2032c03 	and	r2, r3, #768	; 0x300
  103b9c:	e55b3005 	ldrb	r3, [fp, #-5]
  103ba0:	e2433001 	sub	r3, r3, #1
  103ba4:	e1823003 	orr	r3, r2, r3
  103ba8:	e1a01003 	mov	r1, r3
  103bac:	e51b0010 	ldr	r0, [fp, #-16]
  103bb0:	ebffffc8 	bl	103ad8 <spi_engine_write_cmd_reg>
  103bb4:	e3a03000 	mov	r3, #0
  103bb8:	e1a00003 	mov	r0, r3
  103bbc:	e24bd004 	sub	sp, fp, #4
  103bc0:	e8bd8800 	pop	{fp, pc}

00103bc4 <spi_engine_set_cs>:
  103bc4:	e92d4800 	push	{fp, lr}
  103bc8:	e28db004 	add	fp, sp, #4
  103bcc:	e24dd010 	sub	sp, sp, #16
  103bd0:	e50b0010 	str	r0, [fp, #-16]
  103bd4:	e1a03001 	mov	r3, r1
  103bd8:	e54b3011 	strb	r3, [fp, #-17]	; 0xffffffef
  103bdc:	e51b3010 	ldr	r3, [fp, #-16]
  103be0:	e593300c 	ldr	r3, [r3, #12]
  103be4:	e50b300c 	str	r3, [fp, #-12]
  103be8:	e3e03000 	mvn	r3, #0
  103bec:	e54b3005 	strb	r3, [fp, #-5]
  103bf0:	e55b3011 	ldrb	r3, [fp, #-17]	; 0xffffffef
  103bf4:	e2233001 	eor	r3, r3, #1
  103bf8:	e6ef3073 	uxtb	r3, r3
  103bfc:	e3530000 	cmp	r3, #0
  103c00:	0a000009 	beq	103c2c <spi_engine_set_cs+0x68>
  103c04:	e51b3010 	ldr	r3, [fp, #-16]
  103c08:	e5d33004 	ldrb	r3, [r3, #4]
  103c0c:	e1a02003 	mov	r2, r3
  103c10:	e3a03001 	mov	r3, #1
  103c14:	e1a03213 	lsl	r3, r3, r2
  103c18:	e6af2073 	sxtb	r2, r3
  103c1c:	e15b30d5 	ldrsb	r3, [fp, #-5]
  103c20:	e0233002 	eor	r3, r3, r2
  103c24:	e6af3073 	sxtb	r3, r3
  103c28:	e54b3005 	strb	r3, [fp, #-5]
  103c2c:	e51b300c 	ldr	r3, [fp, #-12]
  103c30:	e5d33020 	ldrb	r3, [r3, #32]
  103c34:	e1a03403 	lsl	r3, r3, #8
  103c38:	e2033c03 	and	r3, r3, #768	; 0x300
  103c3c:	e3832a01 	orr	r2, r3, #4096	; 0x1000
  103c40:	e55b3005 	ldrb	r3, [fp, #-5]
  103c44:	e1823003 	orr	r3, r2, r3
  103c48:	e1a01003 	mov	r1, r3
  103c4c:	e51b000c 	ldr	r0, [fp, #-12]
  103c50:	ebffffa0 	bl	103ad8 <spi_engine_write_cmd_reg>
  103c54:	e320f000 	nop	{0}
  103c58:	e24bd004 	sub	sp, fp, #4
  103c5c:	e8bd8800 	pop	{fp, pc}

00103c60 <spi_gen_sleep_ns>:
  103c60:	e92d4800 	push	{fp, lr}
  103c64:	e28db004 	add	fp, sp, #4
  103c68:	e24dd010 	sub	sp, sp, #16
  103c6c:	e50b0010 	str	r0, [fp, #-16]
  103c70:	e50b1014 	str	r1, [fp, #-20]	; 0xffffffec
  103c74:	e51b3010 	ldr	r3, [fp, #-16]
  103c78:	e593300c 	ldr	r3, [r3, #12]
  103c7c:	e50b3008 	str	r3, [fp, #-8]
  103c80:	e24b300c 	sub	r3, fp, #12
  103c84:	e1a02003 	mov	r2, r3
  103c88:	e51b1014 	ldr	r1, [fp, #-20]	; 0xffffffec
  103c8c:	e51b0010 	ldr	r0, [fp, #-16]
  103c90:	ebfffed6 	bl	1037f0 <spi_get_sleep_div>
  103c94:	e51b300c 	ldr	r3, [fp, #-12]
  103c98:	e3833c31 	orr	r3, r3, #12544	; 0x3100
  103c9c:	e1a01003 	mov	r1, r3
  103ca0:	e51b0008 	ldr	r0, [fp, #-8]
  103ca4:	ebffff8b 	bl	103ad8 <spi_engine_write_cmd_reg>
  103ca8:	e320f000 	nop	{0}
  103cac:	e24bd004 	sub	sp, fp, #4
  103cb0:	e8bd8800 	pop	{fp, pc}

00103cb4 <spi_engine_write_cmd>:
  103cb4:	e92d4800 	push	{fp, lr}
  103cb8:	e28db004 	add	fp, sp, #4
  103cbc:	e24dd010 	sub	sp, sp, #16
  103cc0:	e50b0010 	str	r0, [fp, #-16]
  103cc4:	e50b1014 	str	r1, [fp, #-20]	; 0xffffffec
  103cc8:	e51b3010 	ldr	r3, [fp, #-16]
  103ccc:	e593300c 	ldr	r3, [r3, #12]
  103cd0:	e50b3008 	str	r3, [fp, #-8]
  103cd4:	e51b3014 	ldr	r3, [fp, #-20]	; 0xffffffec
  103cd8:	e1a03623 	lsr	r3, r3, #12
  103cdc:	e6ef3073 	uxtb	r3, r3
  103ce0:	e203300f 	and	r3, r3, #15
  103ce4:	e54b3009 	strb	r3, [fp, #-9]
  103ce8:	e51b3014 	ldr	r3, [fp, #-20]	; 0xffffffec
  103cec:	e1a03423 	lsr	r3, r3, #8
  103cf0:	e6ef3073 	uxtb	r3, r3
  103cf4:	e203300f 	and	r3, r3, #15
  103cf8:	e54b300a 	strb	r3, [fp, #-10]
  103cfc:	e51b3014 	ldr	r3, [fp, #-20]	; 0xffffffec
  103d00:	e54b300b 	strb	r3, [fp, #-11]
  103d04:	e55b3009 	ldrb	r3, [fp, #-9]
  103d08:	e3530003 	cmp	r3, #3
  103d0c:	979ff103 	ldrls	pc, [pc, r3, lsl #2]
  103d10:	ea00002a 	b	103dc0 <spi_engine_write_cmd+0x10c>
  103d14:	00103d24 	.word	0x00103d24
  103d18:	00103d3c 	.word	0x00103d3c
  103d1c:	00103db0 	.word	0x00103db0
  103d20:	00103d74 	.word	0x00103d74
  103d24:	e55b200b 	ldrb	r2, [fp, #-11]
  103d28:	e55b300a 	ldrb	r3, [fp, #-10]
  103d2c:	e1a01003 	mov	r1, r3
  103d30:	e51b0008 	ldr	r0, [fp, #-8]
  103d34:	ebffff80 	bl	103b3c <spi_engine_transfer>
  103d38:	ea000025 	b	103dd4 <spi_engine_write_cmd+0x120>
  103d3c:	e55b300b 	ldrb	r3, [fp, #-11]
  103d40:	e35300ff 	cmp	r3, #255	; 0xff
  103d44:	1a000003 	bne	103d58 <spi_engine_write_cmd+0xa4>
  103d48:	e3a01001 	mov	r1, #1
  103d4c:	e51b0010 	ldr	r0, [fp, #-16]
  103d50:	ebffff9b 	bl	103bc4 <spi_engine_set_cs>
  103d54:	ea00001b 	b	103dc8 <spi_engine_write_cmd+0x114>
  103d58:	e55b300b 	ldrb	r3, [fp, #-11]
  103d5c:	e3530000 	cmp	r3, #0
  103d60:	1a000018 	bne	103dc8 <spi_engine_write_cmd+0x114>
  103d64:	e3a01000 	mov	r1, #0
  103d68:	e51b0010 	ldr	r0, [fp, #-16]
  103d6c:	ebffff94 	bl	103bc4 <spi_engine_set_cs>
  103d70:	ea000014 	b	103dc8 <spi_engine_write_cmd+0x114>
  103d74:	e55b300a 	ldrb	r3, [fp, #-10]
  103d78:	e3530000 	cmp	r3, #0
  103d7c:	1a000003 	bne	103d90 <spi_engine_write_cmd+0xdc>
  103d80:	e51b1014 	ldr	r1, [fp, #-20]	; 0xffffffec
  103d84:	e51b0008 	ldr	r0, [fp, #-8]
  103d88:	ebffff52 	bl	103ad8 <spi_engine_write_cmd_reg>
  103d8c:	ea00000f 	b	103dd0 <spi_engine_write_cmd+0x11c>
  103d90:	e55b300a 	ldrb	r3, [fp, #-10]
  103d94:	e3530001 	cmp	r3, #1
  103d98:	1a00000c 	bne	103dd0 <spi_engine_write_cmd+0x11c>
  103d9c:	e55b300b 	ldrb	r3, [fp, #-11]
  103da0:	e1a01003 	mov	r1, r3
  103da4:	e51b0010 	ldr	r0, [fp, #-16]
  103da8:	ebffffac 	bl	103c60 <spi_gen_sleep_ns>
  103dac:	ea000007 	b	103dd0 <spi_engine_write_cmd+0x11c>
  103db0:	e51b1014 	ldr	r1, [fp, #-20]	; 0xffffffec
  103db4:	e51b0008 	ldr	r0, [fp, #-8]
  103db8:	ebffff46 	bl	103ad8 <spi_engine_write_cmd_reg>
  103dbc:	ea000004 	b	103dd4 <spi_engine_write_cmd+0x120>
  103dc0:	e3e03000 	mvn	r3, #0
  103dc4:	ea000003 	b	103dd8 <spi_engine_write_cmd+0x124>
  103dc8:	e320f000 	nop	{0}
  103dcc:	ea000000 	b	103dd4 <spi_engine_write_cmd+0x120>
  103dd0:	e320f000 	nop	{0}
  103dd4:	e3a03000 	mov	r3, #0
  103dd8:	e1a00003 	mov	r0, r3
  103ddc:	e24bd004 	sub	sp, fp, #4
  103de0:	e8bd8800 	pop	{fp, pc}

00103de4 <spi_engine_compile_message>:
  103de4:	e92d4800 	push	{fp, lr}
  103de8:	e28db004 	add	fp, sp, #4
  103dec:	e24dd010 	sub	sp, sp, #16
  103df0:	e50b0010 	str	r0, [fp, #-16]
  103df4:	e50b1014 	str	r1, [fp, #-20]	; 0xffffffec
  103df8:	e51b3010 	ldr	r3, [fp, #-16]
  103dfc:	e593300c 	ldr	r3, [r3, #12]
  103e00:	e50b3008 	str	r3, [fp, #-8]
  103e04:	e51b3014 	ldr	r3, [fp, #-20]	; 0xffffffec
  103e08:	e283200c 	add	r2, r3, #12
  103e0c:	e51b3008 	ldr	r3, [fp, #-8]
  103e10:	e5d33028 	ldrb	r3, [r3, #40]	; 0x28
  103e14:	e3833c22 	orr	r3, r3, #8704	; 0x2200
  103e18:	e1a01003 	mov	r1, r3
  103e1c:	e1a00002 	mov	r0, r2
  103e20:	ebfffecd 	bl	10395c <spi_engine_queue_append_cmd>
  103e24:	e51b3014 	ldr	r3, [fp, #-20]	; 0xffffffec
  103e28:	e283200c 	add	r2, r3, #12
  103e2c:	e51b3010 	ldr	r3, [fp, #-16]
  103e30:	e5d33005 	ldrb	r3, [r3, #5]
  103e34:	e3833c21 	orr	r3, r3, #8448	; 0x2100
  103e38:	e1a01003 	mov	r1, r3
  103e3c:	e1a00002 	mov	r0, r2
  103e40:	ebfffec5 	bl	10395c <spi_engine_queue_append_cmd>
  103e44:	e51b3014 	ldr	r3, [fp, #-20]	; 0xffffffec
  103e48:	e283200c 	add	r2, r3, #12
  103e4c:	e51b3008 	ldr	r3, [fp, #-8]
  103e50:	e5933024 	ldr	r3, [r3, #36]	; 0x24
  103e54:	e3833a02 	orr	r3, r3, #8192	; 0x2000
  103e58:	e1a01003 	mov	r1, r3
  103e5c:	e1a00002 	mov	r0, r2
  103e60:	ebfffebd 	bl	10395c <spi_engine_queue_append_cmd>
  103e64:	e51b3014 	ldr	r3, [fp, #-20]	; 0xffffffec
  103e68:	e283200c 	add	r2, r3, #12
  103e6c:	e3043064 	movw	r3, #16484	; 0x4064
  103e70:	e3403012 	movt	r3, #18
  103e74:	e5d33000 	ldrb	r3, [r3]
  103e78:	e3833a03 	orr	r3, r3, #12288	; 0x3000
  103e7c:	e1a01003 	mov	r1, r3
  103e80:	e1a00002 	mov	r0, r2
  103e84:	ebfffe98 	bl	1038ec <spi_engine_queue_add_cmd>
  103e88:	e3a03000 	mov	r3, #0
  103e8c:	e1a00003 	mov	r0, r3
  103e90:	e24bd004 	sub	sp, fp, #4
  103e94:	e8bd8800 	pop	{fp, pc}

00103e98 <spi_engine_transfer_message>:
  103e98:	e92d4800 	push	{fp, lr}
  103e9c:	e28db004 	add	fp, sp, #4
  103ea0:	e24dd020 	sub	sp, sp, #32
  103ea4:	e50b0020 	str	r0, [fp, #-32]	; 0xffffffe0
  103ea8:	e50b1024 	str	r1, [fp, #-36]	; 0xffffffdc
  103eac:	e51b3020 	ldr	r3, [fp, #-32]	; 0xffffffe0
  103eb0:	e593300c 	ldr	r3, [r3, #12]
  103eb4:	e50b300c 	str	r3, [fp, #-12]
  103eb8:	e51b1024 	ldr	r1, [fp, #-36]	; 0xffffffdc
  103ebc:	e51b0020 	ldr	r0, [fp, #-32]	; 0xffffffe0
  103ec0:	ebffffc7 	bl	103de4 <spi_engine_compile_message>
  103ec4:	e51b300c 	ldr	r3, [fp, #-12]
  103ec8:	e5d33010 	ldrb	r3, [r3, #16]
  103ecc:	e2033003 	and	r3, r3, #3
  103ed0:	e3530000 	cmp	r3, #0
  103ed4:	13a03001 	movne	r3, #1
  103ed8:	03a03000 	moveq	r3, #0
  103edc:	e54b300d 	strb	r3, [fp, #-13]
  103ee0:	ea000009 	b	103f0c <spi_engine_transfer_message+0x74>
  103ee4:	e51b3024 	ldr	r3, [fp, #-36]	; 0xffffffdc
  103ee8:	e283300c 	add	r3, r3, #12
  103eec:	e24b2014 	sub	r2, fp, #20
  103ef0:	e1a01002 	mov	r1, r2
  103ef4:	e1a00003 	mov	r0, r3
  103ef8:	ebfffeac 	bl	1039b0 <spi_engine_queue_get_cmd>
  103efc:	e51b3014 	ldr	r3, [fp, #-20]	; 0xffffffec
  103f00:	e1a01003 	mov	r1, r3
  103f04:	e51b0020 	ldr	r0, [fp, #-32]	; 0xffffffe0
  103f08:	ebffff69 	bl	103cb4 <spi_engine_write_cmd>
  103f0c:	e51b3024 	ldr	r3, [fp, #-36]	; 0xffffffdc
  103f10:	e593300c 	ldr	r3, [r3, #12]
  103f14:	e3530000 	cmp	r3, #0
  103f18:	1afffff1 	bne	103ee4 <spi_engine_transfer_message+0x4c>
  103f1c:	e55b300d 	ldrb	r3, [fp, #-13]
  103f20:	e3530000 	cmp	r3, #0
  103f24:	0a000016 	beq	103f84 <spi_engine_transfer_message+0xec>
  103f28:	e3a03000 	mov	r3, #0
  103f2c:	e50b3008 	str	r3, [fp, #-8]
  103f30:	ea00000c 	b	103f68 <spi_engine_transfer_message+0xd0>
  103f34:	e51b3024 	ldr	r3, [fp, #-36]	; 0xffffffdc
  103f38:	e5932000 	ldr	r2, [r3]
  103f3c:	e51b3008 	ldr	r3, [fp, #-8]
  103f40:	e1a03103 	lsl	r3, r3, #2
  103f44:	e0823003 	add	r3, r2, r3
  103f48:	e5933000 	ldr	r3, [r3]
  103f4c:	e1a02003 	mov	r2, r3
  103f50:	e3a01f45 	mov	r1, #276	; 0x114
  103f54:	e51b000c 	ldr	r0, [fp, #-12]
  103f58:	ebfffd9d 	bl	1035d4 <spi_engine_write>
  103f5c:	e51b3008 	ldr	r3, [fp, #-8]
  103f60:	e2833001 	add	r3, r3, #1
  103f64:	e50b3008 	str	r3, [fp, #-8]
  103f68:	e51b300c 	ldr	r3, [fp, #-12]
  103f6c:	e5d33011 	ldrb	r3, [r3, #17]
  103f70:	e1a02003 	mov	r2, r3
  103f74:	e51b3008 	ldr	r3, [fp, #-8]
  103f78:	e1520003 	cmp	r2, r3
  103f7c:	8affffec 	bhi	103f34 <spi_engine_transfer_message+0x9c>
  103f80:	ea00003f 	b	104084 <spi_engine_transfer_message+0x1ec>
  103f84:	e3a03000 	mov	r3, #0
  103f88:	e50b3008 	str	r3, [fp, #-8]
  103f8c:	ea00000c 	b	103fc4 <spi_engine_transfer_message+0x12c>
  103f90:	e51b3024 	ldr	r3, [fp, #-36]	; 0xffffffdc
  103f94:	e5932000 	ldr	r2, [r3]
  103f98:	e51b3008 	ldr	r3, [fp, #-8]
  103f9c:	e1a03103 	lsl	r3, r3, #2
  103fa0:	e0823003 	add	r3, r2, r3
  103fa4:	e5933000 	ldr	r3, [r3]
  103fa8:	e1a02003 	mov	r2, r3
  103fac:	e3a010e4 	mov	r1, #228	; 0xe4
  103fb0:	e51b000c 	ldr	r0, [fp, #-12]
  103fb4:	ebfffd86 	bl	1035d4 <spi_engine_write>
  103fb8:	e51b3008 	ldr	r3, [fp, #-8]
  103fbc:	e2833001 	add	r3, r3, #1
  103fc0:	e50b3008 	str	r3, [fp, #-8]
  103fc4:	e51b3024 	ldr	r3, [fp, #-36]	; 0xffffffdc
  103fc8:	e5932008 	ldr	r2, [r3, #8]
  103fcc:	e51b3008 	ldr	r3, [fp, #-8]
  103fd0:	e1520003 	cmp	r2, r3
  103fd4:	8affffed 	bhi	103f90 <spi_engine_transfer_message+0xf8>
  103fd8:	e24b3018 	sub	r3, fp, #24
  103fdc:	e1a02003 	mov	r2, r3
  103fe0:	e3a010c0 	mov	r1, #192	; 0xc0
  103fe4:	e51b000c 	ldr	r0, [fp, #-12]
  103fe8:	ebfffd91 	bl	103634 <spi_engine_read>
  103fec:	e3043064 	movw	r3, #16484	; 0x4064
  103ff0:	e3403012 	movt	r3, #18
  103ff4:	e5d33000 	ldrb	r3, [r3]
  103ff8:	e1a02003 	mov	r2, r3
  103ffc:	e51b3018 	ldr	r3, [fp, #-24]	; 0xffffffe8
  104000:	e1520003 	cmp	r2, r3
  104004:	1afffff3 	bne	103fd8 <spi_engine_transfer_message+0x140>
  104008:	e3043064 	movw	r3, #16484	; 0x4064
  10400c:	e3403012 	movt	r3, #18
  104010:	e5d33000 	ldrb	r3, [r3]
  104014:	e2833001 	add	r3, r3, #1
  104018:	e6ef2073 	uxtb	r2, r3
  10401c:	e3043064 	movw	r3, #16484	; 0x4064
  104020:	e3403012 	movt	r3, #18
  104024:	e5c32000 	strb	r2, [r3]
  104028:	e3a03000 	mov	r3, #0
  10402c:	e50b3008 	str	r3, [fp, #-8]
  104030:	ea00000e 	b	104070 <spi_engine_transfer_message+0x1d8>
  104034:	e24b3014 	sub	r3, fp, #20
  104038:	e1a02003 	mov	r2, r3
  10403c:	e3a010e8 	mov	r1, #232	; 0xe8
  104040:	e51b000c 	ldr	r0, [fp, #-12]
  104044:	ebfffd7a 	bl	103634 <spi_engine_read>
  104048:	e51b3024 	ldr	r3, [fp, #-36]	; 0xffffffdc
  10404c:	e5932004 	ldr	r2, [r3, #4]
  104050:	e51b3008 	ldr	r3, [fp, #-8]
  104054:	e1a03103 	lsl	r3, r3, #2
  104058:	e0823003 	add	r3, r2, r3
  10405c:	e51b2014 	ldr	r2, [fp, #-20]	; 0xffffffec
  104060:	e5832000 	str	r2, [r3]
  104064:	e51b3008 	ldr	r3, [fp, #-8]
  104068:	e2833001 	add	r3, r3, #1
  10406c:	e50b3008 	str	r3, [fp, #-8]
  104070:	e51b3024 	ldr	r3, [fp, #-36]	; 0xffffffdc
  104074:	e5932008 	ldr	r2, [r3, #8]
  104078:	e51b3008 	ldr	r3, [fp, #-8]
  10407c:	e1520003 	cmp	r2, r3
  104080:	8affffeb 	bhi	104034 <spi_engine_transfer_message+0x19c>
  104084:	e3a03000 	mov	r3, #0
  104088:	e1a00003 	mov	r0, r3
  10408c:	e24bd004 	sub	sp, fp, #4
  104090:	e8bd8800 	pop	{fp, pc}

00104094 <spi_engine_init>:
  104094:	e92d4800 	push	{fp, lr}
  104098:	e28db004 	add	fp, sp, #4
  10409c:	e24dd020 	sub	sp, sp, #32
  1040a0:	e50b0020 	str	r0, [fp, #-32]	; 0xffffffe0
  1040a4:	e50b1024 	str	r1, [fp, #-36]	; 0xffffffdc
  1040a8:	e3a03000 	mov	r3, #0
  1040ac:	e50b3014 	str	r3, [fp, #-20]	; 0xffffffec
  1040b0:	e3a03000 	mov	r3, #0
  1040b4:	e50b3014 	str	r3, [fp, #-20]	; 0xffffffec
  1040b8:	e3a03000 	mov	r3, #0
  1040bc:	e34f3f24 	movt	r3, #65316	; 0xff24
  1040c0:	e50b3008 	str	r3, [fp, #-8]
  1040c4:	e24b3014 	sub	r3, fp, #20
  1040c8:	e1a02003 	mov	r2, r3
  1040cc:	e3a01000 	mov	r1, #0
  1040d0:	e51b0008 	ldr	r0, [fp, #-8]
  1040d4:	eb000353 	bl	104e28 <axi_io_read>
  1040d8:	e3a03000 	mov	r3, #0
  1040dc:	e50b3014 	str	r3, [fp, #-20]	; 0xffffffec
  1040e0:	e24b3014 	sub	r3, fp, #20
  1040e4:	e1a02003 	mov	r2, r3
  1040e8:	e3a0100c 	mov	r1, #12
  1040ec:	e51b0008 	ldr	r0, [fp, #-8]
  1040f0:	eb00034c 	bl	104e28 <axi_io_read>
  1040f4:	e51b3014 	ldr	r3, [fp, #-20]	; 0xffffffec
  1040f8:	e1a01003 	mov	r1, r3
  1040fc:	e3000ac4 	movw	r0, #2756	; 0xac4
  104100:	e3400012 	movt	r0, #18
  104104:	eb00441e 	bl	115184 <printf>
  104108:	e51b3024 	ldr	r3, [fp, #-36]	; 0xffffffdc
  10410c:	e3530000 	cmp	r3, #0
  104110:	1a000001 	bne	10411c <spi_engine_init+0x88>
  104114:	e3e03000 	mvn	r3, #0
  104118:	ea000084 	b	104330 <spi_engine_init+0x29c>
  10411c:	e3a00010 	mov	r0, #16
  104120:	eb0041d6 	bl	114880 <malloc>
  104124:	e1a03000 	mov	r3, r0
  104128:	e1a02003 	mov	r2, r3
  10412c:	e51b3020 	ldr	r3, [fp, #-32]	; 0xffffffe0
  104130:	e5832000 	str	r2, [r3]
  104134:	e51b3020 	ldr	r3, [fp, #-32]	; 0xffffffe0
  104138:	e5933000 	ldr	r3, [r3]
  10413c:	e3530000 	cmp	r3, #0
  104140:	1a000005 	bne	10415c <spi_engine_init+0xc8>
  104144:	e51b3020 	ldr	r3, [fp, #-32]	; 0xffffffe0
  104148:	e5933000 	ldr	r3, [r3]
  10414c:	e1a00003 	mov	r0, r3
  104150:	eb0041d0 	bl	114898 <free>
  104154:	e3e03000 	mvn	r3, #0
  104158:	ea000074 	b	104330 <spi_engine_init+0x29c>
  10415c:	e3a0002c 	mov	r0, #44	; 0x2c
  104160:	eb0041c6 	bl	114880 <malloc>
  104164:	e1a03000 	mov	r3, r0
  104168:	e50b300c 	str	r3, [fp, #-12]
  10416c:	e51b300c 	ldr	r3, [fp, #-12]
  104170:	e3530000 	cmp	r3, #0
  104174:	1a000001 	bne	104180 <spi_engine_init+0xec>
  104178:	e3e03000 	mvn	r3, #0
  10417c:	ea00006b 	b	104330 <spi_engine_init+0x29c>
  104180:	e51b3024 	ldr	r3, [fp, #-36]	; 0xffffffdc
  104184:	e593300c 	ldr	r3, [r3, #12]
  104188:	e50b3010 	str	r3, [fp, #-16]
  10418c:	e51b3020 	ldr	r3, [fp, #-32]	; 0xffffffe0
  104190:	e5933000 	ldr	r3, [r3]
  104194:	e51b2024 	ldr	r2, [fp, #-36]	; 0xffffffdc
  104198:	e5922000 	ldr	r2, [r2]
  10419c:	e5832000 	str	r2, [r3]
  1041a0:	e51b3020 	ldr	r3, [fp, #-32]	; 0xffffffe0
  1041a4:	e5933000 	ldr	r3, [r3]
  1041a8:	e51b2024 	ldr	r2, [fp, #-36]	; 0xffffffdc
  1041ac:	e5d22004 	ldrb	r2, [r2, #4]
  1041b0:	e5c32004 	strb	r2, [r3, #4]
  1041b4:	e51b3020 	ldr	r3, [fp, #-32]	; 0xffffffe0
  1041b8:	e5933000 	ldr	r3, [r3]
  1041bc:	e51b2024 	ldr	r2, [fp, #-36]	; 0xffffffdc
  1041c0:	e5d22005 	ldrb	r2, [r2, #5]
  1041c4:	e5c32005 	strb	r2, [r3, #5]
  1041c8:	e51b3020 	ldr	r3, [fp, #-32]	; 0xffffffe0
  1041cc:	e5933000 	ldr	r3, [r3]
  1041d0:	e51b200c 	ldr	r2, [fp, #-12]
  1041d4:	e583200c 	str	r2, [r3, #12]
  1041d8:	e51b300c 	ldr	r3, [fp, #-12]
  1041dc:	e3a02000 	mov	r2, #0
  1041e0:	e5c32010 	strb	r2, [r3, #16]
  1041e4:	e51b3010 	ldr	r3, [fp, #-16]
  1041e8:	e5932008 	ldr	r2, [r3, #8]
  1041ec:	e51b300c 	ldr	r3, [fp, #-12]
  1041f0:	e5832014 	str	r2, [r3, #20]
  1041f4:	e51b3010 	ldr	r3, [fp, #-16]
  1041f8:	e5d32004 	ldrb	r2, [r3, #4]
  1041fc:	e51b300c 	ldr	r3, [fp, #-12]
  104200:	e5c32004 	strb	r2, [r3, #4]
  104204:	e51b3010 	ldr	r3, [fp, #-16]
  104208:	e593300c 	ldr	r3, [r3, #12]
  10420c:	e6ef2073 	uxtb	r2, r3
  104210:	e51b300c 	ldr	r3, [fp, #-12]
  104214:	e5c32020 	strb	r2, [r3, #32]
  104218:	e51b3010 	ldr	r3, [fp, #-16]
  10421c:	e5932000 	ldr	r2, [r3]
  104220:	e51b300c 	ldr	r3, [fp, #-12]
  104224:	e5832000 	str	r2, [r3]
  104228:	e51b300c 	ldr	r3, [fp, #-12]
  10422c:	e5932000 	ldr	r2, [r3]
  104230:	e51b3024 	ldr	r3, [fp, #-36]	; 0xffffffdc
  104234:	e5933000 	ldr	r3, [r3]
  104238:	e1a03083 	lsl	r3, r3, #1
  10423c:	e1a01003 	mov	r1, r3
  104240:	e1a00002 	mov	r0, r2
  104244:	eb003ff3 	bl	114218 <__aeabi_uidiv>
  104248:	e1a03000 	mov	r3, r0
  10424c:	e2432001 	sub	r2, r3, #1
  104250:	e51b300c 	ldr	r3, [fp, #-12]
  104254:	e5832024 	str	r2, [r3, #36]	; 0x24
  104258:	e3a02001 	mov	r2, #1
  10425c:	e3a01040 	mov	r1, #64	; 0x40
  104260:	e51b000c 	ldr	r0, [fp, #-12]
  104264:	ebfffcda 	bl	1035d4 <spi_engine_write>
  104268:	e3a02000 	mov	r2, #0
  10426c:	e3a01040 	mov	r1, #64	; 0x40
  104270:	e51b000c 	ldr	r0, [fp, #-12]
  104274:	ebfffcd6 	bl	1035d4 <spi_engine_write>
  104278:	e3a020ff 	mov	r2, #255	; 0xff
  10427c:	e3a01084 	mov	r1, #132	; 0x84
  104280:	e51b000c 	ldr	r0, [fp, #-12]
  104284:	ebfffcd2 	bl	1035d4 <spi_engine_write>
  104288:	e3a02000 	mov	r2, #0
  10428c:	e3a01080 	mov	r1, #128	; 0x80
  104290:	e51b000c 	ldr	r0, [fp, #-12]
  104294:	ebfffcce 	bl	1035d4 <spi_engine_write>
  104298:	e24b3018 	sub	r3, fp, #24
  10429c:	e1a02003 	mov	r2, r3
  1042a0:	e3a0100c 	mov	r1, #12
  1042a4:	e51b000c 	ldr	r0, [fp, #-12]
  1042a8:	ebfffce1 	bl	103634 <spi_engine_read>
  1042ac:	e51b3018 	ldr	r3, [fp, #-24]	; 0xffffffe8
  1042b0:	e6ef2073 	uxtb	r2, r3
  1042b4:	e51b300c 	ldr	r3, [fp, #-12]
  1042b8:	e5c32029 	strb	r2, [r3, #41]	; 0x29
  1042bc:	e51b300c 	ldr	r3, [fp, #-12]
  1042c0:	e5d33029 	ldrb	r3, [r3, #41]	; 0x29
  1042c4:	e1a01003 	mov	r1, r3
  1042c8:	e3000ae8 	movw	r0, #2792	; 0xae8
  1042cc:	e3400012 	movt	r0, #18
  1042d0:	eb0043ab 	bl	115184 <printf>
  1042d4:	e51b3020 	ldr	r3, [fp, #-32]	; 0xffffffe0
  1042d8:	e5932000 	ldr	r2, [r3]
  1042dc:	e51b3010 	ldr	r3, [fp, #-16]
  1042e0:	e5d33010 	ldrb	r3, [r3, #16]
  1042e4:	e1a01003 	mov	r1, r3
  1042e8:	e1a00002 	mov	r0, r2
  1042ec:	ebfffce0 	bl	103674 <spi_engine_set_transfer_width>
  1042f0:	e24b301c 	sub	r3, fp, #28
  1042f4:	e1a02003 	mov	r2, r3
  1042f8:	e3a01000 	mov	r1, #0
  1042fc:	e51b000c 	ldr	r0, [fp, #-12]
  104300:	ebfffccb 	bl	103634 <spi_engine_read>
  104304:	e51b301c 	ldr	r3, [fp, #-28]	; 0xffffffe4
  104308:	e1a01823 	lsr	r1, r3, #16
  10430c:	e51b301c 	ldr	r3, [fp, #-28]	; 0xffffffe4
  104310:	e1a03423 	lsr	r3, r3, #8
  104314:	e6ef2073 	uxtb	r2, r3
  104318:	e51b301c 	ldr	r3, [fp, #-28]	; 0xffffffe4
  10431c:	e6ef3073 	uxtb	r3, r3
  104320:	e3000b0c 	movw	r0, #2828	; 0xb0c
  104324:	e3400012 	movt	r0, #18
  104328:	eb004395 	bl	115184 <printf>
  10432c:	e3a03000 	mov	r3, #0
  104330:	e1a00003 	mov	r0, r3
  104334:	e24bd004 	sub	sp, fp, #4
  104338:	e8bd8800 	pop	{fp, pc}

0010433c <spi_engine_write_and_read>:
  10433c:	e92d48f0 	push	{r4, r5, r6, r7, fp, lr}
  104340:	e28db014 	add	fp, sp, #20
  104344:	e24dd030 	sub	sp, sp, #48	; 0x30
  104348:	e50b0038 	str	r0, [fp, #-56]	; 0xffffffc8
  10434c:	e50b103c 	str	r1, [fp, #-60]	; 0xffffffc4
  104350:	e1a03002 	mov	r3, r2
  104354:	e14b33be 	strh	r3, [fp, #-62]	; 0xffffffc2
  104358:	e51b3038 	ldr	r3, [fp, #-56]	; 0xffffffc8
  10435c:	e593300c 	ldr	r3, [r3, #12]
  104360:	e50b301c 	str	r3, [fp, #-28]	; 0xffffffe4
  104364:	e51b301c 	ldr	r3, [fp, #-28]	; 0xffffffe4
  104368:	e3a02000 	mov	r2, #0
  10436c:	e5c32010 	strb	r2, [r3, #16]
  104370:	e3a02000 	mov	r2, #0
  104374:	e3a01c01 	mov	r1, #256	; 0x100
  104378:	e51b001c 	ldr	r0, [fp, #-28]	; 0xffffffe4
  10437c:	ebfffc94 	bl	1035d4 <spi_engine_write>
  104380:	e15b33be 	ldrh	r3, [fp, #-62]	; 0xffffffc2
  104384:	e6ef3073 	uxtb	r3, r3
  104388:	e1a01003 	mov	r1, r3
  10438c:	e51b001c 	ldr	r0, [fp, #-28]	; 0xffffffe4
  104390:	ebfffce8 	bl	103738 <spi_get_words_number>
  104394:	e1a03000 	mov	r3, r0
  104398:	e54b301d 	strb	r3, [fp, #-29]	; 0xffffffe3
  10439c:	e3a00008 	mov	r0, #8
  1043a0:	eb004136 	bl	114880 <malloc>
  1043a4:	e1a03000 	mov	r3, r0
  1043a8:	e50b3028 	str	r3, [fp, #-40]	; 0xffffffd8
  1043ac:	e51b3028 	ldr	r3, [fp, #-40]	; 0xffffffd8
  1043b0:	e3530000 	cmp	r3, #0
  1043b4:	1a000001 	bne	1043c0 <spi_engine_write_and_read+0x84>
  1043b8:	e3e03000 	mvn	r3, #0
  1043bc:	ea000093 	b	104610 <spi_engine_write_and_read+0x2d4>
  1043c0:	e55b301d 	ldrb	r3, [fp, #-29]	; 0xffffffe3
  1043c4:	e3a01004 	mov	r1, #4
  1043c8:	e1a00003 	mov	r0, r3
  1043cc:	eb0040fb 	bl	1147c0 <calloc>
  1043d0:	e1a03000 	mov	r3, r0
  1043d4:	e50b3034 	str	r3, [fp, #-52]	; 0xffffffcc
  1043d8:	e55b301d 	ldrb	r3, [fp, #-29]	; 0xffffffe3
  1043dc:	e3a01004 	mov	r1, #4
  1043e0:	e1a00003 	mov	r0, r3
  1043e4:	eb0040f5 	bl	1147c0 <calloc>
  1043e8:	e1a03000 	mov	r3, r0
  1043ec:	e50b3030 	str	r3, [fp, #-48]	; 0xffffffd0
  1043f0:	e55b301d 	ldrb	r3, [fp, #-29]	; 0xffffffe3
  1043f4:	e50b302c 	str	r3, [fp, #-44]	; 0xffffffd4
  1043f8:	e51b001c 	ldr	r0, [fp, #-28]	; 0xffffffe4
  1043fc:	ebfffcee 	bl	1037bc <spi_get_word_lenght>
  104400:	e1a03000 	mov	r3, r0
  104404:	e54b301e 	strb	r3, [fp, #-30]	; 0xffffffe2
  104408:	e51b3028 	ldr	r3, [fp, #-40]	; 0xffffffd8
  10440c:	e3a02000 	mov	r2, #0
  104410:	e5832004 	str	r2, [r3, #4]
  104414:	e51b3028 	ldr	r3, [fp, #-40]	; 0xffffffd8
  104418:	e30123ff 	movw	r2, #5119	; 0x13ff
  10441c:	e5832000 	str	r2, [r3]
  104420:	e24b3034 	sub	r3, fp, #52	; 0x34
  104424:	e283300c 	add	r3, r3, #12
  104428:	e3a01c13 	mov	r1, #4864	; 0x1300
  10442c:	e1a00003 	mov	r0, r3
  104430:	ebfffd2d 	bl	1038ec <spi_engine_queue_add_cmd>
  104434:	e15b33be 	ldrh	r3, [fp, #-62]	; 0xffffffc2
  104438:	e3833c03 	orr	r3, r3, #768	; 0x300
  10443c:	e6ff3073 	uxth	r3, r3
  104440:	e1a02003 	mov	r2, r3
  104444:	e24b3034 	sub	r3, fp, #52	; 0x34
  104448:	e283300c 	add	r3, r3, #12
  10444c:	e1a01002 	mov	r1, r2
  104450:	e1a00003 	mov	r0, r3
  104454:	ebfffd24 	bl	1038ec <spi_engine_queue_add_cmd>
  104458:	e24b3034 	sub	r3, fp, #52	; 0x34
  10445c:	e283300c 	add	r3, r3, #12
  104460:	e30113ff 	movw	r1, #5119	; 0x13ff
  104464:	e1a00003 	mov	r0, r3
  104468:	ebfffd1f 	bl	1038ec <spi_engine_queue_add_cmd>
  10446c:	e3a03000 	mov	r3, #0
  104470:	e54b3015 	strb	r3, [fp, #-21]	; 0xffffffeb
  104474:	ea000027 	b	104518 <spi_engine_write_and_read+0x1dc>
  104478:	e51b4034 	ldr	r4, [fp, #-52]	; 0xffffffcc
  10447c:	e55b3015 	ldrb	r3, [fp, #-21]	; 0xffffffeb
  104480:	e55b201e 	ldrb	r2, [fp, #-30]	; 0xffffffe2
  104484:	e1a01002 	mov	r1, r2
  104488:	e1a00003 	mov	r0, r3
  10448c:	eb003f61 	bl	114218 <__aeabi_uidiv>
  104490:	e1a03000 	mov	r3, r0
  104494:	e6ef1073 	uxtb	r1, r3
  104498:	e1a03001 	mov	r3, r1
  10449c:	e1a03103 	lsl	r3, r3, #2
  1044a0:	e0844003 	add	r4, r4, r3
  1044a4:	e51b2034 	ldr	r2, [fp, #-52]	; 0xffffffcc
  1044a8:	e1a03001 	mov	r3, r1
  1044ac:	e1a03103 	lsl	r3, r3, #2
  1044b0:	e0823003 	add	r3, r2, r3
  1044b4:	e5935000 	ldr	r5, [r3]
  1044b8:	e55b3015 	ldrb	r3, [fp, #-21]	; 0xffffffeb
  1044bc:	e51b203c 	ldr	r2, [fp, #-60]	; 0xffffffc4
  1044c0:	e0823003 	add	r3, r2, r3
  1044c4:	e5d33000 	ldrb	r3, [r3]
  1044c8:	e1a06003 	mov	r6, r3
  1044cc:	e51b301c 	ldr	r3, [fp, #-28]	; 0xffffffe4
  1044d0:	e5d33028 	ldrb	r3, [r3, #40]	; 0x28
  1044d4:	e1a07003 	mov	r7, r3
  1044d8:	e55b3015 	ldrb	r3, [fp, #-21]	; 0xffffffeb
  1044dc:	e55b201e 	ldrb	r2, [fp, #-30]	; 0xffffffe2
  1044e0:	e1a01002 	mov	r1, r2
  1044e4:	e1a00003 	mov	r0, r3
  1044e8:	eb003fc5 	bl	114404 <__aeabi_uidivmod>
  1044ec:	e1a03001 	mov	r3, r1
  1044f0:	e6ef3073 	uxtb	r3, r3
  1044f4:	e2833001 	add	r3, r3, #1
  1044f8:	e1a03183 	lsl	r3, r3, #3
  1044fc:	e0473003 	sub	r3, r7, r3
  104500:	e1a03316 	lsl	r3, r6, r3
  104504:	e1853003 	orr	r3, r5, r3
  104508:	e5843000 	str	r3, [r4]
  10450c:	e55b3015 	ldrb	r3, [fp, #-21]	; 0xffffffeb
  104510:	e2833001 	add	r3, r3, #1
  104514:	e54b3015 	strb	r3, [fp, #-21]	; 0xffffffeb
  104518:	e55b3015 	ldrb	r3, [fp, #-21]	; 0xffffffeb
  10451c:	e6ff3073 	uxth	r3, r3
  104520:	e15b23be 	ldrh	r2, [fp, #-62]	; 0xffffffc2
  104524:	e1520003 	cmp	r2, r3
  104528:	8affffd2 	bhi	104478 <spi_engine_write_and_read+0x13c>
  10452c:	e24b3034 	sub	r3, fp, #52	; 0x34
  104530:	e1a01003 	mov	r1, r3
  104534:	e51b0038 	ldr	r0, [fp, #-56]	; 0xffffffc8
  104538:	ebfffe56 	bl	103e98 <spi_engine_transfer_message>
  10453c:	e50b0024 	str	r0, [fp, #-36]	; 0xffffffdc
  104540:	e3a03000 	mov	r3, #0
  104544:	e54b3015 	strb	r3, [fp, #-21]	; 0xffffffeb
  104548:	ea000020 	b	1045d0 <spi_engine_write_and_read+0x294>
  10454c:	e55b3015 	ldrb	r3, [fp, #-21]	; 0xffffffeb
  104550:	e51b203c 	ldr	r2, [fp, #-60]	; 0xffffffc4
  104554:	e0824003 	add	r4, r2, r3
  104558:	e51b5030 	ldr	r5, [fp, #-48]	; 0xffffffd0
  10455c:	e55b3015 	ldrb	r3, [fp, #-21]	; 0xffffffeb
  104560:	e55b201e 	ldrb	r2, [fp, #-30]	; 0xffffffe2
  104564:	e1a01002 	mov	r1, r2
  104568:	e1a00003 	mov	r0, r3
  10456c:	eb003f29 	bl	114218 <__aeabi_uidiv>
  104570:	e1a03000 	mov	r3, r0
  104574:	e6ef3073 	uxtb	r3, r3
  104578:	e1a03103 	lsl	r3, r3, #2
  10457c:	e0853003 	add	r3, r5, r3
  104580:	e5935000 	ldr	r5, [r3]
  104584:	e51b301c 	ldr	r3, [fp, #-28]	; 0xffffffe4
  104588:	e5d33028 	ldrb	r3, [r3, #40]	; 0x28
  10458c:	e1a06003 	mov	r6, r3
  104590:	e55b3015 	ldrb	r3, [fp, #-21]	; 0xffffffeb
  104594:	e55b201e 	ldrb	r2, [fp, #-30]	; 0xffffffe2
  104598:	e1a01002 	mov	r1, r2
  10459c:	e1a00003 	mov	r0, r3
  1045a0:	eb003f97 	bl	114404 <__aeabi_uidivmod>
  1045a4:	e1a03001 	mov	r3, r1
  1045a8:	e6ef3073 	uxtb	r3, r3
  1045ac:	e2833001 	add	r3, r3, #1
  1045b0:	e1a03183 	lsl	r3, r3, #3
  1045b4:	e0463003 	sub	r3, r6, r3
  1045b8:	e1a03335 	lsr	r3, r5, r3
  1045bc:	e6ef3073 	uxtb	r3, r3
  1045c0:	e5c43000 	strb	r3, [r4]
  1045c4:	e55b3015 	ldrb	r3, [fp, #-21]	; 0xffffffeb
  1045c8:	e2833001 	add	r3, r3, #1
  1045cc:	e54b3015 	strb	r3, [fp, #-21]	; 0xffffffeb
  1045d0:	e55b3015 	ldrb	r3, [fp, #-21]	; 0xffffffeb
  1045d4:	e6ff3073 	uxth	r3, r3
  1045d8:	e15b23be 	ldrh	r2, [fp, #-62]	; 0xffffffc2
  1045dc:	e1520003 	cmp	r2, r3
  1045e0:	8affffd9 	bhi	10454c <spi_engine_write_and_read+0x210>
  1045e4:	e24b3034 	sub	r3, fp, #52	; 0x34
  1045e8:	e283300c 	add	r3, r3, #12
  1045ec:	e1a00003 	mov	r0, r3
  1045f0:	ebfffd17 	bl	103a54 <spi_engine_queue_free>
  1045f4:	e51b3034 	ldr	r3, [fp, #-52]	; 0xffffffcc
  1045f8:	e1a00003 	mov	r0, r3
  1045fc:	eb0040a5 	bl	114898 <free>
  104600:	e51b3030 	ldr	r3, [fp, #-48]	; 0xffffffd0
  104604:	e1a00003 	mov	r0, r3
  104608:	eb0040a2 	bl	114898 <free>
  10460c:	e51b3024 	ldr	r3, [fp, #-36]	; 0xffffffdc
  104610:	e1a00003 	mov	r0, r3
  104614:	e24bd014 	sub	sp, fp, #20
  104618:	e8bd88f0 	pop	{r4, r5, r6, r7, fp, pc}

0010461c <spi_engine_offload_init>:
  10461c:	e92d4800 	push	{fp, lr}
  104620:	e28db004 	add	fp, sp, #4
  104624:	e24dd020 	sub	sp, sp, #32
  104628:	e50b0020 	str	r0, [fp, #-32]	; 0xffffffe0
  10462c:	e50b1024 	str	r1, [fp, #-36]	; 0xffffffdc
  104630:	e51b3020 	ldr	r3, [fp, #-32]	; 0xffffffe0
  104634:	e593300c 	ldr	r3, [r3, #12]
  104638:	e50b3008 	str	r3, [fp, #-8]
  10463c:	e51b3024 	ldr	r3, [fp, #-36]	; 0xffffffdc
  104640:	e5d32008 	ldrb	r2, [r3, #8]
  104644:	e51b3008 	ldr	r3, [fp, #-8]
  104648:	e5c32010 	strb	r2, [r3, #16]
  10464c:	e51b3024 	ldr	r3, [fp, #-36]	; 0xffffffdc
  104650:	e5d33008 	ldrb	r3, [r3, #8]
  104654:	e2033001 	and	r3, r3, #1
  104658:	e3530000 	cmp	r3, #0
  10465c:	0a000015 	beq	1046b8 <spi_engine_offload_init+0x9c>
  104660:	e3003b40 	movw	r3, #2880	; 0xb40
  104664:	e3403012 	movt	r3, #18
  104668:	e50b3018 	str	r3, [fp, #-24]	; 0xffffffe8
  10466c:	e51b3024 	ldr	r3, [fp, #-36]	; 0xffffffdc
  104670:	e5933004 	ldr	r3, [r3, #4]
  104674:	e50b3014 	str	r3, [fp, #-20]	; 0xffffffec
  104678:	e3a03001 	mov	r3, #1
  10467c:	e54b3010 	strb	r3, [fp, #-16]
  104680:	e3a03001 	mov	r3, #1
  104684:	e50b300c 	str	r3, [fp, #-12]
  104688:	e51b3008 	ldr	r3, [fp, #-8]
  10468c:	e2833008 	add	r3, r3, #8
  104690:	e24b2018 	sub	r2, fp, #24
  104694:	e1a01002 	mov	r1, r2
  104698:	e1a00003 	mov	r0, r3
  10469c:	eb00018e 	bl	104cdc <axi_dmac_init>
  1046a0:	e51b3008 	ldr	r3, [fp, #-8]
  1046a4:	e5933008 	ldr	r3, [r3, #8]
  1046a8:	e3530000 	cmp	r3, #0
  1046ac:	1a000001 	bne	1046b8 <spi_engine_offload_init+0x9c>
  1046b0:	e3e03000 	mvn	r3, #0
  1046b4:	ea00001b 	b	104728 <spi_engine_offload_init+0x10c>
  1046b8:	e51b3024 	ldr	r3, [fp, #-36]	; 0xffffffdc
  1046bc:	e5d33008 	ldrb	r3, [r3, #8]
  1046c0:	e2033002 	and	r3, r3, #2
  1046c4:	e3530000 	cmp	r3, #0
  1046c8:	0a000015 	beq	104724 <spi_engine_offload_init+0x108>
  1046cc:	e3003b4c 	movw	r3, #2892	; 0xb4c
  1046d0:	e3403012 	movt	r3, #18
  1046d4:	e50b3018 	str	r3, [fp, #-24]	; 0xffffffe8
  1046d8:	e51b3024 	ldr	r3, [fp, #-36]	; 0xffffffdc
  1046dc:	e5933000 	ldr	r3, [r3]
  1046e0:	e50b3014 	str	r3, [fp, #-20]	; 0xffffffec
  1046e4:	e3a03000 	mov	r3, #0
  1046e8:	e54b3010 	strb	r3, [fp, #-16]
  1046ec:	e3a03001 	mov	r3, #1
  1046f0:	e50b300c 	str	r3, [fp, #-12]
  1046f4:	e51b3008 	ldr	r3, [fp, #-8]
  1046f8:	e283300c 	add	r3, r3, #12
  1046fc:	e24b2018 	sub	r2, fp, #24
  104700:	e1a01002 	mov	r1, r2
  104704:	e1a00003 	mov	r0, r3
  104708:	eb000173 	bl	104cdc <axi_dmac_init>
  10470c:	e51b3008 	ldr	r3, [fp, #-8]
  104710:	e593300c 	ldr	r3, [r3, #12]
  104714:	e3530000 	cmp	r3, #0
  104718:	1a000001 	bne	104724 <spi_engine_offload_init+0x108>
  10471c:	e3e03000 	mvn	r3, #0
  104720:	ea000000 	b	104728 <spi_engine_offload_init+0x10c>
  104724:	e3a03000 	mov	r3, #0
  104728:	e1a00003 	mov	r0, r3
  10472c:	e24bd004 	sub	sp, fp, #4
  104730:	e8bd8800 	pop	{fp, pc}

00104734 <spi_engine_offload_transfer>:
  104734:	e24dd010 	sub	sp, sp, #16
  104738:	e92d4800 	push	{fp, lr}
  10473c:	e28db004 	add	fp, sp, #4
  104740:	e24dd028 	sub	sp, sp, #40	; 0x28
  104744:	e50b0028 	str	r0, [fp, #-40]	; 0xffffffd8
  104748:	e28b0008 	add	r0, fp, #8
  10474c:	e880000e 	stm	r0, {r1, r2, r3}
  104750:	e3000b58 	movw	r0, #2904	; 0xb58
  104754:	e3400012 	movt	r0, #18
  104758:	eb0042d7 	bl	1152bc <puts>
  10475c:	e51b3028 	ldr	r3, [fp, #-40]	; 0xffffffd8
  104760:	e593300c 	ldr	r3, [r3, #12]
  104764:	e50b3010 	str	r3, [fp, #-16]
  104768:	e51b3010 	ldr	r3, [fp, #-16]
  10476c:	e5d33010 	ldrb	r3, [r3, #16]
  104770:	e2033003 	and	r3, r3, #3
  104774:	e3530000 	cmp	r3, #0
  104778:	1a000001 	bne	104784 <spi_engine_offload_transfer+0x50>
  10477c:	e3e03000 	mvn	r3, #0
  104780:	ea000078 	b	104968 <spi_engine_offload_transfer+0x234>
  104784:	e3a02001 	mov	r2, #1
  104788:	e3a01f42 	mov	r1, #264	; 0x108
  10478c:	e51b0010 	ldr	r0, [fp, #-16]
  104790:	ebfffb8f 	bl	1035d4 <spi_engine_write>
  104794:	e3a02000 	mov	r2, #0
  104798:	e3a01f42 	mov	r1, #264	; 0x108
  10479c:	e51b0010 	ldr	r0, [fp, #-16]
  1047a0:	ebfffb8b 	bl	1035d4 <spi_engine_write>
  1047a4:	e51b3010 	ldr	r3, [fp, #-16]
  1047a8:	e3a02000 	mov	r2, #0
  1047ac:	e5c32011 	strb	r2, [r3, #17]
  1047b0:	e51b3010 	ldr	r3, [fp, #-16]
  1047b4:	e3a02000 	mov	r2, #0
  1047b8:	e5c32012 	strb	r2, [r3, #18]
  1047bc:	e3a00008 	mov	r0, #8
  1047c0:	eb00402e 	bl	114880 <malloc>
  1047c4:	e1a03000 	mov	r3, r0
  1047c8:	e50b3018 	str	r3, [fp, #-24]	; 0xffffffe8
  1047cc:	e51b3018 	ldr	r3, [fp, #-24]	; 0xffffffe8
  1047d0:	e3530000 	cmp	r3, #0
  1047d4:	1a000001 	bne	1047e0 <spi_engine_offload_transfer+0xac>
  1047d8:	e3e03000 	mvn	r3, #0
  1047dc:	ea000061 	b	104968 <spi_engine_offload_transfer+0x234>
  1047e0:	e59b3010 	ldr	r3, [fp, #16]
  1047e4:	e50b3024 	str	r3, [fp, #-36]	; 0xffffffdc
  1047e8:	e51b3018 	ldr	r3, [fp, #-24]	; 0xffffffe8
  1047ec:	e3a02000 	mov	r2, #0
  1047f0:	e5832004 	str	r2, [r3, #4]
  1047f4:	e51b3018 	ldr	r3, [fp, #-24]	; 0xffffffe8
  1047f8:	e59b2008 	ldr	r2, [fp, #8]
  1047fc:	e5922000 	ldr	r2, [r2]
  104800:	e5832000 	str	r2, [r3]
  104804:	e3a03001 	mov	r3, #1
  104808:	e50b3008 	str	r3, [fp, #-8]
  10480c:	ea00000b 	b	104840 <spi_engine_offload_transfer+0x10c>
  104810:	e59b2008 	ldr	r2, [fp, #8]
  104814:	e51b3008 	ldr	r3, [fp, #-8]
  104818:	e2831001 	add	r1, r3, #1
  10481c:	e50b1008 	str	r1, [fp, #-8]
  104820:	e1a03103 	lsl	r3, r3, #2
  104824:	e0823003 	add	r3, r2, r3
  104828:	e5932000 	ldr	r2, [r3]
  10482c:	e24b3024 	sub	r3, fp, #36	; 0x24
  104830:	e283300c 	add	r3, r3, #12
  104834:	e1a01002 	mov	r1, r2
  104838:	e1a00003 	mov	r0, r3
  10483c:	ebfffc2a 	bl	1038ec <spi_engine_queue_add_cmd>
  104840:	e59b200c 	ldr	r2, [fp, #12]
  104844:	e51b3008 	ldr	r3, [fp, #-8]
  104848:	e1520003 	cmp	r2, r3
  10484c:	8affffef 	bhi	104810 <spi_engine_offload_transfer+0xdc>
  104850:	e24b3024 	sub	r3, fp, #36	; 0x24
  104854:	e1a01003 	mov	r1, r3
  104858:	e51b0028 	ldr	r0, [fp, #-40]	; 0xffffffd8
  10485c:	ebfffd8d 	bl	103e98 <spi_engine_transfer_message>
  104860:	e51b0010 	ldr	r0, [fp, #-16]
  104864:	ebfffbd4 	bl	1037bc <spi_get_word_lenght>
  104868:	e1a03000 	mov	r3, r0
  10486c:	e54b3011 	strb	r3, [fp, #-17]	; 0xffffffef
  104870:	e51b3010 	ldr	r3, [fp, #-16]
  104874:	e5d33010 	ldrb	r3, [r3, #16]
  104878:	e2033001 	and	r3, r3, #1
  10487c:	e3530000 	cmp	r3, #0
  104880:	0a00000b 	beq	1048b4 <spi_engine_offload_transfer+0x180>
  104884:	e51b3010 	ldr	r3, [fp, #-16]
  104888:	e5930008 	ldr	r0, [r3, #8]
  10488c:	e59b1014 	ldr	r1, [fp, #20]
  104890:	e55b3011 	ldrb	r3, [fp, #-17]	; 0xffffffef
  104894:	e51b2010 	ldr	r2, [fp, #-16]
  104898:	e5d22011 	ldrb	r2, [r2, #17]
  10489c:	e0030392 	mul	r3, r2, r3
  1048a0:	e1a02003 	mov	r2, r3
  1048a4:	e59b301c 	ldr	r3, [fp, #28]
  1048a8:	e0030293 	mul	r3, r3, r2
  1048ac:	e1a02003 	mov	r2, r3
  1048b0:	eb000074 	bl	104a88 <axi_dmac_transfer>
  1048b4:	e51b3010 	ldr	r3, [fp, #-16]
  1048b8:	e5d33010 	ldrb	r3, [r3, #16]
  1048bc:	e2033002 	and	r3, r3, #2
  1048c0:	e3530000 	cmp	r3, #0
  1048c4:	0a00000b 	beq	1048f8 <spi_engine_offload_transfer+0x1c4>
  1048c8:	e51b3010 	ldr	r3, [fp, #-16]
  1048cc:	e593000c 	ldr	r0, [r3, #12]
  1048d0:	e59b1018 	ldr	r1, [fp, #24]
  1048d4:	e55b3011 	ldrb	r3, [fp, #-17]	; 0xffffffef
  1048d8:	e51b2010 	ldr	r2, [fp, #-16]
  1048dc:	e5d22011 	ldrb	r2, [r2, #17]
  1048e0:	e0030392 	mul	r3, r2, r3
  1048e4:	e1a02003 	mov	r2, r3
  1048e8:	e59b301c 	ldr	r3, [fp, #28]
  1048ec:	e0030293 	mul	r3, r3, r2
  1048f0:	e1a02003 	mov	r2, r3
  1048f4:	eb000063 	bl	104a88 <axi_dmac_transfer>
  1048f8:	e3a03000 	mov	r3, #0
  1048fc:	e50b300c 	str	r3, [fp, #-12]
  104900:	e3a03000 	mov	r3, #0
  104904:	e50b3008 	str	r3, [fp, #-8]
  104908:	ea000005 	b	104924 <spi_engine_offload_transfer+0x1f0>
  10490c:	e51b300c 	ldr	r3, [fp, #-12]
  104910:	e2833001 	add	r3, r3, #1
  104914:	e50b300c 	str	r3, [fp, #-12]
  104918:	e51b3008 	ldr	r3, [fp, #-8]
  10491c:	e2833001 	add	r3, r3, #1
  104920:	e50b3008 	str	r3, [fp, #-8]
  104924:	e51b3008 	ldr	r3, [fp, #-8]
  104928:	e302270f 	movw	r2, #9999	; 0x270f
  10492c:	e1530002 	cmp	r3, r2
  104930:	9afffff5 	bls	10490c <spi_engine_offload_transfer+0x1d8>
  104934:	e3a02001 	mov	r2, #1
  104938:	e3a01c01 	mov	r1, #256	; 0x100
  10493c:	e51b0010 	ldr	r0, [fp, #-16]
  104940:	ebfffb23 	bl	1035d4 <spi_engine_write>
  104944:	e51b3010 	ldr	r3, [fp, #-16]
  104948:	e593300c 	ldr	r3, [r3, #12]
  10494c:	e1a00003 	mov	r0, r3
  104950:	eb000106 	bl	104d70 <axi_wait>
  104954:	e24b3024 	sub	r3, fp, #36	; 0x24
  104958:	e283300c 	add	r3, r3, #12
  10495c:	e1a00003 	mov	r0, r3
  104960:	ebfffc3b 	bl	103a54 <spi_engine_queue_free>
  104964:	e3a03000 	mov	r3, #0
  104968:	e1a00003 	mov	r0, r3
  10496c:	e24bd004 	sub	sp, fp, #4
  104970:	e8bd4800 	pop	{fp, lr}
  104974:	e28dd010 	add	sp, sp, #16
  104978:	e12fff1e 	bx	lr

0010497c <spi_engine_remove>:
  10497c:	e92d4800 	push	{fp, lr}
  104980:	e28db004 	add	fp, sp, #4
  104984:	e24dd010 	sub	sp, sp, #16
  104988:	e50b0010 	str	r0, [fp, #-16]
  10498c:	e51b3010 	ldr	r3, [fp, #-16]
  104990:	e593300c 	ldr	r3, [r3, #12]
  104994:	e50b3008 	str	r3, [fp, #-8]
  104998:	e51b3008 	ldr	r3, [fp, #-8]
  10499c:	e5d33010 	ldrb	r3, [r3, #16]
  1049a0:	e2033001 	and	r3, r3, #1
  1049a4:	e3530000 	cmp	r3, #0
  1049a8:	0a000003 	beq	1049bc <spi_engine_remove+0x40>
  1049ac:	e51b3008 	ldr	r3, [fp, #-8]
  1049b0:	e5933008 	ldr	r3, [r3, #8]
  1049b4:	e1a00003 	mov	r0, r3
  1049b8:	eb00010b 	bl	104dec <axi_dmac_remove>
  1049bc:	e51b3008 	ldr	r3, [fp, #-8]
  1049c0:	e5d33010 	ldrb	r3, [r3, #16]
  1049c4:	e2033002 	and	r3, r3, #2
  1049c8:	e3530000 	cmp	r3, #0
  1049cc:	0a000003 	beq	1049e0 <spi_engine_remove+0x64>
  1049d0:	e51b3008 	ldr	r3, [fp, #-8]
  1049d4:	e593300c 	ldr	r3, [r3, #12]
  1049d8:	e1a00003 	mov	r0, r3
  1049dc:	eb000102 	bl	104dec <axi_dmac_remove>
  1049e0:	e51b3010 	ldr	r3, [fp, #-16]
  1049e4:	e593300c 	ldr	r3, [r3, #12]
  1049e8:	e1a00003 	mov	r0, r3
  1049ec:	eb003fa9 	bl	114898 <free>
  1049f0:	e51b0010 	ldr	r0, [fp, #-16]
  1049f4:	eb003fa7 	bl	114898 <free>
  1049f8:	e3a03000 	mov	r3, #0
  1049fc:	e1a00003 	mov	r0, r3
  104a00:	e24bd004 	sub	sp, fp, #4
  104a04:	e8bd8800 	pop	{fp, pc}

00104a08 <axi_dmac_read>:
  104a08:	e92d4800 	push	{fp, lr}
  104a0c:	e28db004 	add	fp, sp, #4
  104a10:	e24dd010 	sub	sp, sp, #16
  104a14:	e50b0008 	str	r0, [fp, #-8]
  104a18:	e50b100c 	str	r1, [fp, #-12]
  104a1c:	e50b2010 	str	r2, [fp, #-16]
  104a20:	e51b3008 	ldr	r3, [fp, #-8]
  104a24:	e5933004 	ldr	r3, [r3, #4]
  104a28:	e51b2010 	ldr	r2, [fp, #-16]
  104a2c:	e51b100c 	ldr	r1, [fp, #-12]
  104a30:	e1a00003 	mov	r0, r3
  104a34:	eb0000fb 	bl	104e28 <axi_io_read>
  104a38:	e3a03000 	mov	r3, #0
  104a3c:	e1a00003 	mov	r0, r3
  104a40:	e24bd004 	sub	sp, fp, #4
  104a44:	e8bd8800 	pop	{fp, pc}

00104a48 <axi_dmac_write>:
  104a48:	e92d4800 	push	{fp, lr}
  104a4c:	e28db004 	add	fp, sp, #4
  104a50:	e24dd010 	sub	sp, sp, #16
  104a54:	e50b0008 	str	r0, [fp, #-8]
  104a58:	e50b100c 	str	r1, [fp, #-12]
  104a5c:	e50b2010 	str	r2, [fp, #-16]
  104a60:	e51b3008 	ldr	r3, [fp, #-8]
  104a64:	e5933004 	ldr	r3, [r3, #4]
  104a68:	e51b2010 	ldr	r2, [fp, #-16]
  104a6c:	e51b100c 	ldr	r1, [fp, #-12]
  104a70:	e1a00003 	mov	r0, r3
  104a74:	eb0000fc 	bl	104e6c <axi_io_write>
  104a78:	e3a03000 	mov	r3, #0
  104a7c:	e1a00003 	mov	r0, r3
  104a80:	e24bd004 	sub	sp, fp, #4
  104a84:	e8bd8800 	pop	{fp, pc}

00104a88 <axi_dmac_transfer>:
  104a88:	e92d4800 	push	{fp, lr}
  104a8c:	e28db004 	add	fp, sp, #4
  104a90:	e24dd020 	sub	sp, sp, #32
  104a94:	e50b0018 	str	r0, [fp, #-24]	; 0xffffffe8
  104a98:	e50b101c 	str	r1, [fp, #-28]	; 0xffffffe4
  104a9c:	e50b2020 	str	r2, [fp, #-32]	; 0xffffffe0
  104aa0:	e3a03000 	mov	r3, #0
  104aa4:	e50b3010 	str	r3, [fp, #-16]
  104aa8:	e51b3020 	ldr	r3, [fp, #-32]	; 0xffffffe0
  104aac:	e3530000 	cmp	r3, #0
  104ab0:	1a000001 	bne	104abc <axi_dmac_transfer+0x34>
  104ab4:	e3a03000 	mov	r3, #0
  104ab8:	ea000084 	b	104cd0 <axi_dmac_transfer+0x248>
  104abc:	e3a02000 	mov	r2, #0
  104ac0:	e3a01b01 	mov	r1, #1024	; 0x400
  104ac4:	e51b0018 	ldr	r0, [fp, #-24]	; 0xffffffe8
  104ac8:	ebffffde 	bl	104a48 <axi_dmac_write>
  104acc:	e3a02001 	mov	r2, #1
  104ad0:	e3a01b01 	mov	r1, #1024	; 0x400
  104ad4:	e51b0018 	ldr	r0, [fp, #-24]	; 0xffffffe8
  104ad8:	ebffffda 	bl	104a48 <axi_dmac_write>
  104adc:	e24b3010 	sub	r3, fp, #16
  104ae0:	e1a02003 	mov	r2, r3
  104ae4:	e3a01b01 	mov	r1, #1024	; 0x400
  104ae8:	e51b0018 	ldr	r0, [fp, #-24]	; 0xffffffe8
  104aec:	ebffffc5 	bl	104a08 <axi_dmac_read>
  104af0:	e3a02000 	mov	r2, #0
  104af4:	e3a01080 	mov	r1, #128	; 0x80
  104af8:	e51b0018 	ldr	r0, [fp, #-24]	; 0xffffffe8
  104afc:	ebffffd1 	bl	104a48 <axi_dmac_write>
  104b00:	e24b300c 	sub	r3, fp, #12
  104b04:	e1a02003 	mov	r2, r3
  104b08:	e3a01084 	mov	r1, #132	; 0x84
  104b0c:	e51b0018 	ldr	r0, [fp, #-24]	; 0xffffffe8
  104b10:	ebffffbc 	bl	104a08 <axi_dmac_read>
  104b14:	e24b3008 	sub	r3, fp, #8
  104b18:	e1a02003 	mov	r2, r3
  104b1c:	e3001404 	movw	r1, #1028	; 0x404
  104b20:	e51b0018 	ldr	r0, [fp, #-24]	; 0xffffffe8
  104b24:	ebffffb7 	bl	104a08 <axi_dmac_read>
  104b28:	e24b300c 	sub	r3, fp, #12
  104b2c:	e1a02003 	mov	r2, r3
  104b30:	e3a01084 	mov	r1, #132	; 0x84
  104b34:	e51b0018 	ldr	r0, [fp, #-24]	; 0xffffffe8
  104b38:	ebffffb2 	bl	104a08 <axi_dmac_read>
  104b3c:	e51b300c 	ldr	r3, [fp, #-12]
  104b40:	e1a02003 	mov	r2, r3
  104b44:	e3a01084 	mov	r1, #132	; 0x84
  104b48:	e51b0018 	ldr	r0, [fp, #-24]	; 0xffffffe8
  104b4c:	ebffffbd 	bl	104a48 <axi_dmac_write>
  104b50:	e51b3018 	ldr	r3, [fp, #-24]	; 0xffffffe8
  104b54:	e5d33008 	ldrb	r3, [r3, #8]
  104b58:	e3530000 	cmp	r3, #0
  104b5c:	0a000002 	beq	104b6c <axi_dmac_transfer+0xe4>
  104b60:	e3530001 	cmp	r3, #1
  104b64:	0a00000e 	beq	104ba4 <axi_dmac_transfer+0x11c>
  104b68:	ea000016 	b	104bc8 <axi_dmac_transfer+0x140>
  104b6c:	e51b201c 	ldr	r2, [fp, #-28]	; 0xffffffe4
  104b70:	e3a01e41 	mov	r1, #1040	; 0x410
  104b74:	e51b0018 	ldr	r0, [fp, #-24]	; 0xffffffe8
  104b78:	ebffffb2 	bl	104a48 <axi_dmac_write>
  104b7c:	e51b201c 	ldr	r2, [fp, #-28]	; 0xffffffe4
  104b80:	e3a01e41 	mov	r1, #1040	; 0x410
  104b84:	e3000b80 	movw	r0, #2944	; 0xb80
  104b88:	e3400012 	movt	r0, #18
  104b8c:	eb00417c 	bl	115184 <printf>
  104b90:	e3a02000 	mov	r2, #0
  104b94:	e3a01e42 	mov	r1, #1056	; 0x420
  104b98:	e51b0018 	ldr	r0, [fp, #-24]	; 0xffffffe8
  104b9c:	ebffffa9 	bl	104a48 <axi_dmac_write>
  104ba0:	ea00000a 	b	104bd0 <axi_dmac_transfer+0x148>
  104ba4:	e51b201c 	ldr	r2, [fp, #-28]	; 0xffffffe4
  104ba8:	e3001414 	movw	r1, #1044	; 0x414
  104bac:	e51b0018 	ldr	r0, [fp, #-24]	; 0xffffffe8
  104bb0:	ebffffa4 	bl	104a48 <axi_dmac_write>
  104bb4:	e3a02000 	mov	r2, #0
  104bb8:	e3001424 	movw	r1, #1060	; 0x424
  104bbc:	e51b0018 	ldr	r0, [fp, #-24]	; 0xffffffe8
  104bc0:	ebffffa0 	bl	104a48 <axi_dmac_write>
  104bc4:	ea000001 	b	104bd0 <axi_dmac_transfer+0x148>
  104bc8:	e3e03000 	mvn	r3, #0
  104bcc:	ea00003f 	b	104cd0 <axi_dmac_transfer+0x248>
  104bd0:	e51b3020 	ldr	r3, [fp, #-32]	; 0xffffffe0
  104bd4:	e2433001 	sub	r3, r3, #1
  104bd8:	e1a02003 	mov	r2, r3
  104bdc:	e3001418 	movw	r1, #1048	; 0x418
  104be0:	e51b0018 	ldr	r0, [fp, #-24]	; 0xffffffe8
  104be4:	ebffff97 	bl	104a48 <axi_dmac_write>
  104be8:	e3a02000 	mov	r2, #0
  104bec:	e300141c 	movw	r1, #1052	; 0x41c
  104bf0:	e51b0018 	ldr	r0, [fp, #-24]	; 0xffffffe8
  104bf4:	ebffff93 	bl	104a48 <axi_dmac_write>
  104bf8:	e51b3018 	ldr	r3, [fp, #-24]	; 0xffffffe8
  104bfc:	e593300c 	ldr	r3, [r3, #12]
  104c00:	e1a02003 	mov	r2, r3
  104c04:	e300140c 	movw	r1, #1036	; 0x40c
  104c08:	e51b0018 	ldr	r0, [fp, #-24]	; 0xffffffe8
  104c0c:	ebffff8d 	bl	104a48 <axi_dmac_write>
  104c10:	e3a02001 	mov	r2, #1
  104c14:	e3001408 	movw	r1, #1032	; 0x408
  104c18:	e51b0018 	ldr	r0, [fp, #-24]	; 0xffffffe8
  104c1c:	ebffff89 	bl	104a48 <axi_dmac_write>
  104c20:	e51b3018 	ldr	r3, [fp, #-24]	; 0xffffffe8
  104c24:	e593300c 	ldr	r3, [r3, #12]
  104c28:	e2033001 	and	r3, r3, #1
  104c2c:	e3530000 	cmp	r3, #0
  104c30:	0a000001 	beq	104c3c <axi_dmac_transfer+0x1b4>
  104c34:	e3a03000 	mov	r3, #0
  104c38:	ea000024 	b	104cd0 <axi_dmac_transfer+0x248>
  104c3c:	e24b300c 	sub	r3, fp, #12
  104c40:	e1a02003 	mov	r2, r3
  104c44:	e3001408 	movw	r1, #1032	; 0x408
  104c48:	e51b0018 	ldr	r0, [fp, #-24]	; 0xffffffe8
  104c4c:	ebffff6d 	bl	104a08 <axi_dmac_read>
  104c50:	e51b300c 	ldr	r3, [fp, #-12]
  104c54:	e3530001 	cmp	r3, #1
  104c58:	0afffff7 	beq	104c3c <axi_dmac_transfer+0x1b4>
  104c5c:	e24b300c 	sub	r3, fp, #12
  104c60:	e1a02003 	mov	r2, r3
  104c64:	e3a01084 	mov	r1, #132	; 0x84
  104c68:	e51b0018 	ldr	r0, [fp, #-24]	; 0xffffffe8
  104c6c:	ebffff65 	bl	104a08 <axi_dmac_read>
  104c70:	e51b300c 	ldr	r3, [fp, #-12]
  104c74:	e3530003 	cmp	r3, #3
  104c78:	1afffff7 	bne	104c5c <axi_dmac_transfer+0x1d4>
  104c7c:	e51b300c 	ldr	r3, [fp, #-12]
  104c80:	e1a02003 	mov	r2, r3
  104c84:	e3a01084 	mov	r1, #132	; 0x84
  104c88:	e51b0018 	ldr	r0, [fp, #-24]	; 0xffffffe8
  104c8c:	ebffff6d 	bl	104a48 <axi_dmac_write>
  104c90:	e24b300c 	sub	r3, fp, #12
  104c94:	e1a02003 	mov	r2, r3
  104c98:	e3001428 	movw	r1, #1064	; 0x428
  104c9c:	e51b0018 	ldr	r0, [fp, #-24]	; 0xffffffe8
  104ca0:	ebffff58 	bl	104a08 <axi_dmac_read>
  104ca4:	e51b3008 	ldr	r3, [fp, #-8]
  104ca8:	e3a02001 	mov	r2, #1
  104cac:	e1a02312 	lsl	r2, r2, r3
  104cb0:	e51b300c 	ldr	r3, [fp, #-12]
  104cb4:	e0022003 	and	r2, r2, r3
  104cb8:	e51b3008 	ldr	r3, [fp, #-8]
  104cbc:	e3a01001 	mov	r1, #1
  104cc0:	e1a03311 	lsl	r3, r1, r3
  104cc4:	e1520003 	cmp	r2, r3
  104cc8:	1afffff0 	bne	104c90 <axi_dmac_transfer+0x208>
  104ccc:	e3a03000 	mov	r3, #0
  104cd0:	e1a00003 	mov	r0, r3
  104cd4:	e24bd004 	sub	sp, fp, #4
  104cd8:	e8bd8800 	pop	{fp, pc}

00104cdc <axi_dmac_init>:
  104cdc:	e92d4800 	push	{fp, lr}
  104ce0:	e28db004 	add	fp, sp, #4
  104ce4:	e24dd010 	sub	sp, sp, #16
  104ce8:	e50b0010 	str	r0, [fp, #-16]
  104cec:	e50b1014 	str	r1, [fp, #-20]	; 0xffffffec
  104cf0:	e3a00010 	mov	r0, #16
  104cf4:	eb003ee1 	bl	114880 <malloc>
  104cf8:	e1a03000 	mov	r3, r0
  104cfc:	e50b3008 	str	r3, [fp, #-8]
  104d00:	e51b3008 	ldr	r3, [fp, #-8]
  104d04:	e3530000 	cmp	r3, #0
  104d08:	1a000001 	bne	104d14 <axi_dmac_init+0x38>
  104d0c:	e3e03000 	mvn	r3, #0
  104d10:	ea000013 	b	104d64 <axi_dmac_init+0x88>
  104d14:	e51b3014 	ldr	r3, [fp, #-20]	; 0xffffffec
  104d18:	e5932000 	ldr	r2, [r3]
  104d1c:	e51b3008 	ldr	r3, [fp, #-8]
  104d20:	e5832000 	str	r2, [r3]
  104d24:	e51b3014 	ldr	r3, [fp, #-20]	; 0xffffffec
  104d28:	e5932004 	ldr	r2, [r3, #4]
  104d2c:	e51b3008 	ldr	r3, [fp, #-8]
  104d30:	e5832004 	str	r2, [r3, #4]
  104d34:	e51b3014 	ldr	r3, [fp, #-20]	; 0xffffffec
  104d38:	e5d32008 	ldrb	r2, [r3, #8]
  104d3c:	e51b3008 	ldr	r3, [fp, #-8]
  104d40:	e5c32008 	strb	r2, [r3, #8]
  104d44:	e51b3014 	ldr	r3, [fp, #-20]	; 0xffffffec
  104d48:	e593200c 	ldr	r2, [r3, #12]
  104d4c:	e51b3008 	ldr	r3, [fp, #-8]
  104d50:	e583200c 	str	r2, [r3, #12]
  104d54:	e51b3010 	ldr	r3, [fp, #-16]
  104d58:	e51b2008 	ldr	r2, [fp, #-8]
  104d5c:	e5832000 	str	r2, [r3]
  104d60:	e3a03000 	mov	r3, #0
  104d64:	e1a00003 	mov	r0, r3
  104d68:	e24bd004 	sub	sp, fp, #4
  104d6c:	e8bd8800 	pop	{fp, pc}

00104d70 <axi_wait>:
  104d70:	e92d4800 	push	{fp, lr}
  104d74:	e28db004 	add	fp, sp, #4
  104d78:	e24dd010 	sub	sp, sp, #16
  104d7c:	e50b0010 	str	r0, [fp, #-16]
  104d80:	e3000bd4 	movw	r0, #3028	; 0xbd4
  104d84:	e3400012 	movt	r0, #18
  104d88:	eb00414b 	bl	1152bc <puts>
  104d8c:	e24b3008 	sub	r3, fp, #8
  104d90:	e1a02003 	mov	r2, r3
  104d94:	e3001404 	movw	r1, #1028	; 0x404
  104d98:	e51b0010 	ldr	r0, [fp, #-16]
  104d9c:	ebffff19 	bl	104a08 <axi_dmac_read>
  104da0:	e24b300c 	sub	r3, fp, #12
  104da4:	e1a02003 	mov	r2, r3
  104da8:	e3001408 	movw	r1, #1032	; 0x408
  104dac:	e51b0010 	ldr	r0, [fp, #-16]
  104db0:	ebffff14 	bl	104a08 <axi_dmac_read>
  104db4:	e51b300c 	ldr	r3, [fp, #-12]
  104db8:	e3530001 	cmp	r3, #1
  104dbc:	0afffff7 	beq	104da0 <axi_wait+0x30>
  104dc0:	e24b300c 	sub	r3, fp, #12
  104dc4:	e1a02003 	mov	r2, r3
  104dc8:	e3a01084 	mov	r1, #132	; 0x84
  104dcc:	e51b0010 	ldr	r0, [fp, #-16]
  104dd0:	ebffff0c 	bl	104a08 <axi_dmac_read>
  104dd4:	e51b300c 	ldr	r3, [fp, #-12]
  104dd8:	e3530003 	cmp	r3, #3
  104ddc:	1afffff7 	bne	104dc0 <axi_wait+0x50>
  104de0:	e320f000 	nop	{0}
  104de4:	e24bd004 	sub	sp, fp, #4
  104de8:	e8bd8800 	pop	{fp, pc}

00104dec <axi_dmac_remove>:
  104dec:	e92d4800 	push	{fp, lr}
  104df0:	e28db004 	add	fp, sp, #4
  104df4:	e24dd008 	sub	sp, sp, #8
  104df8:	e50b0008 	str	r0, [fp, #-8]
  104dfc:	e51b3008 	ldr	r3, [fp, #-8]
  104e00:	e3530000 	cmp	r3, #0
  104e04:	1a000001 	bne	104e10 <axi_dmac_remove+0x24>
  104e08:	e3e03000 	mvn	r3, #0
  104e0c:	ea000002 	b	104e1c <axi_dmac_remove+0x30>
  104e10:	e51b0008 	ldr	r0, [fp, #-8]
  104e14:	eb003e9f 	bl	114898 <free>
  104e18:	e3a03000 	mov	r3, #0
  104e1c:	e1a00003 	mov	r0, r3
  104e20:	e24bd004 	sub	sp, fp, #4
  104e24:	e8bd8800 	pop	{fp, pc}

00104e28 <axi_io_read>:
  104e28:	e52db004 	push	{fp}		; (str fp, [sp, #-4]!)
  104e2c:	e28db000 	add	fp, sp, #0
  104e30:	e24dd014 	sub	sp, sp, #20
  104e34:	e50b0008 	str	r0, [fp, #-8]
  104e38:	e50b100c 	str	r1, [fp, #-12]
  104e3c:	e50b2010 	str	r2, [fp, #-16]
  104e40:	e51b2008 	ldr	r2, [fp, #-8]
  104e44:	e51b300c 	ldr	r3, [fp, #-12]
  104e48:	e0823003 	add	r3, r2, r3
  104e4c:	e5932000 	ldr	r2, [r3]
  104e50:	e51b3010 	ldr	r3, [fp, #-16]
  104e54:	e5832000 	str	r2, [r3]
  104e58:	e3a03000 	mov	r3, #0
  104e5c:	e1a00003 	mov	r0, r3
  104e60:	e24bd000 	sub	sp, fp, #0
  104e64:	e49db004 	pop	{fp}		; (ldr fp, [sp], #4)
  104e68:	e12fff1e 	bx	lr

00104e6c <axi_io_write>:
  104e6c:	e52db004 	push	{fp}		; (str fp, [sp, #-4]!)
  104e70:	e28db000 	add	fp, sp, #0
  104e74:	e24dd014 	sub	sp, sp, #20
  104e78:	e50b0008 	str	r0, [fp, #-8]
  104e7c:	e50b100c 	str	r1, [fp, #-12]
  104e80:	e50b2010 	str	r2, [fp, #-16]
  104e84:	e51b2008 	ldr	r2, [fp, #-8]
  104e88:	e51b300c 	ldr	r3, [fp, #-12]
  104e8c:	e0823003 	add	r3, r2, r3
  104e90:	e1a02003 	mov	r2, r3
  104e94:	e51b3010 	ldr	r3, [fp, #-16]
  104e98:	e5823000 	str	r3, [r2]
  104e9c:	e3a03000 	mov	r3, #0
  104ea0:	e1a00003 	mov	r0, r3
  104ea4:	e24bd000 	sub	sp, fp, #0
  104ea8:	e49db004 	pop	{fp}		; (ldr fp, [sp], #4)
  104eac:	e12fff1e 	bx	lr

00104eb0 <_close>:
  104eb0:	e52db004 	push	{fp}		; (str fp, [sp, #-4]!)
  104eb4:	e28db000 	add	fp, sp, #0
  104eb8:	e24dd00c 	sub	sp, sp, #12
  104ebc:	e50b0008 	str	r0, [fp, #-8]
  104ec0:	e51b3008 	ldr	r3, [fp, #-8]
  104ec4:	e3530001 	cmp	r3, #1
  104ec8:	1a000001 	bne	104ed4 <_close+0x24>
  104ecc:	e3a03000 	mov	r3, #0
  104ed0:	ea000000 	b	104ed8 <_close+0x28>
  104ed4:	e3e03000 	mvn	r3, #0
  104ed8:	e1a00003 	mov	r0, r3
  104edc:	e24bd000 	sub	sp, fp, #0
  104ee0:	e49db004 	pop	{fp}		; (ldr fp, [sp], #4)
  104ee4:	e12fff1e 	bx	lr

00104ee8 <_fstat>:
  104ee8:	e52db004 	push	{fp}		; (str fp, [sp, #-4]!)
  104eec:	e28db000 	add	fp, sp, #0
  104ef0:	e24dd00c 	sub	sp, sp, #12
  104ef4:	e50b0008 	str	r0, [fp, #-8]
  104ef8:	e50b100c 	str	r1, [fp, #-12]
  104efc:	e51b3008 	ldr	r3, [fp, #-8]
  104f00:	e3530001 	cmp	r3, #1
  104f04:	1a000001 	bne	104f10 <_fstat+0x28>
  104f08:	e3a03000 	mov	r3, #0
  104f0c:	ea000000 	b	104f14 <_fstat+0x2c>
  104f10:	e3e03000 	mvn	r3, #0
  104f14:	e1a00003 	mov	r0, r3
  104f18:	e24bd000 	sub	sp, fp, #0
  104f1c:	e49db004 	pop	{fp}		; (ldr fp, [sp], #4)
  104f20:	e12fff1e 	bx	lr

00104f24 <_isatty>:
  104f24:	e52db004 	push	{fp}		; (str fp, [sp, #-4]!)
  104f28:	e28db000 	add	fp, sp, #0
  104f2c:	e24dd00c 	sub	sp, sp, #12
  104f30:	e50b0008 	str	r0, [fp, #-8]
  104f34:	e51b3008 	ldr	r3, [fp, #-8]
  104f38:	e3530001 	cmp	r3, #1
  104f3c:	1a000001 	bne	104f48 <_isatty+0x24>
  104f40:	e3a03001 	mov	r3, #1
  104f44:	ea000000 	b	104f4c <_isatty+0x28>
  104f48:	e3e03000 	mvn	r3, #0
  104f4c:	e1a00003 	mov	r0, r3
  104f50:	e24bd000 	sub	sp, fp, #0
  104f54:	e49db004 	pop	{fp}		; (ldr fp, [sp], #4)
  104f58:	e12fff1e 	bx	lr

00104f5c <_lseek>:
  104f5c:	e52db004 	push	{fp}		; (str fp, [sp, #-4]!)
  104f60:	e28db000 	add	fp, sp, #0
  104f64:	e24dd014 	sub	sp, sp, #20
  104f68:	e50b0008 	str	r0, [fp, #-8]
  104f6c:	e50b100c 	str	r1, [fp, #-12]
  104f70:	e50b2010 	str	r2, [fp, #-16]
  104f74:	e51b3008 	ldr	r3, [fp, #-8]
  104f78:	e3530001 	cmp	r3, #1
  104f7c:	1a000001 	bne	104f88 <_lseek+0x2c>
  104f80:	e3a03000 	mov	r3, #0
  104f84:	ea000000 	b	104f8c <_lseek+0x30>
  104f88:	e3e03000 	mvn	r3, #0
  104f8c:	e1a00003 	mov	r0, r3
  104f90:	e24bd000 	sub	sp, fp, #0
  104f94:	e49db004 	pop	{fp}		; (ldr fp, [sp], #4)
  104f98:	e12fff1e 	bx	lr

00104f9c <_read>:
  104f9c:	e52db004 	push	{fp}		; (str fp, [sp, #-4]!)
  104fa0:	e28db000 	add	fp, sp, #0
  104fa4:	e24dd014 	sub	sp, sp, #20
  104fa8:	e50b0008 	str	r0, [fp, #-8]
  104fac:	e50b100c 	str	r1, [fp, #-12]
  104fb0:	e50b2010 	str	r2, [fp, #-16]
  104fb4:	e3e03000 	mvn	r3, #0
  104fb8:	e1a00003 	mov	r0, r3
  104fbc:	e24bd000 	sub	sp, fp, #0
  104fc0:	e49db004 	pop	{fp}		; (ldr fp, [sp], #4)
  104fc4:	e12fff1e 	bx	lr

00104fc8 <_write>:
  104fc8:	e52db004 	push	{fp}		; (str fp, [sp, #-4]!)
  104fcc:	e28db000 	add	fp, sp, #0
  104fd0:	e24dd01c 	sub	sp, sp, #28
  104fd4:	e50b0010 	str	r0, [fp, #-16]
  104fd8:	e50b1014 	str	r1, [fp, #-20]	; 0xffffffec
  104fdc:	e50b2018 	str	r2, [fp, #-24]	; 0xffffffe8
  104fe0:	e50b301c 	str	r3, [fp, #-28]	; 0xffffffe4
  104fe4:	e51b3010 	ldr	r3, [fp, #-16]
  104fe8:	e3530001 	cmp	r3, #1
  104fec:	0a000001 	beq	104ff8 <_write+0x30>
  104ff0:	e3e03000 	mvn	r3, #0
  104ff4:	ea000019 	b	105060 <_write+0x98>
  104ff8:	e3a03000 	mov	r3, #0
  104ffc:	e50b3008 	str	r3, [fp, #-8]
  105000:	ea000011 	b	10504c <_write+0x84>
  105004:	e320f000 	nop	{0}
  105008:	e3023014 	movw	r3, #8212	; 0x2014
  10500c:	e34f3fc0 	movt	r3, #65472	; 0xffc0
  105010:	e5933000 	ldr	r3, [r3]
  105014:	e1a032a3 	lsr	r3, r3, #5
  105018:	e2033001 	and	r3, r3, #1
  10501c:	e3530001 	cmp	r3, #1
  105020:	1afffff8 	bne	105008 <_write+0x40>
  105024:	e3a03a02 	mov	r3, #8192	; 0x2000
  105028:	e34f3fc0 	movt	r3, #65472	; 0xffc0
  10502c:	e51b2008 	ldr	r2, [fp, #-8]
  105030:	e51b1014 	ldr	r1, [fp, #-20]	; 0xffffffec
  105034:	e0812002 	add	r2, r1, r2
  105038:	e5d22000 	ldrb	r2, [r2]
  10503c:	e5832000 	str	r2, [r3]
  105040:	e51b3008 	ldr	r3, [fp, #-8]
  105044:	e2833001 	add	r3, r3, #1
  105048:	e50b3008 	str	r3, [fp, #-8]
  10504c:	e51b2008 	ldr	r2, [fp, #-8]
  105050:	e51b3018 	ldr	r3, [fp, #-24]	; 0xffffffe8
  105054:	e1520003 	cmp	r2, r3
  105058:	3affffe9 	bcc	105004 <_write+0x3c>
  10505c:	e51b3018 	ldr	r3, [fp, #-24]	; 0xffffffe8
  105060:	e1a00003 	mov	r0, r3
  105064:	e24bd000 	sub	sp, fp, #0
  105068:	e49db004 	pop	{fp}		; (ldr fp, [sp], #4)
  10506c:	e12fff1e 	bx	lr

00105070 <enable_all_caches>:
  105070:	e52de004 	push	{lr}		; (str lr, [sp, #-4]!)
  105074:	eb000005 	bl	105090 <enable_MMU>
  105078:	eb000050 	bl	1051c0 <initialize_L2C>
  10507c:	eb00009f 	bl	105300 <enable_L1_D_side_prefetch>
  105080:	eb0000a2 	bl	105310 <enable_L2_prefetch_hint>
  105084:	eb0000b1 	bl	105350 <enable_SCU>
  105088:	eb000065 	bl	105224 <enable_caches>
  10508c:	e49df004 	pop	{pc}		; (ldr pc, [sp], #4)

00105090 <enable_MMU>:
  105090:	e92d4eb0 	push	{r4, r5, r7, r9, sl, fp, lr}
  105094:	e59f0378 	ldr	r0, [pc, #888]	; 105414 <invalidate_and_flush+0x9c>
  105098:	e3a01000 	mov	r1, #0
  10509c:	e5801100 	str	r1, [r0, #256]	; 0x100
  1050a0:	ee110f10 	mrc	15, 0, r0, cr1, cr0, {0}
  1050a4:	e3c00a01 	bic	r0, r0, #4096	; 0x1000
  1050a8:	e3c00004 	bic	r0, r0, #4
  1050ac:	e3c00001 	bic	r0, r0, #1
  1050b0:	e3c00b02 	bic	r0, r0, #2048	; 0x800
  1050b4:	ee010f10 	mcr	15, 0, r0, cr1, cr0, {0}
  1050b8:	e3a00000 	mov	r0, #0
  1050bc:	ee080f17 	mcr	15, 0, r0, cr8, cr7, {0}
  1050c0:	ee070fd5 	mcr	15, 0, r0, cr7, cr5, {6}
  1050c4:	ee300f30 	mrc	15, 1, r0, cr0, cr0, {1}
  1050c8:	e3100003 	tst	r0, #3
  1050cc:	e3a00000 	mov	r0, #0
  1050d0:	1e070f15 	mcrne	15, 0, r0, cr7, cr5, {0}
  1050d4:	ee300f30 	mrc	15, 1, r0, cr0, cr0, {1}
  1050d8:	e2103407 	ands	r3, r0, #117440512	; 0x7000000
  1050dc:	e1a03ba3 	lsr	r3, r3, #23
  1050e0:	0a00001a 	beq	105150 <Finished>
  1050e4:	e3a0a000 	mov	sl, #0

001050e8 <Loop1>:
  1050e8:	e08a20aa 	add	r2, sl, sl, lsr #1
  1050ec:	e1a01230 	lsr	r1, r0, r2
  1050f0:	e2011007 	and	r1, r1, #7
  1050f4:	e3510002 	cmp	r1, #2
  1050f8:	ba000011 	blt	105144 <Skip>
  1050fc:	ee40af10 	mcr	15, 2, sl, cr0, cr0, {0}
  105100:	f57ff06f 	isb	sy
  105104:	ee301f10 	mrc	15, 1, r1, cr0, cr0, {0}
  105108:	e2012007 	and	r2, r1, #7
  10510c:	e2822004 	add	r2, r2, #4
  105110:	e59f4300 	ldr	r4, [pc, #768]	; 105418 <invalidate_and_flush+0xa0>
  105114:	e01441a1 	ands	r4, r4, r1, lsr #3
  105118:	e16f5f14 	clz	r5, r4
  10511c:	e59f72f8 	ldr	r7, [pc, #760]	; 10541c <invalidate_and_flush+0xa4>
  105120:	e01776a1 	ands	r7, r7, r1, lsr #13

00105124 <Loop2>:
  105124:	e1a09004 	mov	r9, r4

00105128 <Loop3>:
  105128:	e18ab519 	orr	fp, sl, r9, lsl r5
  10512c:	e18bb217 	orr	fp, fp, r7, lsl r2
  105130:	ee07bf56 	mcr	15, 0, fp, cr7, cr6, {2}
  105134:	e2599001 	subs	r9, r9, #1
  105138:	aafffffa 	bge	105128 <Loop3>
  10513c:	e2577001 	subs	r7, r7, #1
  105140:	aafffff7 	bge	105124 <Loop2>

00105144 <Skip>:
  105144:	e28aa002 	add	sl, sl, #2
  105148:	e153000a 	cmp	r3, sl
  10514c:	caffffe5 	bgt	1050e8 <Loop1>

00105150 <Finished>:
  105150:	e3a00000 	mov	r0, #0
  105154:	ee070fd5 	mcr	15, 0, r0, cr7, cr5, {6}
  105158:	e3a00000 	mov	r0, #0
  10515c:	ee020f50 	mcr	15, 0, r0, cr2, cr0, {2}
  105160:	e59f02b8 	ldr	r0, [pc, #696]	; 105420 <invalidate_and_flush+0xa8>
  105164:	e3a01008 	mov	r1, #8
  105168:	e3811040 	orr	r1, r1, #64	; 0x40
  10516c:	e1800001 	orr	r0, r0, r1
  105170:	ee020f10 	mcr	15, 0, r0, cr2, cr0, {0}
  105174:	e59f02a4 	ldr	r0, [pc, #676]	; 105420 <invalidate_and_flush+0xa8>
  105178:	e59f12a4 	ldr	r1, [pc, #676]	; 105424 <invalidate_and_flush+0xac>

0010517c <init_ttb_1>:
  10517c:	e3510b02 	cmp	r1, #2048	; 0x800
  105180:	459f22a0 	ldrmi	r2, [pc, #672]	; 105428 <invalidate_and_flush+0xb0>
  105184:	559f22a0 	ldrpl	r2, [pc, #672]	; 10542c <invalidate_and_flush+0xb4>
  105188:	e1823a01 	orr	r3, r2, r1, lsl #20
  10518c:	e7803101 	str	r3, [r0, r1, lsl #2]
  105190:	e2511001 	subs	r1, r1, #1
  105194:	5afffff8 	bpl	10517c <init_ttb_1>
  105198:	ee130f10 	mrc	15, 0, r0, cr3, cr0, {0}
  10519c:	e3e00000 	mvn	r0, #0
  1051a0:	ee030f10 	mcr	15, 0, r0, cr3, cr0, {0}
  1051a4:	ee110f10 	mrc	15, 0, r0, cr1, cr0, {0}
  1051a8:	e3c00a01 	bic	r0, r0, #4096	; 0x1000
  1051ac:	e3c00004 	bic	r0, r0, #4
  1051b0:	e3c00002 	bic	r0, r0, #2
  1051b4:	e3800001 	orr	r0, r0, #1
  1051b8:	ee010f10 	mcr	15, 0, r0, cr1, cr0, {0}
  1051bc:	e8bd8eb0 	pop	{r4, r5, r7, r9, sl, fp, pc}

001051c0 <initialize_L2C>:
  1051c0:	e59f024c 	ldr	r0, [pc, #588]	; 105414 <invalidate_and_flush+0x9c>
  1051c4:	e3a01000 	mov	r1, #0
  1051c8:	e5801100 	str	r1, [r0, #256]	; 0x100
  1051cc:	e3a01806 	mov	r1, #393216	; 0x60000
  1051d0:	e3811202 	orr	r1, r1, #536870912	; 0x20000000
  1051d4:	e3811201 	orr	r1, r1, #268435456	; 0x10000000
  1051d8:	e5801104 	str	r1, [r0, #260]	; 0x104
  1051dc:	e3a01000 	mov	r1, #0
  1051e0:	e5801108 	str	r1, [r0, #264]	; 0x108
  1051e4:	e3a01000 	mov	r1, #0
  1051e8:	e580110c 	str	r1, [r0, #268]	; 0x10c
  1051ec:	e3a010ff 	mov	r1, #255	; 0xff
  1051f0:	e580177c 	str	r1, [r0, #1916]	; 0x77c

001051f4 <poll_invalidate>:
  1051f4:	e590177c 	ldr	r1, [r0, #1916]	; 0x77c
  1051f8:	e3110001 	tst	r1, #1
  1051fc:	1afffffc 	bne	1051f4 <poll_invalidate>
  105200:	e3a01007 	mov	r1, #7
  105204:	e5801200 	str	r1, [r0, #512]	; 0x200
  105208:	e3a01008 	mov	r1, #8
  10520c:	e5801204 	str	r1, [r0, #516]	; 0x204
  105210:	e3a0100c 	mov	r1, #12
  105214:	e5801208 	str	r1, [r0, #520]	; 0x208
  105218:	e3a01000 	mov	r1, #0
  10521c:	e5801100 	str	r1, [r0, #256]	; 0x100
  105220:	e12fff1e 	bx	lr

00105224 <enable_caches>:
  105224:	ee110f10 	mrc	15, 0, r0, cr1, cr0, {0}
  105228:	e3800a01 	orr	r0, r0, #4096	; 0x1000
  10522c:	e3800004 	orr	r0, r0, #4
  105230:	e3800b02 	orr	r0, r0, #2048	; 0x800
  105234:	ee010f10 	mcr	15, 0, r0, cr1, cr0, {0}
  105238:	e59f01d4 	ldr	r0, [pc, #468]	; 105414 <invalidate_and_flush+0x9c>
  10523c:	e3a01001 	mov	r1, #1
  105240:	e5801100 	str	r1, [r0, #256]	; 0x100
  105244:	e12fff1e 	bx	lr

00105248 <enable_L1_D>:
  105248:	ee110f10 	mrc	15, 0, r0, cr1, cr0, {0}
  10524c:	e3800004 	orr	r0, r0, #4
  105250:	ee010f10 	mcr	15, 0, r0, cr1, cr0, {0}
  105254:	e12fff1e 	bx	lr

00105258 <enable_L1_I>:
  105258:	ee110f10 	mrc	15, 0, r0, cr1, cr0, {0}
  10525c:	e3800a01 	orr	r0, r0, #4096	; 0x1000
  105260:	ee010f10 	mcr	15, 0, r0, cr1, cr0, {0}
  105264:	e12fff1e 	bx	lr

00105268 <enable_branch_prediction>:
  105268:	ee110f10 	mrc	15, 0, r0, cr1, cr0, {0}
  10526c:	e3800b02 	orr	r0, r0, #2048	; 0x800
  105270:	ee010f10 	mcr	15, 0, r0, cr1, cr0, {0}
  105274:	e12fff1e 	bx	lr

00105278 <enable_L2>:
  105278:	e59f0194 	ldr	r0, [pc, #404]	; 105414 <invalidate_and_flush+0x9c>
  10527c:	e3a01001 	mov	r1, #1
  105280:	e5801100 	str	r1, [r0, #256]	; 0x100
  105284:	e12fff1e 	bx	lr

00105288 <enable_store_buffer_device_limitation>:
  105288:	e59f0184 	ldr	r0, [pc, #388]	; 105414 <invalidate_and_flush+0x9c>
  10528c:	e3a01000 	mov	r1, #0
  105290:	e5801100 	str	r1, [r0, #256]	; 0x100
  105294:	e5901104 	ldr	r1, [r0, #260]	; 0x104
  105298:	e3811b02 	orr	r1, r1, #2048	; 0x800
  10529c:	e5801104 	str	r1, [r0, #260]	; 0x104
  1052a0:	e3a01001 	mov	r1, #1
  1052a4:	e5801100 	str	r1, [r0, #256]	; 0x100
  1052a8:	e12fff1e 	bx	lr

001052ac <enable_early_BRESP>:
  1052ac:	e59f0160 	ldr	r0, [pc, #352]	; 105414 <invalidate_and_flush+0x9c>
  1052b0:	e3a01000 	mov	r1, #0
  1052b4:	e5801100 	str	r1, [r0, #256]	; 0x100
  1052b8:	e5901104 	ldr	r1, [r0, #260]	; 0x104
  1052bc:	e3811101 	orr	r1, r1, #1073741824	; 0x40000000
  1052c0:	e5801104 	str	r1, [r0, #260]	; 0x104
  1052c4:	e3a01001 	mov	r1, #1
  1052c8:	e5801100 	str	r1, [r0, #256]	; 0x100
  1052cc:	e12fff1e 	bx	lr

001052d0 <enable_write_full_line_zeros>:
  1052d0:	e59f013c 	ldr	r0, [pc, #316]	; 105414 <invalidate_and_flush+0x9c>
  1052d4:	e3a01000 	mov	r1, #0
  1052d8:	e5801100 	str	r1, [r0, #256]	; 0x100
  1052dc:	e5901104 	ldr	r1, [r0, #260]	; 0x104
  1052e0:	e3811101 	orr	r1, r1, #1073741824	; 0x40000000
  1052e4:	e5801104 	str	r1, [r0, #260]	; 0x104
  1052e8:	e3a01001 	mov	r1, #1
  1052ec:	e5801100 	str	r1, [r0, #256]	; 0x100
  1052f0:	ee110f30 	mrc	15, 0, r0, cr1, cr0, {1}
  1052f4:	e3800008 	orr	r0, r0, #8
  1052f8:	ee010f30 	mcr	15, 0, r0, cr1, cr0, {1}
  1052fc:	e12fff1e 	bx	lr

00105300 <enable_L1_D_side_prefetch>:
  105300:	ee110f30 	mrc	15, 0, r0, cr1, cr0, {1}
  105304:	e3800004 	orr	r0, r0, #4
  105308:	ee010f30 	mcr	15, 0, r0, cr1, cr0, {1}
  10530c:	e12fff1e 	bx	lr

00105310 <enable_L2_prefetch_hint>:
  105310:	ee110f30 	mrc	15, 0, r0, cr1, cr0, {1}
  105314:	e3800002 	orr	r0, r0, #2
  105318:	ee010f30 	mcr	15, 0, r0, cr1, cr0, {1}
  10531c:	e12fff1e 	bx	lr

00105320 <enable_exclusive_caching>:
  105320:	e59f00ec 	ldr	r0, [pc, #236]	; 105414 <invalidate_and_flush+0x9c>
  105324:	e3a01000 	mov	r1, #0
  105328:	e5801100 	str	r1, [r0, #256]	; 0x100
  10532c:	e5901104 	ldr	r1, [r0, #260]	; 0x104
  105330:	e3811a01 	orr	r1, r1, #4096	; 0x1000
  105334:	e5801104 	str	r1, [r0, #260]	; 0x104
  105338:	e3a01001 	mov	r1, #1
  10533c:	e5801100 	str	r1, [r0, #256]	; 0x100
  105340:	ee110f30 	mrc	15, 0, r0, cr1, cr0, {1}
  105344:	e3800080 	orr	r0, r0, #128	; 0x80
  105348:	ee010f30 	mcr	15, 0, r0, cr1, cr0, {1}
  10534c:	e12fff1e 	bx	lr

00105350 <enable_SCU>:
  105350:	ee9f0f10 	mrc	15, 4, r0, cr15, cr0, {0}
  105354:	e5901000 	ldr	r1, [r0]
  105358:	e3811001 	orr	r1, r1, #1
  10535c:	e5801000 	str	r1, [r0]
  105360:	e12fff1e 	bx	lr

00105364 <enable_L2_speculative_linefill>:
  105364:	ee9f0f10 	mrc	15, 4, r0, cr15, cr0, {0}
  105368:	e5901000 	ldr	r1, [r0]
  10536c:	e3811008 	orr	r1, r1, #8
  105370:	e5801000 	str	r1, [r0]
  105374:	e12fff1e 	bx	lr

00105378 <invalidate_and_flush>:
  105378:	e92d4eb0 	push	{r4, r5, r7, r9, sl, fp, lr}
  10537c:	e3a00000 	mov	r0, #0
  105380:	ee070fd5 	mcr	15, 0, r0, cr7, cr5, {6}
  105384:	ee300f30 	mrc	15, 1, r0, cr0, cr0, {1}
  105388:	e3a00000 	mov	r0, #0
  10538c:	ee070f15 	mcr	15, 0, r0, cr7, cr5, {0}
  105390:	ee300f30 	mrc	15, 1, r0, cr0, cr0, {1}
  105394:	e2103407 	ands	r3, r0, #117440512	; 0x7000000
  105398:	e1a03ba3 	lsr	r3, r3, #23
  10539c:	0a00001a 	beq	10540c <invalidate_and_flush+0x94>
  1053a0:	e3a0a000 	mov	sl, #0
  1053a4:	e08a20aa 	add	r2, sl, sl, lsr #1
  1053a8:	e1a01230 	lsr	r1, r0, r2
  1053ac:	e2011007 	and	r1, r1, #7
  1053b0:	e3510002 	cmp	r1, #2
  1053b4:	ba000011 	blt	105400 <invalidate_and_flush+0x88>
  1053b8:	ee40af10 	mcr	15, 2, sl, cr0, cr0, {0}
  1053bc:	f57ff06f 	isb	sy
  1053c0:	ee301f10 	mrc	15, 1, r1, cr0, cr0, {0}
  1053c4:	e2012007 	and	r2, r1, #7
  1053c8:	e2822004 	add	r2, r2, #4
  1053cc:	e59f4044 	ldr	r4, [pc, #68]	; 105418 <invalidate_and_flush+0xa0>
  1053d0:	e01441a1 	ands	r4, r4, r1, lsr #3
  1053d4:	e16f5f14 	clz	r5, r4
  1053d8:	e59f703c 	ldr	r7, [pc, #60]	; 10541c <invalidate_and_flush+0xa4>
  1053dc:	e01776a1 	ands	r7, r7, r1, lsr #13
  1053e0:	e1a09004 	mov	r9, r4
  1053e4:	e18ab519 	orr	fp, sl, r9, lsl r5
  1053e8:	e18bb217 	orr	fp, fp, r7, lsl r2
  1053ec:	ee07bf56 	mcr	15, 0, fp, cr7, cr6, {2}
  1053f0:	e2599001 	subs	r9, r9, #1
  1053f4:	aafffffa 	bge	1053e4 <invalidate_and_flush+0x6c>
  1053f8:	e2577001 	subs	r7, r7, #1
  1053fc:	aafffff7 	bge	1053e0 <invalidate_and_flush+0x68>
  105400:	e28aa002 	add	sl, sl, #2
  105404:	e153000a 	cmp	r3, sl
  105408:	caffffe5 	bgt	1053a4 <invalidate_and_flush+0x2c>
  10540c:	f57ff04f 	dsb	sy
  105410:	e8bd8eb0 	pop	{r4, r5, r7, r9, sl, fp, pc}
  105414:	fffef000 	.word	0xfffef000
  105418:	000003ff 	.word	0x000003ff
  10541c:	00007fff 	.word	0x00007fff
  105420:	00128000 	.word	0x00128000
  105424:	00000fff 	.word	0x00000fff
  105428:	00017c0e 	.word	0x00017c0e
  10542c:	00002c02 	.word	0x00002c02

00105430 <construct_standard_st_to_mm_descriptor>:
  105430:	e52db004 	push	{fp}		; (str fp, [sp, #-4]!)
  105434:	e28db000 	add	fp, sp, #0
  105438:	e24dd014 	sub	sp, sp, #20
  10543c:	e50b0008 	str	r0, [fp, #-8]
  105440:	e50b100c 	str	r1, [fp, #-12]
  105444:	e50b2010 	str	r2, [fp, #-16]
  105448:	e50b3014 	str	r3, [fp, #-20]	; 0xffffffec
  10544c:	e51b3008 	ldr	r3, [fp, #-8]
  105450:	e3a02000 	mov	r2, #0
  105454:	e5832000 	str	r2, [r3]
  105458:	e51b3008 	ldr	r3, [fp, #-8]
  10545c:	e51b200c 	ldr	r2, [fp, #-12]
  105460:	e5832004 	str	r2, [r3, #4]
  105464:	e51b3008 	ldr	r3, [fp, #-8]
  105468:	e51b2010 	ldr	r2, [fp, #-16]
  10546c:	e5832008 	str	r2, [r3, #8]
  105470:	e51b3014 	ldr	r3, [fp, #-20]	; 0xffffffec
  105474:	e3832102 	orr	r2, r3, #-2147483648	; 0x80000000
  105478:	e51b3008 	ldr	r3, [fp, #-8]
  10547c:	e583200c 	str	r2, [r3, #12]
  105480:	e3a03000 	mov	r3, #0
  105484:	e1a00003 	mov	r0, r3
  105488:	e24bd000 	sub	sp, fp, #0
  10548c:	e49db004 	pop	{fp}		; (ldr fp, [sp], #4)
  105490:	e12fff1e 	bx	lr

00105494 <construct_standard_mm_to_st_descriptor>:
  105494:	e52db004 	push	{fp}		; (str fp, [sp, #-4]!)
  105498:	e28db000 	add	fp, sp, #0
  10549c:	e24dd014 	sub	sp, sp, #20
  1054a0:	e50b0008 	str	r0, [fp, #-8]
  1054a4:	e50b100c 	str	r1, [fp, #-12]
  1054a8:	e50b2010 	str	r2, [fp, #-16]
  1054ac:	e50b3014 	str	r3, [fp, #-20]	; 0xffffffec
  1054b0:	e51b3008 	ldr	r3, [fp, #-8]
  1054b4:	e51b200c 	ldr	r2, [fp, #-12]
  1054b8:	e5832000 	str	r2, [r3]
  1054bc:	e51b3008 	ldr	r3, [fp, #-8]
  1054c0:	e3a02000 	mov	r2, #0
  1054c4:	e5832004 	str	r2, [r3, #4]
  1054c8:	e51b3008 	ldr	r3, [fp, #-8]
  1054cc:	e51b2010 	ldr	r2, [fp, #-16]
  1054d0:	e5832008 	str	r2, [r3, #8]
  1054d4:	e51b3014 	ldr	r3, [fp, #-20]	; 0xffffffec
  1054d8:	e3832102 	orr	r2, r3, #-2147483648	; 0x80000000
  1054dc:	e51b3008 	ldr	r3, [fp, #-8]
  1054e0:	e583200c 	str	r2, [r3, #12]
  1054e4:	e3a03000 	mov	r3, #0
  1054e8:	e1a00003 	mov	r0, r3
  1054ec:	e24bd000 	sub	sp, fp, #0
  1054f0:	e49db004 	pop	{fp}		; (ldr fp, [sp], #4)
  1054f4:	e12fff1e 	bx	lr

001054f8 <construct_standard_mm_to_mm_descriptor>:
  1054f8:	e52db004 	push	{fp}		; (str fp, [sp, #-4]!)
  1054fc:	e28db000 	add	fp, sp, #0
  105500:	e24dd014 	sub	sp, sp, #20
  105504:	e50b0008 	str	r0, [fp, #-8]
  105508:	e50b100c 	str	r1, [fp, #-12]
  10550c:	e50b2010 	str	r2, [fp, #-16]
  105510:	e50b3014 	str	r3, [fp, #-20]	; 0xffffffec
  105514:	e51b3008 	ldr	r3, [fp, #-8]
  105518:	e51b200c 	ldr	r2, [fp, #-12]
  10551c:	e5832000 	str	r2, [r3]
  105520:	e51b3008 	ldr	r3, [fp, #-8]
  105524:	e51b2010 	ldr	r2, [fp, #-16]
  105528:	e5832004 	str	r2, [r3, #4]
  10552c:	e51b3008 	ldr	r3, [fp, #-8]
  105530:	e51b2014 	ldr	r2, [fp, #-20]	; 0xffffffec
  105534:	e5832008 	str	r2, [r3, #8]
  105538:	e59b3004 	ldr	r3, [fp, #4]
  10553c:	e3832102 	orr	r2, r3, #-2147483648	; 0x80000000
  105540:	e51b3008 	ldr	r3, [fp, #-8]
  105544:	e583200c 	str	r2, [r3, #12]
  105548:	e3a03000 	mov	r3, #0
  10554c:	e1a00003 	mov	r0, r3
  105550:	e24bd000 	sub	sp, fp, #0
  105554:	e49db004 	pop	{fp}		; (ldr fp, [sp], #4)
  105558:	e12fff1e 	bx	lr

0010555c <construct_extended_st_to_mm_descriptor>:
  10555c:	e52db004 	push	{fp}		; (str fp, [sp, #-4]!)
  105560:	e28db000 	add	fp, sp, #0
  105564:	e24dd014 	sub	sp, sp, #20
  105568:	e50b0008 	str	r0, [fp, #-8]
  10556c:	e50b100c 	str	r1, [fp, #-12]
  105570:	e50b2010 	str	r2, [fp, #-16]
  105574:	e50b3014 	str	r3, [fp, #-20]	; 0xffffffec
  105578:	e51b3008 	ldr	r3, [fp, #-8]
  10557c:	e3a02000 	mov	r2, #0
  105580:	e5832000 	str	r2, [r3]
  105584:	e51b3008 	ldr	r3, [fp, #-8]
  105588:	e51b200c 	ldr	r2, [fp, #-12]
  10558c:	e5832004 	str	r2, [r3, #4]
  105590:	e51b3008 	ldr	r3, [fp, #-8]
  105594:	e51b2010 	ldr	r2, [fp, #-16]
  105598:	e5832008 	str	r2, [r3, #8]
  10559c:	e51b3008 	ldr	r3, [fp, #-8]
  1055a0:	e1db20b4 	ldrh	r2, [fp, #4]
  1055a4:	e1c320bc 	strh	r2, [r3, #12]
  1055a8:	e51b3008 	ldr	r3, [fp, #-8]
  1055ac:	e3a02000 	mov	r2, #0
  1055b0:	e5c3200e 	strb	r2, [r3, #14]
  1055b4:	e51b3008 	ldr	r3, [fp, #-8]
  1055b8:	e5db2008 	ldrb	r2, [fp, #8]
  1055bc:	e5c3200f 	strb	r2, [r3, #15]
  1055c0:	e51b3008 	ldr	r3, [fp, #-8]
  1055c4:	e3a02000 	mov	r2, #0
  1055c8:	e1c321b0 	strh	r2, [r3, #16]
  1055cc:	e51b3008 	ldr	r3, [fp, #-8]
  1055d0:	e1db20bc 	ldrh	r2, [fp, #12]
  1055d4:	e1c321b2 	strh	r2, [r3, #18]
  1055d8:	e51b3008 	ldr	r3, [fp, #-8]
  1055dc:	e3a02000 	mov	r2, #0
  1055e0:	e5832014 	str	r2, [r3, #20]
  1055e4:	e51b3008 	ldr	r3, [fp, #-8]
  1055e8:	e3a02000 	mov	r2, #0
  1055ec:	e5832018 	str	r2, [r3, #24]
  1055f0:	e51b3014 	ldr	r3, [fp, #-20]	; 0xffffffec
  1055f4:	e3832102 	orr	r2, r3, #-2147483648	; 0x80000000
  1055f8:	e51b3008 	ldr	r3, [fp, #-8]
  1055fc:	e583201c 	str	r2, [r3, #28]
  105600:	e3a03000 	mov	r3, #0
  105604:	e1a00003 	mov	r0, r3
  105608:	e24bd000 	sub	sp, fp, #0
  10560c:	e49db004 	pop	{fp}		; (ldr fp, [sp], #4)
  105610:	e12fff1e 	bx	lr

00105614 <construct_extended_st_to_mm_descriptor_64>:
  105614:	e52db004 	push	{fp}		; (str fp, [sp, #-4]!)
  105618:	e28db000 	add	fp, sp, #0
  10561c:	e24dd014 	sub	sp, sp, #20
  105620:	e50b0008 	str	r0, [fp, #-8]
  105624:	e50b100c 	str	r1, [fp, #-12]
  105628:	e50b2010 	str	r2, [fp, #-16]
  10562c:	e50b3014 	str	r3, [fp, #-20]	; 0xffffffec
  105630:	e51b3008 	ldr	r3, [fp, #-8]
  105634:	e3a02000 	mov	r2, #0
  105638:	e5832000 	str	r2, [r3]
  10563c:	e51b3008 	ldr	r3, [fp, #-8]
  105640:	e51b200c 	ldr	r2, [fp, #-12]
  105644:	e5832004 	str	r2, [r3, #4]
  105648:	e51b3008 	ldr	r3, [fp, #-8]
  10564c:	e51b2014 	ldr	r2, [fp, #-20]	; 0xffffffec
  105650:	e5832008 	str	r2, [r3, #8]
  105654:	e51b3008 	ldr	r3, [fp, #-8]
  105658:	e1db20b8 	ldrh	r2, [fp, #8]
  10565c:	e1c320bc 	strh	r2, [r3, #12]
  105660:	e51b3008 	ldr	r3, [fp, #-8]
  105664:	e3a02000 	mov	r2, #0
  105668:	e5c3200e 	strb	r2, [r3, #14]
  10566c:	e51b3008 	ldr	r3, [fp, #-8]
  105670:	e5db200c 	ldrb	r2, [fp, #12]
  105674:	e5c3200f 	strb	r2, [r3, #15]
  105678:	e51b3008 	ldr	r3, [fp, #-8]
  10567c:	e3a02000 	mov	r2, #0
  105680:	e1c321b0 	strh	r2, [r3, #16]
  105684:	e51b3008 	ldr	r3, [fp, #-8]
  105688:	e1db21b0 	ldrh	r2, [fp, #16]
  10568c:	e1c321b2 	strh	r2, [r3, #18]
  105690:	e51b3008 	ldr	r3, [fp, #-8]
  105694:	e3a02000 	mov	r2, #0
  105698:	e5832014 	str	r2, [r3, #20]
  10569c:	e51b3008 	ldr	r3, [fp, #-8]
  1056a0:	e51b2010 	ldr	r2, [fp, #-16]
  1056a4:	e5832018 	str	r2, [r3, #24]
  1056a8:	e59b3004 	ldr	r3, [fp, #4]
  1056ac:	e3832102 	orr	r2, r3, #-2147483648	; 0x80000000
  1056b0:	e51b3008 	ldr	r3, [fp, #-8]
  1056b4:	e583201c 	str	r2, [r3, #28]
  1056b8:	e3a03000 	mov	r3, #0
  1056bc:	e1a00003 	mov	r0, r3
  1056c0:	e24bd000 	sub	sp, fp, #0
  1056c4:	e49db004 	pop	{fp}		; (ldr fp, [sp], #4)
  1056c8:	e12fff1e 	bx	lr

001056cc <construct_extended_mm_to_st_descriptor>:
  1056cc:	e52db004 	push	{fp}		; (str fp, [sp, #-4]!)
  1056d0:	e28db000 	add	fp, sp, #0
  1056d4:	e24dd014 	sub	sp, sp, #20
  1056d8:	e50b0008 	str	r0, [fp, #-8]
  1056dc:	e50b100c 	str	r1, [fp, #-12]
  1056e0:	e50b2010 	str	r2, [fp, #-16]
  1056e4:	e50b3014 	str	r3, [fp, #-20]	; 0xffffffec
  1056e8:	e51b3008 	ldr	r3, [fp, #-8]
  1056ec:	e51b200c 	ldr	r2, [fp, #-12]
  1056f0:	e5832000 	str	r2, [r3]
  1056f4:	e51b3008 	ldr	r3, [fp, #-8]
  1056f8:	e3a02000 	mov	r2, #0
  1056fc:	e5832004 	str	r2, [r3, #4]
  105700:	e51b3008 	ldr	r3, [fp, #-8]
  105704:	e51b2010 	ldr	r2, [fp, #-16]
  105708:	e5832008 	str	r2, [r3, #8]
  10570c:	e51b3008 	ldr	r3, [fp, #-8]
  105710:	e1db20b4 	ldrh	r2, [fp, #4]
  105714:	e1c320bc 	strh	r2, [r3, #12]
  105718:	e51b3008 	ldr	r3, [fp, #-8]
  10571c:	e5db2008 	ldrb	r2, [fp, #8]
  105720:	e5c3200e 	strb	r2, [r3, #14]
  105724:	e51b3008 	ldr	r3, [fp, #-8]
  105728:	e3a02000 	mov	r2, #0
  10572c:	e5c3200f 	strb	r2, [r3, #15]
  105730:	e51b3008 	ldr	r3, [fp, #-8]
  105734:	e1db20bc 	ldrh	r2, [fp, #12]
  105738:	e1c321b0 	strh	r2, [r3, #16]
  10573c:	e51b3008 	ldr	r3, [fp, #-8]
  105740:	e3a02000 	mov	r2, #0
  105744:	e1c321b2 	strh	r2, [r3, #18]
  105748:	e51b3008 	ldr	r3, [fp, #-8]
  10574c:	e3a02000 	mov	r2, #0
  105750:	e5832014 	str	r2, [r3, #20]
  105754:	e51b3008 	ldr	r3, [fp, #-8]
  105758:	e3a02000 	mov	r2, #0
  10575c:	e5832018 	str	r2, [r3, #24]
  105760:	e51b3014 	ldr	r3, [fp, #-20]	; 0xffffffec
  105764:	e3832102 	orr	r2, r3, #-2147483648	; 0x80000000
  105768:	e51b3008 	ldr	r3, [fp, #-8]
  10576c:	e583201c 	str	r2, [r3, #28]
  105770:	e3a03000 	mov	r3, #0
  105774:	e1a00003 	mov	r0, r3
  105778:	e24bd000 	sub	sp, fp, #0
  10577c:	e49db004 	pop	{fp}		; (ldr fp, [sp], #4)
  105780:	e12fff1e 	bx	lr

00105784 <construct_extended_mm_to_st_descriptor_64>:
  105784:	e52db004 	push	{fp}		; (str fp, [sp, #-4]!)
  105788:	e28db000 	add	fp, sp, #0
  10578c:	e24dd014 	sub	sp, sp, #20
  105790:	e50b0008 	str	r0, [fp, #-8]
  105794:	e50b100c 	str	r1, [fp, #-12]
  105798:	e50b2010 	str	r2, [fp, #-16]
  10579c:	e50b3014 	str	r3, [fp, #-20]	; 0xffffffec
  1057a0:	e51b3008 	ldr	r3, [fp, #-8]
  1057a4:	e51b200c 	ldr	r2, [fp, #-12]
  1057a8:	e5832000 	str	r2, [r3]
  1057ac:	e51b3008 	ldr	r3, [fp, #-8]
  1057b0:	e3a02000 	mov	r2, #0
  1057b4:	e5832004 	str	r2, [r3, #4]
  1057b8:	e51b3008 	ldr	r3, [fp, #-8]
  1057bc:	e51b2014 	ldr	r2, [fp, #-20]	; 0xffffffec
  1057c0:	e5832008 	str	r2, [r3, #8]
  1057c4:	e51b3008 	ldr	r3, [fp, #-8]
  1057c8:	e1db20b8 	ldrh	r2, [fp, #8]
  1057cc:	e1c320bc 	strh	r2, [r3, #12]
  1057d0:	e51b3008 	ldr	r3, [fp, #-8]
  1057d4:	e5db200c 	ldrb	r2, [fp, #12]
  1057d8:	e5c3200e 	strb	r2, [r3, #14]
  1057dc:	e51b3008 	ldr	r3, [fp, #-8]
  1057e0:	e3a02000 	mov	r2, #0
  1057e4:	e5c3200f 	strb	r2, [r3, #15]
  1057e8:	e51b3008 	ldr	r3, [fp, #-8]
  1057ec:	e1db21b0 	ldrh	r2, [fp, #16]
  1057f0:	e1c321b0 	strh	r2, [r3, #16]
  1057f4:	e51b3008 	ldr	r3, [fp, #-8]
  1057f8:	e3a02000 	mov	r2, #0
  1057fc:	e1c321b2 	strh	r2, [r3, #18]
  105800:	e51b3008 	ldr	r3, [fp, #-8]
  105804:	e51b2010 	ldr	r2, [fp, #-16]
  105808:	e5832014 	str	r2, [r3, #20]
  10580c:	e51b3008 	ldr	r3, [fp, #-8]
  105810:	e3a02000 	mov	r2, #0
  105814:	e5832018 	str	r2, [r3, #24]
  105818:	e59b3004 	ldr	r3, [fp, #4]
  10581c:	e3832102 	orr	r2, r3, #-2147483648	; 0x80000000
  105820:	e51b3008 	ldr	r3, [fp, #-8]
  105824:	e583201c 	str	r2, [r3, #28]
  105828:	e3a03000 	mov	r3, #0
  10582c:	e1a00003 	mov	r0, r3
  105830:	e24bd000 	sub	sp, fp, #0
  105834:	e49db004 	pop	{fp}		; (ldr fp, [sp], #4)
  105838:	e12fff1e 	bx	lr

0010583c <construct_extended_mm_to_mm_descriptor>:
  10583c:	e52db004 	push	{fp}		; (str fp, [sp, #-4]!)
  105840:	e28db000 	add	fp, sp, #0
  105844:	e24dd014 	sub	sp, sp, #20
  105848:	e50b0008 	str	r0, [fp, #-8]
  10584c:	e50b100c 	str	r1, [fp, #-12]
  105850:	e50b2010 	str	r2, [fp, #-16]
  105854:	e50b3014 	str	r3, [fp, #-20]	; 0xffffffec
  105858:	e51b3008 	ldr	r3, [fp, #-8]
  10585c:	e51b200c 	ldr	r2, [fp, #-12]
  105860:	e5832000 	str	r2, [r3]
  105864:	e51b3008 	ldr	r3, [fp, #-8]
  105868:	e51b2010 	ldr	r2, [fp, #-16]
  10586c:	e5832004 	str	r2, [r3, #4]
  105870:	e51b3008 	ldr	r3, [fp, #-8]
  105874:	e51b2014 	ldr	r2, [fp, #-20]	; 0xffffffec
  105878:	e5832008 	str	r2, [r3, #8]
  10587c:	e51b3008 	ldr	r3, [fp, #-8]
  105880:	e1db20b8 	ldrh	r2, [fp, #8]
  105884:	e1c320bc 	strh	r2, [r3, #12]
  105888:	e51b3008 	ldr	r3, [fp, #-8]
  10588c:	e5db200c 	ldrb	r2, [fp, #12]
  105890:	e5c3200e 	strb	r2, [r3, #14]
  105894:	e51b3008 	ldr	r3, [fp, #-8]
  105898:	e5db2010 	ldrb	r2, [fp, #16]
  10589c:	e5c3200f 	strb	r2, [r3, #15]
  1058a0:	e51b3008 	ldr	r3, [fp, #-8]
  1058a4:	e1db21b4 	ldrh	r2, [fp, #20]
  1058a8:	e1c321b0 	strh	r2, [r3, #16]
  1058ac:	e51b3008 	ldr	r3, [fp, #-8]
  1058b0:	e1db21b8 	ldrh	r2, [fp, #24]
  1058b4:	e1c321b2 	strh	r2, [r3, #18]
  1058b8:	e51b3008 	ldr	r3, [fp, #-8]
  1058bc:	e3a02000 	mov	r2, #0
  1058c0:	e5832014 	str	r2, [r3, #20]
  1058c4:	e51b3008 	ldr	r3, [fp, #-8]
  1058c8:	e3a02000 	mov	r2, #0
  1058cc:	e5832018 	str	r2, [r3, #24]
  1058d0:	e59b3004 	ldr	r3, [fp, #4]
  1058d4:	e3832102 	orr	r2, r3, #-2147483648	; 0x80000000
  1058d8:	e51b3008 	ldr	r3, [fp, #-8]
  1058dc:	e583201c 	str	r2, [r3, #28]
  1058e0:	e3a03000 	mov	r3, #0
  1058e4:	e1a00003 	mov	r0, r3
  1058e8:	e24bd000 	sub	sp, fp, #0
  1058ec:	e49db004 	pop	{fp}		; (ldr fp, [sp], #4)
  1058f0:	e12fff1e 	bx	lr

001058f4 <construct_extended_mm_to_mm_descriptor_64>:
  1058f4:	e52db004 	push	{fp}		; (str fp, [sp, #-4]!)
  1058f8:	e28db000 	add	fp, sp, #0
  1058fc:	e24dd014 	sub	sp, sp, #20
  105900:	e50b0008 	str	r0, [fp, #-8]
  105904:	e50b100c 	str	r1, [fp, #-12]
  105908:	e50b2010 	str	r2, [fp, #-16]
  10590c:	e50b3014 	str	r3, [fp, #-20]	; 0xffffffec
  105910:	e51b3008 	ldr	r3, [fp, #-8]
  105914:	e51b200c 	ldr	r2, [fp, #-12]
  105918:	e5832000 	str	r2, [r3]
  10591c:	e51b3008 	ldr	r3, [fp, #-8]
  105920:	e51b2014 	ldr	r2, [fp, #-20]	; 0xffffffec
  105924:	e5832004 	str	r2, [r3, #4]
  105928:	e51b3008 	ldr	r3, [fp, #-8]
  10592c:	e59b2008 	ldr	r2, [fp, #8]
  105930:	e5832008 	str	r2, [r3, #8]
  105934:	e51b3008 	ldr	r3, [fp, #-8]
  105938:	e1db21b0 	ldrh	r2, [fp, #16]
  10593c:	e1c320bc 	strh	r2, [r3, #12]
  105940:	e51b3008 	ldr	r3, [fp, #-8]
  105944:	e5db2014 	ldrb	r2, [fp, #20]
  105948:	e5c3200e 	strb	r2, [r3, #14]
  10594c:	e51b3008 	ldr	r3, [fp, #-8]
  105950:	e5db2018 	ldrb	r2, [fp, #24]
  105954:	e5c3200f 	strb	r2, [r3, #15]
  105958:	e51b3008 	ldr	r3, [fp, #-8]
  10595c:	e1db21bc 	ldrh	r2, [fp, #28]
  105960:	e1c321b0 	strh	r2, [r3, #16]
  105964:	e51b3008 	ldr	r3, [fp, #-8]
  105968:	e1db22b0 	ldrh	r2, [fp, #32]
  10596c:	e1c321b2 	strh	r2, [r3, #18]
  105970:	e51b3008 	ldr	r3, [fp, #-8]
  105974:	e51b2010 	ldr	r2, [fp, #-16]
  105978:	e5832014 	str	r2, [r3, #20]
  10597c:	e51b3008 	ldr	r3, [fp, #-8]
  105980:	e59b2004 	ldr	r2, [fp, #4]
  105984:	e5832018 	str	r2, [r3, #24]
  105988:	e59b300c 	ldr	r3, [fp, #12]
  10598c:	e3832102 	orr	r2, r3, #-2147483648	; 0x80000000
  105990:	e51b3008 	ldr	r3, [fp, #-8]
  105994:	e583201c 	str	r2, [r3, #28]
  105998:	e3a03000 	mov	r3, #0
  10599c:	e1a00003 	mov	r0, r3
  1059a0:	e24bd000 	sub	sp, fp, #0
  1059a4:	e49db004 	pop	{fp}		; (ldr fp, [sp], #4)
  1059a8:	e12fff1e 	bx	lr

001059ac <write_standard_descriptor>:
  1059ac:	e52db004 	push	{fp}		; (str fp, [sp, #-4]!)
  1059b0:	e28db000 	add	fp, sp, #0
  1059b4:	e24dd014 	sub	sp, sp, #20
  1059b8:	e50b0008 	str	r0, [fp, #-8]
  1059bc:	e50b100c 	str	r1, [fp, #-12]
  1059c0:	e50b2010 	str	r2, [fp, #-16]
  1059c4:	e51b3008 	ldr	r3, [fp, #-8]
  1059c8:	e5933000 	ldr	r3, [r3]
  1059cc:	e2033004 	and	r3, r3, #4
  1059d0:	e3530000 	cmp	r3, #0
  1059d4:	0a000001 	beq	1059e0 <write_standard_descriptor+0x34>
  1059d8:	e3e0301b 	mvn	r3, #27
  1059dc:	ea000016 	b	105a3c <write_standard_descriptor+0x90>
  1059e0:	e51b300c 	ldr	r3, [fp, #-12]
  1059e4:	e51b2010 	ldr	r2, [fp, #-16]
  1059e8:	e5922000 	ldr	r2, [r2]
  1059ec:	e5832000 	str	r2, [r3]
  1059f0:	e51b300c 	ldr	r3, [fp, #-12]
  1059f4:	e2833004 	add	r3, r3, #4
  1059f8:	e1a02003 	mov	r2, r3
  1059fc:	e51b3010 	ldr	r3, [fp, #-16]
  105a00:	e5933004 	ldr	r3, [r3, #4]
  105a04:	e5823000 	str	r3, [r2]
  105a08:	e51b300c 	ldr	r3, [fp, #-12]
  105a0c:	e2833008 	add	r3, r3, #8
  105a10:	e1a02003 	mov	r2, r3
  105a14:	e51b3010 	ldr	r3, [fp, #-16]
  105a18:	e5933008 	ldr	r3, [r3, #8]
  105a1c:	e5823000 	str	r3, [r2]
  105a20:	e51b300c 	ldr	r3, [fp, #-12]
  105a24:	e283300c 	add	r3, r3, #12
  105a28:	e1a02003 	mov	r2, r3
  105a2c:	e51b3010 	ldr	r3, [fp, #-16]
  105a30:	e593300c 	ldr	r3, [r3, #12]
  105a34:	e5823000 	str	r3, [r2]
  105a38:	e3a03000 	mov	r3, #0
  105a3c:	e1a00003 	mov	r0, r3
  105a40:	e24bd000 	sub	sp, fp, #0
  105a44:	e49db004 	pop	{fp}		; (ldr fp, [sp], #4)
  105a48:	e12fff1e 	bx	lr

00105a4c <write_extended_descriptor>:
  105a4c:	e52db004 	push	{fp}		; (str fp, [sp, #-4]!)
  105a50:	e28db000 	add	fp, sp, #0
  105a54:	e24dd014 	sub	sp, sp, #20
  105a58:	e50b0008 	str	r0, [fp, #-8]
  105a5c:	e50b100c 	str	r1, [fp, #-12]
  105a60:	e50b2010 	str	r2, [fp, #-16]
  105a64:	e51b3008 	ldr	r3, [fp, #-8]
  105a68:	e5933000 	ldr	r3, [r3]
  105a6c:	e2033004 	and	r3, r3, #4
  105a70:	e3530000 	cmp	r3, #0
  105a74:	0a000001 	beq	105a80 <write_extended_descriptor+0x34>
  105a78:	e3e0301b 	mvn	r3, #27
  105a7c:	ea000040 	b	105b84 <write_extended_descriptor+0x138>
  105a80:	e51b300c 	ldr	r3, [fp, #-12]
  105a84:	e51b2010 	ldr	r2, [fp, #-16]
  105a88:	e5922000 	ldr	r2, [r2]
  105a8c:	e5832000 	str	r2, [r3]
  105a90:	e51b300c 	ldr	r3, [fp, #-12]
  105a94:	e2833004 	add	r3, r3, #4
  105a98:	e1a02003 	mov	r2, r3
  105a9c:	e51b3010 	ldr	r3, [fp, #-16]
  105aa0:	e5933004 	ldr	r3, [r3, #4]
  105aa4:	e5823000 	str	r3, [r2]
  105aa8:	e51b300c 	ldr	r3, [fp, #-12]
  105aac:	e2833008 	add	r3, r3, #8
  105ab0:	e1a02003 	mov	r2, r3
  105ab4:	e51b3010 	ldr	r3, [fp, #-16]
  105ab8:	e5933008 	ldr	r3, [r3, #8]
  105abc:	e5823000 	str	r3, [r2]
  105ac0:	e51b300c 	ldr	r3, [fp, #-12]
  105ac4:	e283300c 	add	r3, r3, #12
  105ac8:	e1a02003 	mov	r2, r3
  105acc:	e51b3010 	ldr	r3, [fp, #-16]
  105ad0:	e1d330bc 	ldrh	r3, [r3, #12]
  105ad4:	e1c230b0 	strh	r3, [r2]
  105ad8:	e51b300c 	ldr	r3, [fp, #-12]
  105adc:	e283300e 	add	r3, r3, #14
  105ae0:	e1a02003 	mov	r2, r3
  105ae4:	e51b3010 	ldr	r3, [fp, #-16]
  105ae8:	e5d3300e 	ldrb	r3, [r3, #14]
  105aec:	e5c23000 	strb	r3, [r2]
  105af0:	e51b300c 	ldr	r3, [fp, #-12]
  105af4:	e283300f 	add	r3, r3, #15
  105af8:	e1a02003 	mov	r2, r3
  105afc:	e51b3010 	ldr	r3, [fp, #-16]
  105b00:	e5d3300f 	ldrb	r3, [r3, #15]
  105b04:	e5c23000 	strb	r3, [r2]
  105b08:	e51b300c 	ldr	r3, [fp, #-12]
  105b0c:	e2833010 	add	r3, r3, #16
  105b10:	e1a02003 	mov	r2, r3
  105b14:	e51b3010 	ldr	r3, [fp, #-16]
  105b18:	e1d331b0 	ldrh	r3, [r3, #16]
  105b1c:	e1c230b0 	strh	r3, [r2]
  105b20:	e51b300c 	ldr	r3, [fp, #-12]
  105b24:	e2833012 	add	r3, r3, #18
  105b28:	e1a02003 	mov	r2, r3
  105b2c:	e51b3010 	ldr	r3, [fp, #-16]
  105b30:	e1d331b2 	ldrh	r3, [r3, #18]
  105b34:	e1c230b0 	strh	r3, [r2]
  105b38:	e51b300c 	ldr	r3, [fp, #-12]
  105b3c:	e2833014 	add	r3, r3, #20
  105b40:	e1a02003 	mov	r2, r3
  105b44:	e51b3010 	ldr	r3, [fp, #-16]
  105b48:	e5933014 	ldr	r3, [r3, #20]
  105b4c:	e5823000 	str	r3, [r2]
  105b50:	e51b300c 	ldr	r3, [fp, #-12]
  105b54:	e2833018 	add	r3, r3, #24
  105b58:	e1a02003 	mov	r2, r3
  105b5c:	e51b3010 	ldr	r3, [fp, #-16]
  105b60:	e5933018 	ldr	r3, [r3, #24]
  105b64:	e5823000 	str	r3, [r2]
  105b68:	e51b300c 	ldr	r3, [fp, #-12]
  105b6c:	e283301c 	add	r3, r3, #28
  105b70:	e1a02003 	mov	r2, r3
  105b74:	e51b3010 	ldr	r3, [fp, #-16]
  105b78:	e593301c 	ldr	r3, [r3, #28]
  105b7c:	e5823000 	str	r3, [r2]
  105b80:	e3a03000 	mov	r3, #0
  105b84:	e1a00003 	mov	r0, r3
  105b88:	e24bd000 	sub	sp, fp, #0
  105b8c:	e49db004 	pop	{fp}		; (ldr fp, [sp], #4)
  105b90:	e12fff1e 	bx	lr

00105b94 <read_mm_response>:
  105b94:	e52db004 	push	{fp}		; (str fp, [sp, #-4]!)
  105b98:	e28db000 	add	fp, sp, #0
  105b9c:	e24dd01c 	sub	sp, sp, #28
  105ba0:	e50b0010 	str	r0, [fp, #-16]
  105ba4:	e50b1014 	str	r1, [fp, #-20]	; 0xffffffec
  105ba8:	e50b2018 	str	r2, [fp, #-24]	; 0xffffffe8
  105bac:	e51b3010 	ldr	r3, [fp, #-16]
  105bb0:	e5933000 	ldr	r3, [r3]
  105bb4:	e2033008 	and	r3, r3, #8
  105bb8:	e3530000 	cmp	r3, #0
  105bbc:	0a000001 	beq	105bc8 <read_mm_response+0x34>
  105bc0:	e3e0303c 	mvn	r3, #60	; 0x3c
  105bc4:	ea000013 	b	105c18 <read_mm_response+0x84>
  105bc8:	e51b3014 	ldr	r3, [fp, #-20]	; 0xffffffec
  105bcc:	e5932000 	ldr	r2, [r3]
  105bd0:	e51b3018 	ldr	r3, [fp, #-24]	; 0xffffffe8
  105bd4:	e5832000 	str	r2, [r3]
  105bd8:	e51b3014 	ldr	r3, [fp, #-20]	; 0xffffffec
  105bdc:	e2833004 	add	r3, r3, #4
  105be0:	e5933000 	ldr	r3, [r3]
  105be4:	e50b3008 	str	r3, [fp, #-8]
  105be8:	e51b3008 	ldr	r3, [fp, #-8]
  105bec:	e6ef2073 	uxtb	r2, r3
  105bf0:	e51b3018 	ldr	r3, [fp, #-24]	; 0xffffffe8
  105bf4:	e5c32004 	strb	r2, [r3, #4]
  105bf8:	e51b3008 	ldr	r3, [fp, #-8]
  105bfc:	e1a03423 	lsr	r3, r3, #8
  105c00:	e6ef3073 	uxtb	r3, r3
  105c04:	e2033001 	and	r3, r3, #1
  105c08:	e6ef2073 	uxtb	r2, r3
  105c0c:	e51b3018 	ldr	r3, [fp, #-24]	; 0xffffffe8
  105c10:	e5c32005 	strb	r2, [r3, #5]
  105c14:	e3a03000 	mov	r3, #0
  105c18:	e1a00003 	mov	r0, r3
  105c1c:	e24bd000 	sub	sp, fp, #0
  105c20:	e49db004 	pop	{fp}		; (ldr fp, [sp], #4)
  105c24:	e12fff1e 	bx	lr

00105c28 <read_csr_status>:
  105c28:	e52db004 	push	{fp}		; (str fp, [sp, #-4]!)
  105c2c:	e28db000 	add	fp, sp, #0
  105c30:	e24dd00c 	sub	sp, sp, #12
  105c34:	e50b0008 	str	r0, [fp, #-8]
  105c38:	e51b3008 	ldr	r3, [fp, #-8]
  105c3c:	e5933000 	ldr	r3, [r3]
  105c40:	e1a00003 	mov	r0, r3
  105c44:	e24bd000 	sub	sp, fp, #0
  105c48:	e49db004 	pop	{fp}		; (ldr fp, [sp], #4)
  105c4c:	e12fff1e 	bx	lr

00105c50 <read_csr_control>:
  105c50:	e52db004 	push	{fp}		; (str fp, [sp, #-4]!)
  105c54:	e28db000 	add	fp, sp, #0
  105c58:	e24dd00c 	sub	sp, sp, #12
  105c5c:	e50b0008 	str	r0, [fp, #-8]
  105c60:	e51b3008 	ldr	r3, [fp, #-8]
  105c64:	e2833004 	add	r3, r3, #4
  105c68:	e5933000 	ldr	r3, [r3]
  105c6c:	e1a00003 	mov	r0, r3
  105c70:	e24bd000 	sub	sp, fp, #0
  105c74:	e49db004 	pop	{fp}		; (ldr fp, [sp], #4)
  105c78:	e12fff1e 	bx	lr

00105c7c <read_csr_read_descriptor_buffer_fill_level>:
  105c7c:	e52db004 	push	{fp}		; (str fp, [sp, #-4]!)
  105c80:	e28db000 	add	fp, sp, #0
  105c84:	e24dd00c 	sub	sp, sp, #12
  105c88:	e50b0008 	str	r0, [fp, #-8]
  105c8c:	e51b3008 	ldr	r3, [fp, #-8]
  105c90:	e2833008 	add	r3, r3, #8
  105c94:	e5933000 	ldr	r3, [r3]
  105c98:	e6ff3073 	uxth	r3, r3
  105c9c:	e1a00003 	mov	r0, r3
  105ca0:	e24bd000 	sub	sp, fp, #0
  105ca4:	e49db004 	pop	{fp}		; (ldr fp, [sp], #4)
  105ca8:	e12fff1e 	bx	lr

00105cac <read_csr_write_descriptor_buffer_fill_level>:
  105cac:	e52db004 	push	{fp}		; (str fp, [sp, #-4]!)
  105cb0:	e28db000 	add	fp, sp, #0
  105cb4:	e24dd00c 	sub	sp, sp, #12
  105cb8:	e50b0008 	str	r0, [fp, #-8]
  105cbc:	e51b3008 	ldr	r3, [fp, #-8]
  105cc0:	e2833008 	add	r3, r3, #8
  105cc4:	e5933000 	ldr	r3, [r3]
  105cc8:	e1a03823 	lsr	r3, r3, #16
  105ccc:	e6ff3073 	uxth	r3, r3
  105cd0:	e1a00003 	mov	r0, r3
  105cd4:	e24bd000 	sub	sp, fp, #0
  105cd8:	e49db004 	pop	{fp}		; (ldr fp, [sp], #4)
  105cdc:	e12fff1e 	bx	lr

00105ce0 <read_csr_response_buffer_fill_level>:
  105ce0:	e52db004 	push	{fp}		; (str fp, [sp, #-4]!)
  105ce4:	e28db000 	add	fp, sp, #0
  105ce8:	e24dd00c 	sub	sp, sp, #12
  105cec:	e50b0008 	str	r0, [fp, #-8]
  105cf0:	e51b3008 	ldr	r3, [fp, #-8]
  105cf4:	e283300c 	add	r3, r3, #12
  105cf8:	e5933000 	ldr	r3, [r3]
  105cfc:	e6ff3073 	uxth	r3, r3
  105d00:	e1a00003 	mov	r0, r3
  105d04:	e24bd000 	sub	sp, fp, #0
  105d08:	e49db004 	pop	{fp}		; (ldr fp, [sp], #4)
  105d0c:	e12fff1e 	bx	lr

00105d10 <read_csr_read_sequence_number>:
  105d10:	e52db004 	push	{fp}		; (str fp, [sp, #-4]!)
  105d14:	e28db000 	add	fp, sp, #0
  105d18:	e24dd00c 	sub	sp, sp, #12
  105d1c:	e50b0008 	str	r0, [fp, #-8]
  105d20:	e51b3008 	ldr	r3, [fp, #-8]
  105d24:	e2833010 	add	r3, r3, #16
  105d28:	e5933000 	ldr	r3, [r3]
  105d2c:	e6ff3073 	uxth	r3, r3
  105d30:	e1a00003 	mov	r0, r3
  105d34:	e24bd000 	sub	sp, fp, #0
  105d38:	e49db004 	pop	{fp}		; (ldr fp, [sp], #4)
  105d3c:	e12fff1e 	bx	lr

00105d40 <read_csr_write_sequence_number>:
  105d40:	e52db004 	push	{fp}		; (str fp, [sp, #-4]!)
  105d44:	e28db000 	add	fp, sp, #0
  105d48:	e24dd00c 	sub	sp, sp, #12
  105d4c:	e50b0008 	str	r0, [fp, #-8]
  105d50:	e51b3008 	ldr	r3, [fp, #-8]
  105d54:	e2833010 	add	r3, r3, #16
  105d58:	e5933000 	ldr	r3, [r3]
  105d5c:	e1a03823 	lsr	r3, r3, #16
  105d60:	e6ff3073 	uxth	r3, r3
  105d64:	e1a00003 	mov	r0, r3
  105d68:	e24bd000 	sub	sp, fp, #0
  105d6c:	e49db004 	pop	{fp}		; (ldr fp, [sp], #4)
  105d70:	e12fff1e 	bx	lr

00105d74 <read_busy>:
  105d74:	e52db004 	push	{fp}		; (str fp, [sp, #-4]!)
  105d78:	e28db000 	add	fp, sp, #0
  105d7c:	e24dd00c 	sub	sp, sp, #12
  105d80:	e50b0008 	str	r0, [fp, #-8]
  105d84:	e51b3008 	ldr	r3, [fp, #-8]
  105d88:	e5933000 	ldr	r3, [r3]
  105d8c:	e2033001 	and	r3, r3, #1
  105d90:	e3530000 	cmp	r3, #0
  105d94:	13a03001 	movne	r3, #1
  105d98:	03a03000 	moveq	r3, #0
  105d9c:	e6ef3073 	uxtb	r3, r3
  105da0:	e1a00003 	mov	r0, r3
  105da4:	e24bd000 	sub	sp, fp, #0
  105da8:	e49db004 	pop	{fp}		; (ldr fp, [sp], #4)
  105dac:	e12fff1e 	bx	lr

00105db0 <read_descriptor_buffer_empty>:
  105db0:	e52db004 	push	{fp}		; (str fp, [sp, #-4]!)
  105db4:	e28db000 	add	fp, sp, #0
  105db8:	e24dd00c 	sub	sp, sp, #12
  105dbc:	e50b0008 	str	r0, [fp, #-8]
  105dc0:	e51b3008 	ldr	r3, [fp, #-8]
  105dc4:	e5933000 	ldr	r3, [r3]
  105dc8:	e2033002 	and	r3, r3, #2
  105dcc:	e3530000 	cmp	r3, #0
  105dd0:	13a03001 	movne	r3, #1
  105dd4:	03a03000 	moveq	r3, #0
  105dd8:	e6ef3073 	uxtb	r3, r3
  105ddc:	e1a00003 	mov	r0, r3
  105de0:	e24bd000 	sub	sp, fp, #0
  105de4:	e49db004 	pop	{fp}		; (ldr fp, [sp], #4)
  105de8:	e12fff1e 	bx	lr

00105dec <read_descriptor_buffer_full>:
  105dec:	e52db004 	push	{fp}		; (str fp, [sp, #-4]!)
  105df0:	e28db000 	add	fp, sp, #0
  105df4:	e24dd00c 	sub	sp, sp, #12
  105df8:	e50b0008 	str	r0, [fp, #-8]
  105dfc:	e51b3008 	ldr	r3, [fp, #-8]
  105e00:	e5933000 	ldr	r3, [r3]
  105e04:	e2033004 	and	r3, r3, #4
  105e08:	e3530000 	cmp	r3, #0
  105e0c:	13a03001 	movne	r3, #1
  105e10:	03a03000 	moveq	r3, #0
  105e14:	e6ef3073 	uxtb	r3, r3
  105e18:	e1a00003 	mov	r0, r3
  105e1c:	e24bd000 	sub	sp, fp, #0
  105e20:	e49db004 	pop	{fp}		; (ldr fp, [sp], #4)
  105e24:	e12fff1e 	bx	lr

00105e28 <read_response_buffer_empty>:
  105e28:	e52db004 	push	{fp}		; (str fp, [sp, #-4]!)
  105e2c:	e28db000 	add	fp, sp, #0
  105e30:	e24dd00c 	sub	sp, sp, #12
  105e34:	e50b0008 	str	r0, [fp, #-8]
  105e38:	e51b3008 	ldr	r3, [fp, #-8]
  105e3c:	e5933000 	ldr	r3, [r3]
  105e40:	e2033008 	and	r3, r3, #8
  105e44:	e3530000 	cmp	r3, #0
  105e48:	13a03001 	movne	r3, #1
  105e4c:	03a03000 	moveq	r3, #0
  105e50:	e6ef3073 	uxtb	r3, r3
  105e54:	e1a00003 	mov	r0, r3
  105e58:	e24bd000 	sub	sp, fp, #0
  105e5c:	e49db004 	pop	{fp}		; (ldr fp, [sp], #4)
  105e60:	e12fff1e 	bx	lr

00105e64 <read_response_buffer_full>:
  105e64:	e52db004 	push	{fp}		; (str fp, [sp, #-4]!)
  105e68:	e28db000 	add	fp, sp, #0
  105e6c:	e24dd00c 	sub	sp, sp, #12
  105e70:	e50b0008 	str	r0, [fp, #-8]
  105e74:	e51b3008 	ldr	r3, [fp, #-8]
  105e78:	e5933000 	ldr	r3, [r3]
  105e7c:	e2033010 	and	r3, r3, #16
  105e80:	e3530000 	cmp	r3, #0
  105e84:	13a03001 	movne	r3, #1
  105e88:	03a03000 	moveq	r3, #0
  105e8c:	e6ef3073 	uxtb	r3, r3
  105e90:	e1a00003 	mov	r0, r3
  105e94:	e24bd000 	sub	sp, fp, #0
  105e98:	e49db004 	pop	{fp}		; (ldr fp, [sp], #4)
  105e9c:	e12fff1e 	bx	lr

00105ea0 <read_stopped>:
  105ea0:	e52db004 	push	{fp}		; (str fp, [sp, #-4]!)
  105ea4:	e28db000 	add	fp, sp, #0
  105ea8:	e24dd00c 	sub	sp, sp, #12
  105eac:	e50b0008 	str	r0, [fp, #-8]
  105eb0:	e51b3008 	ldr	r3, [fp, #-8]
  105eb4:	e5933000 	ldr	r3, [r3]
  105eb8:	e2033020 	and	r3, r3, #32
  105ebc:	e3530000 	cmp	r3, #0
  105ec0:	13a03001 	movne	r3, #1
  105ec4:	03a03000 	moveq	r3, #0
  105ec8:	e6ef3073 	uxtb	r3, r3
  105ecc:	e1a00003 	mov	r0, r3
  105ed0:	e24bd000 	sub	sp, fp, #0
  105ed4:	e49db004 	pop	{fp}		; (ldr fp, [sp], #4)
  105ed8:	e12fff1e 	bx	lr

00105edc <read_resetting>:
  105edc:	e52db004 	push	{fp}		; (str fp, [sp, #-4]!)
  105ee0:	e28db000 	add	fp, sp, #0
  105ee4:	e24dd00c 	sub	sp, sp, #12
  105ee8:	e50b0008 	str	r0, [fp, #-8]
  105eec:	e51b3008 	ldr	r3, [fp, #-8]
  105ef0:	e5933000 	ldr	r3, [r3]
  105ef4:	e2033040 	and	r3, r3, #64	; 0x40
  105ef8:	e3530000 	cmp	r3, #0
  105efc:	13a03001 	movne	r3, #1
  105f00:	03a03000 	moveq	r3, #0
  105f04:	e6ef3073 	uxtb	r3, r3
  105f08:	e1a00003 	mov	r0, r3
  105f0c:	e24bd000 	sub	sp, fp, #0
  105f10:	e49db004 	pop	{fp}		; (ldr fp, [sp], #4)
  105f14:	e12fff1e 	bx	lr

00105f18 <read_stopped_on_error>:
  105f18:	e52db004 	push	{fp}		; (str fp, [sp, #-4]!)
  105f1c:	e28db000 	add	fp, sp, #0
  105f20:	e24dd00c 	sub	sp, sp, #12
  105f24:	e50b0008 	str	r0, [fp, #-8]
  105f28:	e51b3008 	ldr	r3, [fp, #-8]
  105f2c:	e5933000 	ldr	r3, [r3]
  105f30:	e2033080 	and	r3, r3, #128	; 0x80
  105f34:	e3530000 	cmp	r3, #0
  105f38:	13a03001 	movne	r3, #1
  105f3c:	03a03000 	moveq	r3, #0
  105f40:	e6ef3073 	uxtb	r3, r3
  105f44:	e1a00003 	mov	r0, r3
  105f48:	e24bd000 	sub	sp, fp, #0
  105f4c:	e49db004 	pop	{fp}		; (ldr fp, [sp], #4)
  105f50:	e12fff1e 	bx	lr

00105f54 <read_stopped_on_early_termination>:
  105f54:	e52db004 	push	{fp}		; (str fp, [sp, #-4]!)
  105f58:	e28db000 	add	fp, sp, #0
  105f5c:	e24dd00c 	sub	sp, sp, #12
  105f60:	e50b0008 	str	r0, [fp, #-8]
  105f64:	e51b3008 	ldr	r3, [fp, #-8]
  105f68:	e5933000 	ldr	r3, [r3]
  105f6c:	e2033c01 	and	r3, r3, #256	; 0x100
  105f70:	e3530000 	cmp	r3, #0
  105f74:	13a03001 	movne	r3, #1
  105f78:	03a03000 	moveq	r3, #0
  105f7c:	e6ef3073 	uxtb	r3, r3
  105f80:	e1a00003 	mov	r0, r3
  105f84:	e24bd000 	sub	sp, fp, #0
  105f88:	e49db004 	pop	{fp}		; (ldr fp, [sp], #4)
  105f8c:	e12fff1e 	bx	lr

00105f90 <read_irq>:
  105f90:	e52db004 	push	{fp}		; (str fp, [sp, #-4]!)
  105f94:	e28db000 	add	fp, sp, #0
  105f98:	e24dd00c 	sub	sp, sp, #12
  105f9c:	e50b0008 	str	r0, [fp, #-8]
