
src/hwlib.axf:     file format elf32-littlearm


Disassembly of section .text:

00100040 <__cs3_interrupt_vector>:
  100040:	18 f0 9f e5 18 f0 9f e5 18 f0 9f e5 18 f0 9f e5     ................
  100050:	18 f0 9f e5 18 f0 9f e5 18 f0 9f e5 18 f0 9f e5     ................
  100060:	80 00 10 00 f8 ab 11 00 fc ab 11 00 00 ac 11 00     ................
  100070:	04 ac 11 00 f4 ab 11 00 08 ac 11 00 0c ac 11 00     ................

00100080 <__cs3_reset>:
  100080:	ea000022 	b	100110 <_start>

00100084 <__cs3_start_c>:
  100084:	e3008002 	movw	r8, #2
  100088:	e92d4080 	push	{r7, lr}
  10008c:	e3408000 	movt	r8, #0
  100090:	e3580000 	cmp	r8, #0
  100094:	0a00001c 	beq	10010c <__cs3_start_c+0x88>
  100098:	e30bea0c 	movw	lr, #47628	; 0xba0c
  10009c:	e2488001 	sub	r8, r8, #1
  1000a0:	e3a04000 	mov	r4, #0
  1000a4:	e3a05000 	mov	r5, #0
  1000a8:	e340e011 	movt	lr, #17
  1000ac:	e99e1005 	ldmib	lr, {r0, r2, ip}
  1000b0:	e1500002 	cmp	r0, r2
  1000b4:	0082200c 	addeq	r2, r2, ip
  1000b8:	0a000007 	beq	1000dc <__cs3_start_c+0x58>
  1000bc:	e35c0000 	cmp	ip, #0
  1000c0:	0a000005 	beq	1000dc <__cs3_start_c+0x58>
  1000c4:	e1a03000 	mov	r3, r0
  1000c8:	e0c360d8 	ldrd	r6, [r3], #8
  1000cc:	e0431000 	sub	r1, r3, r0
  1000d0:	e0c260f8 	strd	r6, [r2], #8
  1000d4:	e151000c 	cmp	r1, ip
  1000d8:	1afffffa 	bne	1000c8 <__cs3_start_c+0x44>
  1000dc:	e59e0010 	ldr	r0, [lr, #16]
  1000e0:	e3500000 	cmp	r0, #0
  1000e4:	11a03002 	movne	r3, r2
  1000e8:	0a000003 	beq	1000fc <__cs3_start_c+0x78>
  1000ec:	e0c340f8 	strd	r4, [r3], #8
  1000f0:	e0431002 	sub	r1, r3, r2
  1000f4:	e1500001 	cmp	r0, r1
  1000f8:	1afffffb 	bne	1000ec <__cs3_start_c+0x68>
  1000fc:	e2488001 	sub	r8, r8, #1
  100100:	e28ee014 	add	lr, lr, #20
  100104:	e3780001 	cmn	r8, #1
  100108:	1affffe7 	bne	1000ac <__cs3_start_c+0x28>
  10010c:	eb006a6b 	bl	11aac0 <__cs3_premain>

00100110 <_start>:
  100110:	e51fd000 	ldr	sp, [pc, #-0]	; 100118 <_start+0x8>
  100114:	eaffffda 	b	100084 <__cs3_start_c>
  100118:	01100040 	.word	0x01100040

0010011c <deregister_tm_clones>:
  10011c:	e59f3024 	ldr	r3, [pc, #36]	; 100148 <deregister_tm_clones+0x2c>
  100120:	e3040aa0 	movw	r0, #19104	; 0x4aa0
  100124:	e3400012 	movt	r0, #18
  100128:	e0433000 	sub	r3, r3, r0
  10012c:	e3530006 	cmp	r3, #6
  100130:	912fff1e 	bxls	lr
  100134:	e3003000 	movw	r3, #0
  100138:	e3403000 	movt	r3, #0
  10013c:	e3530000 	cmp	r3, #0
  100140:	012fff1e 	bxeq	lr
  100144:	e12fff13 	bx	r3
  100148:	00124aa3 	.word	0x00124aa3

0010014c <register_tm_clones>:
  10014c:	e3043aa0 	movw	r3, #19104	; 0x4aa0
  100150:	e3040aa0 	movw	r0, #19104	; 0x4aa0
  100154:	e3403012 	movt	r3, #18
  100158:	e3400012 	movt	r0, #18
  10015c:	e0431000 	sub	r1, r3, r0
  100160:	e1a01141 	asr	r1, r1, #2
  100164:	e0811fa1 	add	r1, r1, r1, lsr #31
  100168:	e1b010c1 	asrs	r1, r1, #1
  10016c:	012fff1e 	bxeq	lr
  100170:	e3003000 	movw	r3, #0
  100174:	e3403000 	movt	r3, #0
  100178:	e3530000 	cmp	r3, #0
  10017c:	012fff1e 	bxeq	lr
  100180:	e12fff13 	bx	r3

00100184 <__do_global_dtors_aux>:
  100184:	e92d4010 	push	{r4, lr}
  100188:	e3044aa0 	movw	r4, #19104	; 0x4aa0
  10018c:	e3404012 	movt	r4, #18
  100190:	e5d43000 	ldrb	r3, [r4]
  100194:	e3530000 	cmp	r3, #0
  100198:	18bd8010 	popne	{r4, pc}
  10019c:	ebffffde 	bl	10011c <deregister_tm_clones>
  1001a0:	e3003000 	movw	r3, #0
  1001a4:	e3403000 	movt	r3, #0
  1001a8:	e3530000 	cmp	r3, #0
  1001ac:	0a000002 	beq	1001bc <__do_global_dtors_aux+0x38>
  1001b0:	e30a0c94 	movw	r0, #44180	; 0xac94
  1001b4:	e3400011 	movt	r0, #17
  1001b8:	e320f000 	nop	{0}
  1001bc:	e3a03001 	mov	r3, #1
  1001c0:	e5c43000 	strb	r3, [r4]
  1001c4:	e8bd8010 	pop	{r4, pc}

001001c8 <frame_dummy>:
  1001c8:	e3003000 	movw	r3, #0
  1001cc:	e92d4010 	push	{r4, lr}
  1001d0:	e3403000 	movt	r3, #0
  1001d4:	e3530000 	cmp	r3, #0
  1001d8:	0a000004 	beq	1001f0 <frame_dummy+0x28>
  1001dc:	e3041aa4 	movw	r1, #19108	; 0x4aa4
  1001e0:	e30a0c94 	movw	r0, #44180	; 0xac94
  1001e4:	e3401012 	movt	r1, #18
  1001e8:	e3400011 	movt	r0, #17
  1001ec:	e320f000 	nop	{0}
  1001f0:	e30c0000 	movw	r0, #49152	; 0xc000
  1001f4:	e3400011 	movt	r0, #17
  1001f8:	e5903000 	ldr	r3, [r0]
  1001fc:	e3530000 	cmp	r3, #0
  100200:	1a000001 	bne	10020c <frame_dummy+0x44>
  100204:	e8bd4010 	pop	{r4, lr}
  100208:	eaffffcf 	b	10014c <register_tm_clones>
  10020c:	e3003000 	movw	r3, #0
  100210:	e3403000 	movt	r3, #0
  100214:	e3530000 	cmp	r3, #0
  100218:	0afffff9 	beq	100204 <frame_dummy+0x3c>
  10021c:	e12fff33 	blx	r3
  100220:	eafffff7 	b	100204 <frame_dummy+0x3c>

00100224 <main>:
  100224:	e92d4800 	push	{fp, lr}
  100228:	e28db004 	add	fp, sp, #4
  10022c:	e24dd078 	sub	sp, sp, #120	; 0x78
  100230:	e50b0078 	str	r0, [fp, #-120]	; 0xffffff88
  100234:	e50b107c 	str	r1, [fp, #-124]	; 0xffffff84
  100238:	e30a0ca0 	movw	r0, #44192	; 0xaca0
  10023c:	e3400011 	movt	r0, #17
  100240:	eb004904 	bl	112658 <puts>
  100244:	e3a03000 	mov	r3, #0
  100248:	e50b3008 	str	r3, [fp, #-8]
  10024c:	e24b3024 	sub	r3, fp, #36	; 0x24
  100250:	e3a02000 	mov	r2, #0
  100254:	e5832000 	str	r2, [r3]
  100258:	e5832004 	str	r2, [r3, #4]
  10025c:	e5832008 	str	r2, [r3, #8]
  100260:	e3a03000 	mov	r3, #0
  100264:	e34f3f25 	movt	r3, #65317	; 0xff25
  100268:	e50b3024 	str	r3, [fp, #-36]	; 0xffffffdc
  10026c:	e3a03002 	mov	r3, #2
  100270:	e54b301c 	strb	r3, [fp, #-28]	; 0xffffffe4
  100274:	e30a3ce0 	movw	r3, #44256	; 0xace0
  100278:	e3403011 	movt	r3, #17
  10027c:	e24b203c 	sub	r2, fp, #60	; 0x3c
  100280:	e1d330b0 	ldrh	r3, [r3]
  100284:	e1c230b0 	strh	r3, [r2]
  100288:	e3a03003 	mov	r3, #3
  10028c:	e54b3009 	strb	r3, [fp, #-9]
  100290:	e3a03ce1 	mov	r3, #57600	; 0xe100
  100294:	e34035f5 	movt	r3, #1525	; 0x5f5
  100298:	e50b3050 	str	r3, [fp, #-80]	; 0xffffffb0
  10029c:	e3a03002 	mov	r3, #2
  1002a0:	e54b304c 	strb	r3, [fp, #-76]	; 0xffffffb4
  1002a4:	e3a03000 	mov	r3, #0
  1002a8:	e34f3f24 	movt	r3, #65316	; 0xff24
  1002ac:	e50b3048 	str	r3, [fp, #-72]	; 0xffffffb8
  1002b0:	e3a03002 	mov	r3, #2
  1002b4:	e50b3044 	str	r3, [fp, #-68]	; 0xffffffbc
  1002b8:	e55b2009 	ldrb	r2, [fp, #-9]
  1002bc:	e30a3fec 	movw	r3, #45036	; 0xafec
  1002c0:	e3403011 	movt	r3, #17
  1002c4:	e1a02082 	lsl	r2, r2, #1
  1002c8:	e0833002 	add	r3, r3, r2
  1002cc:	e1d330b0 	ldrh	r3, [r3]
  1002d0:	e6ef3073 	uxtb	r3, r3
  1002d4:	e54b3040 	strb	r3, [fp, #-64]	; 0xffffffc0
  1002d8:	e24b306c 	sub	r3, fp, #108	; 0x6c
  1002dc:	e3a02000 	mov	r2, #0
  1002e0:	e5832000 	str	r2, [r3]
  1002e4:	e5832004 	str	r2, [r3, #4]
  1002e8:	e5832008 	str	r2, [r3, #8]
  1002ec:	e583200c 	str	r2, [r3, #12]
  1002f0:	e5832010 	str	r2, [r3, #16]
  1002f4:	e5832014 	str	r2, [r3, #20]
  1002f8:	e5832018 	str	r2, [r3, #24]
  1002fc:	e30930d5 	movw	r3, #37077	; 0x90d5
  100300:	e34034f7 	movt	r3, #1271	; 0x4f7
  100304:	e50b306c 	str	r3, [fp, #-108]	; 0xffffff94
  100308:	e30b3038 	movw	r3, #45112	; 0xb038
  10030c:	e3403011 	movt	r3, #17
  100310:	e50b3064 	str	r3, [fp, #-100]	; 0xffffff9c
  100314:	e24b3050 	sub	r3, fp, #80	; 0x50
  100318:	e50b3060 	str	r3, [fp, #-96]	; 0xffffffa0
  10031c:	e3043240 	movw	r3, #16960	; 0x4240
  100320:	e340300f 	movt	r3, #15
  100324:	e50b305c 	str	r3, [fp, #-92]	; 0xffffffa4
  100328:	e55b3009 	ldrb	r3, [fp, #-9]
  10032c:	e54b3058 	strb	r3, [fp, #-88]	; 0xffffffa8
  100330:	e3a03001 	mov	r3, #1
  100334:	e54b3057 	strb	r3, [fp, #-87]	; 0xffffffa9
  100338:	eb00001b 	bl	1003ac <cache_fun>
  10033c:	e24b206c 	sub	r2, fp, #108	; 0x6c
  100340:	e24b3014 	sub	r3, fp, #20
  100344:	e1a01002 	mov	r1, r2
  100348:	e1a00003 	mov	r0, r3
  10034c:	eb000142 	bl	10085c <ad400x_init>
  100350:	e50b0010 	str	r0, [fp, #-16]
  100354:	e51b3010 	ldr	r3, [fp, #-16]
  100358:	e3530000 	cmp	r3, #0
  10035c:	aa000001 	bge	100368 <main+0x144>
  100360:	e51b3010 	ldr	r3, [fp, #-16]
  100364:	ea00000d 	b	1003a0 <main+0x17c>
  100368:	e51b3014 	ldr	r3, [fp, #-20]	; 0xffffffec
  10036c:	e24b2018 	sub	r2, fp, #24
  100370:	e1a01002 	mov	r1, r2
  100374:	e1a00003 	mov	r0, r3
  100378:	eb000117 	bl	1007dc <ad400x_spi_single_conversion>
  10037c:	e51b3018 	ldr	r3, [fp, #-24]	; 0xffffffe8
  100380:	e1a01003 	mov	r1, r3
  100384:	e30a0cc8 	movw	r0, #44232	; 0xacc8
  100388:	e3400011 	movt	r0, #17
  10038c:	eb00485a 	bl	1124fc <printf>
  100390:	e30a0cdc 	movw	r0, #44252	; 0xacdc
  100394:	e3400011 	movt	r0, #17
  100398:	eb0048ae 	bl	112658 <puts>
  10039c:	eafffff1 	b	100368 <main+0x144>
  1003a0:	e1a00003 	mov	r0, r3
  1003a4:	e24bd004 	sub	sp, fp, #4
  1003a8:	e8bd8800 	pop	{fp, pc}

001003ac <cache_fun>:
  1003ac:	e92d4800 	push	{fp, lr}
  1003b0:	e28db004 	add	fp, sp, #4
  1003b4:	e3a00009 	mov	r0, #9
  1003b8:	eb000001 	bl	1003c4 <cache_configuration>
  1003bc:	e320f000 	nop	{0}
  1003c0:	e8bd8800 	pop	{fp, pc}

001003c4 <cache_configuration>:
  1003c4:	e92d4800 	push	{fp, lr}
  1003c8:	e28db004 	add	fp, sp, #4
  1003cc:	e24dd008 	sub	sp, sp, #8
  1003d0:	e50b0008 	str	r0, [fp, #-8]
  1003d4:	e51b3008 	ldr	r3, [fp, #-8]
  1003d8:	e3530000 	cmp	r3, #0
  1003dc:	ca000003 	bgt	1003f0 <cache_configuration+0x2c>
  1003e0:	e30a0ce4 	movw	r0, #44260	; 0xace4
  1003e4:	e3400011 	movt	r0, #17
  1003e8:	eb004843 	bl	1124fc <printf>
  1003ec:	ea0000a2 	b	10067c <cache_configuration+0x2b8>
  1003f0:	e51b3008 	ldr	r3, [fp, #-8]
  1003f4:	e3530001 	cmp	r3, #1
  1003f8:	ca000004 	bgt	100410 <cache_configuration+0x4c>
  1003fc:	e30a0d00 	movw	r0, #44288	; 0xad00
  100400:	e3400011 	movt	r0, #17
  100404:	eb00483c 	bl	1124fc <printf>
  100408:	eb00088f 	bl	10264c <enable_MMU>
  10040c:	ea00009a 	b	10067c <cache_configuration+0x2b8>
  100410:	e51b3008 	ldr	r3, [fp, #-8]
  100414:	e3530002 	cmp	r3, #2
  100418:	ca000005 	bgt	100434 <cache_configuration+0x70>
  10041c:	e30a0d20 	movw	r0, #44320	; 0xad20
  100420:	e3400011 	movt	r0, #17
  100424:	eb004834 	bl	1124fc <printf>
  100428:	eb000887 	bl	10264c <enable_MMU>
  10042c:	eb0008d2 	bl	10277c <initialize_L2C>
  100430:	ea000091 	b	10067c <cache_configuration+0x2b8>
  100434:	e51b3008 	ldr	r3, [fp, #-8]
  100438:	e3530003 	cmp	r3, #3
  10043c:	ca000006 	bgt	10045c <cache_configuration+0x98>
  100440:	e30a0d4c 	movw	r0, #44364	; 0xad4c
  100444:	e3400011 	movt	r0, #17
  100448:	eb00482b 	bl	1124fc <printf>
  10044c:	eb00087e 	bl	10264c <enable_MMU>
  100450:	eb0008c9 	bl	10277c <initialize_L2C>
  100454:	eb00092c 	bl	10290c <enable_SCU>
  100458:	ea000087 	b	10067c <cache_configuration+0x2b8>
  10045c:	e51b3008 	ldr	r3, [fp, #-8]
  100460:	e3530004 	cmp	r3, #4
  100464:	ca000007 	bgt	100488 <cache_configuration+0xc4>
  100468:	e30a0d80 	movw	r0, #44416	; 0xad80
  10046c:	e3400011 	movt	r0, #17
  100470:	eb004821 	bl	1124fc <printf>
  100474:	eb000874 	bl	10264c <enable_MMU>
  100478:	eb0008bf 	bl	10277c <initialize_L2C>
  10047c:	eb000922 	bl	10290c <enable_SCU>
  100480:	eb0008e3 	bl	102814 <enable_L1_I>
  100484:	ea00007c 	b	10067c <cache_configuration+0x2b8>
  100488:	e51b3008 	ldr	r3, [fp, #-8]
  10048c:	e3530005 	cmp	r3, #5
  100490:	ca000008 	bgt	1004b8 <cache_configuration+0xf4>
  100494:	e30a0d98 	movw	r0, #44440	; 0xad98
  100498:	e3400011 	movt	r0, #17
  10049c:	eb004816 	bl	1124fc <printf>
  1004a0:	eb000869 	bl	10264c <enable_MMU>
  1004a4:	eb0008b4 	bl	10277c <initialize_L2C>
  1004a8:	eb000917 	bl	10290c <enable_SCU>
  1004ac:	eb0008d8 	bl	102814 <enable_L1_I>
  1004b0:	eb0008db 	bl	102824 <enable_branch_prediction>
  1004b4:	ea000070 	b	10067c <cache_configuration+0x2b8>
  1004b8:	e51b3008 	ldr	r3, [fp, #-8]
  1004bc:	e3530006 	cmp	r3, #6
  1004c0:	ca000009 	bgt	1004ec <cache_configuration+0x128>
  1004c4:	e30a0dc8 	movw	r0, #44488	; 0xadc8
  1004c8:	e3400011 	movt	r0, #17
  1004cc:	eb00480a 	bl	1124fc <printf>
  1004d0:	eb00085d 	bl	10264c <enable_MMU>
  1004d4:	eb0008a8 	bl	10277c <initialize_L2C>
  1004d8:	eb00090b 	bl	10290c <enable_SCU>
  1004dc:	eb0008c8 	bl	102804 <enable_L1_D>
  1004e0:	eb0008cb 	bl	102814 <enable_L1_I>
  1004e4:	eb0008ce 	bl	102824 <enable_branch_prediction>
  1004e8:	ea000063 	b	10067c <cache_configuration+0x2b8>
  1004ec:	e51b3008 	ldr	r3, [fp, #-8]
  1004f0:	e3530007 	cmp	r3, #7
  1004f4:	ca00000a 	bgt	100524 <cache_configuration+0x160>
  1004f8:	e30a0dfc 	movw	r0, #44540	; 0xadfc
  1004fc:	e3400011 	movt	r0, #17
  100500:	eb0047fd 	bl	1124fc <printf>
  100504:	eb000850 	bl	10264c <enable_MMU>
  100508:	eb00089b 	bl	10277c <initialize_L2C>
  10050c:	eb0008ea 	bl	1028bc <enable_L1_D_side_prefetch>
  100510:	eb0008fd 	bl	10290c <enable_SCU>
  100514:	eb0008ba 	bl	102804 <enable_L1_D>
  100518:	eb0008bd 	bl	102814 <enable_L1_I>
  10051c:	eb0008c0 	bl	102824 <enable_branch_prediction>
  100520:	ea000055 	b	10067c <cache_configuration+0x2b8>
  100524:	e51b3008 	ldr	r3, [fp, #-8]
  100528:	e3530008 	cmp	r3, #8
  10052c:	ca000008 	bgt	100554 <cache_configuration+0x190>
  100530:	e30a0e48 	movw	r0, #44616	; 0xae48
  100534:	e3400011 	movt	r0, #17
  100538:	eb0047ef 	bl	1124fc <printf>
  10053c:	eb000842 	bl	10264c <enable_MMU>
  100540:	eb00088d 	bl	10277c <initialize_L2C>
  100544:	eb0008dc 	bl	1028bc <enable_L1_D_side_prefetch>
  100548:	eb0008ef 	bl	10290c <enable_SCU>
  10054c:	eb0008a3 	bl	1027e0 <enable_caches>
  100550:	ea000049 	b	10067c <cache_configuration+0x2b8>
  100554:	e51b3008 	ldr	r3, [fp, #-8]
  100558:	e3530009 	cmp	r3, #9
  10055c:	ca000009 	bgt	100588 <cache_configuration+0x1c4>
  100560:	e30a0e94 	movw	r0, #44692	; 0xae94
  100564:	e3400011 	movt	r0, #17
  100568:	eb0047e3 	bl	1124fc <printf>
  10056c:	eb000836 	bl	10264c <enable_MMU>
  100570:	eb000881 	bl	10277c <initialize_L2C>
  100574:	eb0008d0 	bl	1028bc <enable_L1_D_side_prefetch>
  100578:	eb0008d3 	bl	1028cc <enable_L2_prefetch_hint>
  10057c:	eb0008e2 	bl	10290c <enable_SCU>
  100580:	eb000896 	bl	1027e0 <enable_caches>
  100584:	ea00003c 	b	10067c <cache_configuration+0x2b8>
  100588:	e51b3008 	ldr	r3, [fp, #-8]
  10058c:	e353000a 	cmp	r3, #10
  100590:	ca00000a 	bgt	1005c0 <cache_configuration+0x1fc>
  100594:	e30a0ec8 	movw	r0, #44744	; 0xaec8
  100598:	e3400011 	movt	r0, #17
  10059c:	eb0047d6 	bl	1124fc <printf>
  1005a0:	eb000829 	bl	10264c <enable_MMU>
  1005a4:	eb000874 	bl	10277c <initialize_L2C>
  1005a8:	eb0008c3 	bl	1028bc <enable_L1_D_side_prefetch>
  1005ac:	eb0008c6 	bl	1028cc <enable_L2_prefetch_hint>
  1005b0:	eb0008d5 	bl	10290c <enable_SCU>
  1005b4:	eb0008b4 	bl	10288c <enable_write_full_line_zeros>
  1005b8:	eb000888 	bl	1027e0 <enable_caches>
  1005bc:	ea00002e 	b	10067c <cache_configuration+0x2b8>
  1005c0:	e51b3008 	ldr	r3, [fp, #-8]
  1005c4:	e353000b 	cmp	r3, #11
  1005c8:	ca00000b 	bgt	1005fc <cache_configuration+0x238>
  1005cc:	e30a0f04 	movw	r0, #44804	; 0xaf04
  1005d0:	e3400011 	movt	r0, #17
  1005d4:	eb0047c8 	bl	1124fc <printf>
  1005d8:	eb00081b 	bl	10264c <enable_MMU>
  1005dc:	eb000866 	bl	10277c <initialize_L2C>
  1005e0:	eb0008b5 	bl	1028bc <enable_L1_D_side_prefetch>
  1005e4:	eb0008b8 	bl	1028cc <enable_L2_prefetch_hint>
  1005e8:	eb0008c7 	bl	10290c <enable_SCU>
  1005ec:	eb0008cb 	bl	102920 <enable_L2_speculative_linefill>
  1005f0:	eb0008a5 	bl	10288c <enable_write_full_line_zeros>
  1005f4:	eb000879 	bl	1027e0 <enable_caches>
  1005f8:	ea00001f 	b	10067c <cache_configuration+0x2b8>
  1005fc:	e51b3008 	ldr	r3, [fp, #-8]
  100600:	e353000c 	cmp	r3, #12
  100604:	ca00000c 	bgt	10063c <cache_configuration+0x278>
  100608:	e30a0f50 	movw	r0, #44880	; 0xaf50
  10060c:	e3400011 	movt	r0, #17
  100610:	eb0047b9 	bl	1124fc <printf>
  100614:	eb00080c 	bl	10264c <enable_MMU>
  100618:	eb000857 	bl	10277c <initialize_L2C>
  10061c:	eb0008a6 	bl	1028bc <enable_L1_D_side_prefetch>
  100620:	eb0008a9 	bl	1028cc <enable_L2_prefetch_hint>
  100624:	eb0008b8 	bl	10290c <enable_SCU>
  100628:	eb0008bc 	bl	102920 <enable_L2_speculative_linefill>
  10062c:	eb000896 	bl	10288c <enable_write_full_line_zeros>
  100630:	eb00088c 	bl	102868 <enable_early_BRESP>
  100634:	eb000869 	bl	1027e0 <enable_caches>
  100638:	ea00000f 	b	10067c <cache_configuration+0x2b8>
  10063c:	e51b3008 	ldr	r3, [fp, #-8]
  100640:	e353000d 	cmp	r3, #13
  100644:	ca00000c 	bgt	10067c <cache_configuration+0x2b8>
  100648:	e30a0f90 	movw	r0, #44944	; 0xaf90
  10064c:	e3400011 	movt	r0, #17
  100650:	eb0047a9 	bl	1124fc <printf>
  100654:	eb0007fc 	bl	10264c <enable_MMU>
  100658:	eb000847 	bl	10277c <initialize_L2C>
  10065c:	eb000896 	bl	1028bc <enable_L1_D_side_prefetch>
  100660:	eb000899 	bl	1028cc <enable_L2_prefetch_hint>
  100664:	eb0008a8 	bl	10290c <enable_SCU>
  100668:	eb0008ac 	bl	102920 <enable_L2_speculative_linefill>
  10066c:	eb000886 	bl	10288c <enable_write_full_line_zeros>
  100670:	eb00087c 	bl	102868 <enable_early_BRESP>
  100674:	eb000872 	bl	102844 <enable_store_buffer_device_limitation>
  100678:	eb000858 	bl	1027e0 <enable_caches>
  10067c:	e320f000 	nop	{0}
  100680:	e24bd004 	sub	sp, fp, #4
  100684:	e8bd8800 	pop	{fp, pc}

00100688 <ad400x_spi_reg_read>:
  100688:	e92d4800 	push	{fp, lr}
  10068c:	e28db004 	add	fp, sp, #4
  100690:	e24dd010 	sub	sp, sp, #16
  100694:	e50b0010 	str	r0, [fp, #-16]
  100698:	e50b1014 	str	r1, [fp, #-20]	; 0xffffffec
  10069c:	e3a03054 	mov	r3, #84	; 0x54
  1006a0:	e54b300c 	strb	r3, [fp, #-12]
  1006a4:	e3e03000 	mvn	r3, #0
  1006a8:	e54b300b 	strb	r3, [fp, #-11]
  1006ac:	e51b3010 	ldr	r3, [fp, #-16]
  1006b0:	e5932000 	ldr	r2, [r3]
  1006b4:	e51b3010 	ldr	r3, [fp, #-16]
  1006b8:	e5933004 	ldr	r3, [r3, #4]
  1006bc:	e1a01003 	mov	r1, r3
  1006c0:	e1a00002 	mov	r0, r2
  1006c4:	eb000166 	bl	100c64 <spi_engine_set_speed>
  1006c8:	e51b3010 	ldr	r3, [fp, #-16]
  1006cc:	e5933000 	ldr	r3, [r3]
  1006d0:	e24b100c 	sub	r1, fp, #12
  1006d4:	e3a02002 	mov	r2, #2
  1006d8:	e1a00003 	mov	r0, r3
  1006dc:	eb00010b 	bl	100b10 <spi_write_and_read>
  1006e0:	e50b0008 	str	r0, [fp, #-8]
  1006e4:	e51b3008 	ldr	r3, [fp, #-8]
  1006e8:	e3530000 	cmp	r3, #0
  1006ec:	aa000004 	bge	100704 <ad400x_spi_reg_read+0x7c>
  1006f0:	e30a0ff4 	movw	r0, #45044	; 0xaff4
  1006f4:	e3400011 	movt	r0, #17
  1006f8:	eb0047d6 	bl	112658 <puts>
  1006fc:	e51b3008 	ldr	r3, [fp, #-8]
  100700:	ea00000b 	b	100734 <ad400x_spi_reg_read+0xac>
  100704:	e55b200b 	ldrb	r2, [fp, #-11]
  100708:	e51b3014 	ldr	r3, [fp, #-20]	; 0xffffffec
  10070c:	e5c32000 	strb	r2, [r3]
  100710:	e51b3010 	ldr	r3, [fp, #-16]
  100714:	e5932000 	ldr	r2, [r3]
  100718:	e51b3010 	ldr	r3, [fp, #-16]
  10071c:	e5933000 	ldr	r3, [r3]
  100720:	e5933000 	ldr	r3, [r3]
  100724:	e1a01003 	mov	r1, r3
  100728:	e1a00002 	mov	r0, r2
  10072c:	eb00014c 	bl	100c64 <spi_engine_set_speed>
  100730:	e51b3008 	ldr	r3, [fp, #-8]
  100734:	e1a00003 	mov	r0, r3
  100738:	e24bd004 	sub	sp, fp, #4
  10073c:	e8bd8800 	pop	{fp, pc}

00100740 <ad400x_spi_reg_write>:
  100740:	e92d4800 	push	{fp, lr}
  100744:	e28db004 	add	fp, sp, #4
  100748:	e24dd010 	sub	sp, sp, #16
  10074c:	e50b0010 	str	r0, [fp, #-16]
  100750:	e1a03001 	mov	r3, r1
  100754:	e54b3011 	strb	r3, [fp, #-17]	; 0xffffffef
  100758:	e51b3010 	ldr	r3, [fp, #-16]
  10075c:	e5932000 	ldr	r2, [r3]
  100760:	e51b3010 	ldr	r3, [fp, #-16]
  100764:	e5933004 	ldr	r3, [r3, #4]
  100768:	e1a01003 	mov	r1, r3
  10076c:	e1a00002 	mov	r0, r2
  100770:	eb00013b 	bl	100c64 <spi_engine_set_speed>
  100774:	e3a03014 	mov	r3, #20
  100778:	e54b300c 	strb	r3, [fp, #-12]
  10077c:	e55b3011 	ldrb	r3, [fp, #-17]	; 0xffffffef
  100780:	e1e03d83 	mvn	r3, r3, lsl #27
  100784:	e1e03da3 	mvn	r3, r3, lsr #27
  100788:	e6ef3073 	uxtb	r3, r3
  10078c:	e54b300b 	strb	r3, [fp, #-11]
  100790:	e51b3010 	ldr	r3, [fp, #-16]
  100794:	e5933000 	ldr	r3, [r3]
  100798:	e24b100c 	sub	r1, fp, #12
  10079c:	e3a02002 	mov	r2, #2
  1007a0:	e1a00003 	mov	r0, r3
  1007a4:	eb0000d9 	bl	100b10 <spi_write_and_read>
  1007a8:	e50b0008 	str	r0, [fp, #-8]
  1007ac:	e51b3010 	ldr	r3, [fp, #-16]
  1007b0:	e5932000 	ldr	r2, [r3]
  1007b4:	e51b3010 	ldr	r3, [fp, #-16]
  1007b8:	e5933000 	ldr	r3, [r3]
  1007bc:	e5933000 	ldr	r3, [r3]
  1007c0:	e1a01003 	mov	r1, r3
  1007c4:	e1a00002 	mov	r0, r2
  1007c8:	eb000125 	bl	100c64 <spi_engine_set_speed>
  1007cc:	e51b3008 	ldr	r3, [fp, #-8]
  1007d0:	e1a00003 	mov	r0, r3
  1007d4:	e24bd004 	sub	sp, fp, #4
  1007d8:	e8bd8800 	pop	{fp, pc}

001007dc <ad400x_spi_single_conversion>:
  1007dc:	e92d4800 	push	{fp, lr}
  1007e0:	e28db004 	add	fp, sp, #4
  1007e4:	e24dd010 	sub	sp, sp, #16
  1007e8:	e50b0010 	str	r0, [fp, #-16]
  1007ec:	e50b1014 	str	r1, [fp, #-20]	; 0xffffffec
  1007f0:	e30b0014 	movw	r0, #45076	; 0xb014
  1007f4:	e3400011 	movt	r0, #17
  1007f8:	eb004796 	bl	112658 <puts>
  1007fc:	e3a03000 	mov	r3, #0
  100800:	e50b300c 	str	r3, [fp, #-12]
  100804:	e51b3010 	ldr	r3, [fp, #-16]
  100808:	e5933000 	ldr	r3, [r3]
  10080c:	e24b100c 	sub	r1, fp, #12
  100810:	e3a02004 	mov	r2, #4
  100814:	e1a00003 	mov	r0, r3
  100818:	eb0000bc 	bl	100b10 <spi_write_and_read>
  10081c:	e50b0008 	str	r0, [fp, #-8]
  100820:	e55b300a 	ldrb	r3, [fp, #-10]
  100824:	e1a02603 	lsl	r2, r3, #12
  100828:	e55b300b 	ldrb	r3, [fp, #-11]
  10082c:	e1a03203 	lsl	r3, r3, #4
  100830:	e1822003 	orr	r2, r2, r3
  100834:	e55b300c 	ldrb	r3, [fp, #-12]
  100838:	e203300f 	and	r3, r3, #15
  10083c:	e1823003 	orr	r3, r2, r3
  100840:	e1a02003 	mov	r2, r3
  100844:	e51b3014 	ldr	r3, [fp, #-20]	; 0xffffffec
  100848:	e5832000 	str	r2, [r3]
  10084c:	e51b3008 	ldr	r3, [fp, #-8]
  100850:	e1a00003 	mov	r0, r3
  100854:	e24bd004 	sub	sp, fp, #4
  100858:	e8bd8800 	pop	{fp, pc}

0010085c <ad400x_init>:
  10085c:	e92d4800 	push	{fp, lr}
  100860:	e28db004 	add	fp, sp, #4
  100864:	e24dd018 	sub	sp, sp, #24
  100868:	e50b0018 	str	r0, [fp, #-24]	; 0xffffffe8
  10086c:	e50b101c 	str	r1, [fp, #-28]	; 0xffffffe4
  100870:	e3a03000 	mov	r3, #0
  100874:	e54b3011 	strb	r3, [fp, #-17]	; 0xffffffef
  100878:	e51b301c 	ldr	r3, [fp, #-28]	; 0xffffffe4
  10087c:	e3530000 	cmp	r3, #0
  100880:	1a000001 	bne	10088c <ad400x_init+0x30>
  100884:	e3e03000 	mvn	r3, #0
  100888:	ea000063 	b	100a1c <ad400x_init+0x1c0>
  10088c:	e51b301c 	ldr	r3, [fp, #-28]	; 0xffffffe4
  100890:	e593300c 	ldr	r3, [r3, #12]
  100894:	e50b300c 	str	r3, [fp, #-12]
  100898:	e3a0000c 	mov	r0, #12
  10089c:	eb0044d5 	bl	111bf8 <malloc>
  1008a0:	e1a03000 	mov	r3, r0
  1008a4:	e50b3010 	str	r3, [fp, #-16]
  1008a8:	e51b3010 	ldr	r3, [fp, #-16]
  1008ac:	e3530000 	cmp	r3, #0
  1008b0:	1a000001 	bne	1008bc <ad400x_init+0x60>
  1008b4:	e3e03000 	mvn	r3, #0
  1008b8:	ea000057 	b	100a1c <ad400x_init+0x1c0>
  1008bc:	e51b3010 	ldr	r3, [fp, #-16]
  1008c0:	e51b201c 	ldr	r2, [fp, #-28]	; 0xffffffe4
  1008c4:	e1a01002 	mov	r1, r2
  1008c8:	e1a00003 	mov	r0, r3
  1008cc:	eb000064 	bl	100a64 <spi_init>
  1008d0:	e50b0008 	str	r0, [fp, #-8]
  1008d4:	e51b3008 	ldr	r3, [fp, #-8]
  1008d8:	e3530000 	cmp	r3, #0
  1008dc:	ba000048 	blt	100a04 <ad400x_init+0x1a8>
  1008e0:	e51b301c 	ldr	r3, [fp, #-28]	; 0xffffffe4
  1008e4:	e5932010 	ldr	r2, [r3, #16]
  1008e8:	e51b3010 	ldr	r3, [fp, #-16]
  1008ec:	e5832004 	str	r2, [r3, #4]
  1008f0:	e51b301c 	ldr	r3, [fp, #-28]	; 0xffffffe4
  1008f4:	e5d32014 	ldrb	r2, [r3, #20]
  1008f8:	e51b3010 	ldr	r3, [fp, #-16]
  1008fc:	e5c32008 	strb	r2, [r3, #8]
  100900:	e51b3010 	ldr	r3, [fp, #-16]
  100904:	e5933000 	ldr	r3, [r3]
  100908:	e3a01010 	mov	r1, #16
  10090c:	e1a00003 	mov	r0, r3
  100910:	eb0000b8 	bl	100bf8 <spi_engine_set_transfer_width>
  100914:	e24b3011 	sub	r3, fp, #17
  100918:	e1a01003 	mov	r1, r3
  10091c:	e51b0010 	ldr	r0, [fp, #-16]
  100920:	ebffff58 	bl	100688 <ad400x_spi_reg_read>
  100924:	e51b301c 	ldr	r3, [fp, #-28]	; 0xffffffe4
  100928:	e5d33015 	ldrb	r3, [r3, #21]
  10092c:	e1a03083 	lsl	r3, r3, #1
  100930:	e6af3073 	sxtb	r3, r3
  100934:	e2033002 	and	r3, r3, #2
  100938:	e6af2073 	sxtb	r2, r3
  10093c:	e51b301c 	ldr	r3, [fp, #-28]	; 0xffffffe4
  100940:	e5d33016 	ldrb	r3, [r3, #22]
  100944:	e1a03103 	lsl	r3, r3, #2
  100948:	e6af3073 	sxtb	r3, r3
  10094c:	e2033004 	and	r3, r3, #4
  100950:	e6af3073 	sxtb	r3, r3
  100954:	e1823003 	orr	r3, r2, r3
  100958:	e6af2073 	sxtb	r2, r3
  10095c:	e51b301c 	ldr	r3, [fp, #-28]	; 0xffffffe4
  100960:	e5d33017 	ldrb	r3, [r3, #23]
  100964:	e1a03183 	lsl	r3, r3, #3
  100968:	e6af3073 	sxtb	r3, r3
  10096c:	e2033008 	and	r3, r3, #8
  100970:	e6af3073 	sxtb	r3, r3
  100974:	e1823003 	orr	r3, r2, r3
  100978:	e6af2073 	sxtb	r2, r3
  10097c:	e51b301c 	ldr	r3, [fp, #-28]	; 0xffffffe4
  100980:	e5d33018 	ldrb	r3, [r3, #24]
  100984:	e1a03203 	lsl	r3, r3, #4
  100988:	e6af3073 	sxtb	r3, r3
  10098c:	e2033010 	and	r3, r3, #16
  100990:	e6af3073 	sxtb	r3, r3
  100994:	e1823003 	orr	r3, r2, r3
  100998:	e6af2073 	sxtb	r2, r3
  10099c:	e55b3011 	ldrb	r3, [fp, #-17]	; 0xffffffef
  1009a0:	e6af3073 	sxtb	r3, r3
  1009a4:	e1823003 	orr	r3, r2, r3
  1009a8:	e6af3073 	sxtb	r3, r3
  1009ac:	e6ef3073 	uxtb	r3, r3
  1009b0:	e54b3011 	strb	r3, [fp, #-17]	; 0xffffffef
  1009b4:	e55b3011 	ldrb	r3, [fp, #-17]	; 0xffffffef
  1009b8:	e1a01003 	mov	r1, r3
  1009bc:	e51b0010 	ldr	r0, [fp, #-16]
  1009c0:	ebffff5e 	bl	100740 <ad400x_spi_reg_write>
  1009c4:	e50b0008 	str	r0, [fp, #-8]
  1009c8:	e51b3008 	ldr	r3, [fp, #-8]
  1009cc:	e3530000 	cmp	r3, #0
  1009d0:	ba00000d 	blt	100a0c <ad400x_init+0x1b0>
  1009d4:	e51b3010 	ldr	r3, [fp, #-16]
  1009d8:	e5932000 	ldr	r2, [r3]
  1009dc:	e51b300c 	ldr	r3, [fp, #-12]
  1009e0:	e5d33010 	ldrb	r3, [r3, #16]
  1009e4:	e1a01003 	mov	r1, r3
  1009e8:	e1a00002 	mov	r0, r2
  1009ec:	eb000081 	bl	100bf8 <spi_engine_set_transfer_width>
  1009f0:	e51b3018 	ldr	r3, [fp, #-24]	; 0xffffffe8
  1009f4:	e51b2010 	ldr	r2, [fp, #-16]
  1009f8:	e5832000 	str	r2, [r3]
  1009fc:	e51b3008 	ldr	r3, [fp, #-8]
  100a00:	ea000005 	b	100a1c <ad400x_init+0x1c0>
  100a04:	e320f000 	nop	{0}
  100a08:	ea000000 	b	100a10 <ad400x_init+0x1b4>
  100a0c:	e320f000 	nop	{0}
  100a10:	e51b0010 	ldr	r0, [fp, #-16]
  100a14:	eb000003 	bl	100a28 <ad400x_remove>
  100a18:	e51b3008 	ldr	r3, [fp, #-8]
  100a1c:	e1a00003 	mov	r0, r3
  100a20:	e24bd004 	sub	sp, fp, #4
  100a24:	e8bd8800 	pop	{fp, pc}

00100a28 <ad400x_remove>:
  100a28:	e92d4800 	push	{fp, lr}
  100a2c:	e28db004 	add	fp, sp, #4
  100a30:	e24dd010 	sub	sp, sp, #16
  100a34:	e50b0010 	str	r0, [fp, #-16]
  100a38:	e51b3010 	ldr	r3, [fp, #-16]
  100a3c:	e5933000 	ldr	r3, [r3]
  100a40:	e1a00003 	mov	r0, r3
  100a44:	eb000024 	bl	100adc <spi_remove>
  100a48:	e50b0008 	str	r0, [fp, #-8]
  100a4c:	e51b0010 	ldr	r0, [fp, #-16]
  100a50:	eb00446e 	bl	111c10 <free>
  100a54:	e51b3008 	ldr	r3, [fp, #-8]
  100a58:	e1a00003 	mov	r0, r3
  100a5c:	e24bd004 	sub	sp, fp, #4
  100a60:	e8bd8800 	pop	{fp, pc}

00100a64 <spi_init>:
  100a64:	e92d4800 	push	{fp, lr}
  100a68:	e28db004 	add	fp, sp, #4
  100a6c:	e24dd008 	sub	sp, sp, #8
  100a70:	e50b0008 	str	r0, [fp, #-8]
  100a74:	e50b100c 	str	r1, [fp, #-12]
  100a78:	e51b300c 	ldr	r3, [fp, #-12]
  100a7c:	e3530000 	cmp	r3, #0
  100a80:	1a000001 	bne	100a8c <spi_init+0x28>
  100a84:	e3e03000 	mvn	r3, #0
  100a88:	ea000010 	b	100ad0 <spi_init+0x6c>
  100a8c:	e51b300c 	ldr	r3, [fp, #-12]
  100a90:	e5933008 	ldr	r3, [r3, #8]
  100a94:	e5933000 	ldr	r3, [r3]
  100a98:	e51b100c 	ldr	r1, [fp, #-12]
  100a9c:	e51b0008 	ldr	r0, [fp, #-8]
  100aa0:	e12fff33 	blx	r3
  100aa4:	e1a03000 	mov	r3, r0
  100aa8:	e3530000 	cmp	r3, #0
  100aac:	0a000001 	beq	100ab8 <spi_init+0x54>
  100ab0:	e3e03000 	mvn	r3, #0
  100ab4:	ea000005 	b	100ad0 <spi_init+0x6c>
  100ab8:	e51b3008 	ldr	r3, [fp, #-8]
  100abc:	e5933000 	ldr	r3, [r3]
  100ac0:	e51b200c 	ldr	r2, [fp, #-12]
  100ac4:	e5922008 	ldr	r2, [r2, #8]
  100ac8:	e5832008 	str	r2, [r3, #8]
  100acc:	e3a03000 	mov	r3, #0
  100ad0:	e1a00003 	mov	r0, r3
  100ad4:	e24bd004 	sub	sp, fp, #4
  100ad8:	e8bd8800 	pop	{fp, pc}

00100adc <spi_remove>:
  100adc:	e92d4800 	push	{fp, lr}
  100ae0:	e28db004 	add	fp, sp, #4
  100ae4:	e24dd008 	sub	sp, sp, #8
  100ae8:	e50b0008 	str	r0, [fp, #-8]
  100aec:	e51b3008 	ldr	r3, [fp, #-8]
  100af0:	e5933008 	ldr	r3, [r3, #8]
  100af4:	e5933008 	ldr	r3, [r3, #8]
  100af8:	e51b0008 	ldr	r0, [fp, #-8]
  100afc:	e12fff33 	blx	r3
  100b00:	e1a03000 	mov	r3, r0
  100b04:	e1a00003 	mov	r0, r3
  100b08:	e24bd004 	sub	sp, fp, #4
  100b0c:	e8bd8800 	pop	{fp, pc}

00100b10 <spi_write_and_read>:
  100b10:	e92d4800 	push	{fp, lr}
  100b14:	e28db004 	add	fp, sp, #4
  100b18:	e24dd010 	sub	sp, sp, #16
  100b1c:	e50b0008 	str	r0, [fp, #-8]
  100b20:	e50b100c 	str	r1, [fp, #-12]
  100b24:	e1a03002 	mov	r3, r2
  100b28:	e14b30be 	strh	r3, [fp, #-14]
  100b2c:	e51b3008 	ldr	r3, [fp, #-8]
  100b30:	e5933008 	ldr	r3, [r3, #8]
  100b34:	e5933004 	ldr	r3, [r3, #4]
  100b38:	e15b20be 	ldrh	r2, [fp, #-14]
  100b3c:	e51b100c 	ldr	r1, [fp, #-12]
  100b40:	e51b0008 	ldr	r0, [fp, #-8]
  100b44:	e12fff33 	blx	r3
  100b48:	e1a03000 	mov	r3, r0
  100b4c:	e1a00003 	mov	r0, r3
  100b50:	e24bd004 	sub	sp, fp, #4
  100b54:	e8bd8800 	pop	{fp, pc}

00100b58 <spi_engine_write>:
  100b58:	e92d4800 	push	{fp, lr}
  100b5c:	e28db004 	add	fp, sp, #4
  100b60:	e24dd018 	sub	sp, sp, #24
  100b64:	e50b0010 	str	r0, [fp, #-16]
  100b68:	e50b1014 	str	r1, [fp, #-20]	; 0xffffffec
  100b6c:	e50b2018 	str	r2, [fp, #-24]	; 0xffffffe8
  100b70:	e51b3010 	ldr	r3, [fp, #-16]
  100b74:	e5933014 	ldr	r3, [r3, #20]
  100b78:	e51b2018 	ldr	r2, [fp, #-24]	; 0xffffffe8
  100b7c:	e51b1014 	ldr	r1, [fp, #-20]	; 0xffffffec
  100b80:	e1a00003 	mov	r0, r3
  100b84:	eb000627 	bl	102428 <axi_io_write>
  100b88:	e3a03000 	mov	r3, #0
  100b8c:	e50b3008 	str	r3, [fp, #-8]
  100b90:	e51b3010 	ldr	r3, [fp, #-16]
  100b94:	e5933014 	ldr	r3, [r3, #20]
  100b98:	e24b2008 	sub	r2, fp, #8
  100b9c:	e51b1014 	ldr	r1, [fp, #-20]	; 0xffffffec
  100ba0:	e1a00003 	mov	r0, r3
  100ba4:	eb00060e 	bl	1023e4 <axi_io_read>
  100ba8:	e3a03000 	mov	r3, #0
  100bac:	e1a00003 	mov	r0, r3
  100bb0:	e24bd004 	sub	sp, fp, #4
  100bb4:	e8bd8800 	pop	{fp, pc}

00100bb8 <spi_engine_read>:
  100bb8:	e92d4800 	push	{fp, lr}
  100bbc:	e28db004 	add	fp, sp, #4
  100bc0:	e24dd010 	sub	sp, sp, #16
  100bc4:	e50b0008 	str	r0, [fp, #-8]
  100bc8:	e50b100c 	str	r1, [fp, #-12]
  100bcc:	e50b2010 	str	r2, [fp, #-16]
  100bd0:	e51b3008 	ldr	r3, [fp, #-8]
  100bd4:	e5933014 	ldr	r3, [r3, #20]
  100bd8:	e51b2010 	ldr	r2, [fp, #-16]
  100bdc:	e51b100c 	ldr	r1, [fp, #-12]
  100be0:	e1a00003 	mov	r0, r3
  100be4:	eb0005fe 	bl	1023e4 <axi_io_read>
  100be8:	e3a03000 	mov	r3, #0
  100bec:	e1a00003 	mov	r0, r3
  100bf0:	e24bd004 	sub	sp, fp, #4
  100bf4:	e8bd8800 	pop	{fp, pc}

00100bf8 <spi_engine_set_transfer_width>:
  100bf8:	e52db004 	push	{fp}		; (str fp, [sp, #-4]!)
  100bfc:	e28db000 	add	fp, sp, #0
  100c00:	e24dd014 	sub	sp, sp, #20
  100c04:	e50b0010 	str	r0, [fp, #-16]
  100c08:	e1a03001 	mov	r3, r1
  100c0c:	e54b3011 	strb	r3, [fp, #-17]	; 0xffffffef
  100c10:	e51b3010 	ldr	r3, [fp, #-16]
  100c14:	e593300c 	ldr	r3, [r3, #12]
  100c18:	e50b3008 	str	r3, [fp, #-8]
  100c1c:	e51b3008 	ldr	r3, [fp, #-8]
  100c20:	e5d33029 	ldrb	r3, [r3, #41]	; 0x29
  100c24:	e55b2011 	ldrb	r2, [fp, #-17]	; 0xffffffef
  100c28:	e1520003 	cmp	r2, r3
  100c2c:	9a000004 	bls	100c44 <spi_engine_set_transfer_width+0x4c>
  100c30:	e51b3008 	ldr	r3, [fp, #-8]
  100c34:	e5d32029 	ldrb	r2, [r3, #41]	; 0x29
  100c38:	e51b3008 	ldr	r3, [fp, #-8]
  100c3c:	e5c32028 	strb	r2, [r3, #40]	; 0x28
  100c40:	ea000002 	b	100c50 <spi_engine_set_transfer_width+0x58>
  100c44:	e51b3008 	ldr	r3, [fp, #-8]
  100c48:	e55b2011 	ldrb	r2, [fp, #-17]	; 0xffffffef
  100c4c:	e5c32028 	strb	r2, [r3, #40]	; 0x28
  100c50:	e3a03000 	mov	r3, #0
  100c54:	e1a00003 	mov	r0, r3
  100c58:	e24bd000 	sub	sp, fp, #0
  100c5c:	e49db004 	pop	{fp}		; (ldr fp, [sp], #4)
  100c60:	e12fff1e 	bx	lr

00100c64 <spi_engine_set_speed>:
  100c64:	e92d4800 	push	{fp, lr}
  100c68:	e28db004 	add	fp, sp, #4
  100c6c:	e24dd010 	sub	sp, sp, #16
  100c70:	e50b0010 	str	r0, [fp, #-16]
  100c74:	e50b1014 	str	r1, [fp, #-20]	; 0xffffffec
  100c78:	e51b3010 	ldr	r3, [fp, #-16]
  100c7c:	e593300c 	ldr	r3, [r3, #12]
  100c80:	e50b3008 	str	r3, [fp, #-8]
  100c84:	e51b3008 	ldr	r3, [fp, #-8]
  100c88:	e5932000 	ldr	r2, [r3]
  100c8c:	e51b3014 	ldr	r3, [fp, #-20]	; 0xffffffec
  100c90:	e1a03083 	lsl	r3, r3, #1
  100c94:	e1a01003 	mov	r1, r3
  100c98:	e1a00002 	mov	r0, r2
  100c9c:	eb0042cc 	bl	1117d4 <__aeabi_uidiv>
  100ca0:	e1a03000 	mov	r3, r0
  100ca4:	e2432001 	sub	r2, r3, #1
  100ca8:	e51b3008 	ldr	r3, [fp, #-8]
  100cac:	e5832024 	str	r2, [r3, #36]	; 0x24
  100cb0:	e320f000 	nop	{0}
  100cb4:	e24bd004 	sub	sp, fp, #4
  100cb8:	e8bd8800 	pop	{fp, pc}

00100cbc <spi_get_words_number>:
  100cbc:	e92d4800 	push	{fp, lr}
  100cc0:	e28db004 	add	fp, sp, #4
  100cc4:	e24dd010 	sub	sp, sp, #16
  100cc8:	e50b0010 	str	r0, [fp, #-16]
  100ccc:	e1a03001 	mov	r3, r1
  100cd0:	e54b3011 	strb	r3, [fp, #-17]	; 0xffffffef
  100cd4:	e51b3010 	ldr	r3, [fp, #-16]
  100cd8:	e5d33028 	ldrb	r3, [r3, #40]	; 0x28
  100cdc:	e1a031a3 	lsr	r3, r3, #3
  100ce0:	e54b3006 	strb	r3, [fp, #-6]
  100ce4:	e55b3011 	ldrb	r3, [fp, #-17]	; 0xffffffef
  100ce8:	e55b2006 	ldrb	r2, [fp, #-6]
  100cec:	e1a01002 	mov	r1, r2
  100cf0:	e1a00003 	mov	r0, r3
  100cf4:	eb0042b6 	bl	1117d4 <__aeabi_uidiv>
  100cf8:	e1a03000 	mov	r3, r0
  100cfc:	e54b3005 	strb	r3, [fp, #-5]
  100d00:	e55b3011 	ldrb	r3, [fp, #-17]	; 0xffffffef
  100d04:	e55b2006 	ldrb	r2, [fp, #-6]
  100d08:	e1a01002 	mov	r1, r2
  100d0c:	e1a00003 	mov	r0, r3
  100d10:	eb00432a 	bl	1119c0 <__aeabi_uidivmod>
  100d14:	e1a03001 	mov	r3, r1
  100d18:	e6ef3073 	uxtb	r3, r3
  100d1c:	e3530000 	cmp	r3, #0
  100d20:	0a000002 	beq	100d30 <spi_get_words_number+0x74>
  100d24:	e55b3005 	ldrb	r3, [fp, #-5]
  100d28:	e2833001 	add	r3, r3, #1
  100d2c:	e54b3005 	strb	r3, [fp, #-5]
  100d30:	e55b3005 	ldrb	r3, [fp, #-5]
  100d34:	e1a00003 	mov	r0, r3
  100d38:	e24bd004 	sub	sp, fp, #4
  100d3c:	e8bd8800 	pop	{fp, pc}

00100d40 <spi_get_word_lenght>:
  100d40:	e52db004 	push	{fp}		; (str fp, [sp, #-4]!)
  100d44:	e28db000 	add	fp, sp, #0
  100d48:	e24dd014 	sub	sp, sp, #20
  100d4c:	e50b0010 	str	r0, [fp, #-16]
  100d50:	e51b3010 	ldr	r3, [fp, #-16]
  100d54:	e5d33028 	ldrb	r3, [r3, #40]	; 0x28
  100d58:	e1a031a3 	lsr	r3, r3, #3
  100d5c:	e54b3005 	strb	r3, [fp, #-5]
  100d60:	e55b3005 	ldrb	r3, [fp, #-5]
  100d64:	e1a00003 	mov	r0, r3
  100d68:	e24bd000 	sub	sp, fp, #0
  100d6c:	e49db004 	pop	{fp}		; (ldr fp, [sp], #4)
  100d70:	e12fff1e 	bx	lr

00100d74 <spi_get_sleep_div>:
  100d74:	e92d4800 	push	{fp, lr}
  100d78:	e28db004 	add	fp, sp, #4
  100d7c:	e24dd018 	sub	sp, sp, #24
  100d80:	e50b0010 	str	r0, [fp, #-16]
  100d84:	e50b1014 	str	r1, [fp, #-20]	; 0xffffffec
  100d88:	e50b2018 	str	r2, [fp, #-24]	; 0xffffffe8
  100d8c:	e51b3010 	ldr	r3, [fp, #-16]
  100d90:	e593300c 	ldr	r3, [r3, #12]
  100d94:	e50b3008 	str	r3, [fp, #-8]
  100d98:	e51b3010 	ldr	r3, [fp, #-16]
  100d9c:	e5932000 	ldr	r2, [r3]
  100da0:	e30d3e83 	movw	r3, #56963	; 0xde83
  100da4:	e344331b 	movt	r3, #17179	; 0x431b
  100da8:	e0832392 	umull	r2, r3, r2, r3
  100dac:	e1a03923 	lsr	r3, r3, #18
  100db0:	e51b2014 	ldr	r2, [fp, #-20]	; 0xffffffec
  100db4:	e0020392 	mul	r2, r2, r3
  100db8:	e3043dd3 	movw	r3, #19923	; 0x4dd3
  100dbc:	e3413062 	movt	r3, #4194	; 0x1062
  100dc0:	e0832392 	umull	r2, r3, r2, r3
  100dc4:	e1a02323 	lsr	r2, r3, #6
  100dc8:	e51b3008 	ldr	r3, [fp, #-8]
  100dcc:	e5933024 	ldr	r3, [r3, #36]	; 0x24
  100dd0:	e2833001 	add	r3, r3, #1
  100dd4:	e1a03083 	lsl	r3, r3, #1
  100dd8:	e1a01003 	mov	r1, r3
  100ddc:	e1a00002 	mov	r0, r2
  100de0:	eb00427b 	bl	1117d4 <__aeabi_uidiv>
  100de4:	e1a03000 	mov	r3, r0
  100de8:	e2432001 	sub	r2, r3, #1
  100dec:	e51b3018 	ldr	r3, [fp, #-24]	; 0xffffffe8
  100df0:	e5832000 	str	r2, [r3]
  100df4:	e3a03000 	mov	r3, #0
  100df8:	e1a00003 	mov	r0, r3
  100dfc:	e24bd004 	sub	sp, fp, #4
  100e00:	e8bd8800 	pop	{fp, pc}

00100e04 <spi_engine_queue_new_cmd>:
  100e04:	e92d4800 	push	{fp, lr}
  100e08:	e28db004 	add	fp, sp, #4
  100e0c:	e24dd010 	sub	sp, sp, #16
  100e10:	e50b0010 	str	r0, [fp, #-16]
  100e14:	e50b1014 	str	r1, [fp, #-20]	; 0xffffffec
  100e18:	e3a00008 	mov	r0, #8
  100e1c:	eb004375 	bl	111bf8 <malloc>
  100e20:	e1a03000 	mov	r3, r0
  100e24:	e50b3008 	str	r3, [fp, #-8]
  100e28:	e51b3008 	ldr	r3, [fp, #-8]
  100e2c:	e3530000 	cmp	r3, #0
  100e30:	1a000001 	bne	100e3c <spi_engine_queue_new_cmd+0x38>
  100e34:	e3e03000 	mvn	r3, #0
  100e38:	ea000009 	b	100e64 <spi_engine_queue_new_cmd+0x60>
  100e3c:	e51b3008 	ldr	r3, [fp, #-8]
  100e40:	e51b2014 	ldr	r2, [fp, #-20]	; 0xffffffec
  100e44:	e5832000 	str	r2, [r3]
  100e48:	e51b3008 	ldr	r3, [fp, #-8]
  100e4c:	e3a02000 	mov	r2, #0
  100e50:	e5832004 	str	r2, [r3, #4]
  100e54:	e51b3010 	ldr	r3, [fp, #-16]
  100e58:	e51b2008 	ldr	r2, [fp, #-8]
  100e5c:	e5832000 	str	r2, [r3]
  100e60:	e3a03000 	mov	r3, #0
  100e64:	e1a00003 	mov	r0, r3
  100e68:	e24bd004 	sub	sp, fp, #4
  100e6c:	e8bd8800 	pop	{fp, pc}

00100e70 <spi_engine_queue_add_cmd>:
  100e70:	e92d4800 	push	{fp, lr}
  100e74:	e28db004 	add	fp, sp, #4
  100e78:	e24dd010 	sub	sp, sp, #16
  100e7c:	e50b0010 	str	r0, [fp, #-16]
  100e80:	e50b1014 	str	r1, [fp, #-20]	; 0xffffffec
  100e84:	e3a03000 	mov	r3, #0
  100e88:	e50b300c 	str	r3, [fp, #-12]
  100e8c:	e51b3010 	ldr	r3, [fp, #-16]
  100e90:	e5933000 	ldr	r3, [r3]
  100e94:	e50b3008 	str	r3, [fp, #-8]
  100e98:	ea000002 	b	100ea8 <spi_engine_queue_add_cmd+0x38>
  100e9c:	e51b3008 	ldr	r3, [fp, #-8]
  100ea0:	e5933004 	ldr	r3, [r3, #4]
  100ea4:	e50b3008 	str	r3, [fp, #-8]
  100ea8:	e51b3008 	ldr	r3, [fp, #-8]
  100eac:	e5933004 	ldr	r3, [r3, #4]
  100eb0:	e3530000 	cmp	r3, #0
  100eb4:	1afffff8 	bne	100e9c <spi_engine_queue_add_cmd+0x2c>
  100eb8:	e24b300c 	sub	r3, fp, #12
  100ebc:	e51b1014 	ldr	r1, [fp, #-20]	; 0xffffffec
  100ec0:	e1a00003 	mov	r0, r3
  100ec4:	ebffffce 	bl	100e04 <spi_engine_queue_new_cmd>
  100ec8:	e51b200c 	ldr	r2, [fp, #-12]
  100ecc:	e51b3008 	ldr	r3, [fp, #-8]
  100ed0:	e5832004 	str	r2, [r3, #4]
  100ed4:	e320f000 	nop	{0}
  100ed8:	e24bd004 	sub	sp, fp, #4
  100edc:	e8bd8800 	pop	{fp, pc}

00100ee0 <spi_engine_queue_append_cmd>:
  100ee0:	e92d4800 	push	{fp, lr}
  100ee4:	e28db004 	add	fp, sp, #4
  100ee8:	e24dd010 	sub	sp, sp, #16
  100eec:	e50b0010 	str	r0, [fp, #-16]
  100ef0:	e50b1014 	str	r1, [fp, #-20]	; 0xffffffec
  100ef4:	e3a03000 	mov	r3, #0
  100ef8:	e50b3008 	str	r3, [fp, #-8]
  100efc:	e24b3008 	sub	r3, fp, #8
  100f00:	e51b1014 	ldr	r1, [fp, #-20]	; 0xffffffec
  100f04:	e1a00003 	mov	r0, r3
  100f08:	ebffffbd 	bl	100e04 <spi_engine_queue_new_cmd>
  100f0c:	e51b3008 	ldr	r3, [fp, #-8]
  100f10:	e51b2010 	ldr	r2, [fp, #-16]
  100f14:	e5922000 	ldr	r2, [r2]
  100f18:	e5832004 	str	r2, [r3, #4]
  100f1c:	e51b2008 	ldr	r2, [fp, #-8]
  100f20:	e51b3010 	ldr	r3, [fp, #-16]
  100f24:	e5832000 	str	r2, [r3]
  100f28:	e320f000 	nop	{0}
  100f2c:	e24bd004 	sub	sp, fp, #4
  100f30:	e8bd8800 	pop	{fp, pc}

00100f34 <spi_engine_queue_get_cmd>:
  100f34:	e92d4800 	push	{fp, lr}
  100f38:	e28db004 	add	fp, sp, #4
  100f3c:	e24dd010 	sub	sp, sp, #16
  100f40:	e50b0010 	str	r0, [fp, #-16]
  100f44:	e50b1014 	str	r1, [fp, #-20]	; 0xffffffec
  100f48:	e51b3010 	ldr	r3, [fp, #-16]
  100f4c:	e5933000 	ldr	r3, [r3]
  100f50:	e3530000 	cmp	r3, #0
  100f54:	1a000001 	bne	100f60 <spi_engine_queue_get_cmd+0x2c>
  100f58:	e3e03000 	mvn	r3, #0
  100f5c:	ea00001a 	b	100fcc <spi_engine_queue_get_cmd+0x98>
  100f60:	e51b3010 	ldr	r3, [fp, #-16]
  100f64:	e5933000 	ldr	r3, [r3]
  100f68:	e50b3008 	str	r3, [fp, #-8]
  100f6c:	e51b3008 	ldr	r3, [fp, #-8]
  100f70:	e5932000 	ldr	r2, [r3]
  100f74:	e51b3014 	ldr	r3, [fp, #-20]	; 0xffffffec
  100f78:	e5832000 	str	r2, [r3]
  100f7c:	e51b3010 	ldr	r3, [fp, #-16]
  100f80:	e5933000 	ldr	r3, [r3]
  100f84:	e5933004 	ldr	r3, [r3, #4]
  100f88:	e3530000 	cmp	r3, #0
  100f8c:	0a000006 	beq	100fac <spi_engine_queue_get_cmd+0x78>
  100f90:	e51b3008 	ldr	r3, [fp, #-8]
  100f94:	e5932004 	ldr	r2, [r3, #4]
  100f98:	e51b3010 	ldr	r3, [fp, #-16]
  100f9c:	e5832000 	str	r2, [r3]
  100fa0:	e51b0008 	ldr	r0, [fp, #-8]
  100fa4:	eb004319 	bl	111c10 <free>
  100fa8:	ea000006 	b	100fc8 <spi_engine_queue_get_cmd+0x94>
  100fac:	e51b3010 	ldr	r3, [fp, #-16]
  100fb0:	e5933000 	ldr	r3, [r3]
  100fb4:	e1a00003 	mov	r0, r3
  100fb8:	eb004314 	bl	111c10 <free>
  100fbc:	e51b3010 	ldr	r3, [fp, #-16]
  100fc0:	e3a02000 	mov	r2, #0
  100fc4:	e5832000 	str	r2, [r3]
  100fc8:	e3a03000 	mov	r3, #0
  100fcc:	e1a00003 	mov	r0, r3
  100fd0:	e24bd004 	sub	sp, fp, #4
  100fd4:	e8bd8800 	pop	{fp, pc}

00100fd8 <spi_engine_queue_free>:
  100fd8:	e92d4800 	push	{fp, lr}
  100fdc:	e28db004 	add	fp, sp, #4
  100fe0:	e24dd008 	sub	sp, sp, #8
  100fe4:	e50b0008 	str	r0, [fp, #-8]
  100fe8:	e51b3008 	ldr	r3, [fp, #-8]
  100fec:	e5933000 	ldr	r3, [r3]
  100ff0:	e3530000 	cmp	r3, #0
  100ff4:	0a000009 	beq	101020 <spi_engine_queue_free+0x48>
  100ff8:	e51b3008 	ldr	r3, [fp, #-8]
  100ffc:	e5933000 	ldr	r3, [r3]
  101000:	e5933004 	ldr	r3, [r3, #4]
  101004:	e3530000 	cmp	r3, #0
  101008:	0a000004 	beq	101020 <spi_engine_queue_free+0x48>
  10100c:	e51b3008 	ldr	r3, [fp, #-8]
  101010:	e5933000 	ldr	r3, [r3]
  101014:	e2833004 	add	r3, r3, #4
  101018:	e1a00003 	mov	r0, r3
  10101c:	ebffffed 	bl	100fd8 <spi_engine_queue_free>
  101020:	e51b3008 	ldr	r3, [fp, #-8]
  101024:	e5933000 	ldr	r3, [r3]
  101028:	e3530000 	cmp	r3, #0
  10102c:	0a000006 	beq	10104c <spi_engine_queue_free+0x74>
  101030:	e51b3008 	ldr	r3, [fp, #-8]
  101034:	e5933000 	ldr	r3, [r3]
  101038:	e1a00003 	mov	r0, r3
  10103c:	eb0042f3 	bl	111c10 <free>
  101040:	e51b3008 	ldr	r3, [fp, #-8]
  101044:	e3a02000 	mov	r2, #0
  101048:	e5832000 	str	r2, [r3]
  10104c:	e3a03000 	mov	r3, #0
  101050:	e1a00003 	mov	r0, r3
  101054:	e24bd004 	sub	sp, fp, #4
  101058:	e8bd8800 	pop	{fp, pc}

0010105c <spi_engine_write_cmd_reg>:
  10105c:	e92d4800 	push	{fp, lr}
  101060:	e28db004 	add	fp, sp, #4
  101064:	e24dd010 	sub	sp, sp, #16
  101068:	e50b0010 	str	r0, [fp, #-16]
  10106c:	e50b1014 	str	r1, [fp, #-20]	; 0xffffffec
  101070:	e51b3010 	ldr	r3, [fp, #-16]
  101074:	e5d33010 	ldrb	r3, [r3, #16]
  101078:	e2033003 	and	r3, r3, #3
  10107c:	e3530000 	cmp	r3, #0
  101080:	0a000005 	beq	10109c <spi_engine_write_cmd_reg+0x40>
  101084:	e51b2014 	ldr	r2, [fp, #-20]	; 0xffffffec
  101088:	e3a01e11 	mov	r1, #272	; 0x110
  10108c:	e51b0010 	ldr	r0, [fp, #-16]
  101090:	ebfffeb0 	bl	100b58 <spi_engine_write>
  101094:	e50b0008 	str	r0, [fp, #-8]
  101098:	ea000004 	b	1010b0 <spi_engine_write_cmd_reg+0x54>
  10109c:	e51b2014 	ldr	r2, [fp, #-20]	; 0xffffffec
  1010a0:	e3a010e0 	mov	r1, #224	; 0xe0
  1010a4:	e51b0010 	ldr	r0, [fp, #-16]
  1010a8:	ebfffeaa 	bl	100b58 <spi_engine_write>
  1010ac:	e50b0008 	str	r0, [fp, #-8]
  1010b0:	e51b3008 	ldr	r3, [fp, #-8]
  1010b4:	e1a00003 	mov	r0, r3
  1010b8:	e24bd004 	sub	sp, fp, #4
  1010bc:	e8bd8800 	pop	{fp, pc}

001010c0 <spi_engine_transfer>:
  1010c0:	e92d4800 	push	{fp, lr}
  1010c4:	e28db004 	add	fp, sp, #4
  1010c8:	e24dd010 	sub	sp, sp, #16
  1010cc:	e50b0010 	str	r0, [fp, #-16]
  1010d0:	e1a03001 	mov	r3, r1
  1010d4:	e54b3011 	strb	r3, [fp, #-17]	; 0xffffffef
  1010d8:	e1a03002 	mov	r3, r2
  1010dc:	e54b3012 	strb	r3, [fp, #-18]	; 0xffffffee
  1010e0:	e55b3012 	ldrb	r3, [fp, #-18]	; 0xffffffee
  1010e4:	e1a01003 	mov	r1, r3
  1010e8:	e51b0010 	ldr	r0, [fp, #-16]
  1010ec:	ebfffef2 	bl	100cbc <spi_get_words_number>
  1010f0:	e1a03000 	mov	r3, r0
  1010f4:	e54b3005 	strb	r3, [fp, #-5]
  1010f8:	e51b3010 	ldr	r3, [fp, #-16]
  1010fc:	e5d32011 	ldrb	r2, [r3, #17]
  101100:	e55b3005 	ldrb	r3, [fp, #-5]
  101104:	e0823003 	add	r3, r2, r3
  101108:	e6ef2073 	uxtb	r2, r3
  10110c:	e51b3010 	ldr	r3, [fp, #-16]
  101110:	e5c32011 	strb	r2, [r3, #17]
  101114:	e55b3011 	ldrb	r3, [fp, #-17]	; 0xffffffef
  101118:	e1a03403 	lsl	r3, r3, #8
  10111c:	e2032c03 	and	r2, r3, #768	; 0x300
  101120:	e55b3005 	ldrb	r3, [fp, #-5]
  101124:	e2433001 	sub	r3, r3, #1
  101128:	e1823003 	orr	r3, r2, r3
  10112c:	e1a01003 	mov	r1, r3
  101130:	e51b0010 	ldr	r0, [fp, #-16]
  101134:	ebffffc8 	bl	10105c <spi_engine_write_cmd_reg>
  101138:	e3a03000 	mov	r3, #0
  10113c:	e1a00003 	mov	r0, r3
  101140:	e24bd004 	sub	sp, fp, #4
  101144:	e8bd8800 	pop	{fp, pc}

00101148 <spi_engine_set_cs>:
  101148:	e92d4800 	push	{fp, lr}
  10114c:	e28db004 	add	fp, sp, #4
  101150:	e24dd010 	sub	sp, sp, #16
  101154:	e50b0010 	str	r0, [fp, #-16]
  101158:	e1a03001 	mov	r3, r1
  10115c:	e54b3011 	strb	r3, [fp, #-17]	; 0xffffffef
  101160:	e51b3010 	ldr	r3, [fp, #-16]
  101164:	e593300c 	ldr	r3, [r3, #12]
  101168:	e50b300c 	str	r3, [fp, #-12]
  10116c:	e3e03000 	mvn	r3, #0
  101170:	e54b3005 	strb	r3, [fp, #-5]
  101174:	e55b3011 	ldrb	r3, [fp, #-17]	; 0xffffffef
  101178:	e2233001 	eor	r3, r3, #1
  10117c:	e6ef3073 	uxtb	r3, r3
  101180:	e3530000 	cmp	r3, #0
  101184:	0a000009 	beq	1011b0 <spi_engine_set_cs+0x68>
  101188:	e51b3010 	ldr	r3, [fp, #-16]
  10118c:	e5d33004 	ldrb	r3, [r3, #4]
  101190:	e1a02003 	mov	r2, r3
  101194:	e3a03001 	mov	r3, #1
  101198:	e1a03213 	lsl	r3, r3, r2
  10119c:	e6af2073 	sxtb	r2, r3
  1011a0:	e15b30d5 	ldrsb	r3, [fp, #-5]
  1011a4:	e0233002 	eor	r3, r3, r2
  1011a8:	e6af3073 	sxtb	r3, r3
  1011ac:	e54b3005 	strb	r3, [fp, #-5]
  1011b0:	e51b300c 	ldr	r3, [fp, #-12]
  1011b4:	e5d33020 	ldrb	r3, [r3, #32]
  1011b8:	e1a03403 	lsl	r3, r3, #8
  1011bc:	e2033c03 	and	r3, r3, #768	; 0x300
  1011c0:	e3832a01 	orr	r2, r3, #4096	; 0x1000
  1011c4:	e55b3005 	ldrb	r3, [fp, #-5]
  1011c8:	e1823003 	orr	r3, r2, r3
  1011cc:	e1a01003 	mov	r1, r3
  1011d0:	e51b000c 	ldr	r0, [fp, #-12]
  1011d4:	ebffffa0 	bl	10105c <spi_engine_write_cmd_reg>
  1011d8:	e320f000 	nop	{0}
  1011dc:	e24bd004 	sub	sp, fp, #4
  1011e0:	e8bd8800 	pop	{fp, pc}

001011e4 <spi_gen_sleep_ns>:
  1011e4:	e92d4800 	push	{fp, lr}
  1011e8:	e28db004 	add	fp, sp, #4
  1011ec:	e24dd010 	sub	sp, sp, #16
  1011f0:	e50b0010 	str	r0, [fp, #-16]
  1011f4:	e50b1014 	str	r1, [fp, #-20]	; 0xffffffec
  1011f8:	e51b3010 	ldr	r3, [fp, #-16]
  1011fc:	e593300c 	ldr	r3, [r3, #12]
  101200:	e50b3008 	str	r3, [fp, #-8]
  101204:	e24b300c 	sub	r3, fp, #12
  101208:	e1a02003 	mov	r2, r3
  10120c:	e51b1014 	ldr	r1, [fp, #-20]	; 0xffffffec
  101210:	e51b0010 	ldr	r0, [fp, #-16]
  101214:	ebfffed6 	bl	100d74 <spi_get_sleep_div>
  101218:	e51b300c 	ldr	r3, [fp, #-12]
  10121c:	e3833c31 	orr	r3, r3, #12544	; 0x3100
  101220:	e1a01003 	mov	r1, r3
  101224:	e51b0008 	ldr	r0, [fp, #-8]
  101228:	ebffff8b 	bl	10105c <spi_engine_write_cmd_reg>
  10122c:	e320f000 	nop	{0}
  101230:	e24bd004 	sub	sp, fp, #4
  101234:	e8bd8800 	pop	{fp, pc}

00101238 <spi_engine_write_cmd>:
  101238:	e92d4800 	push	{fp, lr}
  10123c:	e28db004 	add	fp, sp, #4
  101240:	e24dd010 	sub	sp, sp, #16
  101244:	e50b0010 	str	r0, [fp, #-16]
  101248:	e50b1014 	str	r1, [fp, #-20]	; 0xffffffec
  10124c:	e51b3010 	ldr	r3, [fp, #-16]
  101250:	e593300c 	ldr	r3, [r3, #12]
  101254:	e50b3008 	str	r3, [fp, #-8]
  101258:	e51b3014 	ldr	r3, [fp, #-20]	; 0xffffffec
  10125c:	e1a03623 	lsr	r3, r3, #12
  101260:	e6ef3073 	uxtb	r3, r3
  101264:	e203300f 	and	r3, r3, #15
  101268:	e54b3009 	strb	r3, [fp, #-9]
  10126c:	e51b3014 	ldr	r3, [fp, #-20]	; 0xffffffec
  101270:	e1a03423 	lsr	r3, r3, #8
  101274:	e6ef3073 	uxtb	r3, r3
  101278:	e203300f 	and	r3, r3, #15
  10127c:	e54b300a 	strb	r3, [fp, #-10]
  101280:	e51b3014 	ldr	r3, [fp, #-20]	; 0xffffffec
  101284:	e54b300b 	strb	r3, [fp, #-11]
  101288:	e55b3009 	ldrb	r3, [fp, #-9]
  10128c:	e3530003 	cmp	r3, #3
  101290:	979ff103 	ldrls	pc, [pc, r3, lsl #2]
  101294:	ea00002a 	b	101344 <spi_engine_write_cmd+0x10c>
  101298:	001012a8 	.word	0x001012a8
  10129c:	001012c0 	.word	0x001012c0
  1012a0:	00101334 	.word	0x00101334
  1012a4:	001012f8 	.word	0x001012f8
  1012a8:	e55b200b 	ldrb	r2, [fp, #-11]
  1012ac:	e55b300a 	ldrb	r3, [fp, #-10]
  1012b0:	e1a01003 	mov	r1, r3
  1012b4:	e51b0008 	ldr	r0, [fp, #-8]
  1012b8:	ebffff80 	bl	1010c0 <spi_engine_transfer>
  1012bc:	ea000025 	b	101358 <spi_engine_write_cmd+0x120>
  1012c0:	e55b300b 	ldrb	r3, [fp, #-11]
  1012c4:	e35300ff 	cmp	r3, #255	; 0xff
  1012c8:	1a000003 	bne	1012dc <spi_engine_write_cmd+0xa4>
  1012cc:	e3a01001 	mov	r1, #1
  1012d0:	e51b0010 	ldr	r0, [fp, #-16]
  1012d4:	ebffff9b 	bl	101148 <spi_engine_set_cs>
  1012d8:	ea00001b 	b	10134c <spi_engine_write_cmd+0x114>
  1012dc:	e55b300b 	ldrb	r3, [fp, #-11]
  1012e0:	e3530000 	cmp	r3, #0
  1012e4:	1a000018 	bne	10134c <spi_engine_write_cmd+0x114>
  1012e8:	e3a01000 	mov	r1, #0
  1012ec:	e51b0010 	ldr	r0, [fp, #-16]
  1012f0:	ebffff94 	bl	101148 <spi_engine_set_cs>
  1012f4:	ea000014 	b	10134c <spi_engine_write_cmd+0x114>
  1012f8:	e55b300a 	ldrb	r3, [fp, #-10]
  1012fc:	e3530000 	cmp	r3, #0
  101300:	1a000003 	bne	101314 <spi_engine_write_cmd+0xdc>
  101304:	e51b1014 	ldr	r1, [fp, #-20]	; 0xffffffec
  101308:	e51b0008 	ldr	r0, [fp, #-8]
  10130c:	ebffff52 	bl	10105c <spi_engine_write_cmd_reg>
  101310:	ea00000f 	b	101354 <spi_engine_write_cmd+0x11c>
  101314:	e55b300a 	ldrb	r3, [fp, #-10]
  101318:	e3530001 	cmp	r3, #1
  10131c:	1a00000c 	bne	101354 <spi_engine_write_cmd+0x11c>
  101320:	e55b300b 	ldrb	r3, [fp, #-11]
  101324:	e1a01003 	mov	r1, r3
  101328:	e51b0010 	ldr	r0, [fp, #-16]
  10132c:	ebffffac 	bl	1011e4 <spi_gen_sleep_ns>
  101330:	ea000007 	b	101354 <spi_engine_write_cmd+0x11c>
  101334:	e51b1014 	ldr	r1, [fp, #-20]	; 0xffffffec
  101338:	e51b0008 	ldr	r0, [fp, #-8]
  10133c:	ebffff46 	bl	10105c <spi_engine_write_cmd_reg>
  101340:	ea000004 	b	101358 <spi_engine_write_cmd+0x120>
  101344:	e3e03000 	mvn	r3, #0
  101348:	ea000003 	b	10135c <spi_engine_write_cmd+0x124>
  10134c:	e320f000 	nop	{0}
  101350:	ea000000 	b	101358 <spi_engine_write_cmd+0x120>
  101354:	e320f000 	nop	{0}
  101358:	e3a03000 	mov	r3, #0
  10135c:	e1a00003 	mov	r0, r3
  101360:	e24bd004 	sub	sp, fp, #4
  101364:	e8bd8800 	pop	{fp, pc}

00101368 <spi_engine_compile_message>:
  101368:	e92d4800 	push	{fp, lr}
  10136c:	e28db004 	add	fp, sp, #4
  101370:	e24dd010 	sub	sp, sp, #16
  101374:	e50b0010 	str	r0, [fp, #-16]
  101378:	e50b1014 	str	r1, [fp, #-20]	; 0xffffffec
  10137c:	e51b3010 	ldr	r3, [fp, #-16]
  101380:	e593300c 	ldr	r3, [r3, #12]
  101384:	e50b3008 	str	r3, [fp, #-8]
  101388:	e51b3014 	ldr	r3, [fp, #-20]	; 0xffffffec
  10138c:	e283200c 	add	r2, r3, #12
  101390:	e51b3008 	ldr	r3, [fp, #-8]
  101394:	e5d33028 	ldrb	r3, [r3, #40]	; 0x28
  101398:	e3833c22 	orr	r3, r3, #8704	; 0x2200
  10139c:	e1a01003 	mov	r1, r3
  1013a0:	e1a00002 	mov	r0, r2
  1013a4:	ebfffecd 	bl	100ee0 <spi_engine_queue_append_cmd>
  1013a8:	e51b3014 	ldr	r3, [fp, #-20]	; 0xffffffec
  1013ac:	e283200c 	add	r2, r3, #12
  1013b0:	e51b3010 	ldr	r3, [fp, #-16]
  1013b4:	e5d33005 	ldrb	r3, [r3, #5]
  1013b8:	e3833c21 	orr	r3, r3, #8448	; 0x2100
  1013bc:	e1a01003 	mov	r1, r3
  1013c0:	e1a00002 	mov	r0, r2
  1013c4:	ebfffec5 	bl	100ee0 <spi_engine_queue_append_cmd>
  1013c8:	e51b3014 	ldr	r3, [fp, #-20]	; 0xffffffec
  1013cc:	e283200c 	add	r2, r3, #12
  1013d0:	e51b3008 	ldr	r3, [fp, #-8]
  1013d4:	e5933024 	ldr	r3, [r3, #36]	; 0x24
  1013d8:	e3833a02 	orr	r3, r3, #8192	; 0x2000
  1013dc:	e1a01003 	mov	r1, r3
  1013e0:	e1a00002 	mov	r0, r2
  1013e4:	ebfffebd 	bl	100ee0 <spi_engine_queue_append_cmd>
  1013e8:	e51b3014 	ldr	r3, [fp, #-20]	; 0xffffffec
  1013ec:	e283200c 	add	r2, r3, #12
  1013f0:	e30c3014 	movw	r3, #49172	; 0xc014
  1013f4:	e3403011 	movt	r3, #17
  1013f8:	e5d33000 	ldrb	r3, [r3]
  1013fc:	e3833a03 	orr	r3, r3, #12288	; 0x3000
  101400:	e1a01003 	mov	r1, r3
  101404:	e1a00002 	mov	r0, r2
  101408:	ebfffe98 	bl	100e70 <spi_engine_queue_add_cmd>
  10140c:	e3a03000 	mov	r3, #0
  101410:	e1a00003 	mov	r0, r3
  101414:	e24bd004 	sub	sp, fp, #4
  101418:	e8bd8800 	pop	{fp, pc}

0010141c <spi_engine_transfer_message>:
  10141c:	e92d4800 	push	{fp, lr}
  101420:	e28db004 	add	fp, sp, #4
  101424:	e24dd020 	sub	sp, sp, #32
  101428:	e50b0020 	str	r0, [fp, #-32]	; 0xffffffe0
  10142c:	e50b1024 	str	r1, [fp, #-36]	; 0xffffffdc
  101430:	e51b3020 	ldr	r3, [fp, #-32]	; 0xffffffe0
  101434:	e593300c 	ldr	r3, [r3, #12]
  101438:	e50b300c 	str	r3, [fp, #-12]
  10143c:	e51b1024 	ldr	r1, [fp, #-36]	; 0xffffffdc
  101440:	e51b0020 	ldr	r0, [fp, #-32]	; 0xffffffe0
  101444:	ebffffc7 	bl	101368 <spi_engine_compile_message>
  101448:	e51b300c 	ldr	r3, [fp, #-12]
  10144c:	e5d33010 	ldrb	r3, [r3, #16]
  101450:	e2033003 	and	r3, r3, #3
  101454:	e3530000 	cmp	r3, #0
  101458:	13a03001 	movne	r3, #1
  10145c:	03a03000 	moveq	r3, #0
  101460:	e54b300d 	strb	r3, [fp, #-13]
  101464:	ea000009 	b	101490 <spi_engine_transfer_message+0x74>
  101468:	e51b3024 	ldr	r3, [fp, #-36]	; 0xffffffdc
  10146c:	e283300c 	add	r3, r3, #12
  101470:	e24b2014 	sub	r2, fp, #20
  101474:	e1a01002 	mov	r1, r2
  101478:	e1a00003 	mov	r0, r3
  10147c:	ebfffeac 	bl	100f34 <spi_engine_queue_get_cmd>
  101480:	e51b3014 	ldr	r3, [fp, #-20]	; 0xffffffec
  101484:	e1a01003 	mov	r1, r3
  101488:	e51b0020 	ldr	r0, [fp, #-32]	; 0xffffffe0
  10148c:	ebffff69 	bl	101238 <spi_engine_write_cmd>
  101490:	e51b3024 	ldr	r3, [fp, #-36]	; 0xffffffdc
  101494:	e593300c 	ldr	r3, [r3, #12]
  101498:	e3530000 	cmp	r3, #0
  10149c:	1afffff1 	bne	101468 <spi_engine_transfer_message+0x4c>
  1014a0:	e55b300d 	ldrb	r3, [fp, #-13]
  1014a4:	e3530000 	cmp	r3, #0
  1014a8:	0a000016 	beq	101508 <spi_engine_transfer_message+0xec>
  1014ac:	e3a03000 	mov	r3, #0
  1014b0:	e50b3008 	str	r3, [fp, #-8]
  1014b4:	ea00000c 	b	1014ec <spi_engine_transfer_message+0xd0>
  1014b8:	e51b3024 	ldr	r3, [fp, #-36]	; 0xffffffdc
  1014bc:	e5932000 	ldr	r2, [r3]
  1014c0:	e51b3008 	ldr	r3, [fp, #-8]
  1014c4:	e1a03103 	lsl	r3, r3, #2
  1014c8:	e0823003 	add	r3, r2, r3
  1014cc:	e5933000 	ldr	r3, [r3]
  1014d0:	e1a02003 	mov	r2, r3
  1014d4:	e3a01f45 	mov	r1, #276	; 0x114
  1014d8:	e51b000c 	ldr	r0, [fp, #-12]
  1014dc:	ebfffd9d 	bl	100b58 <spi_engine_write>
  1014e0:	e51b3008 	ldr	r3, [fp, #-8]
  1014e4:	e2833001 	add	r3, r3, #1
  1014e8:	e50b3008 	str	r3, [fp, #-8]
  1014ec:	e51b300c 	ldr	r3, [fp, #-12]
  1014f0:	e5d33011 	ldrb	r3, [r3, #17]
  1014f4:	e1a02003 	mov	r2, r3
  1014f8:	e51b3008 	ldr	r3, [fp, #-8]
  1014fc:	e1520003 	cmp	r2, r3
  101500:	8affffec 	bhi	1014b8 <spi_engine_transfer_message+0x9c>
  101504:	ea00003f 	b	101608 <spi_engine_transfer_message+0x1ec>
  101508:	e3a03000 	mov	r3, #0
  10150c:	e50b3008 	str	r3, [fp, #-8]
  101510:	ea00000c 	b	101548 <spi_engine_transfer_message+0x12c>
  101514:	e51b3024 	ldr	r3, [fp, #-36]	; 0xffffffdc
  101518:	e5932000 	ldr	r2, [r3]
  10151c:	e51b3008 	ldr	r3, [fp, #-8]
  101520:	e1a03103 	lsl	r3, r3, #2
  101524:	e0823003 	add	r3, r2, r3
  101528:	e5933000 	ldr	r3, [r3]
  10152c:	e1a02003 	mov	r2, r3
  101530:	e3a010e4 	mov	r1, #228	; 0xe4
  101534:	e51b000c 	ldr	r0, [fp, #-12]
  101538:	ebfffd86 	bl	100b58 <spi_engine_write>
  10153c:	e51b3008 	ldr	r3, [fp, #-8]
  101540:	e2833001 	add	r3, r3, #1
  101544:	e50b3008 	str	r3, [fp, #-8]
  101548:	e51b3024 	ldr	r3, [fp, #-36]	; 0xffffffdc
  10154c:	e5932008 	ldr	r2, [r3, #8]
  101550:	e51b3008 	ldr	r3, [fp, #-8]
  101554:	e1520003 	cmp	r2, r3
  101558:	8affffed 	bhi	101514 <spi_engine_transfer_message+0xf8>
  10155c:	e24b3018 	sub	r3, fp, #24
  101560:	e1a02003 	mov	r2, r3
  101564:	e3a010c0 	mov	r1, #192	; 0xc0
  101568:	e51b000c 	ldr	r0, [fp, #-12]
  10156c:	ebfffd91 	bl	100bb8 <spi_engine_read>
  101570:	e30c3014 	movw	r3, #49172	; 0xc014
  101574:	e3403011 	movt	r3, #17
  101578:	e5d33000 	ldrb	r3, [r3]
  10157c:	e1a02003 	mov	r2, r3
  101580:	e51b3018 	ldr	r3, [fp, #-24]	; 0xffffffe8
  101584:	e1520003 	cmp	r2, r3
  101588:	1afffff3 	bne	10155c <spi_engine_transfer_message+0x140>
  10158c:	e30c3014 	movw	r3, #49172	; 0xc014
  101590:	e3403011 	movt	r3, #17
  101594:	e5d33000 	ldrb	r3, [r3]
  101598:	e2833001 	add	r3, r3, #1
  10159c:	e6ef2073 	uxtb	r2, r3
  1015a0:	e30c3014 	movw	r3, #49172	; 0xc014
  1015a4:	e3403011 	movt	r3, #17
  1015a8:	e5c32000 	strb	r2, [r3]
  1015ac:	e3a03000 	mov	r3, #0
  1015b0:	e50b3008 	str	r3, [fp, #-8]
  1015b4:	ea00000e 	b	1015f4 <spi_engine_transfer_message+0x1d8>
  1015b8:	e24b3014 	sub	r3, fp, #20
  1015bc:	e1a02003 	mov	r2, r3
  1015c0:	e3a010e8 	mov	r1, #232	; 0xe8
  1015c4:	e51b000c 	ldr	r0, [fp, #-12]
  1015c8:	ebfffd7a 	bl	100bb8 <spi_engine_read>
  1015cc:	e51b3024 	ldr	r3, [fp, #-36]	; 0xffffffdc
  1015d0:	e5932004 	ldr	r2, [r3, #4]
  1015d4:	e51b3008 	ldr	r3, [fp, #-8]
  1015d8:	e1a03103 	lsl	r3, r3, #2
  1015dc:	e0823003 	add	r3, r2, r3
  1015e0:	e51b2014 	ldr	r2, [fp, #-20]	; 0xffffffec
  1015e4:	e5832000 	str	r2, [r3]
  1015e8:	e51b3008 	ldr	r3, [fp, #-8]
  1015ec:	e2833001 	add	r3, r3, #1
  1015f0:	e50b3008 	str	r3, [fp, #-8]
  1015f4:	e51b3024 	ldr	r3, [fp, #-36]	; 0xffffffdc
  1015f8:	e5932008 	ldr	r2, [r3, #8]
  1015fc:	e51b3008 	ldr	r3, [fp, #-8]
  101600:	e1520003 	cmp	r2, r3
  101604:	8affffeb 	bhi	1015b8 <spi_engine_transfer_message+0x19c>
  101608:	e3a03000 	mov	r3, #0
  10160c:	e1a00003 	mov	r0, r3
  101610:	e24bd004 	sub	sp, fp, #4
  101614:	e8bd8800 	pop	{fp, pc}

00101618 <spi_engine_init>:
  101618:	e92d4800 	push	{fp, lr}
  10161c:	e28db004 	add	fp, sp, #4
  101620:	e24dd020 	sub	sp, sp, #32
  101624:	e50b0020 	str	r0, [fp, #-32]	; 0xffffffe0
  101628:	e50b1024 	str	r1, [fp, #-36]	; 0xffffffdc
  10162c:	e3a03000 	mov	r3, #0
  101630:	e50b3014 	str	r3, [fp, #-20]	; 0xffffffec
  101634:	e3a03000 	mov	r3, #0
  101638:	e50b3014 	str	r3, [fp, #-20]	; 0xffffffec
  10163c:	e3a03000 	mov	r3, #0
  101640:	e34f3f24 	movt	r3, #65316	; 0xff24
  101644:	e50b3008 	str	r3, [fp, #-8]
  101648:	e24b3014 	sub	r3, fp, #20
  10164c:	e1a02003 	mov	r2, r3
  101650:	e3a01000 	mov	r1, #0
  101654:	e51b0008 	ldr	r0, [fp, #-8]
  101658:	eb000361 	bl	1023e4 <axi_io_read>
  10165c:	e51b3014 	ldr	r3, [fp, #-20]	; 0xffffffec
  101660:	e1a01003 	mov	r1, r3
  101664:	e30b0044 	movw	r0, #45124	; 0xb044
  101668:	e3400011 	movt	r0, #17
  10166c:	eb0043a2 	bl	1124fc <printf>
  101670:	e3a03000 	mov	r3, #0
  101674:	e50b3014 	str	r3, [fp, #-20]	; 0xffffffec
  101678:	e24b3014 	sub	r3, fp, #20
  10167c:	e1a02003 	mov	r2, r3
  101680:	e3a0100c 	mov	r1, #12
  101684:	e51b0008 	ldr	r0, [fp, #-8]
  101688:	eb000355 	bl	1023e4 <axi_io_read>
  10168c:	e51b3014 	ldr	r3, [fp, #-20]	; 0xffffffec
  101690:	e1a01003 	mov	r1, r3
  101694:	e30b0064 	movw	r0, #45156	; 0xb064
  101698:	e3400011 	movt	r0, #17
  10169c:	eb004396 	bl	1124fc <printf>
  1016a0:	e51b3024 	ldr	r3, [fp, #-36]	; 0xffffffdc
  1016a4:	e3530000 	cmp	r3, #0
  1016a8:	1a000001 	bne	1016b4 <spi_engine_init+0x9c>
  1016ac:	e3e03000 	mvn	r3, #0
  1016b0:	ea000084 	b	1018c8 <spi_engine_init+0x2b0>
  1016b4:	e3a00010 	mov	r0, #16
  1016b8:	eb00414e 	bl	111bf8 <malloc>
  1016bc:	e1a03000 	mov	r3, r0
  1016c0:	e1a02003 	mov	r2, r3
  1016c4:	e51b3020 	ldr	r3, [fp, #-32]	; 0xffffffe0
  1016c8:	e5832000 	str	r2, [r3]
  1016cc:	e51b3020 	ldr	r3, [fp, #-32]	; 0xffffffe0
  1016d0:	e5933000 	ldr	r3, [r3]
  1016d4:	e3530000 	cmp	r3, #0
  1016d8:	1a000005 	bne	1016f4 <spi_engine_init+0xdc>
  1016dc:	e51b3020 	ldr	r3, [fp, #-32]	; 0xffffffe0
  1016e0:	e5933000 	ldr	r3, [r3]
  1016e4:	e1a00003 	mov	r0, r3
  1016e8:	eb004148 	bl	111c10 <free>
  1016ec:	e3e03000 	mvn	r3, #0
  1016f0:	ea000074 	b	1018c8 <spi_engine_init+0x2b0>
  1016f4:	e3a0002c 	mov	r0, #44	; 0x2c
  1016f8:	eb00413e 	bl	111bf8 <malloc>
  1016fc:	e1a03000 	mov	r3, r0
  101700:	e50b300c 	str	r3, [fp, #-12]
  101704:	e51b300c 	ldr	r3, [fp, #-12]
  101708:	e3530000 	cmp	r3, #0
  10170c:	1a000001 	bne	101718 <spi_engine_init+0x100>
  101710:	e3e03000 	mvn	r3, #0
  101714:	ea00006b 	b	1018c8 <spi_engine_init+0x2b0>
  101718:	e51b3024 	ldr	r3, [fp, #-36]	; 0xffffffdc
  10171c:	e593300c 	ldr	r3, [r3, #12]
  101720:	e50b3010 	str	r3, [fp, #-16]
  101724:	e51b3020 	ldr	r3, [fp, #-32]	; 0xffffffe0
  101728:	e5933000 	ldr	r3, [r3]
  10172c:	e51b2024 	ldr	r2, [fp, #-36]	; 0xffffffdc
  101730:	e5922000 	ldr	r2, [r2]
  101734:	e5832000 	str	r2, [r3]
  101738:	e51b3020 	ldr	r3, [fp, #-32]	; 0xffffffe0
  10173c:	e5933000 	ldr	r3, [r3]
  101740:	e51b2024 	ldr	r2, [fp, #-36]	; 0xffffffdc
  101744:	e5d22004 	ldrb	r2, [r2, #4]
  101748:	e5c32004 	strb	r2, [r3, #4]
  10174c:	e51b3020 	ldr	r3, [fp, #-32]	; 0xffffffe0
  101750:	e5933000 	ldr	r3, [r3]
  101754:	e51b2024 	ldr	r2, [fp, #-36]	; 0xffffffdc
  101758:	e5d22005 	ldrb	r2, [r2, #5]
  10175c:	e5c32005 	strb	r2, [r3, #5]
  101760:	e51b3020 	ldr	r3, [fp, #-32]	; 0xffffffe0
  101764:	e5933000 	ldr	r3, [r3]
  101768:	e51b200c 	ldr	r2, [fp, #-12]
  10176c:	e583200c 	str	r2, [r3, #12]
  101770:	e51b300c 	ldr	r3, [fp, #-12]
  101774:	e3a02000 	mov	r2, #0
  101778:	e5c32010 	strb	r2, [r3, #16]
  10177c:	e51b3010 	ldr	r3, [fp, #-16]
  101780:	e5932008 	ldr	r2, [r3, #8]
  101784:	e51b300c 	ldr	r3, [fp, #-12]
  101788:	e5832014 	str	r2, [r3, #20]
  10178c:	e51b3010 	ldr	r3, [fp, #-16]
  101790:	e5d32004 	ldrb	r2, [r3, #4]
  101794:	e51b300c 	ldr	r3, [fp, #-12]
  101798:	e5c32004 	strb	r2, [r3, #4]
  10179c:	e51b3010 	ldr	r3, [fp, #-16]
  1017a0:	e593300c 	ldr	r3, [r3, #12]
  1017a4:	e6ef2073 	uxtb	r2, r3
  1017a8:	e51b300c 	ldr	r3, [fp, #-12]
  1017ac:	e5c32020 	strb	r2, [r3, #32]
  1017b0:	e51b3010 	ldr	r3, [fp, #-16]
  1017b4:	e5932000 	ldr	r2, [r3]
  1017b8:	e51b300c 	ldr	r3, [fp, #-12]
  1017bc:	e5832000 	str	r2, [r3]
  1017c0:	e51b300c 	ldr	r3, [fp, #-12]
  1017c4:	e5932000 	ldr	r2, [r3]
  1017c8:	e51b3024 	ldr	r3, [fp, #-36]	; 0xffffffdc
  1017cc:	e5933000 	ldr	r3, [r3]
  1017d0:	e1a03083 	lsl	r3, r3, #1
  1017d4:	e1a01003 	mov	r1, r3
  1017d8:	e1a00002 	mov	r0, r2
  1017dc:	eb003ffc 	bl	1117d4 <__aeabi_uidiv>
  1017e0:	e1a03000 	mov	r3, r0
  1017e4:	e2432001 	sub	r2, r3, #1
  1017e8:	e51b300c 	ldr	r3, [fp, #-12]
  1017ec:	e5832024 	str	r2, [r3, #36]	; 0x24
  1017f0:	e3a02001 	mov	r2, #1
  1017f4:	e3a01040 	mov	r1, #64	; 0x40
  1017f8:	e51b000c 	ldr	r0, [fp, #-12]
  1017fc:	ebfffcd5 	bl	100b58 <spi_engine_write>
  101800:	e3a02000 	mov	r2, #0
  101804:	e3a01040 	mov	r1, #64	; 0x40
  101808:	e51b000c 	ldr	r0, [fp, #-12]
  10180c:	ebfffcd1 	bl	100b58 <spi_engine_write>
  101810:	e3a020ff 	mov	r2, #255	; 0xff
  101814:	e3a01084 	mov	r1, #132	; 0x84
  101818:	e51b000c 	ldr	r0, [fp, #-12]
  10181c:	ebfffccd 	bl	100b58 <spi_engine_write>
  101820:	e3a02000 	mov	r2, #0
  101824:	e3a01080 	mov	r1, #128	; 0x80
  101828:	e51b000c 	ldr	r0, [fp, #-12]
  10182c:	ebfffcc9 	bl	100b58 <spi_engine_write>
  101830:	e24b3018 	sub	r3, fp, #24
  101834:	e1a02003 	mov	r2, r3
  101838:	e3a0100c 	mov	r1, #12
  10183c:	e51b000c 	ldr	r0, [fp, #-12]
  101840:	ebfffcdc 	bl	100bb8 <spi_engine_read>
  101844:	e51b300c 	ldr	r3, [fp, #-12]
  101848:	e5d32028 	ldrb	r2, [r3, #40]	; 0x28
  10184c:	e51b300c 	ldr	r3, [fp, #-12]
  101850:	e5c32029 	strb	r2, [r3, #41]	; 0x29
  101854:	e51b300c 	ldr	r3, [fp, #-12]
  101858:	e5d33029 	ldrb	r3, [r3, #41]	; 0x29
  10185c:	e1a01003 	mov	r1, r3
  101860:	e30b0088 	movw	r0, #45192	; 0xb088
  101864:	e3400011 	movt	r0, #17
  101868:	eb004323 	bl	1124fc <printf>
  10186c:	e51b3020 	ldr	r3, [fp, #-32]	; 0xffffffe0
  101870:	e5932000 	ldr	r2, [r3]
  101874:	e51b3010 	ldr	r3, [fp, #-16]
  101878:	e5d33010 	ldrb	r3, [r3, #16]
  10187c:	e1a01003 	mov	r1, r3
  101880:	e1a00002 	mov	r0, r2
  101884:	ebfffcdb 	bl	100bf8 <spi_engine_set_transfer_width>
  101888:	e24b301c 	sub	r3, fp, #28
  10188c:	e1a02003 	mov	r2, r3
  101890:	e3a01000 	mov	r1, #0
  101894:	e51b000c 	ldr	r0, [fp, #-12]
  101898:	ebfffcc6 	bl	100bb8 <spi_engine_read>
  10189c:	e51b301c 	ldr	r3, [fp, #-28]	; 0xffffffe4
  1018a0:	e1a01823 	lsr	r1, r3, #16
  1018a4:	e51b301c 	ldr	r3, [fp, #-28]	; 0xffffffe4
  1018a8:	e1a03423 	lsr	r3, r3, #8
  1018ac:	e6ef2073 	uxtb	r2, r3
  1018b0:	e51b301c 	ldr	r3, [fp, #-28]	; 0xffffffe4
  1018b4:	e6ef3073 	uxtb	r3, r3
  1018b8:	e30b00ac 	movw	r0, #45228	; 0xb0ac
  1018bc:	e3400011 	movt	r0, #17
  1018c0:	eb00430d 	bl	1124fc <printf>
  1018c4:	e3a03000 	mov	r3, #0
  1018c8:	e1a00003 	mov	r0, r3
  1018cc:	e24bd004 	sub	sp, fp, #4
  1018d0:	e8bd8800 	pop	{fp, pc}

001018d4 <spi_engine_write_and_read>:
  1018d4:	e92d48f0 	push	{r4, r5, r6, r7, fp, lr}
  1018d8:	e28db014 	add	fp, sp, #20
  1018dc:	e24dd030 	sub	sp, sp, #48	; 0x30
  1018e0:	e50b0038 	str	r0, [fp, #-56]	; 0xffffffc8
  1018e4:	e50b103c 	str	r1, [fp, #-60]	; 0xffffffc4
  1018e8:	e1a03002 	mov	r3, r2
  1018ec:	e14b33be 	strh	r3, [fp, #-62]	; 0xffffffc2
  1018f0:	e51b3038 	ldr	r3, [fp, #-56]	; 0xffffffc8
  1018f4:	e593300c 	ldr	r3, [r3, #12]
  1018f8:	e50b301c 	str	r3, [fp, #-28]	; 0xffffffe4
  1018fc:	e51b301c 	ldr	r3, [fp, #-28]	; 0xffffffe4
  101900:	e3a02000 	mov	r2, #0
  101904:	e5c32010 	strb	r2, [r3, #16]
  101908:	e3a02000 	mov	r2, #0
  10190c:	e3a01c01 	mov	r1, #256	; 0x100
  101910:	e51b001c 	ldr	r0, [fp, #-28]	; 0xffffffe4
  101914:	ebfffc8f 	bl	100b58 <spi_engine_write>
  101918:	e15b33be 	ldrh	r3, [fp, #-62]	; 0xffffffc2
  10191c:	e6ef3073 	uxtb	r3, r3
  101920:	e1a01003 	mov	r1, r3
  101924:	e51b001c 	ldr	r0, [fp, #-28]	; 0xffffffe4
  101928:	ebfffce3 	bl	100cbc <spi_get_words_number>
  10192c:	e1a03000 	mov	r3, r0
  101930:	e54b301d 	strb	r3, [fp, #-29]	; 0xffffffe3
  101934:	e3a00008 	mov	r0, #8
  101938:	eb0040ae 	bl	111bf8 <malloc>
  10193c:	e1a03000 	mov	r3, r0
  101940:	e50b3028 	str	r3, [fp, #-40]	; 0xffffffd8
  101944:	e51b3028 	ldr	r3, [fp, #-40]	; 0xffffffd8
  101948:	e3530000 	cmp	r3, #0
  10194c:	1a000001 	bne	101958 <spi_engine_write_and_read+0x84>
  101950:	e3e03000 	mvn	r3, #0
  101954:	ea00009f 	b	101bd8 <spi_engine_write_and_read+0x304>
  101958:	e55b301d 	ldrb	r3, [fp, #-29]	; 0xffffffe3
  10195c:	e3a01004 	mov	r1, #4
  101960:	e1a00003 	mov	r0, r3
  101964:	eb004073 	bl	111b38 <calloc>
  101968:	e1a03000 	mov	r3, r0
  10196c:	e50b3034 	str	r3, [fp, #-52]	; 0xffffffcc
  101970:	e55b301d 	ldrb	r3, [fp, #-29]	; 0xffffffe3
  101974:	e3a01004 	mov	r1, #4
  101978:	e1a00003 	mov	r0, r3
  10197c:	eb00406d 	bl	111b38 <calloc>
  101980:	e1a03000 	mov	r3, r0
  101984:	e50b3030 	str	r3, [fp, #-48]	; 0xffffffd0
  101988:	e55b301d 	ldrb	r3, [fp, #-29]	; 0xffffffe3
  10198c:	e50b302c 	str	r3, [fp, #-44]	; 0xffffffd4
  101990:	e51b001c 	ldr	r0, [fp, #-28]	; 0xffffffe4
  101994:	ebfffce9 	bl	100d40 <spi_get_word_lenght>
  101998:	e1a03000 	mov	r3, r0
  10199c:	e54b301e 	strb	r3, [fp, #-30]	; 0xffffffe2
  1019a0:	e55b301d 	ldrb	r3, [fp, #-29]	; 0xffffffe3
  1019a4:	e55b201e 	ldrb	r2, [fp, #-30]	; 0xffffffe2
  1019a8:	e1a01003 	mov	r1, r3
  1019ac:	e30b00e0 	movw	r0, #45280	; 0xb0e0
  1019b0:	e3400011 	movt	r0, #17
  1019b4:	eb0042d0 	bl	1124fc <printf>
  1019b8:	e51b3028 	ldr	r3, [fp, #-40]	; 0xffffffd8
  1019bc:	e3a02000 	mov	r2, #0
  1019c0:	e5832004 	str	r2, [r3, #4]
  1019c4:	e51b3028 	ldr	r3, [fp, #-40]	; 0xffffffd8
  1019c8:	e30123ff 	movw	r2, #5119	; 0x13ff
  1019cc:	e5832000 	str	r2, [r3]
  1019d0:	e24b3034 	sub	r3, fp, #52	; 0x34
  1019d4:	e283300c 	add	r3, r3, #12
  1019d8:	e3a01c13 	mov	r1, #4864	; 0x1300
  1019dc:	e1a00003 	mov	r0, r3
  1019e0:	ebfffd22 	bl	100e70 <spi_engine_queue_add_cmd>
  1019e4:	e55b301d 	ldrb	r3, [fp, #-29]	; 0xffffffe3
  1019e8:	e3833c02 	orr	r3, r3, #512	; 0x200
  1019ec:	e1a02003 	mov	r2, r3
  1019f0:	e24b3034 	sub	r3, fp, #52	; 0x34
  1019f4:	e283300c 	add	r3, r3, #12
  1019f8:	e1a01002 	mov	r1, r2
  1019fc:	e1a00003 	mov	r0, r3
  101a00:	ebfffd1a 	bl	100e70 <spi_engine_queue_add_cmd>
  101a04:	e24b3034 	sub	r3, fp, #52	; 0x34
  101a08:	e283300c 	add	r3, r3, #12
  101a0c:	e30113ff 	movw	r1, #5119	; 0x13ff
  101a10:	e1a00003 	mov	r0, r3
  101a14:	ebfffd15 	bl	100e70 <spi_engine_queue_add_cmd>
  101a18:	e3a03000 	mov	r3, #0
  101a1c:	e54b3015 	strb	r3, [fp, #-21]	; 0xffffffeb
  101a20:	ea000027 	b	101ac4 <spi_engine_write_and_read+0x1f0>
  101a24:	e51b4034 	ldr	r4, [fp, #-52]	; 0xffffffcc
  101a28:	e55b3015 	ldrb	r3, [fp, #-21]	; 0xffffffeb
  101a2c:	e55b201e 	ldrb	r2, [fp, #-30]	; 0xffffffe2
  101a30:	e1a01002 	mov	r1, r2
  101a34:	e1a00003 	mov	r0, r3
  101a38:	eb003f65 	bl	1117d4 <__aeabi_uidiv>
  101a3c:	e1a03000 	mov	r3, r0
  101a40:	e6ef1073 	uxtb	r1, r3
  101a44:	e1a03001 	mov	r3, r1
  101a48:	e1a03103 	lsl	r3, r3, #2
  101a4c:	e0844003 	add	r4, r4, r3
  101a50:	e51b2034 	ldr	r2, [fp, #-52]	; 0xffffffcc
  101a54:	e1a03001 	mov	r3, r1
  101a58:	e1a03103 	lsl	r3, r3, #2
  101a5c:	e0823003 	add	r3, r2, r3
  101a60:	e5935000 	ldr	r5, [r3]
  101a64:	e55b3015 	ldrb	r3, [fp, #-21]	; 0xffffffeb
  101a68:	e51b203c 	ldr	r2, [fp, #-60]	; 0xffffffc4
  101a6c:	e0823003 	add	r3, r2, r3
  101a70:	e5d33000 	ldrb	r3, [r3]
  101a74:	e1a06003 	mov	r6, r3
  101a78:	e51b301c 	ldr	r3, [fp, #-28]	; 0xffffffe4
  101a7c:	e5d33028 	ldrb	r3, [r3, #40]	; 0x28
  101a80:	e1a07003 	mov	r7, r3
  101a84:	e55b3015 	ldrb	r3, [fp, #-21]	; 0xffffffeb
  101a88:	e55b201e 	ldrb	r2, [fp, #-30]	; 0xffffffe2
  101a8c:	e1a01002 	mov	r1, r2
  101a90:	e1a00003 	mov	r0, r3
  101a94:	eb003fc9 	bl	1119c0 <__aeabi_uidivmod>
  101a98:	e1a03001 	mov	r3, r1
  101a9c:	e6ef3073 	uxtb	r3, r3
  101aa0:	e2833001 	add	r3, r3, #1
  101aa4:	e1a03183 	lsl	r3, r3, #3
  101aa8:	e0473003 	sub	r3, r7, r3
  101aac:	e1a03316 	lsl	r3, r6, r3
  101ab0:	e1853003 	orr	r3, r5, r3
  101ab4:	e5843000 	str	r3, [r4]
  101ab8:	e55b3015 	ldrb	r3, [fp, #-21]	; 0xffffffeb
  101abc:	e2833001 	add	r3, r3, #1
  101ac0:	e54b3015 	strb	r3, [fp, #-21]	; 0xffffffeb
  101ac4:	e55b3015 	ldrb	r3, [fp, #-21]	; 0xffffffeb
  101ac8:	e6ff3073 	uxth	r3, r3
  101acc:	e15b23be 	ldrh	r2, [fp, #-62]	; 0xffffffc2
  101ad0:	e1520003 	cmp	r2, r3
  101ad4:	8affffd2 	bhi	101a24 <spi_engine_write_and_read+0x150>
  101ad8:	e24b3034 	sub	r3, fp, #52	; 0x34
  101adc:	e1a01003 	mov	r1, r3
  101ae0:	e51b0038 	ldr	r0, [fp, #-56]	; 0xffffffc8
  101ae4:	ebfffe4c 	bl	10141c <spi_engine_transfer_message>
  101ae8:	e50b0024 	str	r0, [fp, #-36]	; 0xffffffdc
  101aec:	e3a0000a 	mov	r0, #10
  101af0:	eb004291 	bl	11253c <putchar>
  101af4:	e3a03000 	mov	r3, #0
  101af8:	e54b3015 	strb	r3, [fp, #-21]	; 0xffffffeb
  101afc:	ea000020 	b	101b84 <spi_engine_write_and_read+0x2b0>
  101b00:	e55b3015 	ldrb	r3, [fp, #-21]	; 0xffffffeb
  101b04:	e51b203c 	ldr	r2, [fp, #-60]	; 0xffffffc4
  101b08:	e0824003 	add	r4, r2, r3
  101b0c:	e51b5030 	ldr	r5, [fp, #-48]	; 0xffffffd0
  101b10:	e55b3015 	ldrb	r3, [fp, #-21]	; 0xffffffeb
  101b14:	e55b201e 	ldrb	r2, [fp, #-30]	; 0xffffffe2
  101b18:	e1a01002 	mov	r1, r2
  101b1c:	e1a00003 	mov	r0, r3
  101b20:	eb003f2b 	bl	1117d4 <__aeabi_uidiv>
  101b24:	e1a03000 	mov	r3, r0
  101b28:	e6ef3073 	uxtb	r3, r3
  101b2c:	e1a03103 	lsl	r3, r3, #2
  101b30:	e0853003 	add	r3, r5, r3
  101b34:	e5935000 	ldr	r5, [r3]
  101b38:	e51b301c 	ldr	r3, [fp, #-28]	; 0xffffffe4
  101b3c:	e5d33028 	ldrb	r3, [r3, #40]	; 0x28
  101b40:	e1a06003 	mov	r6, r3
  101b44:	e55b3015 	ldrb	r3, [fp, #-21]	; 0xffffffeb
  101b48:	e55b201e 	ldrb	r2, [fp, #-30]	; 0xffffffe2
  101b4c:	e1a01002 	mov	r1, r2
  101b50:	e1a00003 	mov	r0, r3
  101b54:	eb003f99 	bl	1119c0 <__aeabi_uidivmod>
  101b58:	e1a03001 	mov	r3, r1
  101b5c:	e6ef3073 	uxtb	r3, r3
  101b60:	e2833001 	add	r3, r3, #1
  101b64:	e1a03183 	lsl	r3, r3, #3
  101b68:	e0463003 	sub	r3, r6, r3
  101b6c:	e1a03335 	lsr	r3, r5, r3
  101b70:	e6ef3073 	uxtb	r3, r3
  101b74:	e5c43000 	strb	r3, [r4]
  101b78:	e55b3015 	ldrb	r3, [fp, #-21]	; 0xffffffeb
  101b7c:	e2833001 	add	r3, r3, #1
  101b80:	e54b3015 	strb	r3, [fp, #-21]	; 0xffffffeb
  101b84:	e55b3015 	ldrb	r3, [fp, #-21]	; 0xffffffeb
  101b88:	e6ff3073 	uxth	r3, r3
  101b8c:	e15b23be 	ldrh	r2, [fp, #-62]	; 0xffffffc2
  101b90:	e1520003 	cmp	r2, r3
  101b94:	8affffd9 	bhi	101b00 <spi_engine_write_and_read+0x22c>
  101b98:	e51b3030 	ldr	r3, [fp, #-48]	; 0xffffffd0
  101b9c:	e5933000 	ldr	r3, [r3]
  101ba0:	e6ef2073 	uxtb	r2, r3
  101ba4:	e51b303c 	ldr	r3, [fp, #-60]	; 0xffffffc4
  101ba8:	e5c32000 	strb	r2, [r3]
  101bac:	e24b3034 	sub	r3, fp, #52	; 0x34
  101bb0:	e283300c 	add	r3, r3, #12
  101bb4:	e1a00003 	mov	r0, r3
  101bb8:	ebfffd06 	bl	100fd8 <spi_engine_queue_free>
  101bbc:	e51b3034 	ldr	r3, [fp, #-52]	; 0xffffffcc
  101bc0:	e1a00003 	mov	r0, r3
  101bc4:	eb004011 	bl	111c10 <free>
  101bc8:	e51b3030 	ldr	r3, [fp, #-48]	; 0xffffffd0
  101bcc:	e1a00003 	mov	r0, r3
  101bd0:	eb00400e 	bl	111c10 <free>
  101bd4:	e51b3024 	ldr	r3, [fp, #-36]	; 0xffffffdc
  101bd8:	e1a00003 	mov	r0, r3
  101bdc:	e24bd014 	sub	sp, fp, #20
  101be0:	e8bd88f0 	pop	{r4, r5, r6, r7, fp, pc}

00101be4 <spi_engine_offload_init>:
  101be4:	e92d4800 	push	{fp, lr}
  101be8:	e28db004 	add	fp, sp, #4
  101bec:	e24dd020 	sub	sp, sp, #32
  101bf0:	e50b0020 	str	r0, [fp, #-32]	; 0xffffffe0
  101bf4:	e50b1024 	str	r1, [fp, #-36]	; 0xffffffdc
  101bf8:	e51b3020 	ldr	r3, [fp, #-32]	; 0xffffffe0
  101bfc:	e593300c 	ldr	r3, [r3, #12]
  101c00:	e50b3008 	str	r3, [fp, #-8]
  101c04:	e51b3024 	ldr	r3, [fp, #-36]	; 0xffffffdc
  101c08:	e5d32008 	ldrb	r2, [r3, #8]
  101c0c:	e51b3008 	ldr	r3, [fp, #-8]
  101c10:	e5c32010 	strb	r2, [r3, #16]
  101c14:	e51b3024 	ldr	r3, [fp, #-36]	; 0xffffffdc
  101c18:	e5d33008 	ldrb	r3, [r3, #8]
  101c1c:	e2033001 	and	r3, r3, #1
  101c20:	e3530000 	cmp	r3, #0
  101c24:	0a000015 	beq	101c80 <spi_engine_offload_init+0x9c>
  101c28:	e30b3124 	movw	r3, #45348	; 0xb124
  101c2c:	e3403011 	movt	r3, #17
  101c30:	e50b3018 	str	r3, [fp, #-24]	; 0xffffffe8
  101c34:	e51b3024 	ldr	r3, [fp, #-36]	; 0xffffffdc
  101c38:	e5933004 	ldr	r3, [r3, #4]
  101c3c:	e50b3014 	str	r3, [fp, #-20]	; 0xffffffec
  101c40:	e3a03001 	mov	r3, #1
  101c44:	e54b3010 	strb	r3, [fp, #-16]
  101c48:	e3a03001 	mov	r3, #1
  101c4c:	e50b300c 	str	r3, [fp, #-12]
  101c50:	e51b3008 	ldr	r3, [fp, #-8]
  101c54:	e2833008 	add	r3, r3, #8
  101c58:	e24b2018 	sub	r2, fp, #24
  101c5c:	e1a01002 	mov	r1, r2
  101c60:	e1a00003 	mov	r0, r3
  101c64:	eb00018e 	bl	1022a4 <axi_dmac_init>
  101c68:	e51b3008 	ldr	r3, [fp, #-8]
  101c6c:	e5933008 	ldr	r3, [r3, #8]
  101c70:	e3530000 	cmp	r3, #0
  101c74:	1a000001 	bne	101c80 <spi_engine_offload_init+0x9c>
  101c78:	e3e03000 	mvn	r3, #0
  101c7c:	ea00001b 	b	101cf0 <spi_engine_offload_init+0x10c>
  101c80:	e51b3024 	ldr	r3, [fp, #-36]	; 0xffffffdc
  101c84:	e5d33008 	ldrb	r3, [r3, #8]
  101c88:	e2033002 	and	r3, r3, #2
  101c8c:	e3530000 	cmp	r3, #0
  101c90:	0a000015 	beq	101cec <spi_engine_offload_init+0x108>
  101c94:	e30b3130 	movw	r3, #45360	; 0xb130
  101c98:	e3403011 	movt	r3, #17
  101c9c:	e50b3018 	str	r3, [fp, #-24]	; 0xffffffe8
  101ca0:	e51b3024 	ldr	r3, [fp, #-36]	; 0xffffffdc
  101ca4:	e5933000 	ldr	r3, [r3]
  101ca8:	e50b3014 	str	r3, [fp, #-20]	; 0xffffffec
  101cac:	e3a03000 	mov	r3, #0
  101cb0:	e54b3010 	strb	r3, [fp, #-16]
  101cb4:	e3a03001 	mov	r3, #1
  101cb8:	e50b300c 	str	r3, [fp, #-12]
  101cbc:	e51b3008 	ldr	r3, [fp, #-8]
  101cc0:	e283300c 	add	r3, r3, #12
  101cc4:	e24b2018 	sub	r2, fp, #24
  101cc8:	e1a01002 	mov	r1, r2
  101ccc:	e1a00003 	mov	r0, r3
  101cd0:	eb000173 	bl	1022a4 <axi_dmac_init>
  101cd4:	e51b3008 	ldr	r3, [fp, #-8]
  101cd8:	e593300c 	ldr	r3, [r3, #12]
  101cdc:	e3530000 	cmp	r3, #0
  101ce0:	1a000001 	bne	101cec <spi_engine_offload_init+0x108>
  101ce4:	e3e03000 	mvn	r3, #0
  101ce8:	ea000000 	b	101cf0 <spi_engine_offload_init+0x10c>
  101cec:	e3a03000 	mov	r3, #0
  101cf0:	e1a00003 	mov	r0, r3
  101cf4:	e24bd004 	sub	sp, fp, #4
  101cf8:	e8bd8800 	pop	{fp, pc}

00101cfc <spi_engine_offload_transfer>:
  101cfc:	e24dd010 	sub	sp, sp, #16
  101d00:	e92d4800 	push	{fp, lr}
  101d04:	e28db004 	add	fp, sp, #4
  101d08:	e24dd028 	sub	sp, sp, #40	; 0x28
  101d0c:	e50b0028 	str	r0, [fp, #-40]	; 0xffffffd8
  101d10:	e28b0008 	add	r0, fp, #8
  101d14:	e880000e 	stm	r0, {r1, r2, r3}
  101d18:	e30b013c 	movw	r0, #45372	; 0xb13c
  101d1c:	e3400011 	movt	r0, #17
  101d20:	eb00424c 	bl	112658 <puts>
  101d24:	e51b3028 	ldr	r3, [fp, #-40]	; 0xffffffd8
  101d28:	e593300c 	ldr	r3, [r3, #12]
  101d2c:	e50b3010 	str	r3, [fp, #-16]
  101d30:	e51b3010 	ldr	r3, [fp, #-16]
  101d34:	e5d33010 	ldrb	r3, [r3, #16]
  101d38:	e2033003 	and	r3, r3, #3
  101d3c:	e3530000 	cmp	r3, #0
  101d40:	1a000001 	bne	101d4c <spi_engine_offload_transfer+0x50>
  101d44:	e3e03000 	mvn	r3, #0
  101d48:	ea000078 	b	101f30 <spi_engine_offload_transfer+0x234>
  101d4c:	e3a02001 	mov	r2, #1
  101d50:	e3a01f42 	mov	r1, #264	; 0x108
  101d54:	e51b0010 	ldr	r0, [fp, #-16]
  101d58:	ebfffb7e 	bl	100b58 <spi_engine_write>
  101d5c:	e3a02000 	mov	r2, #0
  101d60:	e3a01f42 	mov	r1, #264	; 0x108
  101d64:	e51b0010 	ldr	r0, [fp, #-16]
  101d68:	ebfffb7a 	bl	100b58 <spi_engine_write>
  101d6c:	e51b3010 	ldr	r3, [fp, #-16]
  101d70:	e3a02000 	mov	r2, #0
  101d74:	e5c32011 	strb	r2, [r3, #17]
  101d78:	e51b3010 	ldr	r3, [fp, #-16]
  101d7c:	e3a02000 	mov	r2, #0
  101d80:	e5c32012 	strb	r2, [r3, #18]
  101d84:	e3a00008 	mov	r0, #8
  101d88:	eb003f9a 	bl	111bf8 <malloc>
  101d8c:	e1a03000 	mov	r3, r0
  101d90:	e50b3018 	str	r3, [fp, #-24]	; 0xffffffe8
  101d94:	e51b3018 	ldr	r3, [fp, #-24]	; 0xffffffe8
  101d98:	e3530000 	cmp	r3, #0
  101d9c:	1a000001 	bne	101da8 <spi_engine_offload_transfer+0xac>
  101da0:	e3e03000 	mvn	r3, #0
  101da4:	ea000061 	b	101f30 <spi_engine_offload_transfer+0x234>
  101da8:	e59b3010 	ldr	r3, [fp, #16]
  101dac:	e50b3024 	str	r3, [fp, #-36]	; 0xffffffdc
  101db0:	e51b3018 	ldr	r3, [fp, #-24]	; 0xffffffe8
  101db4:	e3a02000 	mov	r2, #0
  101db8:	e5832004 	str	r2, [r3, #4]
  101dbc:	e51b3018 	ldr	r3, [fp, #-24]	; 0xffffffe8
  101dc0:	e59b2008 	ldr	r2, [fp, #8]
  101dc4:	e5922000 	ldr	r2, [r2]
  101dc8:	e5832000 	str	r2, [r3]
  101dcc:	e3a03001 	mov	r3, #1
  101dd0:	e50b3008 	str	r3, [fp, #-8]
  101dd4:	ea00000b 	b	101e08 <spi_engine_offload_transfer+0x10c>
  101dd8:	e59b2008 	ldr	r2, [fp, #8]
  101ddc:	e51b3008 	ldr	r3, [fp, #-8]
  101de0:	e2831001 	add	r1, r3, #1
  101de4:	e50b1008 	str	r1, [fp, #-8]
  101de8:	e1a03103 	lsl	r3, r3, #2
  101dec:	e0823003 	add	r3, r2, r3
  101df0:	e5932000 	ldr	r2, [r3]
  101df4:	e24b3024 	sub	r3, fp, #36	; 0x24
  101df8:	e283300c 	add	r3, r3, #12
  101dfc:	e1a01002 	mov	r1, r2
  101e00:	e1a00003 	mov	r0, r3
  101e04:	ebfffc19 	bl	100e70 <spi_engine_queue_add_cmd>
  101e08:	e59b200c 	ldr	r2, [fp, #12]
  101e0c:	e51b3008 	ldr	r3, [fp, #-8]
  101e10:	e1520003 	cmp	r2, r3
  101e14:	8affffef 	bhi	101dd8 <spi_engine_offload_transfer+0xdc>
  101e18:	e24b3024 	sub	r3, fp, #36	; 0x24
  101e1c:	e1a01003 	mov	r1, r3
  101e20:	e51b0028 	ldr	r0, [fp, #-40]	; 0xffffffd8
  101e24:	ebfffd7c 	bl	10141c <spi_engine_transfer_message>
  101e28:	e51b0010 	ldr	r0, [fp, #-16]
  101e2c:	ebfffbc3 	bl	100d40 <spi_get_word_lenght>
  101e30:	e1a03000 	mov	r3, r0
  101e34:	e54b3011 	strb	r3, [fp, #-17]	; 0xffffffef
  101e38:	e51b3010 	ldr	r3, [fp, #-16]
  101e3c:	e5d33010 	ldrb	r3, [r3, #16]
  101e40:	e2033001 	and	r3, r3, #1
  101e44:	e3530000 	cmp	r3, #0
  101e48:	0a00000b 	beq	101e7c <spi_engine_offload_transfer+0x180>
  101e4c:	e51b3010 	ldr	r3, [fp, #-16]
  101e50:	e5930008 	ldr	r0, [r3, #8]
  101e54:	e59b1014 	ldr	r1, [fp, #20]
  101e58:	e55b3011 	ldrb	r3, [fp, #-17]	; 0xffffffef
  101e5c:	e51b2010 	ldr	r2, [fp, #-16]
  101e60:	e5d22011 	ldrb	r2, [r2, #17]
  101e64:	e0030392 	mul	r3, r2, r3
  101e68:	e1a02003 	mov	r2, r3
  101e6c:	e59b301c 	ldr	r3, [fp, #28]
  101e70:	e0030293 	mul	r3, r3, r2
  101e74:	e1a02003 	mov	r2, r3
  101e78:	eb000074 	bl	102050 <axi_dmac_transfer>
  101e7c:	e51b3010 	ldr	r3, [fp, #-16]
  101e80:	e5d33010 	ldrb	r3, [r3, #16]
  101e84:	e2033002 	and	r3, r3, #2
  101e88:	e3530000 	cmp	r3, #0
  101e8c:	0a00000b 	beq	101ec0 <spi_engine_offload_transfer+0x1c4>
  101e90:	e51b3010 	ldr	r3, [fp, #-16]
  101e94:	e593000c 	ldr	r0, [r3, #12]
  101e98:	e59b1018 	ldr	r1, [fp, #24]
  101e9c:	e55b3011 	ldrb	r3, [fp, #-17]	; 0xffffffef
  101ea0:	e51b2010 	ldr	r2, [fp, #-16]
  101ea4:	e5d22011 	ldrb	r2, [r2, #17]
  101ea8:	e0030392 	mul	r3, r2, r3
  101eac:	e1a02003 	mov	r2, r3
  101eb0:	e59b301c 	ldr	r3, [fp, #28]
  101eb4:	e0030293 	mul	r3, r3, r2
  101eb8:	e1a02003 	mov	r2, r3
  101ebc:	eb000063 	bl	102050 <axi_dmac_transfer>
  101ec0:	e3a03000 	mov	r3, #0
  101ec4:	e50b300c 	str	r3, [fp, #-12]
  101ec8:	e3a03000 	mov	r3, #0
  101ecc:	e50b3008 	str	r3, [fp, #-8]
  101ed0:	ea000005 	b	101eec <spi_engine_offload_transfer+0x1f0>
  101ed4:	e51b300c 	ldr	r3, [fp, #-12]
  101ed8:	e2833001 	add	r3, r3, #1
  101edc:	e50b300c 	str	r3, [fp, #-12]
  101ee0:	e51b3008 	ldr	r3, [fp, #-8]
  101ee4:	e2833001 	add	r3, r3, #1
  101ee8:	e50b3008 	str	r3, [fp, #-8]
  101eec:	e51b3008 	ldr	r3, [fp, #-8]
  101ef0:	e302270f 	movw	r2, #9999	; 0x270f
  101ef4:	e1530002 	cmp	r3, r2
  101ef8:	9afffff5 	bls	101ed4 <spi_engine_offload_transfer+0x1d8>
  101efc:	e3a02001 	mov	r2, #1
  101f00:	e3a01c01 	mov	r1, #256	; 0x100
  101f04:	e51b0010 	ldr	r0, [fp, #-16]
  101f08:	ebfffb12 	bl	100b58 <spi_engine_write>
  101f0c:	e51b3010 	ldr	r3, [fp, #-16]
  101f10:	e593300c 	ldr	r3, [r3, #12]
  101f14:	e1a00003 	mov	r0, r3
  101f18:	eb000106 	bl	102338 <axi_wait>
  101f1c:	e24b3024 	sub	r3, fp, #36	; 0x24
  101f20:	e283300c 	add	r3, r3, #12
  101f24:	e1a00003 	mov	r0, r3
  101f28:	ebfffc2a 	bl	100fd8 <spi_engine_queue_free>
  101f2c:	e3a03000 	mov	r3, #0
  101f30:	e1a00003 	mov	r0, r3
  101f34:	e24bd004 	sub	sp, fp, #4
  101f38:	e8bd4800 	pop	{fp, lr}
  101f3c:	e28dd010 	add	sp, sp, #16
  101f40:	e12fff1e 	bx	lr

00101f44 <spi_engine_remove>:
  101f44:	e92d4800 	push	{fp, lr}
  101f48:	e28db004 	add	fp, sp, #4
  101f4c:	e24dd010 	sub	sp, sp, #16
  101f50:	e50b0010 	str	r0, [fp, #-16]
  101f54:	e51b3010 	ldr	r3, [fp, #-16]
  101f58:	e593300c 	ldr	r3, [r3, #12]
  101f5c:	e50b3008 	str	r3, [fp, #-8]
  101f60:	e51b3008 	ldr	r3, [fp, #-8]
  101f64:	e5d33010 	ldrb	r3, [r3, #16]
  101f68:	e2033001 	and	r3, r3, #1
  101f6c:	e3530000 	cmp	r3, #0
  101f70:	0a000003 	beq	101f84 <spi_engine_remove+0x40>
  101f74:	e51b3008 	ldr	r3, [fp, #-8]
  101f78:	e5933008 	ldr	r3, [r3, #8]
  101f7c:	e1a00003 	mov	r0, r3
  101f80:	eb000108 	bl	1023a8 <axi_dmac_remove>
  101f84:	e51b3008 	ldr	r3, [fp, #-8]
  101f88:	e5d33010 	ldrb	r3, [r3, #16]
  101f8c:	e2033002 	and	r3, r3, #2
  101f90:	e3530000 	cmp	r3, #0
  101f94:	0a000003 	beq	101fa8 <spi_engine_remove+0x64>
  101f98:	e51b3008 	ldr	r3, [fp, #-8]
  101f9c:	e593300c 	ldr	r3, [r3, #12]
  101fa0:	e1a00003 	mov	r0, r3
  101fa4:	eb0000ff 	bl	1023a8 <axi_dmac_remove>
  101fa8:	e51b3010 	ldr	r3, [fp, #-16]
  101fac:	e593300c 	ldr	r3, [r3, #12]
  101fb0:	e1a00003 	mov	r0, r3
  101fb4:	eb003f15 	bl	111c10 <free>
  101fb8:	e51b0010 	ldr	r0, [fp, #-16]
  101fbc:	eb003f13 	bl	111c10 <free>
  101fc0:	e3a03000 	mov	r3, #0
  101fc4:	e1a00003 	mov	r0, r3
  101fc8:	e24bd004 	sub	sp, fp, #4
  101fcc:	e8bd8800 	pop	{fp, pc}

00101fd0 <axi_dmac_read>:
  101fd0:	e92d4800 	push	{fp, lr}
  101fd4:	e28db004 	add	fp, sp, #4
  101fd8:	e24dd010 	sub	sp, sp, #16
  101fdc:	e50b0008 	str	r0, [fp, #-8]
  101fe0:	e50b100c 	str	r1, [fp, #-12]
  101fe4:	e50b2010 	str	r2, [fp, #-16]
  101fe8:	e51b3008 	ldr	r3, [fp, #-8]
  101fec:	e5933004 	ldr	r3, [r3, #4]
  101ff0:	e51b2010 	ldr	r2, [fp, #-16]
  101ff4:	e51b100c 	ldr	r1, [fp, #-12]
  101ff8:	e1a00003 	mov	r0, r3
  101ffc:	eb0000f8 	bl	1023e4 <axi_io_read>
  102000:	e3a03000 	mov	r3, #0
  102004:	e1a00003 	mov	r0, r3
  102008:	e24bd004 	sub	sp, fp, #4
  10200c:	e8bd8800 	pop	{fp, pc}

00102010 <axi_dmac_write>:
  102010:	e92d4800 	push	{fp, lr}
  102014:	e28db004 	add	fp, sp, #4
  102018:	e24dd010 	sub	sp, sp, #16
  10201c:	e50b0008 	str	r0, [fp, #-8]
  102020:	e50b100c 	str	r1, [fp, #-12]
  102024:	e50b2010 	str	r2, [fp, #-16]
  102028:	e51b3008 	ldr	r3, [fp, #-8]
  10202c:	e5933004 	ldr	r3, [r3, #4]
  102030:	e51b2010 	ldr	r2, [fp, #-16]
  102034:	e51b100c 	ldr	r1, [fp, #-12]
  102038:	e1a00003 	mov	r0, r3
  10203c:	eb0000f9 	bl	102428 <axi_io_write>
  102040:	e3a03000 	mov	r3, #0
  102044:	e1a00003 	mov	r0, r3
  102048:	e24bd004 	sub	sp, fp, #4
  10204c:	e8bd8800 	pop	{fp, pc}

00102050 <axi_dmac_transfer>:
  102050:	e92d4800 	push	{fp, lr}
  102054:	e28db004 	add	fp, sp, #4
  102058:	e24dd020 	sub	sp, sp, #32
  10205c:	e50b0018 	str	r0, [fp, #-24]	; 0xffffffe8
  102060:	e50b101c 	str	r1, [fp, #-28]	; 0xffffffe4
  102064:	e50b2020 	str	r2, [fp, #-32]	; 0xffffffe0
  102068:	e3a03000 	mov	r3, #0
  10206c:	e50b3010 	str	r3, [fp, #-16]
  102070:	e51b3020 	ldr	r3, [fp, #-32]	; 0xffffffe0
  102074:	e3530000 	cmp	r3, #0
  102078:	1a000001 	bne	102084 <axi_dmac_transfer+0x34>
  10207c:	e3a03000 	mov	r3, #0
  102080:	ea000084 	b	102298 <axi_dmac_transfer+0x248>
  102084:	e3a02000 	mov	r2, #0
  102088:	e3a01b01 	mov	r1, #1024	; 0x400
  10208c:	e51b0018 	ldr	r0, [fp, #-24]	; 0xffffffe8
  102090:	ebffffde 	bl	102010 <axi_dmac_write>
  102094:	e3a02001 	mov	r2, #1
  102098:	e3a01b01 	mov	r1, #1024	; 0x400
  10209c:	e51b0018 	ldr	r0, [fp, #-24]	; 0xffffffe8
  1020a0:	ebffffda 	bl	102010 <axi_dmac_write>
  1020a4:	e24b3010 	sub	r3, fp, #16
  1020a8:	e1a02003 	mov	r2, r3
  1020ac:	e3a01b01 	mov	r1, #1024	; 0x400
  1020b0:	e51b0018 	ldr	r0, [fp, #-24]	; 0xffffffe8
  1020b4:	ebffffc5 	bl	101fd0 <axi_dmac_read>
  1020b8:	e3a02000 	mov	r2, #0
  1020bc:	e3a01080 	mov	r1, #128	; 0x80
  1020c0:	e51b0018 	ldr	r0, [fp, #-24]	; 0xffffffe8
  1020c4:	ebffffd1 	bl	102010 <axi_dmac_write>
  1020c8:	e24b300c 	sub	r3, fp, #12
  1020cc:	e1a02003 	mov	r2, r3
  1020d0:	e3a01084 	mov	r1, #132	; 0x84
  1020d4:	e51b0018 	ldr	r0, [fp, #-24]	; 0xffffffe8
  1020d8:	ebffffbc 	bl	101fd0 <axi_dmac_read>
  1020dc:	e24b3008 	sub	r3, fp, #8
  1020e0:	e1a02003 	mov	r2, r3
  1020e4:	e3001404 	movw	r1, #1028	; 0x404
  1020e8:	e51b0018 	ldr	r0, [fp, #-24]	; 0xffffffe8
  1020ec:	ebffffb7 	bl	101fd0 <axi_dmac_read>
  1020f0:	e24b300c 	sub	r3, fp, #12
  1020f4:	e1a02003 	mov	r2, r3
  1020f8:	e3a01084 	mov	r1, #132	; 0x84
  1020fc:	e51b0018 	ldr	r0, [fp, #-24]	; 0xffffffe8
  102100:	ebffffb2 	bl	101fd0 <axi_dmac_read>
  102104:	e51b300c 	ldr	r3, [fp, #-12]
  102108:	e1a02003 	mov	r2, r3
  10210c:	e3a01084 	mov	r1, #132	; 0x84
  102110:	e51b0018 	ldr	r0, [fp, #-24]	; 0xffffffe8
  102114:	ebffffbd 	bl	102010 <axi_dmac_write>
  102118:	e51b3018 	ldr	r3, [fp, #-24]	; 0xffffffe8
  10211c:	e5d33008 	ldrb	r3, [r3, #8]
  102120:	e3530000 	cmp	r3, #0
  102124:	0a000002 	beq	102134 <axi_dmac_transfer+0xe4>
  102128:	e3530001 	cmp	r3, #1
  10212c:	0a00000e 	beq	10216c <axi_dmac_transfer+0x11c>
  102130:	ea000016 	b	102190 <axi_dmac_transfer+0x140>
  102134:	e51b201c 	ldr	r2, [fp, #-28]	; 0xffffffe4
  102138:	e3a01e41 	mov	r1, #1040	; 0x410
  10213c:	e51b0018 	ldr	r0, [fp, #-24]	; 0xffffffe8
  102140:	ebffffb2 	bl	102010 <axi_dmac_write>
  102144:	e51b201c 	ldr	r2, [fp, #-28]	; 0xffffffe4
  102148:	e3a01e41 	mov	r1, #1040	; 0x410
  10214c:	e30b0164 	movw	r0, #45412	; 0xb164
  102150:	e3400011 	movt	r0, #17
  102154:	eb0040e8 	bl	1124fc <printf>
  102158:	e3a02000 	mov	r2, #0
  10215c:	e3a01e42 	mov	r1, #1056	; 0x420
  102160:	e51b0018 	ldr	r0, [fp, #-24]	; 0xffffffe8
  102164:	ebffffa9 	bl	102010 <axi_dmac_write>
  102168:	ea00000a 	b	102198 <axi_dmac_transfer+0x148>
  10216c:	e51b201c 	ldr	r2, [fp, #-28]	; 0xffffffe4
  102170:	e3001414 	movw	r1, #1044	; 0x414
  102174:	e51b0018 	ldr	r0, [fp, #-24]	; 0xffffffe8
  102178:	ebffffa4 	bl	102010 <axi_dmac_write>
  10217c:	e3a02000 	mov	r2, #0
  102180:	e3001424 	movw	r1, #1060	; 0x424
  102184:	e51b0018 	ldr	r0, [fp, #-24]	; 0xffffffe8
  102188:	ebffffa0 	bl	102010 <axi_dmac_write>
  10218c:	ea000001 	b	102198 <axi_dmac_transfer+0x148>
  102190:	e3e03000 	mvn	r3, #0
  102194:	ea00003f 	b	102298 <axi_dmac_transfer+0x248>
  102198:	e51b3020 	ldr	r3, [fp, #-32]	; 0xffffffe0
  10219c:	e2433001 	sub	r3, r3, #1
  1021a0:	e1a02003 	mov	r2, r3
  1021a4:	e3001418 	movw	r1, #1048	; 0x418
  1021a8:	e51b0018 	ldr	r0, [fp, #-24]	; 0xffffffe8
  1021ac:	ebffff97 	bl	102010 <axi_dmac_write>
  1021b0:	e3a02000 	mov	r2, #0
  1021b4:	e300141c 	movw	r1, #1052	; 0x41c
  1021b8:	e51b0018 	ldr	r0, [fp, #-24]	; 0xffffffe8
  1021bc:	ebffff93 	bl	102010 <axi_dmac_write>
  1021c0:	e51b3018 	ldr	r3, [fp, #-24]	; 0xffffffe8
  1021c4:	e593300c 	ldr	r3, [r3, #12]
  1021c8:	e1a02003 	mov	r2, r3
  1021cc:	e300140c 	movw	r1, #1036	; 0x40c
  1021d0:	e51b0018 	ldr	r0, [fp, #-24]	; 0xffffffe8
  1021d4:	ebffff8d 	bl	102010 <axi_dmac_write>
  1021d8:	e3a02001 	mov	r2, #1
  1021dc:	e3001408 	movw	r1, #1032	; 0x408
  1021e0:	e51b0018 	ldr	r0, [fp, #-24]	; 0xffffffe8
  1021e4:	ebffff89 	bl	102010 <axi_dmac_write>
  1021e8:	e51b3018 	ldr	r3, [fp, #-24]	; 0xffffffe8
  1021ec:	e593300c 	ldr	r3, [r3, #12]
  1021f0:	e2033001 	and	r3, r3, #1
  1021f4:	e3530000 	cmp	r3, #0
  1021f8:	0a000001 	beq	102204 <axi_dmac_transfer+0x1b4>
  1021fc:	e3a03000 	mov	r3, #0
  102200:	ea000024 	b	102298 <axi_dmac_transfer+0x248>
  102204:	e24b300c 	sub	r3, fp, #12
  102208:	e1a02003 	mov	r2, r3
  10220c:	e3001408 	movw	r1, #1032	; 0x408
  102210:	e51b0018 	ldr	r0, [fp, #-24]	; 0xffffffe8
  102214:	ebffff6d 	bl	101fd0 <axi_dmac_read>
  102218:	e51b300c 	ldr	r3, [fp, #-12]
  10221c:	e3530001 	cmp	r3, #1
  102220:	0afffff7 	beq	102204 <axi_dmac_transfer+0x1b4>
  102224:	e24b300c 	sub	r3, fp, #12
  102228:	e1a02003 	mov	r2, r3
  10222c:	e3a01084 	mov	r1, #132	; 0x84
  102230:	e51b0018 	ldr	r0, [fp, #-24]	; 0xffffffe8
  102234:	ebffff65 	bl	101fd0 <axi_dmac_read>
  102238:	e51b300c 	ldr	r3, [fp, #-12]
  10223c:	e3530003 	cmp	r3, #3
  102240:	1afffff7 	bne	102224 <axi_dmac_transfer+0x1d4>
  102244:	e51b300c 	ldr	r3, [fp, #-12]
  102248:	e1a02003 	mov	r2, r3
  10224c:	e3a01084 	mov	r1, #132	; 0x84
  102250:	e51b0018 	ldr	r0, [fp, #-24]	; 0xffffffe8
  102254:	ebffff6d 	bl	102010 <axi_dmac_write>
  102258:	e24b300c 	sub	r3, fp, #12
  10225c:	e1a02003 	mov	r2, r3
  102260:	e3001428 	movw	r1, #1064	; 0x428
  102264:	e51b0018 	ldr	r0, [fp, #-24]	; 0xffffffe8
  102268:	ebffff58 	bl	101fd0 <axi_dmac_read>
  10226c:	e51b3008 	ldr	r3, [fp, #-8]
  102270:	e3a02001 	mov	r2, #1
  102274:	e1a02312 	lsl	r2, r2, r3
  102278:	e51b300c 	ldr	r3, [fp, #-12]
  10227c:	e0022003 	and	r2, r2, r3
  102280:	e51b3008 	ldr	r3, [fp, #-8]
  102284:	e3a01001 	mov	r1, #1
  102288:	e1a03311 	lsl	r3, r1, r3
  10228c:	e1520003 	cmp	r2, r3
  102290:	1afffff0 	bne	102258 <axi_dmac_transfer+0x208>
  102294:	e3a03000 	mov	r3, #0
  102298:	e1a00003 	mov	r0, r3
  10229c:	e24bd004 	sub	sp, fp, #4
  1022a0:	e8bd8800 	pop	{fp, pc}

001022a4 <axi_dmac_init>:
  1022a4:	e92d4800 	push	{fp, lr}
  1022a8:	e28db004 	add	fp, sp, #4
  1022ac:	e24dd010 	sub	sp, sp, #16
  1022b0:	e50b0010 	str	r0, [fp, #-16]
  1022b4:	e50b1014 	str	r1, [fp, #-20]	; 0xffffffec
  1022b8:	e3a00010 	mov	r0, #16
  1022bc:	eb003e4d 	bl	111bf8 <malloc>
  1022c0:	e1a03000 	mov	r3, r0
  1022c4:	e50b3008 	str	r3, [fp, #-8]
  1022c8:	e51b3008 	ldr	r3, [fp, #-8]
  1022cc:	e3530000 	cmp	r3, #0
  1022d0:	1a000001 	bne	1022dc <axi_dmac_init+0x38>
  1022d4:	e3e03000 	mvn	r3, #0
  1022d8:	ea000013 	b	10232c <axi_dmac_init+0x88>
  1022dc:	e51b3014 	ldr	r3, [fp, #-20]	; 0xffffffec
  1022e0:	e5932000 	ldr	r2, [r3]
  1022e4:	e51b3008 	ldr	r3, [fp, #-8]
  1022e8:	e5832000 	str	r2, [r3]
  1022ec:	e51b3014 	ldr	r3, [fp, #-20]	; 0xffffffec
  1022f0:	e5932004 	ldr	r2, [r3, #4]
  1022f4:	e51b3008 	ldr	r3, [fp, #-8]
  1022f8:	e5832004 	str	r2, [r3, #4]
  1022fc:	e51b3014 	ldr	r3, [fp, #-20]	; 0xffffffec
  102300:	e5d32008 	ldrb	r2, [r3, #8]
  102304:	e51b3008 	ldr	r3, [fp, #-8]
  102308:	e5c32008 	strb	r2, [r3, #8]
  10230c:	e51b3014 	ldr	r3, [fp, #-20]	; 0xffffffec
  102310:	e593200c 	ldr	r2, [r3, #12]
  102314:	e51b3008 	ldr	r3, [fp, #-8]
  102318:	e583200c 	str	r2, [r3, #12]
  10231c:	e51b3010 	ldr	r3, [fp, #-16]
  102320:	e51b2008 	ldr	r2, [fp, #-8]
  102324:	e5832000 	str	r2, [r3]
  102328:	e3a03000 	mov	r3, #0
  10232c:	e1a00003 	mov	r0, r3
  102330:	e24bd004 	sub	sp, fp, #4
  102334:	e8bd8800 	pop	{fp, pc}

00102338 <axi_wait>:
  102338:	e92d4800 	push	{fp, lr}
  10233c:	e28db004 	add	fp, sp, #4
  102340:	e24dd010 	sub	sp, sp, #16
  102344:	e50b0010 	str	r0, [fp, #-16]
  102348:	e24b3008 	sub	r3, fp, #8
  10234c:	e1a02003 	mov	r2, r3
  102350:	e3001404 	movw	r1, #1028	; 0x404
  102354:	e51b0010 	ldr	r0, [fp, #-16]
  102358:	ebffff1c 	bl	101fd0 <axi_dmac_read>
  10235c:	e24b300c 	sub	r3, fp, #12
  102360:	e1a02003 	mov	r2, r3
  102364:	e3001408 	movw	r1, #1032	; 0x408
  102368:	e51b0010 	ldr	r0, [fp, #-16]
  10236c:	ebffff17 	bl	101fd0 <axi_dmac_read>
  102370:	e51b300c 	ldr	r3, [fp, #-12]
  102374:	e3530001 	cmp	r3, #1
  102378:	0afffff7 	beq	10235c <axi_wait+0x24>
  10237c:	e24b300c 	sub	r3, fp, #12
  102380:	e1a02003 	mov	r2, r3
  102384:	e3a01084 	mov	r1, #132	; 0x84
  102388:	e51b0010 	ldr	r0, [fp, #-16]
  10238c:	ebffff0f 	bl	101fd0 <axi_dmac_read>
  102390:	e51b300c 	ldr	r3, [fp, #-12]
  102394:	e3530003 	cmp	r3, #3
  102398:	1afffff7 	bne	10237c <axi_wait+0x44>
  10239c:	e320f000 	nop	{0}
  1023a0:	e24bd004 	sub	sp, fp, #4
  1023a4:	e8bd8800 	pop	{fp, pc}

001023a8 <axi_dmac_remove>:
  1023a8:	e92d4800 	push	{fp, lr}
  1023ac:	e28db004 	add	fp, sp, #4
  1023b0:	e24dd008 	sub	sp, sp, #8
  1023b4:	e50b0008 	str	r0, [fp, #-8]
  1023b8:	e51b3008 	ldr	r3, [fp, #-8]
  1023bc:	e3530000 	cmp	r3, #0
  1023c0:	1a000001 	bne	1023cc <axi_dmac_remove+0x24>
  1023c4:	e3e03000 	mvn	r3, #0
  1023c8:	ea000002 	b	1023d8 <axi_dmac_remove+0x30>
  1023cc:	e51b0008 	ldr	r0, [fp, #-8]
  1023d0:	eb003e0e 	bl	111c10 <free>
  1023d4:	e3a03000 	mov	r3, #0
  1023d8:	e1a00003 	mov	r0, r3
  1023dc:	e24bd004 	sub	sp, fp, #4
  1023e0:	e8bd8800 	pop	{fp, pc}

001023e4 <axi_io_read>:
  1023e4:	e52db004 	push	{fp}		; (str fp, [sp, #-4]!)
  1023e8:	e28db000 	add	fp, sp, #0
  1023ec:	e24dd014 	sub	sp, sp, #20
  1023f0:	e50b0008 	str	r0, [fp, #-8]
  1023f4:	e50b100c 	str	r1, [fp, #-12]
  1023f8:	e50b2010 	str	r2, [fp, #-16]
  1023fc:	e51b2008 	ldr	r2, [fp, #-8]
  102400:	e51b300c 	ldr	r3, [fp, #-12]
  102404:	e0823003 	add	r3, r2, r3
  102408:	e5932000 	ldr	r2, [r3]
  10240c:	e51b3010 	ldr	r3, [fp, #-16]
  102410:	e5832000 	str	r2, [r3]
  102414:	e3a03000 	mov	r3, #0
  102418:	e1a00003 	mov	r0, r3
  10241c:	e24bd000 	sub	sp, fp, #0
  102420:	e49db004 	pop	{fp}		; (ldr fp, [sp], #4)
  102424:	e12fff1e 	bx	lr

00102428 <axi_io_write>:
  102428:	e52db004 	push	{fp}		; (str fp, [sp, #-4]!)
  10242c:	e28db000 	add	fp, sp, #0
  102430:	e24dd014 	sub	sp, sp, #20
  102434:	e50b0008 	str	r0, [fp, #-8]
  102438:	e50b100c 	str	r1, [fp, #-12]
  10243c:	e50b2010 	str	r2, [fp, #-16]
  102440:	e51b2008 	ldr	r2, [fp, #-8]
  102444:	e51b300c 	ldr	r3, [fp, #-12]
  102448:	e0823003 	add	r3, r2, r3
  10244c:	e1a02003 	mov	r2, r3
  102450:	e51b3010 	ldr	r3, [fp, #-16]
  102454:	e5823000 	str	r3, [r2]
  102458:	e3a03000 	mov	r3, #0
  10245c:	e1a00003 	mov	r0, r3
  102460:	e24bd000 	sub	sp, fp, #0
  102464:	e49db004 	pop	{fp}		; (ldr fp, [sp], #4)
  102468:	e12fff1e 	bx	lr

0010246c <_close>:
  10246c:	e52db004 	push	{fp}		; (str fp, [sp, #-4]!)
  102470:	e28db000 	add	fp, sp, #0
  102474:	e24dd00c 	sub	sp, sp, #12
  102478:	e50b0008 	str	r0, [fp, #-8]
  10247c:	e51b3008 	ldr	r3, [fp, #-8]
  102480:	e3530001 	cmp	r3, #1
  102484:	1a000001 	bne	102490 <_close+0x24>
  102488:	e3a03000 	mov	r3, #0
  10248c:	ea000000 	b	102494 <_close+0x28>
  102490:	e3e03000 	mvn	r3, #0
  102494:	e1a00003 	mov	r0, r3
  102498:	e24bd000 	sub	sp, fp, #0
  10249c:	e49db004 	pop	{fp}		; (ldr fp, [sp], #4)
  1024a0:	e12fff1e 	bx	lr

001024a4 <_fstat>:
  1024a4:	e52db004 	push	{fp}		; (str fp, [sp, #-4]!)
  1024a8:	e28db000 	add	fp, sp, #0
  1024ac:	e24dd00c 	sub	sp, sp, #12
  1024b0:	e50b0008 	str	r0, [fp, #-8]
  1024b4:	e50b100c 	str	r1, [fp, #-12]
  1024b8:	e51b3008 	ldr	r3, [fp, #-8]
  1024bc:	e3530001 	cmp	r3, #1
  1024c0:	1a000001 	bne	1024cc <_fstat+0x28>
  1024c4:	e3a03000 	mov	r3, #0
  1024c8:	ea000000 	b	1024d0 <_fstat+0x2c>
  1024cc:	e3e03000 	mvn	r3, #0
  1024d0:	e1a00003 	mov	r0, r3
  1024d4:	e24bd000 	sub	sp, fp, #0
  1024d8:	e49db004 	pop	{fp}		; (ldr fp, [sp], #4)
  1024dc:	e12fff1e 	bx	lr

001024e0 <_isatty>:
  1024e0:	e52db004 	push	{fp}		; (str fp, [sp, #-4]!)
  1024e4:	e28db000 	add	fp, sp, #0
  1024e8:	e24dd00c 	sub	sp, sp, #12
  1024ec:	e50b0008 	str	r0, [fp, #-8]
  1024f0:	e51b3008 	ldr	r3, [fp, #-8]
  1024f4:	e3530001 	cmp	r3, #1
  1024f8:	1a000001 	bne	102504 <_isatty+0x24>
  1024fc:	e3a03001 	mov	r3, #1
  102500:	ea000000 	b	102508 <_isatty+0x28>
  102504:	e3e03000 	mvn	r3, #0
  102508:	e1a00003 	mov	r0, r3
  10250c:	e24bd000 	sub	sp, fp, #0
  102510:	e49db004 	pop	{fp}		; (ldr fp, [sp], #4)
  102514:	e12fff1e 	bx	lr

00102518 <_lseek>:
  102518:	e52db004 	push	{fp}		; (str fp, [sp, #-4]!)
  10251c:	e28db000 	add	fp, sp, #0
  102520:	e24dd014 	sub	sp, sp, #20
  102524:	e50b0008 	str	r0, [fp, #-8]
  102528:	e50b100c 	str	r1, [fp, #-12]
  10252c:	e50b2010 	str	r2, [fp, #-16]
  102530:	e51b3008 	ldr	r3, [fp, #-8]
  102534:	e3530001 	cmp	r3, #1
  102538:	1a000001 	bne	102544 <_lseek+0x2c>
  10253c:	e3a03000 	mov	r3, #0
  102540:	ea000000 	b	102548 <_lseek+0x30>
  102544:	e3e03000 	mvn	r3, #0
  102548:	e1a00003 	mov	r0, r3
  10254c:	e24bd000 	sub	sp, fp, #0
  102550:	e49db004 	pop	{fp}		; (ldr fp, [sp], #4)
  102554:	e12fff1e 	bx	lr

00102558 <_read>:
  102558:	e52db004 	push	{fp}		; (str fp, [sp, #-4]!)
  10255c:	e28db000 	add	fp, sp, #0
  102560:	e24dd014 	sub	sp, sp, #20
  102564:	e50b0008 	str	r0, [fp, #-8]
  102568:	e50b100c 	str	r1, [fp, #-12]
  10256c:	e50b2010 	str	r2, [fp, #-16]
  102570:	e3e03000 	mvn	r3, #0
  102574:	e1a00003 	mov	r0, r3
  102578:	e24bd000 	sub	sp, fp, #0
  10257c:	e49db004 	pop	{fp}		; (ldr fp, [sp], #4)
  102580:	e12fff1e 	bx	lr

00102584 <_write>:
  102584:	e52db004 	push	{fp}		; (str fp, [sp, #-4]!)
  102588:	e28db000 	add	fp, sp, #0
  10258c:	e24dd01c 	sub	sp, sp, #28
  102590:	e50b0010 	str	r0, [fp, #-16]
  102594:	e50b1014 	str	r1, [fp, #-20]	; 0xffffffec
  102598:	e50b2018 	str	r2, [fp, #-24]	; 0xffffffe8
  10259c:	e50b301c 	str	r3, [fp, #-28]	; 0xffffffe4
  1025a0:	e51b3010 	ldr	r3, [fp, #-16]
  1025a4:	e3530001 	cmp	r3, #1
  1025a8:	0a000001 	beq	1025b4 <_write+0x30>
  1025ac:	e3e03000 	mvn	r3, #0
  1025b0:	ea000019 	b	10261c <_write+0x98>
  1025b4:	e3a03000 	mov	r3, #0
  1025b8:	e50b3008 	str	r3, [fp, #-8]
  1025bc:	ea000011 	b	102608 <_write+0x84>
  1025c0:	e320f000 	nop	{0}
  1025c4:	e3023014 	movw	r3, #8212	; 0x2014
  1025c8:	e34f3fc0 	movt	r3, #65472	; 0xffc0
  1025cc:	e5933000 	ldr	r3, [r3]
  1025d0:	e1a032a3 	lsr	r3, r3, #5
  1025d4:	e2033001 	and	r3, r3, #1
  1025d8:	e3530001 	cmp	r3, #1
  1025dc:	1afffff8 	bne	1025c4 <_write+0x40>
  1025e0:	e3a03a02 	mov	r3, #8192	; 0x2000
  1025e4:	e34f3fc0 	movt	r3, #65472	; 0xffc0
  1025e8:	e51b2008 	ldr	r2, [fp, #-8]
  1025ec:	e51b1014 	ldr	r1, [fp, #-20]	; 0xffffffec
  1025f0:	e0812002 	add	r2, r1, r2
  1025f4:	e5d22000 	ldrb	r2, [r2]
  1025f8:	e5832000 	str	r2, [r3]
  1025fc:	e51b3008 	ldr	r3, [fp, #-8]
  102600:	e2833001 	add	r3, r3, #1
  102604:	e50b3008 	str	r3, [fp, #-8]
  102608:	e51b2008 	ldr	r2, [fp, #-8]
  10260c:	e51b3018 	ldr	r3, [fp, #-24]	; 0xffffffe8
  102610:	e1520003 	cmp	r2, r3
  102614:	3affffe9 	bcc	1025c0 <_write+0x3c>
  102618:	e51b3018 	ldr	r3, [fp, #-24]	; 0xffffffe8
  10261c:	e1a00003 	mov	r0, r3
  102620:	e24bd000 	sub	sp, fp, #0
  102624:	e49db004 	pop	{fp}		; (ldr fp, [sp], #4)
  102628:	e12fff1e 	bx	lr

0010262c <enable_all_caches>:
  10262c:	e52de004 	push	{lr}		; (str lr, [sp, #-4]!)
  102630:	eb000005 	bl	10264c <enable_MMU>
  102634:	eb000050 	bl	10277c <initialize_L2C>
  102638:	eb00009f 	bl	1028bc <enable_L1_D_side_prefetch>
  10263c:	eb0000a2 	bl	1028cc <enable_L2_prefetch_hint>
  102640:	eb0000b1 	bl	10290c <enable_SCU>
  102644:	eb000065 	bl	1027e0 <enable_caches>
  102648:	e49df004 	pop	{pc}		; (ldr pc, [sp], #4)

0010264c <enable_MMU>:
  10264c:	e92d4eb0 	push	{r4, r5, r7, r9, sl, fp, lr}
  102650:	e59f0378 	ldr	r0, [pc, #888]	; 1029d0 <invalidate_and_flush+0x9c>
  102654:	e3a01000 	mov	r1, #0
  102658:	e5801100 	str	r1, [r0, #256]	; 0x100
  10265c:	ee110f10 	mrc	15, 0, r0, cr1, cr0, {0}
  102660:	e3c00a01 	bic	r0, r0, #4096	; 0x1000
  102664:	e3c00004 	bic	r0, r0, #4
  102668:	e3c00001 	bic	r0, r0, #1
  10266c:	e3c00b02 	bic	r0, r0, #2048	; 0x800
  102670:	ee010f10 	mcr	15, 0, r0, cr1, cr0, {0}
  102674:	e3a00000 	mov	r0, #0
  102678:	ee080f17 	mcr	15, 0, r0, cr8, cr7, {0}
  10267c:	ee070fd5 	mcr	15, 0, r0, cr7, cr5, {6}
  102680:	ee300f30 	mrc	15, 1, r0, cr0, cr0, {1}
  102684:	e3100003 	tst	r0, #3
  102688:	e3a00000 	mov	r0, #0
  10268c:	1e070f15 	mcrne	15, 0, r0, cr7, cr5, {0}
  102690:	ee300f30 	mrc	15, 1, r0, cr0, cr0, {1}
  102694:	e2103407 	ands	r3, r0, #117440512	; 0x7000000
  102698:	e1a03ba3 	lsr	r3, r3, #23
  10269c:	0a00001a 	beq	10270c <Finished>
  1026a0:	e3a0a000 	mov	sl, #0

001026a4 <Loop1>:
  1026a4:	e08a20aa 	add	r2, sl, sl, lsr #1
  1026a8:	e1a01230 	lsr	r1, r0, r2
  1026ac:	e2011007 	and	r1, r1, #7
  1026b0:	e3510002 	cmp	r1, #2
  1026b4:	ba000011 	blt	102700 <Skip>
  1026b8:	ee40af10 	mcr	15, 2, sl, cr0, cr0, {0}
  1026bc:	f57ff06f 	isb	sy
  1026c0:	ee301f10 	mrc	15, 1, r1, cr0, cr0, {0}
  1026c4:	e2012007 	and	r2, r1, #7
  1026c8:	e2822004 	add	r2, r2, #4
  1026cc:	e59f4300 	ldr	r4, [pc, #768]	; 1029d4 <invalidate_and_flush+0xa0>
  1026d0:	e01441a1 	ands	r4, r4, r1, lsr #3
  1026d4:	e16f5f14 	clz	r5, r4
  1026d8:	e59f72f8 	ldr	r7, [pc, #760]	; 1029d8 <invalidate_and_flush+0xa4>
  1026dc:	e01776a1 	ands	r7, r7, r1, lsr #13

001026e0 <Loop2>:
  1026e0:	e1a09004 	mov	r9, r4

001026e4 <Loop3>:
  1026e4:	e18ab519 	orr	fp, sl, r9, lsl r5
  1026e8:	e18bb217 	orr	fp, fp, r7, lsl r2
  1026ec:	ee07bf56 	mcr	15, 0, fp, cr7, cr6, {2}
  1026f0:	e2599001 	subs	r9, r9, #1
  1026f4:	aafffffa 	bge	1026e4 <Loop3>
  1026f8:	e2577001 	subs	r7, r7, #1
  1026fc:	aafffff7 	bge	1026e0 <Loop2>

00102700 <Skip>:
  102700:	e28aa002 	add	sl, sl, #2
  102704:	e153000a 	cmp	r3, sl
  102708:	caffffe5 	bgt	1026a4 <Loop1>

0010270c <Finished>:
  10270c:	e3a00000 	mov	r0, #0
  102710:	ee070fd5 	mcr	15, 0, r0, cr7, cr5, {6}
  102714:	e3a00000 	mov	r0, #0
  102718:	ee020f50 	mcr	15, 0, r0, cr2, cr0, {2}
  10271c:	e59f02b8 	ldr	r0, [pc, #696]	; 1029dc <invalidate_and_flush+0xa8>
  102720:	e3a01008 	mov	r1, #8
  102724:	e3811040 	orr	r1, r1, #64	; 0x40
  102728:	e1800001 	orr	r0, r0, r1
  10272c:	ee020f10 	mcr	15, 0, r0, cr2, cr0, {0}
  102730:	e59f02a4 	ldr	r0, [pc, #676]	; 1029dc <invalidate_and_flush+0xa8>
  102734:	e59f12a4 	ldr	r1, [pc, #676]	; 1029e0 <invalidate_and_flush+0xac>

00102738 <init_ttb_1>:
  102738:	e3510b02 	cmp	r1, #2048	; 0x800
  10273c:	459f22a0 	ldrmi	r2, [pc, #672]	; 1029e4 <invalidate_and_flush+0xb0>
  102740:	559f22a0 	ldrpl	r2, [pc, #672]	; 1029e8 <invalidate_and_flush+0xb4>
  102744:	e1823a01 	orr	r3, r2, r1, lsl #20
  102748:	e7803101 	str	r3, [r0, r1, lsl #2]
  10274c:	e2511001 	subs	r1, r1, #1
  102750:	5afffff8 	bpl	102738 <init_ttb_1>
  102754:	ee130f10 	mrc	15, 0, r0, cr3, cr0, {0}
  102758:	e3e00000 	mvn	r0, #0
  10275c:	ee030f10 	mcr	15, 0, r0, cr3, cr0, {0}
  102760:	ee110f10 	mrc	15, 0, r0, cr1, cr0, {0}
  102764:	e3c00a01 	bic	r0, r0, #4096	; 0x1000
  102768:	e3c00004 	bic	r0, r0, #4
  10276c:	e3c00002 	bic	r0, r0, #2
  102770:	e3800001 	orr	r0, r0, #1
  102774:	ee010f10 	mcr	15, 0, r0, cr1, cr0, {0}
  102778:	e8bd8eb0 	pop	{r4, r5, r7, r9, sl, fp, pc}

0010277c <initialize_L2C>:
  10277c:	e59f024c 	ldr	r0, [pc, #588]	; 1029d0 <invalidate_and_flush+0x9c>
  102780:	e3a01000 	mov	r1, #0
  102784:	e5801100 	str	r1, [r0, #256]	; 0x100
  102788:	e3a01806 	mov	r1, #393216	; 0x60000
  10278c:	e3811202 	orr	r1, r1, #536870912	; 0x20000000
  102790:	e3811201 	orr	r1, r1, #268435456	; 0x10000000
  102794:	e5801104 	str	r1, [r0, #260]	; 0x104
  102798:	e3a01000 	mov	r1, #0
  10279c:	e5801108 	str	r1, [r0, #264]	; 0x108
  1027a0:	e3a01000 	mov	r1, #0
  1027a4:	e580110c 	str	r1, [r0, #268]	; 0x10c
  1027a8:	e3a010ff 	mov	r1, #255	; 0xff
  1027ac:	e580177c 	str	r1, [r0, #1916]	; 0x77c

001027b0 <poll_invalidate>:
  1027b0:	e590177c 	ldr	r1, [r0, #1916]	; 0x77c
  1027b4:	e3110001 	tst	r1, #1
  1027b8:	1afffffc 	bne	1027b0 <poll_invalidate>
  1027bc:	e3a01007 	mov	r1, #7
  1027c0:	e5801200 	str	r1, [r0, #512]	; 0x200
  1027c4:	e3a01008 	mov	r1, #8
  1027c8:	e5801204 	str	r1, [r0, #516]	; 0x204
  1027cc:	e3a0100c 	mov	r1, #12
  1027d0:	e5801208 	str	r1, [r0, #520]	; 0x208
  1027d4:	e3a01000 	mov	r1, #0
  1027d8:	e5801100 	str	r1, [r0, #256]	; 0x100
  1027dc:	e12fff1e 	bx	lr

001027e0 <enable_caches>:
  1027e0:	ee110f10 	mrc	15, 0, r0, cr1, cr0, {0}
  1027e4:	e3800a01 	orr	r0, r0, #4096	; 0x1000
  1027e8:	e3800004 	orr	r0, r0, #4
  1027ec:	e3800b02 	orr	r0, r0, #2048	; 0x800
  1027f0:	ee010f10 	mcr	15, 0, r0, cr1, cr0, {0}
  1027f4:	e59f01d4 	ldr	r0, [pc, #468]	; 1029d0 <invalidate_and_flush+0x9c>
  1027f8:	e3a01001 	mov	r1, #1
  1027fc:	e5801100 	str	r1, [r0, #256]	; 0x100
  102800:	e12fff1e 	bx	lr

00102804 <enable_L1_D>:
  102804:	ee110f10 	mrc	15, 0, r0, cr1, cr0, {0}
  102808:	e3800004 	orr	r0, r0, #4
  10280c:	ee010f10 	mcr	15, 0, r0, cr1, cr0, {0}
  102810:	e12fff1e 	bx	lr

00102814 <enable_L1_I>:
  102814:	ee110f10 	mrc	15, 0, r0, cr1, cr0, {0}
  102818:	e3800a01 	orr	r0, r0, #4096	; 0x1000
  10281c:	ee010f10 	mcr	15, 0, r0, cr1, cr0, {0}
  102820:	e12fff1e 	bx	lr

00102824 <enable_branch_prediction>:
  102824:	ee110f10 	mrc	15, 0, r0, cr1, cr0, {0}
  102828:	e3800b02 	orr	r0, r0, #2048	; 0x800
  10282c:	ee010f10 	mcr	15, 0, r0, cr1, cr0, {0}
  102830:	e12fff1e 	bx	lr

00102834 <enable_L2>:
  102834:	e59f0194 	ldr	r0, [pc, #404]	; 1029d0 <invalidate_and_flush+0x9c>
  102838:	e3a01001 	mov	r1, #1
  10283c:	e5801100 	str	r1, [r0, #256]	; 0x100
  102840:	e12fff1e 	bx	lr

00102844 <enable_store_buffer_device_limitation>:
  102844:	e59f0184 	ldr	r0, [pc, #388]	; 1029d0 <invalidate_and_flush+0x9c>
  102848:	e3a01000 	mov	r1, #0
  10284c:	e5801100 	str	r1, [r0, #256]	; 0x100
  102850:	e5901104 	ldr	r1, [r0, #260]	; 0x104
  102854:	e3811b02 	orr	r1, r1, #2048	; 0x800
  102858:	e5801104 	str	r1, [r0, #260]	; 0x104
  10285c:	e3a01001 	mov	r1, #1
  102860:	e5801100 	str	r1, [r0, #256]	; 0x100
  102864:	e12fff1e 	bx	lr

00102868 <enable_early_BRESP>:
  102868:	e59f0160 	ldr	r0, [pc, #352]	; 1029d0 <invalidate_and_flush+0x9c>
  10286c:	e3a01000 	mov	r1, #0
  102870:	e5801100 	str	r1, [r0, #256]	; 0x100
  102874:	e5901104 	ldr	r1, [r0, #260]	; 0x104
  102878:	e3811101 	orr	r1, r1, #1073741824	; 0x40000000
  10287c:	e5801104 	str	r1, [r0, #260]	; 0x104
  102880:	e3a01001 	mov	r1, #1
  102884:	e5801100 	str	r1, [r0, #256]	; 0x100
  102888:	e12fff1e 	bx	lr

0010288c <enable_write_full_line_zeros>:
  10288c:	e59f013c 	ldr	r0, [pc, #316]	; 1029d0 <invalidate_and_flush+0x9c>
  102890:	e3a01000 	mov	r1, #0
  102894:	e5801100 	str	r1, [r0, #256]	; 0x100
  102898:	e5901104 	ldr	r1, [r0, #260]	; 0x104
  10289c:	e3811101 	orr	r1, r1, #1073741824	; 0x40000000
  1028a0:	e5801104 	str	r1, [r0, #260]	; 0x104
  1028a4:	e3a01001 	mov	r1, #1
  1028a8:	e5801100 	str	r1, [r0, #256]	; 0x100
  1028ac:	ee110f30 	mrc	15, 0, r0, cr1, cr0, {1}
  1028b0:	e3800008 	orr	r0, r0, #8
  1028b4:	ee010f30 	mcr	15, 0, r0, cr1, cr0, {1}
  1028b8:	e12fff1e 	bx	lr

001028bc <enable_L1_D_side_prefetch>:
  1028bc:	ee110f30 	mrc	15, 0, r0, cr1, cr0, {1}
  1028c0:	e3800004 	orr	r0, r0, #4
  1028c4:	ee010f30 	mcr	15, 0, r0, cr1, cr0, {1}
  1028c8:	e12fff1e 	bx	lr

001028cc <enable_L2_prefetch_hint>:
  1028cc:	ee110f30 	mrc	15, 0, r0, cr1, cr0, {1}
  1028d0:	e3800002 	orr	r0, r0, #2
  1028d4:	ee010f30 	mcr	15, 0, r0, cr1, cr0, {1}
  1028d8:	e12fff1e 	bx	lr

001028dc <enable_exclusive_caching>:
  1028dc:	e59f00ec 	ldr	r0, [pc, #236]	; 1029d0 <invalidate_and_flush+0x9c>
  1028e0:	e3a01000 	mov	r1, #0
  1028e4:	e5801100 	str	r1, [r0, #256]	; 0x100
  1028e8:	e5901104 	ldr	r1, [r0, #260]	; 0x104
  1028ec:	e3811a01 	orr	r1, r1, #4096	; 0x1000
  1028f0:	e5801104 	str	r1, [r0, #260]	; 0x104
  1028f4:	e3a01001 	mov	r1, #1
  1028f8:	e5801100 	str	r1, [r0, #256]	; 0x100
  1028fc:	ee110f30 	mrc	15, 0, r0, cr1, cr0, {1}
  102900:	e3800080 	orr	r0, r0, #128	; 0x80
  102904:	ee010f30 	mcr	15, 0, r0, cr1, cr0, {1}
  102908:	e12fff1e 	bx	lr

0010290c <enable_SCU>:
  10290c:	ee9f0f10 	mrc	15, 4, r0, cr15, cr0, {0}
  102910:	e5901000 	ldr	r1, [r0]
  102914:	e3811001 	orr	r1, r1, #1
  102918:	e5801000 	str	r1, [r0]
  10291c:	e12fff1e 	bx	lr

00102920 <enable_L2_speculative_linefill>:
  102920:	ee9f0f10 	mrc	15, 4, r0, cr15, cr0, {0}
  102924:	e5901000 	ldr	r1, [r0]
  102928:	e3811008 	orr	r1, r1, #8
  10292c:	e5801000 	str	r1, [r0]
  102930:	e12fff1e 	bx	lr

00102934 <invalidate_and_flush>:
  102934:	e92d4eb0 	push	{r4, r5, r7, r9, sl, fp, lr}
  102938:	e3a00000 	mov	r0, #0
  10293c:	ee070fd5 	mcr	15, 0, r0, cr7, cr5, {6}
  102940:	ee300f30 	mrc	15, 1, r0, cr0, cr0, {1}
  102944:	e3a00000 	mov	r0, #0
  102948:	ee070f15 	mcr	15, 0, r0, cr7, cr5, {0}
  10294c:	ee300f30 	mrc	15, 1, r0, cr0, cr0, {1}
  102950:	e2103407 	ands	r3, r0, #117440512	; 0x7000000
  102954:	e1a03ba3 	lsr	r3, r3, #23
  102958:	0a00001a 	beq	1029c8 <invalidate_and_flush+0x94>
  10295c:	e3a0a000 	mov	sl, #0
  102960:	e08a20aa 	add	r2, sl, sl, lsr #1
  102964:	e1a01230 	lsr	r1, r0, r2
  102968:	e2011007 	and	r1, r1, #7
  10296c:	e3510002 	cmp	r1, #2
  102970:	ba000011 	blt	1029bc <invalidate_and_flush+0x88>
  102974:	ee40af10 	mcr	15, 2, sl, cr0, cr0, {0}
  102978:	f57ff06f 	isb	sy
  10297c:	ee301f10 	mrc	15, 1, r1, cr0, cr0, {0}
  102980:	e2012007 	and	r2, r1, #7
  102984:	e2822004 	add	r2, r2, #4
  102988:	e59f4044 	ldr	r4, [pc, #68]	; 1029d4 <invalidate_and_flush+0xa0>
  10298c:	e01441a1 	ands	r4, r4, r1, lsr #3
  102990:	e16f5f14 	clz	r5, r4
  102994:	e59f703c 	ldr	r7, [pc, #60]	; 1029d8 <invalidate_and_flush+0xa4>
  102998:	e01776a1 	ands	r7, r7, r1, lsr #13
  10299c:	e1a09004 	mov	r9, r4
  1029a0:	e18ab519 	orr	fp, sl, r9, lsl r5
  1029a4:	e18bb217 	orr	fp, fp, r7, lsl r2
  1029a8:	ee07bf56 	mcr	15, 0, fp, cr7, cr6, {2}
  1029ac:	e2599001 	subs	r9, r9, #1
  1029b0:	aafffffa 	bge	1029a0 <invalidate_and_flush+0x6c>
  1029b4:	e2577001 	subs	r7, r7, #1
  1029b8:	aafffff7 	bge	10299c <invalidate_and_flush+0x68>
  1029bc:	e28aa002 	add	sl, sl, #2
  1029c0:	e153000a 	cmp	r3, sl
  1029c4:	caffffe5 	bgt	102960 <invalidate_and_flush+0x2c>
  1029c8:	f57ff04f 	dsb	sy
  1029cc:	e8bd8eb0 	pop	{r4, r5, r7, r9, sl, fp, pc}
  1029d0:	fffef000 	.word	0xfffef000
  1029d4:	000003ff 	.word	0x000003ff
  1029d8:	00007fff 	.word	0x00007fff
  1029dc:	00120000 	.word	0x00120000
  1029e0:	00000fff 	.word	0x00000fff
  1029e4:	00017c0e 	.word	0x00017c0e
  1029e8:	00002c02 	.word	0x00002c02

001029ec <construct_standard_st_to_mm_descriptor>:
  1029ec:	e52db004 	push	{fp}		; (str fp, [sp, #-4]!)
  1029f0:	e28db000 	add	fp, sp, #0
  1029f4:	e24dd014 	sub	sp, sp, #20
  1029f8:	e50b0008 	str	r0, [fp, #-8]
  1029fc:	e50b100c 	str	r1, [fp, #-12]
  102a00:	e50b2010 	str	r2, [fp, #-16]
  102a04:	e50b3014 	str	r3, [fp, #-20]	; 0xffffffec
  102a08:	e51b3008 	ldr	r3, [fp, #-8]
  102a0c:	e3a02000 	mov	r2, #0
  102a10:	e5832000 	str	r2, [r3]
  102a14:	e51b3008 	ldr	r3, [fp, #-8]
  102a18:	e51b200c 	ldr	r2, [fp, #-12]
  102a1c:	e5832004 	str	r2, [r3, #4]
  102a20:	e51b3008 	ldr	r3, [fp, #-8]
  102a24:	e51b2010 	ldr	r2, [fp, #-16]
  102a28:	e5832008 	str	r2, [r3, #8]
  102a2c:	e51b3014 	ldr	r3, [fp, #-20]	; 0xffffffec
  102a30:	e3832102 	orr	r2, r3, #-2147483648	; 0x80000000
  102a34:	e51b3008 	ldr	r3, [fp, #-8]
  102a38:	e583200c 	str	r2, [r3, #12]
  102a3c:	e3a03000 	mov	r3, #0
  102a40:	e1a00003 	mov	r0, r3
  102a44:	e24bd000 	sub	sp, fp, #0
  102a48:	e49db004 	pop	{fp}		; (ldr fp, [sp], #4)
  102a4c:	e12fff1e 	bx	lr

00102a50 <construct_standard_mm_to_st_descriptor>:
  102a50:	e52db004 	push	{fp}		; (str fp, [sp, #-4]!)
  102a54:	e28db000 	add	fp, sp, #0
  102a58:	e24dd014 	sub	sp, sp, #20
  102a5c:	e50b0008 	str	r0, [fp, #-8]
  102a60:	e50b100c 	str	r1, [fp, #-12]
  102a64:	e50b2010 	str	r2, [fp, #-16]
  102a68:	e50b3014 	str	r3, [fp, #-20]	; 0xffffffec
  102a6c:	e51b3008 	ldr	r3, [fp, #-8]
  102a70:	e51b200c 	ldr	r2, [fp, #-12]
  102a74:	e5832000 	str	r2, [r3]
  102a78:	e51b3008 	ldr	r3, [fp, #-8]
  102a7c:	e3a02000 	mov	r2, #0
  102a80:	e5832004 	str	r2, [r3, #4]
  102a84:	e51b3008 	ldr	r3, [fp, #-8]
  102a88:	e51b2010 	ldr	r2, [fp, #-16]
  102a8c:	e5832008 	str	r2, [r3, #8]
  102a90:	e51b3014 	ldr	r3, [fp, #-20]	; 0xffffffec
  102a94:	e3832102 	orr	r2, r3, #-2147483648	; 0x80000000
  102a98:	e51b3008 	ldr	r3, [fp, #-8]
  102a9c:	e583200c 	str	r2, [r3, #12]
  102aa0:	e3a03000 	mov	r3, #0
  102aa4:	e1a00003 	mov	r0, r3
  102aa8:	e24bd000 	sub	sp, fp, #0
  102aac:	e49db004 	pop	{fp}		; (ldr fp, [sp], #4)
  102ab0:	e12fff1e 	bx	lr

00102ab4 <construct_standard_mm_to_mm_descriptor>:
  102ab4:	e52db004 	push	{fp}		; (str fp, [sp, #-4]!)
  102ab8:	e28db000 	add	fp, sp, #0
  102abc:	e24dd014 	sub	sp, sp, #20
  102ac0:	e50b0008 	str	r0, [fp, #-8]
  102ac4:	e50b100c 	str	r1, [fp, #-12]
  102ac8:	e50b2010 	str	r2, [fp, #-16]
  102acc:	e50b3014 	str	r3, [fp, #-20]	; 0xffffffec
  102ad0:	e51b3008 	ldr	r3, [fp, #-8]
  102ad4:	e51b200c 	ldr	r2, [fp, #-12]
  102ad8:	e5832000 	str	r2, [r3]
  102adc:	e51b3008 	ldr	r3, [fp, #-8]
  102ae0:	e51b2010 	ldr	r2, [fp, #-16]
  102ae4:	e5832004 	str	r2, [r3, #4]
  102ae8:	e51b3008 	ldr	r3, [fp, #-8]
  102aec:	e51b2014 	ldr	r2, [fp, #-20]	; 0xffffffec
  102af0:	e5832008 	str	r2, [r3, #8]
  102af4:	e59b3004 	ldr	r3, [fp, #4]
  102af8:	e3832102 	orr	r2, r3, #-2147483648	; 0x80000000
  102afc:	e51b3008 	ldr	r3, [fp, #-8]
  102b00:	e583200c 	str	r2, [r3, #12]
  102b04:	e3a03000 	mov	r3, #0
  102b08:	e1a00003 	mov	r0, r3
  102b0c:	e24bd000 	sub	sp, fp, #0
  102b10:	e49db004 	pop	{fp}		; (ldr fp, [sp], #4)
  102b14:	e12fff1e 	bx	lr

00102b18 <construct_extended_st_to_mm_descriptor>:
  102b18:	e52db004 	push	{fp}		; (str fp, [sp, #-4]!)
  102b1c:	e28db000 	add	fp, sp, #0
  102b20:	e24dd014 	sub	sp, sp, #20
  102b24:	e50b0008 	str	r0, [fp, #-8]
  102b28:	e50b100c 	str	r1, [fp, #-12]
  102b2c:	e50b2010 	str	r2, [fp, #-16]
  102b30:	e50b3014 	str	r3, [fp, #-20]	; 0xffffffec
  102b34:	e51b3008 	ldr	r3, [fp, #-8]
  102b38:	e3a02000 	mov	r2, #0
  102b3c:	e5832000 	str	r2, [r3]
  102b40:	e51b3008 	ldr	r3, [fp, #-8]
  102b44:	e51b200c 	ldr	r2, [fp, #-12]
  102b48:	e5832004 	str	r2, [r3, #4]
  102b4c:	e51b3008 	ldr	r3, [fp, #-8]
  102b50:	e51b2010 	ldr	r2, [fp, #-16]
  102b54:	e5832008 	str	r2, [r3, #8]
  102b58:	e51b3008 	ldr	r3, [fp, #-8]
  102b5c:	e1db20b4 	ldrh	r2, [fp, #4]
  102b60:	e1c320bc 	strh	r2, [r3, #12]
  102b64:	e51b3008 	ldr	r3, [fp, #-8]
  102b68:	e3a02000 	mov	r2, #0
  102b6c:	e5c3200e 	strb	r2, [r3, #14]
  102b70:	e51b3008 	ldr	r3, [fp, #-8]
  102b74:	e5db2008 	ldrb	r2, [fp, #8]
  102b78:	e5c3200f 	strb	r2, [r3, #15]
  102b7c:	e51b3008 	ldr	r3, [fp, #-8]
  102b80:	e3a02000 	mov	r2, #0
  102b84:	e1c321b0 	strh	r2, [r3, #16]
  102b88:	e51b3008 	ldr	r3, [fp, #-8]
  102b8c:	e1db20bc 	ldrh	r2, [fp, #12]
  102b90:	e1c321b2 	strh	r2, [r3, #18]
  102b94:	e51b3008 	ldr	r3, [fp, #-8]
  102b98:	e3a02000 	mov	r2, #0
  102b9c:	e5832014 	str	r2, [r3, #20]
  102ba0:	e51b3008 	ldr	r3, [fp, #-8]
  102ba4:	e3a02000 	mov	r2, #0
  102ba8:	e5832018 	str	r2, [r3, #24]
  102bac:	e51b3014 	ldr	r3, [fp, #-20]	; 0xffffffec
  102bb0:	e3832102 	orr	r2, r3, #-2147483648	; 0x80000000
  102bb4:	e51b3008 	ldr	r3, [fp, #-8]
  102bb8:	e583201c 	str	r2, [r3, #28]
  102bbc:	e3a03000 	mov	r3, #0
  102bc0:	e1a00003 	mov	r0, r3
  102bc4:	e24bd000 	sub	sp, fp, #0
  102bc8:	e49db004 	pop	{fp}		; (ldr fp, [sp], #4)
  102bcc:	e12fff1e 	bx	lr

00102bd0 <construct_extended_st_to_mm_descriptor_64>:
  102bd0:	e52db004 	push	{fp}		; (str fp, [sp, #-4]!)
  102bd4:	e28db000 	add	fp, sp, #0
  102bd8:	e24dd014 	sub	sp, sp, #20
  102bdc:	e50b0008 	str	r0, [fp, #-8]
  102be0:	e50b100c 	str	r1, [fp, #-12]
  102be4:	e50b2010 	str	r2, [fp, #-16]
  102be8:	e50b3014 	str	r3, [fp, #-20]	; 0xffffffec
  102bec:	e51b3008 	ldr	r3, [fp, #-8]
  102bf0:	e3a02000 	mov	r2, #0
  102bf4:	e5832000 	str	r2, [r3]
  102bf8:	e51b3008 	ldr	r3, [fp, #-8]
  102bfc:	e51b200c 	ldr	r2, [fp, #-12]
  102c00:	e5832004 	str	r2, [r3, #4]
  102c04:	e51b3008 	ldr	r3, [fp, #-8]
  102c08:	e51b2014 	ldr	r2, [fp, #-20]	; 0xffffffec
  102c0c:	e5832008 	str	r2, [r3, #8]
  102c10:	e51b3008 	ldr	r3, [fp, #-8]
  102c14:	e1db20b8 	ldrh	r2, [fp, #8]
  102c18:	e1c320bc 	strh	r2, [r3, #12]
  102c1c:	e51b3008 	ldr	r3, [fp, #-8]
  102c20:	e3a02000 	mov	r2, #0
  102c24:	e5c3200e 	strb	r2, [r3, #14]
  102c28:	e51b3008 	ldr	r3, [fp, #-8]
  102c2c:	e5db200c 	ldrb	r2, [fp, #12]
  102c30:	e5c3200f 	strb	r2, [r3, #15]
  102c34:	e51b3008 	ldr	r3, [fp, #-8]
  102c38:	e3a02000 	mov	r2, #0
  102c3c:	e1c321b0 	strh	r2, [r3, #16]
  102c40:	e51b3008 	ldr	r3, [fp, #-8]
  102c44:	e1db21b0 	ldrh	r2, [fp, #16]
  102c48:	e1c321b2 	strh	r2, [r3, #18]
  102c4c:	e51b3008 	ldr	r3, [fp, #-8]
  102c50:	e3a02000 	mov	r2, #0
  102c54:	e5832014 	str	r2, [r3, #20]
  102c58:	e51b3008 	ldr	r3, [fp, #-8]
  102c5c:	e51b2010 	ldr	r2, [fp, #-16]
  102c60:	e5832018 	str	r2, [r3, #24]
  102c64:	e59b3004 	ldr	r3, [fp, #4]
  102c68:	e3832102 	orr	r2, r3, #-2147483648	; 0x80000000
  102c6c:	e51b3008 	ldr	r3, [fp, #-8]
  102c70:	e583201c 	str	r2, [r3, #28]
  102c74:	e3a03000 	mov	r3, #0
  102c78:	e1a00003 	mov	r0, r3
  102c7c:	e24bd000 	sub	sp, fp, #0
  102c80:	e49db004 	pop	{fp}		; (ldr fp, [sp], #4)
  102c84:	e12fff1e 	bx	lr

00102c88 <construct_extended_mm_to_st_descriptor>:
  102c88:	e52db004 	push	{fp}		; (str fp, [sp, #-4]!)
  102c8c:	e28db000 	add	fp, sp, #0
  102c90:	e24dd014 	sub	sp, sp, #20
  102c94:	e50b0008 	str	r0, [fp, #-8]
  102c98:	e50b100c 	str	r1, [fp, #-12]
  102c9c:	e50b2010 	str	r2, [fp, #-16]
  102ca0:	e50b3014 	str	r3, [fp, #-20]	; 0xffffffec
  102ca4:	e51b3008 	ldr	r3, [fp, #-8]
  102ca8:	e51b200c 	ldr	r2, [fp, #-12]
  102cac:	e5832000 	str	r2, [r3]
  102cb0:	e51b3008 	ldr	r3, [fp, #-8]
  102cb4:	e3a02000 	mov	r2, #0
  102cb8:	e5832004 	str	r2, [r3, #4]
  102cbc:	e51b3008 	ldr	r3, [fp, #-8]
  102cc0:	e51b2010 	ldr	r2, [fp, #-16]
  102cc4:	e5832008 	str	r2, [r3, #8]
  102cc8:	e51b3008 	ldr	r3, [fp, #-8]
  102ccc:	e1db20b4 	ldrh	r2, [fp, #4]
  102cd0:	e1c320bc 	strh	r2, [r3, #12]
  102cd4:	e51b3008 	ldr	r3, [fp, #-8]
  102cd8:	e5db2008 	ldrb	r2, [fp, #8]
  102cdc:	e5c3200e 	strb	r2, [r3, #14]
  102ce0:	e51b3008 	ldr	r3, [fp, #-8]
  102ce4:	e3a02000 	mov	r2, #0
  102ce8:	e5c3200f 	strb	r2, [r3, #15]
  102cec:	e51b3008 	ldr	r3, [fp, #-8]
  102cf0:	e1db20bc 	ldrh	r2, [fp, #12]
  102cf4:	e1c321b0 	strh	r2, [r3, #16]
  102cf8:	e51b3008 	ldr	r3, [fp, #-8]
  102cfc:	e3a02000 	mov	r2, #0
  102d00:	e1c321b2 	strh	r2, [r3, #18]
  102d04:	e51b3008 	ldr	r3, [fp, #-8]
  102d08:	e3a02000 	mov	r2, #0
  102d0c:	e5832014 	str	r2, [r3, #20]
  102d10:	e51b3008 	ldr	r3, [fp, #-8]
  102d14:	e3a02000 	mov	r2, #0
  102d18:	e5832018 	str	r2, [r3, #24]
  102d1c:	e51b3014 	ldr	r3, [fp, #-20]	; 0xffffffec
  102d20:	e3832102 	orr	r2, r3, #-2147483648	; 0x80000000
  102d24:	e51b3008 	ldr	r3, [fp, #-8]
  102d28:	e583201c 	str	r2, [r3, #28]
  102d2c:	e3a03000 	mov	r3, #0
  102d30:	e1a00003 	mov	r0, r3
  102d34:	e24bd000 	sub	sp, fp, #0
  102d38:	e49db004 	pop	{fp}		; (ldr fp, [sp], #4)
  102d3c:	e12fff1e 	bx	lr

00102d40 <construct_extended_mm_to_st_descriptor_64>:
  102d40:	e52db004 	push	{fp}		; (str fp, [sp, #-4]!)
  102d44:	e28db000 	add	fp, sp, #0
  102d48:	e24dd014 	sub	sp, sp, #20
  102d4c:	e50b0008 	str	r0, [fp, #-8]
  102d50:	e50b100c 	str	r1, [fp, #-12]
  102d54:	e50b2010 	str	r2, [fp, #-16]
  102d58:	e50b3014 	str	r3, [fp, #-20]	; 0xffffffec
  102d5c:	e51b3008 	ldr	r3, [fp, #-8]
  102d60:	e51b200c 	ldr	r2, [fp, #-12]
  102d64:	e5832000 	str	r2, [r3]
  102d68:	e51b3008 	ldr	r3, [fp, #-8]
  102d6c:	e3a02000 	mov	r2, #0
  102d70:	e5832004 	str	r2, [r3, #4]
  102d74:	e51b3008 	ldr	r3, [fp, #-8]
  102d78:	e51b2014 	ldr	r2, [fp, #-20]	; 0xffffffec
  102d7c:	e5832008 	str	r2, [r3, #8]
  102d80:	e51b3008 	ldr	r3, [fp, #-8]
  102d84:	e1db20b8 	ldrh	r2, [fp, #8]
  102d88:	e1c320bc 	strh	r2, [r3, #12]
  102d8c:	e51b3008 	ldr	r3, [fp, #-8]
  102d90:	e5db200c 	ldrb	r2, [fp, #12]
  102d94:	e5c3200e 	strb	r2, [r3, #14]
  102d98:	e51b3008 	ldr	r3, [fp, #-8]
  102d9c:	e3a02000 	mov	r2, #0
  102da0:	e5c3200f 	strb	r2, [r3, #15]
  102da4:	e51b3008 	ldr	r3, [fp, #-8]
  102da8:	e1db21b0 	ldrh	r2, [fp, #16]
  102dac:	e1c321b0 	strh	r2, [r3, #16]
  102db0:	e51b3008 	ldr	r3, [fp, #-8]
  102db4:	e3a02000 	mov	r2, #0
  102db8:	e1c321b2 	strh	r2, [r3, #18]
  102dbc:	e51b3008 	ldr	r3, [fp, #-8]
  102dc0:	e51b2010 	ldr	r2, [fp, #-16]
  102dc4:	e5832014 	str	r2, [r3, #20]
  102dc8:	e51b3008 	ldr	r3, [fp, #-8]
  102dcc:	e3a02000 	mov	r2, #0
  102dd0:	e5832018 	str	r2, [r3, #24]
  102dd4:	e59b3004 	ldr	r3, [fp, #4]
  102dd8:	e3832102 	orr	r2, r3, #-2147483648	; 0x80000000
  102ddc:	e51b3008 	ldr	r3, [fp, #-8]
  102de0:	e583201c 	str	r2, [r3, #28]
  102de4:	e3a03000 	mov	r3, #0
  102de8:	e1a00003 	mov	r0, r3
  102dec:	e24bd000 	sub	sp, fp, #0
  102df0:	e49db004 	pop	{fp}		; (ldr fp, [sp], #4)
  102df4:	e12fff1e 	bx	lr

00102df8 <construct_extended_mm_to_mm_descriptor>:
  102df8:	e52db004 	push	{fp}		; (str fp, [sp, #-4]!)
  102dfc:	e28db000 	add	fp, sp, #0
  102e00:	e24dd014 	sub	sp, sp, #20
  102e04:	e50b0008 	str	r0, [fp, #-8]
  102e08:	e50b100c 	str	r1, [fp, #-12]
  102e0c:	e50b2010 	str	r2, [fp, #-16]
  102e10:	e50b3014 	str	r3, [fp, #-20]	; 0xffffffec
  102e14:	e51b3008 	ldr	r3, [fp, #-8]
  102e18:	e51b200c 	ldr	r2, [fp, #-12]
  102e1c:	e5832000 	str	r2, [r3]
  102e20:	e51b3008 	ldr	r3, [fp, #-8]
  102e24:	e51b2010 	ldr	r2, [fp, #-16]
  102e28:	e5832004 	str	r2, [r3, #4]
  102e2c:	e51b3008 	ldr	r3, [fp, #-8]
  102e30:	e51b2014 	ldr	r2, [fp, #-20]	; 0xffffffec
  102e34:	e5832008 	str	r2, [r3, #8]
  102e38:	e51b3008 	ldr	r3, [fp, #-8]
  102e3c:	e1db20b8 	ldrh	r2, [fp, #8]
  102e40:	e1c320bc 	strh	r2, [r3, #12]
  102e44:	e51b3008 	ldr	r3, [fp, #-8]
  102e48:	e5db200c 	ldrb	r2, [fp, #12]
  102e4c:	e5c3200e 	strb	r2, [r3, #14]
  102e50:	e51b3008 	ldr	r3, [fp, #-8]
  102e54:	e5db2010 	ldrb	r2, [fp, #16]
  102e58:	e5c3200f 	strb	r2, [r3, #15]
  102e5c:	e51b3008 	ldr	r3, [fp, #-8]
  102e60:	e1db21b4 	ldrh	r2, [fp, #20]
  102e64:	e1c321b0 	strh	r2, [r3, #16]
  102e68:	e51b3008 	ldr	r3, [fp, #-8]
  102e6c:	e1db21b8 	ldrh	r2, [fp, #24]
  102e70:	e1c321b2 	strh	r2, [r3, #18]
  102e74:	e51b3008 	ldr	r3, [fp, #-8]
  102e78:	e3a02000 	mov	r2, #0
  102e7c:	e5832014 	str	r2, [r3, #20]
  102e80:	e51b3008 	ldr	r3, [fp, #-8]
  102e84:	e3a02000 	mov	r2, #0
  102e88:	e5832018 	str	r2, [r3, #24]
  102e8c:	e59b3004 	ldr	r3, [fp, #4]
  102e90:	e3832102 	orr	r2, r3, #-2147483648	; 0x80000000
  102e94:	e51b3008 	ldr	r3, [fp, #-8]
  102e98:	e583201c 	str	r2, [r3, #28]
  102e9c:	e3a03000 	mov	r3, #0
  102ea0:	e1a00003 	mov	r0, r3
  102ea4:	e24bd000 	sub	sp, fp, #0
  102ea8:	e49db004 	pop	{fp}		; (ldr fp, [sp], #4)
  102eac:	e12fff1e 	bx	lr

00102eb0 <construct_extended_mm_to_mm_descriptor_64>:
  102eb0:	e52db004 	push	{fp}		; (str fp, [sp, #-4]!)
  102eb4:	e28db000 	add	fp, sp, #0
  102eb8:	e24dd014 	sub	sp, sp, #20
  102ebc:	e50b0008 	str	r0, [fp, #-8]
  102ec0:	e50b100c 	str	r1, [fp, #-12]
  102ec4:	e50b2010 	str	r2, [fp, #-16]
  102ec8:	e50b3014 	str	r3, [fp, #-20]	; 0xffffffec
  102ecc:	e51b3008 	ldr	r3, [fp, #-8]
  102ed0:	e51b200c 	ldr	r2, [fp, #-12]
  102ed4:	e5832000 	str	r2, [r3]
  102ed8:	e51b3008 	ldr	r3, [fp, #-8]
  102edc:	e51b2014 	ldr	r2, [fp, #-20]	; 0xffffffec
  102ee0:	e5832004 	str	r2, [r3, #4]
  102ee4:	e51b3008 	ldr	r3, [fp, #-8]
  102ee8:	e59b2008 	ldr	r2, [fp, #8]
  102eec:	e5832008 	str	r2, [r3, #8]
  102ef0:	e51b3008 	ldr	r3, [fp, #-8]
  102ef4:	e1db21b0 	ldrh	r2, [fp, #16]
  102ef8:	e1c320bc 	strh	r2, [r3, #12]
  102efc:	e51b3008 	ldr	r3, [fp, #-8]
  102f00:	e5db2014 	ldrb	r2, [fp, #20]
  102f04:	e5c3200e 	strb	r2, [r3, #14]
  102f08:	e51b3008 	ldr	r3, [fp, #-8]
  102f0c:	e5db2018 	ldrb	r2, [fp, #24]
  102f10:	e5c3200f 	strb	r2, [r3, #15]
  102f14:	e51b3008 	ldr	r3, [fp, #-8]
  102f18:	e1db21bc 	ldrh	r2, [fp, #28]
  102f1c:	e1c321b0 	strh	r2, [r3, #16]
  102f20:	e51b3008 	ldr	r3, [fp, #-8]
  102f24:	e1db22b0 	ldrh	r2, [fp, #32]
  102f28:	e1c321b2 	strh	r2, [r3, #18]
  102f2c:	e51b3008 	ldr	r3, [fp, #-8]
  102f30:	e51b2010 	ldr	r2, [fp, #-16]
  102f34:	e5832014 	str	r2, [r3, #20]
  102f38:	e51b3008 	ldr	r3, [fp, #-8]
  102f3c:	e59b2004 	ldr	r2, [fp, #4]
  102f40:	e5832018 	str	r2, [r3, #24]
  102f44:	e59b300c 	ldr	r3, [fp, #12]
  102f48:	e3832102 	orr	r2, r3, #-2147483648	; 0x80000000
  102f4c:	e51b3008 	ldr	r3, [fp, #-8]
  102f50:	e583201c 	str	r2, [r3, #28]
  102f54:	e3a03000 	mov	r3, #0
  102f58:	e1a00003 	mov	r0, r3
  102f5c:	e24bd000 	sub	sp, fp, #0
  102f60:	e49db004 	pop	{fp}		; (ldr fp, [sp], #4)
  102f64:	e12fff1e 	bx	lr

00102f68 <write_standard_descriptor>:
  102f68:	e52db004 	push	{fp}		; (str fp, [sp, #-4]!)
  102f6c:	e28db000 	add	fp, sp, #0
  102f70:	e24dd014 	sub	sp, sp, #20
  102f74:	e50b0008 	str	r0, [fp, #-8]
  102f78:	e50b100c 	str	r1, [fp, #-12]
  102f7c:	e50b2010 	str	r2, [fp, #-16]
  102f80:	e51b3008 	ldr	r3, [fp, #-8]
  102f84:	e5933000 	ldr	r3, [r3]
  102f88:	e2033004 	and	r3, r3, #4
  102f8c:	e3530000 	cmp	r3, #0
  102f90:	0a000001 	beq	102f9c <write_standard_descriptor+0x34>
  102f94:	e3e0301b 	mvn	r3, #27
  102f98:	ea000016 	b	102ff8 <write_standard_descriptor+0x90>
  102f9c:	e51b300c 	ldr	r3, [fp, #-12]
  102fa0:	e51b2010 	ldr	r2, [fp, #-16]
  102fa4:	e5922000 	ldr	r2, [r2]
  102fa8:	e5832000 	str	r2, [r3]
  102fac:	e51b300c 	ldr	r3, [fp, #-12]
  102fb0:	e2833004 	add	r3, r3, #4
  102fb4:	e1a02003 	mov	r2, r3
  102fb8:	e51b3010 	ldr	r3, [fp, #-16]
  102fbc:	e5933004 	ldr	r3, [r3, #4]
  102fc0:	e5823000 	str	r3, [r2]
  102fc4:	e51b300c 	ldr	r3, [fp, #-12]
  102fc8:	e2833008 	add	r3, r3, #8
  102fcc:	e1a02003 	mov	r2, r3
  102fd0:	e51b3010 	ldr	r3, [fp, #-16]
  102fd4:	e5933008 	ldr	r3, [r3, #8]
  102fd8:	e5823000 	str	r3, [r2]
  102fdc:	e51b300c 	ldr	r3, [fp, #-12]
  102fe0:	e283300c 	add	r3, r3, #12
  102fe4:	e1a02003 	mov	r2, r3
  102fe8:	e51b3010 	ldr	r3, [fp, #-16]
  102fec:	e593300c 	ldr	r3, [r3, #12]
  102ff0:	e5823000 	str	r3, [r2]
  102ff4:	e3a03000 	mov	r3, #0
  102ff8:	e1a00003 	mov	r0, r3
  102ffc:	e24bd000 	sub	sp, fp, #0
  103000:	e49db004 	pop	{fp}		; (ldr fp, [sp], #4)
  103004:	e12fff1e 	bx	lr

00103008 <write_extended_descriptor>:
  103008:	e52db004 	push	{fp}		; (str fp, [sp, #-4]!)
  10300c:	e28db000 	add	fp, sp, #0
  103010:	e24dd014 	sub	sp, sp, #20
  103014:	e50b0008 	str	r0, [fp, #-8]
  103018:	e50b100c 	str	r1, [fp, #-12]
  10301c:	e50b2010 	str	r2, [fp, #-16]
  103020:	e51b3008 	ldr	r3, [fp, #-8]
  103024:	e5933000 	ldr	r3, [r3]
  103028:	e2033004 	and	r3, r3, #4
  10302c:	e3530000 	cmp	r3, #0
  103030:	0a000001 	beq	10303c <write_extended_descriptor+0x34>
  103034:	e3e0301b 	mvn	r3, #27
  103038:	ea000040 	b	103140 <write_extended_descriptor+0x138>
  10303c:	e51b300c 	ldr	r3, [fp, #-12]
  103040:	e51b2010 	ldr	r2, [fp, #-16]
  103044:	e5922000 	ldr	r2, [r2]
  103048:	e5832000 	str	r2, [r3]
  10304c:	e51b300c 	ldr	r3, [fp, #-12]
  103050:	e2833004 	add	r3, r3, #4
  103054:	e1a02003 	mov	r2, r3
  103058:	e51b3010 	ldr	r3, [fp, #-16]
  10305c:	e5933004 	ldr	r3, [r3, #4]
  103060:	e5823000 	str	r3, [r2]
  103064:	e51b300c 	ldr	r3, [fp, #-12]
  103068:	e2833008 	add	r3, r3, #8
  10306c:	e1a02003 	mov	r2, r3
  103070:	e51b3010 	ldr	r3, [fp, #-16]
  103074:	e5933008 	ldr	r3, [r3, #8]
  103078:	e5823000 	str	r3, [r2]
  10307c:	e51b300c 	ldr	r3, [fp, #-12]
  103080:	e283300c 	add	r3, r3, #12
  103084:	e1a02003 	mov	r2, r3
  103088:	e51b3010 	ldr	r3, [fp, #-16]
  10308c:	e1d330bc 	ldrh	r3, [r3, #12]
  103090:	e1c230b0 	strh	r3, [r2]
  103094:	e51b300c 	ldr	r3, [fp, #-12]
  103098:	e283300e 	add	r3, r3, #14
  10309c:	e1a02003 	mov	r2, r3
  1030a0:	e51b3010 	ldr	r3, [fp, #-16]
  1030a4:	e5d3300e 	ldrb	r3, [r3, #14]
  1030a8:	e5c23000 	strb	r3, [r2]
  1030ac:	e51b300c 	ldr	r3, [fp, #-12]
  1030b0:	e283300f 	add	r3, r3, #15
  1030b4:	e1a02003 	mov	r2, r3
  1030b8:	e51b3010 	ldr	r3, [fp, #-16]
  1030bc:	e5d3300f 	ldrb	r3, [r3, #15]
  1030c0:	e5c23000 	strb	r3, [r2]
  1030c4:	e51b300c 	ldr	r3, [fp, #-12]
  1030c8:	e2833010 	add	r3, r3, #16
  1030cc:	e1a02003 	mov	r2, r3
  1030d0:	e51b3010 	ldr	r3, [fp, #-16]
  1030d4:	e1d331b0 	ldrh	r3, [r3, #16]
  1030d8:	e1c230b0 	strh	r3, [r2]
  1030dc:	e51b300c 	ldr	r3, [fp, #-12]
  1030e0:	e2833012 	add	r3, r3, #18
  1030e4:	e1a02003 	mov	r2, r3
  1030e8:	e51b3010 	ldr	r3, [fp, #-16]
  1030ec:	e1d331b2 	ldrh	r3, [r3, #18]
  1030f0:	e1c230b0 	strh	r3, [r2]
  1030f4:	e51b300c 	ldr	r3, [fp, #-12]
  1030f8:	e2833014 	add	r3, r3, #20
  1030fc:	e1a02003 	mov	r2, r3
  103100:	e51b3010 	ldr	r3, [fp, #-16]
  103104:	e5933014 	ldr	r3, [r3, #20]
  103108:	e5823000 	str	r3, [r2]
  10310c:	e51b300c 	ldr	r3, [fp, #-12]
  103110:	e2833018 	add	r3, r3, #24
  103114:	e1a02003 	mov	r2, r3
  103118:	e51b3010 	ldr	r3, [fp, #-16]
  10311c:	e5933018 	ldr	r3, [r3, #24]
  103120:	e5823000 	str	r3, [r2]
  103124:	e51b300c 	ldr	r3, [fp, #-12]
  103128:	e283301c 	add	r3, r3, #28
  10312c:	e1a02003 	mov	r2, r3
  103130:	e51b3010 	ldr	r3, [fp, #-16]
  103134:	e593301c 	ldr	r3, [r3, #28]
  103138:	e5823000 	str	r3, [r2]
  10313c:	e3a03000 	mov	r3, #0
  103140:	e1a00003 	mov	r0, r3
  103144:	e24bd000 	sub	sp, fp, #0
  103148:	e49db004 	pop	{fp}		; (ldr fp, [sp], #4)
  10314c:	e12fff1e 	bx	lr

00103150 <read_mm_response>:
  103150:	e52db004 	push	{fp}		; (str fp, [sp, #-4]!)
  103154:	e28db000 	add	fp, sp, #0
  103158:	e24dd01c 	sub	sp, sp, #28
  10315c:	e50b0010 	str	r0, [fp, #-16]
  103160:	e50b1014 	str	r1, [fp, #-20]	; 0xffffffec
  103164:	e50b2018 	str	r2, [fp, #-24]	; 0xffffffe8
  103168:	e51b3010 	ldr	r3, [fp, #-16]
  10316c:	e5933000 	ldr	r3, [r3]
  103170:	e2033008 	and	r3, r3, #8
  103174:	e3530000 	cmp	r3, #0
  103178:	0a000001 	beq	103184 <read_mm_response+0x34>
  10317c:	e3e0303c 	mvn	r3, #60	; 0x3c
  103180:	ea000013 	b	1031d4 <read_mm_response+0x84>
  103184:	e51b3014 	ldr	r3, [fp, #-20]	; 0xffffffec
  103188:	e5932000 	ldr	r2, [r3]
  10318c:	e51b3018 	ldr	r3, [fp, #-24]	; 0xffffffe8
  103190:	e5832000 	str	r2, [r3]
  103194:	e51b3014 	ldr	r3, [fp, #-20]	; 0xffffffec
  103198:	e2833004 	add	r3, r3, #4
  10319c:	e5933000 	ldr	r3, [r3]
  1031a0:	e50b3008 	str	r3, [fp, #-8]
  1031a4:	e51b3008 	ldr	r3, [fp, #-8]
  1031a8:	e6ef2073 	uxtb	r2, r3
  1031ac:	e51b3018 	ldr	r3, [fp, #-24]	; 0xffffffe8
  1031b0:	e5c32004 	strb	r2, [r3, #4]
  1031b4:	e51b3008 	ldr	r3, [fp, #-8]
  1031b8:	e1a03423 	lsr	r3, r3, #8
  1031bc:	e6ef3073 	uxtb	r3, r3
  1031c0:	e2033001 	and	r3, r3, #1
  1031c4:	e6ef2073 	uxtb	r2, r3
  1031c8:	e51b3018 	ldr	r3, [fp, #-24]	; 0xffffffe8
  1031cc:	e5c32005 	strb	r2, [r3, #5]
  1031d0:	e3a03000 	mov	r3, #0
  1031d4:	e1a00003 	mov	r0, r3
  1031d8:	e24bd000 	sub	sp, fp, #0
  1031dc:	e49db004 	pop	{fp}		; (ldr fp, [sp], #4)
  1031e0:	e12fff1e 	bx	lr

001031e4 <read_csr_status>:
  1031e4:	e52db004 	push	{fp}		; (str fp, [sp, #-4]!)
  1031e8:	e28db000 	add	fp, sp, #0
  1031ec:	e24dd00c 	sub	sp, sp, #12
  1031f0:	e50b0008 	str	r0, [fp, #-8]
  1031f4:	e51b3008 	ldr	r3, [fp, #-8]
  1031f8:	e5933000 	ldr	r3, [r3]
  1031fc:	e1a00003 	mov	r0, r3
  103200:	e24bd000 	sub	sp, fp, #0
  103204:	e49db004 	pop	{fp}		; (ldr fp, [sp], #4)
  103208:	e12fff1e 	bx	lr

0010320c <read_csr_control>:
  10320c:	e52db004 	push	{fp}		; (str fp, [sp, #-4]!)
  103210:	e28db000 	add	fp, sp, #0
  103214:	e24dd00c 	sub	sp, sp, #12
  103218:	e50b0008 	str	r0, [fp, #-8]
  10321c:	e51b3008 	ldr	r3, [fp, #-8]
  103220:	e2833004 	add	r3, r3, #4
  103224:	e5933000 	ldr	r3, [r3]
  103228:	e1a00003 	mov	r0, r3
  10322c:	e24bd000 	sub	sp, fp, #0
  103230:	e49db004 	pop	{fp}		; (ldr fp, [sp], #4)
  103234:	e12fff1e 	bx	lr

00103238 <read_csr_read_descriptor_buffer_fill_level>:
  103238:	e52db004 	push	{fp}		; (str fp, [sp, #-4]!)
  10323c:	e28db000 	add	fp, sp, #0
  103240:	e24dd00c 	sub	sp, sp, #12
  103244:	e50b0008 	str	r0, [fp, #-8]
  103248:	e51b3008 	ldr	r3, [fp, #-8]
  10324c:	e2833008 	add	r3, r3, #8
  103250:	e5933000 	ldr	r3, [r3]
  103254:	e6ff3073 	uxth	r3, r3
  103258:	e1a00003 	mov	r0, r3
  10325c:	e24bd000 	sub	sp, fp, #0
  103260:	e49db004 	pop	{fp}		; (ldr fp, [sp], #4)
  103264:	e12fff1e 	bx	lr

00103268 <read_csr_write_descriptor_buffer_fill_level>:
  103268:	e52db004 	push	{fp}		; (str fp, [sp, #-4]!)
  10326c:	e28db000 	add	fp, sp, #0
  103270:	e24dd00c 	sub	sp, sp, #12
  103274:	e50b0008 	str	r0, [fp, #-8]
  103278:	e51b3008 	ldr	r3, [fp, #-8]
  10327c:	e2833008 	add	r3, r3, #8
  103280:	e5933000 	ldr	r3, [r3]
  103284:	e1a03823 	lsr	r3, r3, #16
  103288:	e6ff3073 	uxth	r3, r3
  10328c:	e1a00003 	mov	r0, r3
  103290:	e24bd000 	sub	sp, fp, #0
  103294:	e49db004 	pop	{fp}		; (ldr fp, [sp], #4)
  103298:	e12fff1e 	bx	lr

0010329c <read_csr_response_buffer_fill_level>:
  10329c:	e52db004 	push	{fp}		; (str fp, [sp, #-4]!)
  1032a0:	e28db000 	add	fp, sp, #0
  1032a4:	e24dd00c 	sub	sp, sp, #12
  1032a8:	e50b0008 	str	r0, [fp, #-8]
  1032ac:	e51b3008 	ldr	r3, [fp, #-8]
  1032b0:	e283300c 	add	r3, r3, #12
  1032b4:	e5933000 	ldr	r3, [r3]
  1032b8:	e6ff3073 	uxth	r3, r3
  1032bc:	e1a00003 	mov	r0, r3
  1032c0:	e24bd000 	sub	sp, fp, #0
  1032c4:	e49db004 	pop	{fp}		; (ldr fp, [sp], #4)
  1032c8:	e12fff1e 	bx	lr

001032cc <read_csr_read_sequence_number>:
  1032cc:	e52db004 	push	{fp}		; (str fp, [sp, #-4]!)
  1032d0:	e28db000 	add	fp, sp, #0
  1032d4:	e24dd00c 	sub	sp, sp, #12
  1032d8:	e50b0008 	str	r0, [fp, #-8]
  1032dc:	e51b3008 	ldr	r3, [fp, #-8]
  1032e0:	e2833010 	add	r3, r3, #16
  1032e4:	e5933000 	ldr	r3, [r3]
  1032e8:	e6ff3073 	uxth	r3, r3
  1032ec:	e1a00003 	mov	r0, r3
  1032f0:	e24bd000 	sub	sp, fp, #0
  1032f4:	e49db004 	pop	{fp}		; (ldr fp, [sp], #4)
  1032f8:	e12fff1e 	bx	lr

001032fc <read_csr_write_sequence_number>:
  1032fc:	e52db004 	push	{fp}		; (str fp, [sp, #-4]!)
  103300:	e28db000 	add	fp, sp, #0
  103304:	e24dd00c 	sub	sp, sp, #12
  103308:	e50b0008 	str	r0, [fp, #-8]
  10330c:	e51b3008 	ldr	r3, [fp, #-8]
  103310:	e2833010 	add	r3, r3, #16
  103314:	e5933000 	ldr	r3, [r3]
  103318:	e1a03823 	lsr	r3, r3, #16
  10331c:	e6ff3073 	uxth	r3, r3
  103320:	e1a00003 	mov	r0, r3
  103324:	e24bd000 	sub	sp, fp, #0
  103328:	e49db004 	pop	{fp}		; (ldr fp, [sp], #4)
  10332c:	e12fff1e 	bx	lr

00103330 <read_busy>:
  103330:	e52db004 	push	{fp}		; (str fp, [sp, #-4]!)
  103334:	e28db000 	add	fp, sp, #0
  103338:	e24dd00c 	sub	sp, sp, #12
  10333c:	e50b0008 	str	r0, [fp, #-8]
  103340:	e51b3008 	ldr	r3, [fp, #-8]
  103344:	e5933000 	ldr	r3, [r3]
  103348:	e2033001 	and	r3, r3, #1
  10334c:	e3530000 	cmp	r3, #0
  103350:	13a03001 	movne	r3, #1
  103354:	03a03000 	moveq	r3, #0
  103358:	e6ef3073 	uxtb	r3, r3
  10335c:	e1a00003 	mov	r0, r3
  103360:	e24bd000 	sub	sp, fp, #0
  103364:	e49db004 	pop	{fp}		; (ldr fp, [sp], #4)
  103368:	e12fff1e 	bx	lr

0010336c <read_descriptor_buffer_empty>:
  10336c:	e52db004 	push	{fp}		; (str fp, [sp, #-4]!)
  103370:	e28db000 	add	fp, sp, #0
  103374:	e24dd00c 	sub	sp, sp, #12
  103378:	e50b0008 	str	r0, [fp, #-8]
  10337c:	e51b3008 	ldr	r3, [fp, #-8]
  103380:	e5933000 	ldr	r3, [r3]
  103384:	e2033002 	and	r3, r3, #2
  103388:	e3530000 	cmp	r3, #0
  10338c:	13a03001 	movne	r3, #1
  103390:	03a03000 	moveq	r3, #0
  103394:	e6ef3073 	uxtb	r3, r3
  103398:	e1a00003 	mov	r0, r3
  10339c:	e24bd000 	sub	sp, fp, #0
  1033a0:	e49db004 	pop	{fp}		; (ldr fp, [sp], #4)
  1033a4:	e12fff1e 	bx	lr

001033a8 <read_descriptor_buffer_full>:
  1033a8:	e52db004 	push	{fp}		; (str fp, [sp, #-4]!)
  1033ac:	e28db000 	add	fp, sp, #0
  1033b0:	e24dd00c 	sub	sp, sp, #12
  1033b4:	e50b0008 	str	r0, [fp, #-8]
  1033b8:	e51b3008 	ldr	r3, [fp, #-8]
  1033bc:	e5933000 	ldr	r3, [r3]
  1033c0:	e2033004 	and	r3, r3, #4
  1033c4:	e3530000 	cmp	r3, #0
  1033c8:	13a03001 	movne	r3, #1
  1033cc:	03a03000 	moveq	r3, #0
  1033d0:	e6ef3073 	uxtb	r3, r3
  1033d4:	e1a00003 	mov	r0, r3
  1033d8:	e24bd000 	sub	sp, fp, #0
  1033dc:	e49db004 	pop	{fp}		; (ldr fp, [sp], #4)
  1033e0:	e12fff1e 	bx	lr

001033e4 <read_response_buffer_empty>:
  1033e4:	e52db004 	push	{fp}		; (str fp, [sp, #-4]!)
  1033e8:	e28db000 	add	fp, sp, #0
  1033ec:	e24dd00c 	sub	sp, sp, #12
  1033f0:	e50b0008 	str	r0, [fp, #-8]
  1033f4:	e51b3008 	ldr	r3, [fp, #-8]
  1033f8:	e5933000 	ldr	r3, [r3]
  1033fc:	e2033008 	and	r3, r3, #8
  103400:	e3530000 	cmp	r3, #0
  103404:	13a03001 	movne	r3, #1
  103408:	03a03000 	moveq	r3, #0
  10340c:	e6ef3073 	uxtb	r3, r3
  103410:	e1a00003 	mov	r0, r3
  103414:	e24bd000 	sub	sp, fp, #0
  103418:	e49db004 	pop	{fp}		; (ldr fp, [sp], #4)
  10341c:	e12fff1e 	bx	lr

00103420 <read_response_buffer_full>:
  103420:	e52db004 	push	{fp}		; (str fp, [sp, #-4]!)
  103424:	e28db000 	add	fp, sp, #0
  103428:	e24dd00c 	sub	sp, sp, #12
  10342c:	e50b0008 	str	r0, [fp, #-8]
  103430:	e51b3008 	ldr	r3, [fp, #-8]
  103434:	e5933000 	ldr	r3, [r3]
  103438:	e2033010 	and	r3, r3, #16
  10343c:	e3530000 	cmp	r3, #0
  103440:	13a03001 	movne	r3, #1
  103444:	03a03000 	moveq	r3, #0
  103448:	e6ef3073 	uxtb	r3, r3
  10344c:	e1a00003 	mov	r0, r3
  103450:	e24bd000 	sub	sp, fp, #0
  103454:	e49db004 	pop	{fp}		; (ldr fp, [sp], #4)
  103458:	e12fff1e 	bx	lr

0010345c <read_stopped>:
  10345c:	e52db004 	push	{fp}		; (str fp, [sp, #-4]!)
  103460:	e28db000 	add	fp, sp, #0
  103464:	e24dd00c 	sub	sp, sp, #12
  103468:	e50b0008 	str	r0, [fp, #-8]
  10346c:	e51b3008 	ldr	r3, [fp, #-8]
  103470:	e5933000 	ldr	r3, [r3]
  103474:	e2033020 	and	r3, r3, #32
  103478:	e3530000 	cmp	r3, #0
  10347c:	13a03001 	movne	r3, #1
  103480:	03a03000 	moveq	r3, #0
  103484:	e6ef3073 	uxtb	r3, r3
  103488:	e1a00003 	mov	r0, r3
  10348c:	e24bd000 	sub	sp, fp, #0
  103490:	e49db004 	pop	{fp}		; (ldr fp, [sp], #4)
  103494:	e12fff1e 	bx	lr

00103498 <read_resetting>:
  103498:	e52db004 	push	{fp}		; (str fp, [sp, #-4]!)
  10349c:	e28db000 	add	fp, sp, #0
  1034a0:	e24dd00c 	sub	sp, sp, #12
  1034a4:	e50b0008 	str	r0, [fp, #-8]
  1034a8:	e51b3008 	ldr	r3, [fp, #-8]
  1034ac:	e5933000 	ldr	r3, [r3]
  1034b0:	e2033040 	and	r3, r3, #64	; 0x40
  1034b4:	e3530000 	cmp	r3, #0
  1034b8:	13a03001 	movne	r3, #1
  1034bc:	03a03000 	moveq	r3, #0
  1034c0:	e6ef3073 	uxtb	r3, r3
  1034c4:	e1a00003 	mov	r0, r3
  1034c8:	e24bd000 	sub	sp, fp, #0
  1034cc:	e49db004 	pop	{fp}		; (ldr fp, [sp], #4)
  1034d0:	e12fff1e 	bx	lr

001034d4 <read_stopped_on_error>:
  1034d4:	e52db004 	push	{fp}		; (str fp, [sp, #-4]!)
  1034d8:	e28db000 	add	fp, sp, #0
  1034dc:	e24dd00c 	sub	sp, sp, #12
  1034e0:	e50b0008 	str	r0, [fp, #-8]
  1034e4:	e51b3008 	ldr	r3, [fp, #-8]
  1034e8:	e5933000 	ldr	r3, [r3]
  1034ec:	e2033080 	and	r3, r3, #128	; 0x80
  1034f0:	e3530000 	cmp	r3, #0
  1034f4:	13a03001 	movne	r3, #1
  1034f8:	03a03000 	moveq	r3, #0
  1034fc:	e6ef3073 	uxtb	r3, r3
  103500:	e1a00003 	mov	r0, r3
  103504:	e24bd000 	sub	sp, fp, #0
  103508:	e49db004 	pop	{fp}		; (ldr fp, [sp], #4)
  10350c:	e12fff1e 	bx	lr

00103510 <read_stopped_on_early_termination>:
  103510:	e52db004 	push	{fp}		; (str fp, [sp, #-4]!)
  103514:	e28db000 	add	fp, sp, #0
  103518:	e24dd00c 	sub	sp, sp, #12
  10351c:	e50b0008 	str	r0, [fp, #-8]
  103520:	e51b3008 	ldr	r3, [fp, #-8]
  103524:	e5933000 	ldr	r3, [r3]
  103528:	e2033c01 	and	r3, r3, #256	; 0x100
  10352c:	e3530000 	cmp	r3, #0
  103530:	13a03001 	movne	r3, #1
  103534:	03a03000 	moveq	r3, #0
  103538:	e6ef3073 	uxtb	r3, r3
  10353c:	e1a00003 	mov	r0, r3
  103540:	e24bd000 	sub	sp, fp, #0
  103544:	e49db004 	pop	{fp}		; (ldr fp, [sp], #4)
  103548:	e12fff1e 	bx	lr

0010354c <read_irq>:
  10354c:	e52db004 	push	{fp}		; (str fp, [sp, #-4]!)
  103550:	e28db000 	add	fp, sp, #0
  103554:	e24dd00c 	sub	sp, sp, #12
  103558:	e50b0008 	str	r0, [fp, #-8]
  10355c:	e51b3008 	ldr	r3, [fp, #-8]
  103560:	e5933000 	ldr	r3, [r3]
  103564:	e2033c02 	and	r3, r3, #512	; 0x200
  103568:	e3530000 	cmp	r3, #0
  10356c:	13a03001 	movne	r3, #1
  103570:	03a03000 	moveq	r3, #0
  103574:	e6ef3073 	uxtb	r3, r3
  103578:	e1a00003 	mov	r0, r3
  10357c:	e24bd000 	sub	sp, fp, #0
  103580:	e49db004 	pop	{fp}		; (ldr fp, [sp], #4)
  103584:	e12fff1e 	bx	lr

00103588 <clear_irq>:
  103588:	e52db004 	push	{fp}		; (str fp, [sp, #-4]!)
  10358c:	e28db000 	add	fp, sp, #0
  103590:	e24dd00c 	sub	sp, sp, #12
  103594:	e50b0008 	str	r0, [fp, #-8]
  103598:	e51b3008 	ldr	r3, [fp, #-8]
  10359c:	e3a02c02 	mov	r2, #512	; 0x200
  1035a0:	e5832000 	str	r2, [r3]
  1035a4:	e320f000 	nop	{0}
  1035a8:	e24bd000 	sub	sp, fp, #0
  1035ac:	e49db004 	pop	{fp}		; (ldr fp, [sp], #4)
  1035b0:	e12fff1e 	bx	lr

001035b4 <stop_dispatcher>:
  1035b4:	e52db004 	push	{fp}		; (str fp, [sp, #-4]!)
  1035b8:	e28db000 	add	fp, sp, #0
  1035bc:	e24dd014 	sub	sp, sp, #20
  1035c0:	e50b0010 	str	r0, [fp, #-16]
  1035c4:	e51b3010 	ldr	r3, [fp, #-16]
  1035c8:	e2833004 	add	r3, r3, #4
  1035cc:	e5933000 	ldr	r3, [r3]
  1035d0:	e3833001 	orr	r3, r3, #1
  1035d4:	e50b3008 	str	r3, [fp, #-8]
  1035d8:	e51b3010 	ldr	r3, [fp, #-16]
  1035dc:	e2833004 	add	r3, r3, #4
  1035e0:	e1a02003 	mov	r2, r3
  1035e4:	e51b3008 	ldr	r3, [fp, #-8]
  1035e8:	e5823000 	str	r3, [r2]
  1035ec:	e320f000 	nop	{0}
  1035f0:	e24bd000 	sub	sp, fp, #0
  1035f4:	e49db004 	pop	{fp}		; (ldr fp, [sp], #4)
  1035f8:	e12fff1e 	bx	lr

001035fc <start_dispatcher>:
  1035fc:	e52db004 	push	{fp}		; (str fp, [sp, #-4]!)
  103600:	e28db000 	add	fp, sp, #0
  103604:	e24dd014 	sub	sp, sp, #20
  103608:	e50b0010 	str	r0, [fp, #-16]
  10360c:	e51b3010 	ldr	r3, [fp, #-16]
  103610:	e2833004 	add	r3, r3, #4
  103614:	e5933000 	ldr	r3, [r3]
  103618:	e3c33001 	bic	r3, r3, #1
  10361c:	e50b3008 	str	r3, [fp, #-8]
  103620:	e51b3010 	ldr	r3, [fp, #-16]
  103624:	e2833004 	add	r3, r3, #4
  103628:	e1a02003 	mov	r2, r3
  10362c:	e51b3008 	ldr	r3, [fp, #-8]
  103630:	e5823000 	str	r3, [r2]
  103634:	e320f000 	nop	{0}
  103638:	e24bd000 	sub	sp, fp, #0
  10363c:	e49db004 	pop	{fp}		; (ldr fp, [sp], #4)
  103640:	e12fff1e 	bx	lr

00103644 <reset_dispatcher>:
  103644:	e52db004 	push	{fp}		; (str fp, [sp, #-4]!)
  103648:	e28db000 	add	fp, sp, #0
  10364c:	e24dd00c 	sub	sp, sp, #12
  103650:	e50b0008 	str	r0, [fp, #-8]
  103654:	e51b3008 	ldr	r3, [fp, #-8]
  103658:	e2833004 	add	r3, r3, #4
  10365c:	e1a02003 	mov	r2, r3
  103660:	e3a03002 	mov	r3, #2
  103664:	e5823000 	str	r3, [r2]
  103668:	e320f000 	nop	{0}
  10366c:	e24bd000 	sub	sp, fp, #0
  103670:	e49db004 	pop	{fp}		; (ldr fp, [sp], #4)
  103674:	e12fff1e 	bx	lr

00103678 <enable_stop_on_error>:
  103678:	e52db004 	push	{fp}		; (str fp, [sp, #-4]!)
  10367c:	e28db000 	add	fp, sp, #0
  103680:	e24dd014 	sub	sp, sp, #20
  103684:	e50b0010 	str	r0, [fp, #-16]
  103688:	e51b3010 	ldr	r3, [fp, #-16]
  10368c:	e2833004 	add	r3, r3, #4
  103690:	e5933000 	ldr	r3, [r3]
  103694:	e3833004 	orr	r3, r3, #4
  103698:	e50b3008 	str	r3, [fp, #-8]
  10369c:	e51b3010 	ldr	r3, [fp, #-16]
  1036a0:	e2833004 	add	r3, r3, #4
  1036a4:	e1a02003 	mov	r2, r3
  1036a8:	e51b3008 	ldr	r3, [fp, #-8]
  1036ac:	e5823000 	str	r3, [r2]
  1036b0:	e320f000 	nop	{0}
  1036b4:	e24bd000 	sub	sp, fp, #0
  1036b8:	e49db004 	pop	{fp}		; (ldr fp, [sp], #4)
  1036bc:	e12fff1e 	bx	lr

001036c0 <disable_stop_on_error>:
  1036c0:	e52db004 	push	{fp}		; (str fp, [sp, #-4]!)
  1036c4:	e28db000 	add	fp, sp, #0
  1036c8:	e24dd014 	sub	sp, sp, #20
  1036cc:	e50b0010 	str	r0, [fp, #-16]
  1036d0:	e51b3010 	ldr	r3, [fp, #-16]
  1036d4:	e2833004 	add	r3, r3, #4
  1036d8:	e5933000 	ldr	r3, [r3]
  1036dc:	e3c33004 	bic	r3, r3, #4
  1036e0:	e50b3008 	str	r3, [fp, #-8]
  1036e4:	e51b3010 	ldr	r3, [fp, #-16]
  1036e8:	e2833004 	add	r3, r3, #4
  1036ec:	e1a02003 	mov	r2, r3
  1036f0:	e51b3008 	ldr	r3, [fp, #-8]
  1036f4:	e5823000 	str	r3, [r2]
  1036f8:	e320f000 	nop	{0}
  1036fc:	e24bd000 	sub	sp, fp, #0
  103700:	e49db004 	pop	{fp}		; (ldr fp, [sp], #4)
  103704:	e12fff1e 	bx	lr

00103708 <enable_stop_on_early_termination>:
  103708:	e52db004 	push	{fp}		; (str fp, [sp, #-4]!)
  10370c:	e28db000 	add	fp, sp, #0
  103710:	e24dd014 	sub	sp, sp, #20
  103714:	e50b0010 	str	r0, [fp, #-16]
  103718:	e51b3010 	ldr	r3, [fp, #-16]
  10371c:	e2833004 	add	r3, r3, #4
  103720:	e5933000 	ldr	r3, [r3]
  103724:	e3833008 	orr	r3, r3, #8
  103728:	e50b3008 	str	r3, [fp, #-8]
  10372c:	e51b3010 	ldr	r3, [fp, #-16]
  103730:	e2833004 	add	r3, r3, #4
  103734:	e1a02003 	mov	r2, r3
  103738:	e51b3008 	ldr	r3, [fp, #-8]
  10373c:	e5823000 	str	r3, [r2]
  103740:	e320f000 	nop	{0}
  103744:	e24bd000 	sub	sp, fp, #0
  103748:	e49db004 	pop	{fp}		; (ldr fp, [sp], #4)
  10374c:	e12fff1e 	bx	lr

00103750 <disable_stop_on_early_termination>:
  103750:	e52db004 	push	{fp}		; (str fp, [sp, #-4]!)
  103754:	e28db000 	add	fp, sp, #0
  103758:	e24dd014 	sub	sp, sp, #20
  10375c:	e50b0010 	str	r0, [fp, #-16]
  103760:	e51b3010 	ldr	r3, [fp, #-16]
  103764:	e2833004 	add	r3, r3, #4
  103768:	e5933000 	ldr	r3, [r3]
  10376c:	e3c33008 	bic	r3, r3, #8
  103770:	e50b3008 	str	r3, [fp, #-8]
  103774:	e51b3010 	ldr	r3, [fp, #-16]
  103778:	e2833004 	add	r3, r3, #4
  10377c:	e1a02003 	mov	r2, r3
  103780:	e51b3008 	ldr	r3, [fp, #-8]
  103784:	e5823000 	str	r3, [r2]
  103788:	e320f000 	nop	{0}
  10378c:	e24bd000 	sub	sp, fp, #0
  103790:	e49db004 	pop	{fp}		; (ldr fp, [sp], #4)
  103794:	e12fff1e 	bx	lr

00103798 <enable_global_interrupt_mask>:
  103798:	e52db004 	push	{fp}		; (str fp, [sp, #-4]!)
  10379c:	e28db000 	add	fp, sp, #0
  1037a0:	e24dd014 	sub	sp, sp, #20
  1037a4:	e50b0010 	str	r0, [fp, #-16]
  1037a8:	e51b3010 	ldr	r3, [fp, #-16]
  1037ac:	e2833004 	add	r3, r3, #4
  1037b0:	e5933000 	ldr	r3, [r3]
  1037b4:	e3833010 	orr	r3, r3, #16
  1037b8:	e50b3008 	str	r3, [fp, #-8]
  1037bc:	e51b3010 	ldr	r3, [fp, #-16]
  1037c0:	e2833004 	add	r3, r3, #4
  1037c4:	e1a02003 	mov	r2, r3
  1037c8:	e51b3008 	ldr	r3, [fp, #-8]
  1037cc:	e5823000 	str	r3, [r2]
  1037d0:	e320f000 	nop	{0}
  1037d4:	e24bd000 	sub	sp, fp, #0
  1037d8:	e49db004 	pop	{fp}		; (ldr fp, [sp], #4)
  1037dc:	e12fff1e 	bx	lr

001037e0 <disable_global_interrupt_mask>:
  1037e0:	e52db004 	push	{fp}		; (str fp, [sp, #-4]!)
  1037e4:	e28db000 	add	fp, sp, #0
  1037e8:	e24dd014 	sub	sp, sp, #20
  1037ec:	e50b0010 	str	r0, [fp, #-16]
  1037f0:	e51b3010 	ldr	r3, [fp, #-16]
  1037f4:	e2833004 	add	r3, r3, #4
  1037f8:	e5933000 	ldr	r3, [r3]
  1037fc:	e3c33010 	bic	r3, r3, #16
  103800:	e50b3008 	str	r3, [fp, #-8]
  103804:	e51b3010 	ldr	r3, [fp, #-16]
  103808:	e2833004 	add	r3, r3, #4
  10380c:	e1a02003 	mov	r2, r3
  103810:	e51b3008 	ldr	r3, [fp, #-8]
  103814:	e5823000 	str	r3, [r2]
  103818:	e320f000 	nop	{0}
  10381c:	e24bd000 	sub	sp, fp, #0
  103820:	e49db004 	pop	{fp}		; (ldr fp, [sp], #4)
  103824:	e12fff1e 	bx	lr

00103828 <stop_descriptors>:
  103828:	e52db004 	push	{fp}		; (str fp, [sp, #-4]!)
  10382c:	e28db000 	add	fp, sp, #0
  103830:	e24dd014 	sub	sp, sp, #20
  103834:	e50b0010 	str	r0, [fp, #-16]
  103838:	e51b3010 	ldr	r3, [fp, #-16]
  10383c:	e2833004 	add	r3, r3, #4
  103840:	e5933000 	ldr	r3, [r3]
  103844:	e3833020 	orr	r3, r3, #32
  103848:	e50b3008 	str	r3, [fp, #-8]
  10384c:	e51b3010 	ldr	r3, [fp, #-16]
  103850:	e2833004 	add	r3, r3, #4
  103854:	e1a02003 	mov	r2, r3
  103858:	e51b3008 	ldr	r3, [fp, #-8]
  10385c:	e5823000 	str	r3, [r2]
  103860:	e320f000 	nop	{0}
  103864:	e24bd000 	sub	sp, fp, #0
  103868:	e49db004 	pop	{fp}		; (ldr fp, [sp], #4)
  10386c:	e12fff1e 	bx	lr

00103870 <start_descriptors>:
  103870:	e52db004 	push	{fp}		; (str fp, [sp, #-4]!)
  103874:	e28db000 	add	fp, sp, #0
  103878:	e24dd014 	sub	sp, sp, #20
  10387c:	e50b0010 	str	r0, [fp, #-16]
  103880:	e51b3010 	ldr	r3, [fp, #-16]
  103884:	e2833004 	add	r3, r3, #4
  103888:	e5933000 	ldr	r3, [r3]
  10388c:	e3c33020 	bic	r3, r3, #32
  103890:	e50b3008 	str	r3, [fp, #-8]
  103894:	e51b3010 	ldr	r3, [fp, #-16]
  103898:	e2833004 	add	r3, r3, #4
  10389c:	e1a02003 	mov	r2, r3
  1038a0:	e51b3008 	ldr	r3, [fp, #-8]
  1038a4:	e5823000 	str	r3, [r2]
  1038a8:	e320f000 	nop	{0}
  1038ac:	e24bd000 	sub	sp, fp, #0
  1038b0:	e49db004 	pop	{fp}		; (ldr fp, [sp], #4)
  1038b4:	e12fff1e 	bx	lr

001038b8 <alt_reset_event_get>:
  1038b8:	e52db004 	push	{fp}		; (str fp, [sp, #-4]!)
  1038bc:	e28db000 	add	fp, sp, #0
  1038c0:	e3a03a05 	mov	r3, #20480	; 0x5000
  1038c4:	e34f3fd0 	movt	r3, #65488	; 0xffd0
  1038c8:	e5933000 	ldr	r3, [r3]
  1038cc:	e1a00003 	mov	r0, r3
  1038d0:	e24bd000 	sub	sp, fp, #0
  1038d4:	e49db004 	pop	{fp}		; (ldr fp, [sp], #4)
  1038d8:	e12fff1e 	bx	lr

001038dc <alt_reset_event_clear>:
  1038dc:	e52db004 	push	{fp}		; (str fp, [sp, #-4]!)
  1038e0:	e28db000 	add	fp, sp, #0
  1038e4:	e24dd00c 	sub	sp, sp, #12
  1038e8:	e50b0008 	str	r0, [fp, #-8]
  1038ec:	e3a03a05 	mov	r3, #20480	; 0x5000
  1038f0:	e34f3fd0 	movt	r3, #65488	; 0xffd0
  1038f4:	e51b2008 	ldr	r2, [fp, #-8]
  1038f8:	e5832000 	str	r2, [r3]
  1038fc:	e3a03000 	mov	r3, #0
  103900:	e1a00003 	mov	r0, r3
  103904:	e24bd000 	sub	sp, fp, #0
  103908:	e49db004 	pop	{fp}		; (ldr fp, [sp], #4)
  10390c:	e12fff1e 	bx	lr

00103910 <alt_reset_cold_reset>:
  103910:	e52db004 	push	{fp}		; (str fp, [sp, #-4]!)
  103914:	e28db000 	add	fp, sp, #0
  103918:	e3053004 	movw	r3, #20484	; 0x5004
  10391c:	e34f3fd0 	movt	r3, #65488	; 0xffd0
  103920:	e3a02001 	mov	r2, #1
  103924:	e5832000 	str	r2, [r3]
  103928:	e3a03000 	mov	r3, #0
  10392c:	e1a00003 	mov	r0, r3
  103930:	e24bd000 	sub	sp, fp, #0
  103934:	e49db004 	pop	{fp}		; (ldr fp, [sp], #4)
  103938:	e12fff1e 	bx	lr

0010393c <alt_reset_warm_reset>:
  10393c:	e52db004 	push	{fp}		; (str fp, [sp, #-4]!)
  103940:	e28db000 	add	fp, sp, #0
  103944:	e24dd01c 	sub	sp, sp, #28
  103948:	e50b0010 	str	r0, [fp, #-16]
  10394c:	e50b1014 	str	r1, [fp, #-20]	; 0xffffffec
  103950:	e1a01002 	mov	r1, r2
  103954:	e1a02003 	mov	r2, r3
  103958:	e1a03001 	mov	r3, r1
  10395c:	e54b3015 	strb	r3, [fp, #-21]	; 0xffffffeb
  103960:	e1a03002 	mov	r3, r2
  103964:	e54b3016 	strb	r3, [fp, #-22]	; 0xffffffea
  103968:	e3a03002 	mov	r3, #2
  10396c:	e50b3008 	str	r3, [fp, #-8]
  103970:	e3a03000 	mov	r3, #0
  103974:	e50b300c 	str	r3, [fp, #-12]
  103978:	e51b3010 	ldr	r3, [fp, #-16]
  10397c:	e353000f 	cmp	r3, #15
  103980:	9a000002 	bls	103990 <alt_reset_warm_reset+0x54>
  103984:	e51b3010 	ldr	r3, [fp, #-16]
  103988:	e35300ff 	cmp	r3, #255	; 0xff
  10398c:	9a000001 	bls	103998 <alt_reset_warm_reset+0x5c>
  103990:	e3e03008 	mvn	r3, #8
  103994:	ea00003c 	b	103a8c <alt_reset_warm_reset+0x150>
  103998:	e51b3014 	ldr	r3, [fp, #-20]	; 0xffffffec
  10399c:	e3530000 	cmp	r3, #0
  1039a0:	1a000001 	bne	1039ac <alt_reset_warm_reset+0x70>
  1039a4:	e3e03000 	mvn	r3, #0
  1039a8:	ea000037 	b	103a8c <alt_reset_warm_reset+0x150>
  1039ac:	e51b3014 	ldr	r3, [fp, #-20]	; 0xffffffec
  1039b0:	e3530601 	cmp	r3, #1048576	; 0x100000
  1039b4:	3a000001 	bcc	1039c0 <alt_reset_warm_reset+0x84>
  1039b8:	e3e03008 	mvn	r3, #8
  1039bc:	ea000032 	b	103a8c <alt_reset_warm_reset+0x150>
  1039c0:	e51b3010 	ldr	r3, [fp, #-16]
  1039c4:	e6ef3073 	uxtb	r3, r3
  1039c8:	e51b200c 	ldr	r2, [fp, #-12]
  1039cc:	e1823003 	orr	r3, r2, r3
  1039d0:	e50b300c 	str	r3, [fp, #-12]
  1039d4:	e51b3014 	ldr	r3, [fp, #-20]	; 0xffffffec
  1039d8:	e1a03403 	lsl	r3, r3, #8
  1039dc:	e3c3320f 	bic	r3, r3, #-268435456	; 0xf0000000
  1039e0:	e3c330ff 	bic	r3, r3, #255	; 0xff
  1039e4:	e51b200c 	ldr	r2, [fp, #-12]
  1039e8:	e1823003 	orr	r3, r2, r3
  1039ec:	e50b300c 	str	r3, [fp, #-12]
  1039f0:	e55b3015 	ldrb	r3, [fp, #-21]	; 0xffffffeb
  1039f4:	e3530000 	cmp	r3, #0
  1039f8:	0a000002 	beq	103a08 <alt_reset_warm_reset+0xcc>
  1039fc:	e51b3008 	ldr	r3, [fp, #-8]
  103a00:	e3833010 	orr	r3, r3, #16
  103a04:	e50b3008 	str	r3, [fp, #-8]
  103a08:	e55b3016 	ldrb	r3, [fp, #-22]	; 0xffffffea
  103a0c:	e3530000 	cmp	r3, #0
  103a10:	0a000002 	beq	103a20 <alt_reset_warm_reset+0xe4>
  103a14:	e51b3008 	ldr	r3, [fp, #-8]
  103a18:	e3833c01 	orr	r3, r3, #256	; 0x100
  103a1c:	e50b3008 	str	r3, [fp, #-8]
  103a20:	e5db3004 	ldrb	r3, [fp, #4]
  103a24:	e3530000 	cmp	r3, #0
  103a28:	0a000002 	beq	103a38 <alt_reset_warm_reset+0xfc>
  103a2c:	e51b3008 	ldr	r3, [fp, #-8]
  103a30:	e3833a01 	orr	r3, r3, #4096	; 0x1000
  103a34:	e50b3008 	str	r3, [fp, #-8]
  103a38:	e5db3008 	ldrb	r3, [fp, #8]
  103a3c:	e3530000 	cmp	r3, #0
  103a40:	0a000002 	beq	103a50 <alt_reset_warm_reset+0x114>
  103a44:	e51b3008 	ldr	r3, [fp, #-8]
  103a48:	e3833801 	orr	r3, r3, #65536	; 0x10000
  103a4c:	e50b3008 	str	r3, [fp, #-8]
  103a50:	e5db300c 	ldrb	r3, [fp, #12]
  103a54:	e3530000 	cmp	r3, #0
  103a58:	0a000002 	beq	103a68 <alt_reset_warm_reset+0x12c>
  103a5c:	e51b3008 	ldr	r3, [fp, #-8]
  103a60:	e3833601 	orr	r3, r3, #1048576	; 0x100000
  103a64:	e50b3008 	str	r3, [fp, #-8]
  103a68:	e3053008 	movw	r3, #20488	; 0x5008
  103a6c:	e34f3fd0 	movt	r3, #65488	; 0xffd0
  103a70:	e51b200c 	ldr	r2, [fp, #-12]
  103a74:	e5832000 	str	r2, [r3]
  103a78:	e3053004 	movw	r3, #20484	; 0x5004
  103a7c:	e34f3fd0 	movt	r3, #65488	; 0xffd0
  103a80:	e51b2008 	ldr	r2, [fp, #-8]
  103a84:	e5832000 	str	r2, [r3]
  103a88:	e3a03000 	mov	r3, #0
  103a8c:	e1a00003 	mov	r0, r3
  103a90:	e24bd000 	sub	sp, fp, #0
  103a94:	e49db004 	pop	{fp}		; (ldr fp, [sp], #4)
  103a98:	e12fff1e 	bx	lr

00103a9c <alt_clk_mgr_wait>:
  103a9c:	e52db004 	push	{fp}		; (str fp, [sp, #-4]!)
  103aa0:	e28db000 	add	fp, sp, #0
  103aa4:	e24dd00c 	sub	sp, sp, #12
  103aa8:	e50b0008 	str	r0, [fp, #-8]
  103aac:	e50b100c 	str	r1, [fp, #-12]
  103ab0:	ea000004 	b	103ac8 <alt_clk_mgr_wait+0x2c>
  103ab4:	e51b3008 	ldr	r3, [fp, #-8]
  103ab8:	e5933000 	ldr	r3, [r3]
  103abc:	e51b300c 	ldr	r3, [fp, #-12]
  103ac0:	e2433001 	sub	r3, r3, #1
  103ac4:	e50b300c 	str	r3, [fp, #-12]
  103ac8:	e51b300c 	ldr	r3, [fp, #-12]
  103acc:	e3530000 	cmp	r3, #0
  103ad0:	1afffff7 	bne	103ab4 <alt_clk_mgr_wait+0x18>
  103ad4:	e320f000 	nop	{0}
  103ad8:	e24bd000 	sub	sp, fp, #0
  103adc:	e49db004 	pop	{fp}		; (ldr fp, [sp], #4)
  103ae0:	e12fff1e 	bx	lr

00103ae4 <alt_clk_plls_settle_wait>:
  103ae4:	e52db004 	push	{fp}		; (str fp, [sp, #-4]!)
  103ae8:	e28db000 	add	fp, sp, #0
  103aec:	e24dd00c 	sub	sp, sp, #12
  103af0:	e3a03032 	mov	r3, #50	; 0x32
  103af4:	e50b3008 	str	r3, [fp, #-8]
  103af8:	e3043014 	movw	r3, #16404	; 0x4014
  103afc:	e34f3fd0 	movt	r3, #65488	; 0xffd0
  103b00:	e5933000 	ldr	r3, [r3]
  103b04:	e2033001 	and	r3, r3, #1
  103b08:	e3530000 	cmp	r3, #0
  103b0c:	13a03001 	movne	r3, #1
  103b10:	03a03000 	moveq	r3, #0
  103b14:	e54b3009 	strb	r3, [fp, #-9]
  103b18:	e55b3009 	ldrb	r3, [fp, #-9]
  103b1c:	e3530000 	cmp	r3, #0
  103b20:	0a000004 	beq	103b38 <alt_clk_plls_settle_wait+0x54>
  103b24:	e51b3008 	ldr	r3, [fp, #-8]
  103b28:	e2432001 	sub	r2, r3, #1
  103b2c:	e50b2008 	str	r2, [fp, #-8]
  103b30:	e3530000 	cmp	r3, #0
  103b34:	1affffef 	bne	103af8 <alt_clk_plls_settle_wait+0x14>
  103b38:	e51b3008 	ldr	r3, [fp, #-8]
  103b3c:	e3530000 	cmp	r3, #0
  103b40:	da000001 	ble	103b4c <alt_clk_plls_settle_wait+0x68>
  103b44:	e3a03000 	mov	r3, #0
  103b48:	ea000000 	b	103b50 <alt_clk_plls_settle_wait+0x6c>
  103b4c:	e3e03000 	mvn	r3, #0
  103b50:	e1a00003 	mov	r0, r3
  103b54:	e24bd000 	sub	sp, fp, #0
  103b58:	e49db004 	pop	{fp}		; (ldr fp, [sp], #4)
  103b5c:	e12fff1e 	bx	lr

00103b60 <alt_clk_pll_lock_wait>:
  103b60:	e52db004 	push	{fp}		; (str fp, [sp, #-4]!)
  103b64:	e28db000 	add	fp, sp, #0
  103b68:	e24dd014 	sub	sp, sp, #20
  103b6c:	e1a03000 	mov	r3, r0
  103b70:	e50b1014 	str	r1, [fp, #-20]	; 0xffffffec
  103b74:	e54b300d 	strb	r3, [fp, #-13]
  103b78:	e3a03000 	mov	r3, #0
  103b7c:	e50b3008 	str	r3, [fp, #-8]
  103b80:	e55b300d 	ldrb	r3, [fp, #-13]
  103b84:	e3530009 	cmp	r3, #9
  103b88:	1a000002 	bne	103b98 <alt_clk_pll_lock_wait+0x38>
  103b8c:	e3a03040 	mov	r3, #64	; 0x40
  103b90:	e50b3008 	str	r3, [fp, #-8]
  103b94:	ea00000d 	b	103bd0 <alt_clk_pll_lock_wait+0x70>
  103b98:	e55b300d 	ldrb	r3, [fp, #-13]
  103b9c:	e353000a 	cmp	r3, #10
  103ba0:	1a000002 	bne	103bb0 <alt_clk_pll_lock_wait+0x50>
  103ba4:	e3a03080 	mov	r3, #128	; 0x80
  103ba8:	e50b3008 	str	r3, [fp, #-8]
  103bac:	ea000007 	b	103bd0 <alt_clk_pll_lock_wait+0x70>
  103bb0:	e55b300d 	ldrb	r3, [fp, #-13]
  103bb4:	e353000b 	cmp	r3, #11
  103bb8:	1a000002 	bne	103bc8 <alt_clk_pll_lock_wait+0x68>
  103bbc:	e3a03c01 	mov	r3, #256	; 0x100
  103bc0:	e50b3008 	str	r3, [fp, #-8]
  103bc4:	ea000001 	b	103bd0 <alt_clk_pll_lock_wait+0x70>
  103bc8:	e3e03008 	mvn	r3, #8
  103bcc:	ea000010 	b	103c14 <alt_clk_pll_lock_wait+0xb4>
  103bd0:	e3043008 	movw	r3, #16392	; 0x4008
  103bd4:	e34f3fd0 	movt	r3, #65488	; 0xffd0
  103bd8:	e5933000 	ldr	r3, [r3]
  103bdc:	e50b300c 	str	r3, [fp, #-12]
  103be0:	e51b200c 	ldr	r2, [fp, #-12]
  103be4:	e51b3008 	ldr	r3, [fp, #-8]
  103be8:	e0033002 	and	r3, r3, r2
  103bec:	e3530000 	cmp	r3, #0
  103bf0:	0a000001 	beq	103bfc <alt_clk_pll_lock_wait+0x9c>
  103bf4:	e3a03000 	mov	r3, #0
  103bf8:	ea000005 	b	103c14 <alt_clk_pll_lock_wait+0xb4>
  103bfc:	e51b3014 	ldr	r3, [fp, #-20]	; 0xffffffec
  103c00:	e2432001 	sub	r2, r3, #1
  103c04:	e50b2014 	str	r2, [fp, #-20]	; 0xffffffec
  103c08:	e3530000 	cmp	r3, #0
  103c0c:	1affffef 	bne	103bd0 <alt_clk_pll_lock_wait+0x70>
  103c10:	e3e0300b 	mvn	r3, #11
  103c14:	e1a00003 	mov	r0, r3
  103c18:	e24bd000 	sub	sp, fp, #0
  103c1c:	e49db004 	pop	{fp}		; (ldr fp, [sp], #4)
  103c20:	e12fff1e 	bx	lr

00103c24 <alt_clk_pllcounter_write>:
  103c24:	e52db004 	push	{fp}		; (str fp, [sp, #-4]!)
  103c28:	e28db000 	add	fp, sp, #0
  103c2c:	e24dd01c 	sub	sp, sp, #28
  103c30:	e50b0010 	str	r0, [fp, #-16]
  103c34:	e50b1014 	str	r1, [fp, #-20]	; 0xffffffec
  103c38:	e50b2018 	str	r2, [fp, #-24]	; 0xffffffe8
  103c3c:	e50b301c 	str	r3, [fp, #-28]	; 0xffffffe4
  103c40:	e51b3010 	ldr	r3, [fp, #-16]
  103c44:	e5932000 	ldr	r2, [r3]
  103c48:	e59b1004 	ldr	r1, [fp, #4]
  103c4c:	e59b3008 	ldr	r3, [fp, #8]
  103c50:	e1a03311 	lsl	r3, r1, r3
  103c54:	e1822003 	orr	r2, r2, r3
  103c58:	e51b3010 	ldr	r3, [fp, #-16]
  103c5c:	e5832000 	str	r2, [r3]
  103c60:	e51b3014 	ldr	r3, [fp, #-20]	; 0xffffffec
  103c64:	e5933000 	ldr	r3, [r3]
  103c68:	e50b3008 	str	r3, [fp, #-8]
  103c6c:	e51b2008 	ldr	r2, [fp, #-8]
  103c70:	e59b3004 	ldr	r3, [fp, #4]
  103c74:	e0033002 	and	r3, r3, r2
  103c78:	e3530000 	cmp	r3, #0
  103c7c:	0afffff7 	beq	103c60 <alt_clk_pllcounter_write+0x3c>
  103c80:	e51b3018 	ldr	r3, [fp, #-24]	; 0xffffffe8
  103c84:	e51b201c 	ldr	r2, [fp, #-28]	; 0xffffffe4
  103c88:	e5832000 	str	r2, [r3]
  103c8c:	e51b3010 	ldr	r3, [fp, #-16]
  103c90:	e5932000 	ldr	r2, [r3]
  103c94:	e59b1004 	ldr	r1, [fp, #4]
  103c98:	e59b3008 	ldr	r3, [fp, #8]
  103c9c:	e1a03311 	lsl	r3, r1, r3
  103ca0:	e1e03003 	mvn	r3, r3
  103ca4:	e0022003 	and	r2, r2, r3
  103ca8:	e51b3010 	ldr	r3, [fp, #-16]
  103cac:	e5832000 	str	r2, [r3]
  103cb0:	e320f000 	nop	{0}
  103cb4:	e24bd000 	sub	sp, fp, #0
  103cb8:	e49db004 	pop	{fp}		; (ldr fp, [sp], #4)
  103cbc:	e12fff1e 	bx	lr

00103cc0 <alt_clk_lock_status_clear>:
  103cc0:	e52db004 	push	{fp}		; (str fp, [sp, #-4]!)
  103cc4:	e28db000 	add	fp, sp, #0
  103cc8:	e24dd00c 	sub	sp, sp, #12
  103ccc:	e1a03000 	mov	r3, r0
  103cd0:	e54b3005 	strb	r3, [fp, #-5]
  103cd4:	e55b3005 	ldrb	r3, [fp, #-5]
  103cd8:	e3c3303f 	bic	r3, r3, #63	; 0x3f
  103cdc:	e3530000 	cmp	r3, #0
  103ce0:	0a000001 	beq	103cec <alt_clk_lock_status_clear+0x2c>
  103ce4:	e3e03008 	mvn	r3, #8
  103ce8:	ea000008 	b	103d10 <alt_clk_lock_status_clear+0x50>
  103cec:	e3043008 	movw	r3, #16392	; 0x4008
  103cf0:	e34f3fd0 	movt	r3, #65488	; 0xffd0
  103cf4:	e3042008 	movw	r2, #16392	; 0x4008
  103cf8:	e34f2fd0 	movt	r2, #65488	; 0xffd0
  103cfc:	e5921000 	ldr	r1, [r2]
  103d00:	e55b2005 	ldrb	r2, [fp, #-5]
  103d04:	e1812002 	orr	r2, r1, r2
  103d08:	e5832000 	str	r2, [r3]
  103d0c:	e3a03000 	mov	r3, #0
  103d10:	e1a00003 	mov	r0, r3
  103d14:	e24bd000 	sub	sp, fp, #0
  103d18:	e49db004 	pop	{fp}		; (ldr fp, [sp], #4)
  103d1c:	e12fff1e 	bx	lr

00103d20 <alt_clk_lock_status_get>:
  103d20:	e52db004 	push	{fp}		; (str fp, [sp, #-4]!)
  103d24:	e28db000 	add	fp, sp, #0
  103d28:	e3043008 	movw	r3, #16392	; 0x4008
  103d2c:	e34f3fd0 	movt	r3, #65488	; 0xffd0
  103d30:	e5933000 	ldr	r3, [r3]
  103d34:	e7e83053 	ubfx	r3, r3, #0, #9
  103d38:	e1a00003 	mov	r0, r3
  103d3c:	e24bd000 	sub	sp, fp, #0
  103d40:	e49db004 	pop	{fp}		; (ldr fp, [sp], #4)
  103d44:	e12fff1e 	bx	lr

00103d48 <alt_clk_pll_is_locked>:
  103d48:	e52db004 	push	{fp}		; (str fp, [sp, #-4]!)
  103d4c:	e28db000 	add	fp, sp, #0
  103d50:	e24dd014 	sub	sp, sp, #20
  103d54:	e1a03000 	mov	r3, r0
  103d58:	e54b300d 	strb	r3, [fp, #-13]
  103d5c:	e3e03008 	mvn	r3, #8
  103d60:	e50b3008 	str	r3, [fp, #-8]
  103d64:	e55b300d 	ldrb	r3, [fp, #-13]
  103d68:	e3530009 	cmp	r3, #9
  103d6c:	1a000009 	bne	103d98 <alt_clk_pll_is_locked+0x50>
  103d70:	e3043008 	movw	r3, #16392	; 0x4008
  103d74:	e34f3fd0 	movt	r3, #65488	; 0xffd0
  103d78:	e5933000 	ldr	r3, [r3]
  103d7c:	e2033040 	and	r3, r3, #64	; 0x40
  103d80:	e3530000 	cmp	r3, #0
  103d84:	13a03001 	movne	r3, #1
  103d88:	03a03000 	moveq	r3, #0
  103d8c:	e6ef3073 	uxtb	r3, r3
  103d90:	e50b3008 	str	r3, [fp, #-8]
  103d94:	ea000018 	b	103dfc <alt_clk_pll_is_locked+0xb4>
  103d98:	e55b300d 	ldrb	r3, [fp, #-13]
  103d9c:	e353000a 	cmp	r3, #10
  103da0:	1a000009 	bne	103dcc <alt_clk_pll_is_locked+0x84>
  103da4:	e3043008 	movw	r3, #16392	; 0x4008
  103da8:	e34f3fd0 	movt	r3, #65488	; 0xffd0
  103dac:	e5933000 	ldr	r3, [r3]
  103db0:	e2033080 	and	r3, r3, #128	; 0x80
  103db4:	e3530000 	cmp	r3, #0
  103db8:	13a03001 	movne	r3, #1
  103dbc:	03a03000 	moveq	r3, #0
  103dc0:	e6ef3073 	uxtb	r3, r3
  103dc4:	e50b3008 	str	r3, [fp, #-8]
  103dc8:	ea00000b 	b	103dfc <alt_clk_pll_is_locked+0xb4>
  103dcc:	e55b300d 	ldrb	r3, [fp, #-13]
  103dd0:	e353000b 	cmp	r3, #11
  103dd4:	1a000008 	bne	103dfc <alt_clk_pll_is_locked+0xb4>
  103dd8:	e3043008 	movw	r3, #16392	; 0x4008
  103ddc:	e34f3fd0 	movt	r3, #65488	; 0xffd0
  103de0:	e5933000 	ldr	r3, [r3]
  103de4:	e2033c01 	and	r3, r3, #256	; 0x100
  103de8:	e3530000 	cmp	r3, #0
  103dec:	13a03001 	movne	r3, #1
  103df0:	03a03000 	moveq	r3, #0
  103df4:	e6ef3073 	uxtb	r3, r3
  103df8:	e50b3008 	str	r3, [fp, #-8]
  103dfc:	e51b3008 	ldr	r3, [fp, #-8]
  103e00:	e1a00003 	mov	r0, r3
  103e04:	e24bd000 	sub	sp, fp, #0
  103e08:	e49db004 	pop	{fp}		; (ldr fp, [sp], #4)
  103e0c:	e12fff1e 	bx	lr

00103e10 <alt_clk_safe_mode_clear>:
  103e10:	e92d4800 	push	{fp, lr}
  103e14:	e28db004 	add	fp, sp, #4
  103e18:	e24dd008 	sub	sp, sp, #8
  103e1c:	e3e03000 	mvn	r3, #0
  103e20:	e50b3008 	str	r3, [fp, #-8]
  103e24:	e3043060 	movw	r3, #16480	; 0x4060
  103e28:	e34f3fd0 	movt	r3, #65488	; 0xffd0
  103e2c:	e5933000 	ldr	r3, [r3]
  103e30:	e50b300c 	str	r3, [fp, #-12]
  103e34:	e3043060 	movw	r3, #16480	; 0x4060
  103e38:	e34f3fd0 	movt	r3, #65488	; 0xffd0
  103e3c:	e51b200c 	ldr	r2, [fp, #-12]
  103e40:	e3c2200c 	bic	r2, r2, #12
  103e44:	e5832000 	str	r2, [r3]
  103e48:	e3a03901 	mov	r3, #16384	; 0x4000
  103e4c:	e34f3fd0 	movt	r3, #65488	; 0xffd0
  103e50:	e3a02901 	mov	r2, #16384	; 0x4000
  103e54:	e34f2fd0 	movt	r2, #65488	; 0xffd0
  103e58:	e5922000 	ldr	r2, [r2]
  103e5c:	e3822001 	orr	r2, r2, #1
  103e60:	e5832000 	str	r2, [r3]
  103e64:	ebffff1e 	bl	103ae4 <alt_clk_plls_settle_wait>
  103e68:	e50b0008 	str	r0, [fp, #-8]
  103e6c:	e3043060 	movw	r3, #16480	; 0x4060
  103e70:	e34f3fd0 	movt	r3, #65488	; 0xffd0
  103e74:	e3042060 	movw	r2, #16480	; 0x4060
  103e78:	e34f2fd0 	movt	r2, #65488	; 0xffd0
  103e7c:	e5922000 	ldr	r2, [r2]
  103e80:	e3c2100c 	bic	r1, r2, #12
  103e84:	e51b200c 	ldr	r2, [fp, #-12]
  103e88:	e202200c 	and	r2, r2, #12
  103e8c:	e1812002 	orr	r2, r1, r2
  103e90:	e5832000 	str	r2, [r3]
  103e94:	e51b3008 	ldr	r3, [fp, #-8]
  103e98:	e1a00003 	mov	r0, r3
  103e9c:	e24bd004 	sub	sp, fp, #4
  103ea0:	e8bd8800 	pop	{fp, pc}

00103ea4 <alt_clk_is_in_safe_mode>:
  103ea4:	e52db004 	push	{fp}		; (str fp, [sp, #-4]!)
  103ea8:	e28db000 	add	fp, sp, #0
  103eac:	e24dd014 	sub	sp, sp, #20
  103eb0:	e1a03000 	mov	r3, r0
  103eb4:	e54b300d 	strb	r3, [fp, #-13]
  103eb8:	e3a03000 	mov	r3, #0
  103ebc:	e54b3005 	strb	r3, [fp, #-5]
  103ec0:	e55b300d 	ldrb	r3, [fp, #-13]
  103ec4:	e3530000 	cmp	r3, #0
  103ec8:	1a000008 	bne	103ef0 <alt_clk_is_in_safe_mode+0x4c>
  103ecc:	e3a03901 	mov	r3, #16384	; 0x4000
  103ed0:	e34f3fd0 	movt	r3, #65488	; 0xffd0
  103ed4:	e5933000 	ldr	r3, [r3]
  103ed8:	e2033001 	and	r3, r3, #1
  103edc:	e3530000 	cmp	r3, #0
  103ee0:	13a03001 	movne	r3, #1
  103ee4:	03a03000 	moveq	r3, #0
  103ee8:	e54b3005 	strb	r3, [fp, #-5]
  103eec:	ea000019 	b	103f58 <alt_clk_is_in_safe_mode+0xb4>
  103ef0:	e55b300d 	ldrb	r3, [fp, #-13]
  103ef4:	e3530001 	cmp	r3, #1
  103ef8:	1a000016 	bne	103f58 <alt_clk_is_in_safe_mode+0xb4>
  103efc:	e3043010 	movw	r3, #16400	; 0x4010
  103f00:	e34f3fd0 	movt	r3, #65488	; 0xffd0
  103f04:	e5933000 	ldr	r3, [r3]
  103f08:	e50b300c 	str	r3, [fp, #-12]
  103f0c:	e51b300c 	ldr	r3, [fp, #-12]
  103f10:	e2033001 	and	r3, r3, #1
  103f14:	e3530000 	cmp	r3, #0
  103f18:	0a000002 	beq	103f28 <alt_clk_is_in_safe_mode+0x84>
  103f1c:	e3a03001 	mov	r3, #1
  103f20:	e54b3005 	strb	r3, [fp, #-5]
  103f24:	ea00000b 	b	103f58 <alt_clk_is_in_safe_mode+0xb4>
  103f28:	e51b300c 	ldr	r3, [fp, #-12]
  103f2c:	e2033002 	and	r3, r3, #2
  103f30:	e3530000 	cmp	r3, #0
  103f34:	0a000007 	beq	103f58 <alt_clk_is_in_safe_mode+0xb4>
  103f38:	e3a03901 	mov	r3, #16384	; 0x4000
  103f3c:	e34f3fd0 	movt	r3, #65488	; 0xffd0
  103f40:	e5933000 	ldr	r3, [r3]
  103f44:	e2033001 	and	r3, r3, #1
  103f48:	e3530000 	cmp	r3, #0
  103f4c:	13a03001 	movne	r3, #1
  103f50:	03a03000 	moveq	r3, #0
  103f54:	e54b3005 	strb	r3, [fp, #-5]
  103f58:	e55b3005 	ldrb	r3, [fp, #-5]
  103f5c:	e1a00003 	mov	r0, r3
  103f60:	e24bd000 	sub	sp, fp, #0
  103f64:	e49db004 	pop	{fp}		; (ldr fp, [sp], #4)
  103f68:	e12fff1e 	bx	lr

00103f6c <alt_clk_pll_bypass_disable>:
  103f6c:	e92d4800 	push	{fp, lr}
  103f70:	e28db004 	add	fp, sp, #4
  103f74:	e24dd018 	sub	sp, sp, #24
  103f78:	e1a03000 	mov	r3, r0
  103f7c:	e54b3015 	strb	r3, [fp, #-21]	; 0xffffffeb
  103f80:	e3e03008 	mvn	r3, #8
  103f84:	e50b3008 	str	r3, [fp, #-8]
  103f88:	e3a03000 	mov	r3, #0
  103f8c:	e54b300d 	strb	r3, [fp, #-13]
  103f90:	e3a03000 	mov	r3, #0
  103f94:	e54b300e 	strb	r3, [fp, #-14]
  103f98:	e55b3015 	ldrb	r3, [fp, #-21]	; 0xffffffeb
  103f9c:	e1a00003 	mov	r0, r3
  103fa0:	ebffff68 	bl	103d48 <alt_clk_pll_is_locked>
  103fa4:	e1a03000 	mov	r3, r0
  103fa8:	e3530001 	cmp	r3, #1
  103fac:	1a0000d7 	bne	104310 <alt_clk_pll_bypass_disable+0x3a4>
  103fb0:	e55b3015 	ldrb	r3, [fp, #-21]	; 0xffffffeb
  103fb4:	e3530009 	cmp	r3, #9
  103fb8:	1a00005a 	bne	104128 <alt_clk_pll_bypass_disable+0x1bc>
  103fbc:	e3043070 	movw	r3, #16496	; 0x4070
  103fc0:	e34f3fd0 	movt	r3, #65488	; 0xffd0
  103fc4:	e5933000 	ldr	r3, [r3]
  103fc8:	e50b300c 	str	r3, [fp, #-12]
  103fcc:	e3043060 	movw	r3, #16480	; 0x4060
  103fd0:	e34f3fd0 	movt	r3, #65488	; 0xffd0
  103fd4:	e5933000 	ldr	r3, [r3]
  103fd8:	e50b3014 	str	r3, [fp, #-20]	; 0xffffffec
  103fdc:	e51b3014 	ldr	r3, [fp, #-20]	; 0xffffffec
  103fe0:	e2033004 	and	r3, r3, #4
  103fe4:	e3530000 	cmp	r3, #0
  103fe8:	0a000005 	beq	104004 <alt_clk_pll_bypass_disable+0x98>
  103fec:	e51b300c 	ldr	r3, [fp, #-12]
  103ff0:	e2033001 	and	r3, r3, #1
  103ff4:	e3530000 	cmp	r3, #0
  103ff8:	1a000001 	bne	104004 <alt_clk_pll_bypass_disable+0x98>
  103ffc:	e3a03001 	mov	r3, #1
  104000:	e54b300d 	strb	r3, [fp, #-13]
  104004:	e51b3014 	ldr	r3, [fp, #-20]	; 0xffffffec
  104008:	e2033008 	and	r3, r3, #8
  10400c:	e3530000 	cmp	r3, #0
  104010:	0a000005 	beq	10402c <alt_clk_pll_bypass_disable+0xc0>
  104014:	e51b300c 	ldr	r3, [fp, #-12]
  104018:	e2033002 	and	r3, r3, #2
  10401c:	e3530000 	cmp	r3, #0
  104020:	1a000001 	bne	10402c <alt_clk_pll_bypass_disable+0xc0>
  104024:	e3a03001 	mov	r3, #1
  104028:	e54b300e 	strb	r3, [fp, #-14]
  10402c:	e51b3014 	ldr	r3, [fp, #-20]	; 0xffffffec
  104030:	e50b300c 	str	r3, [fp, #-12]
  104034:	e55b300d 	ldrb	r3, [fp, #-13]
  104038:	e3530000 	cmp	r3, #0
  10403c:	0a000002 	beq	10404c <alt_clk_pll_bypass_disable+0xe0>
  104040:	e51b300c 	ldr	r3, [fp, #-12]
  104044:	e3c33004 	bic	r3, r3, #4
  104048:	e50b300c 	str	r3, [fp, #-12]
  10404c:	e55b300e 	ldrb	r3, [fp, #-14]
  104050:	e3530000 	cmp	r3, #0
  104054:	0a000002 	beq	104064 <alt_clk_pll_bypass_disable+0xf8>
  104058:	e51b300c 	ldr	r3, [fp, #-12]
  10405c:	e3c33008 	bic	r3, r3, #8
  104060:	e50b300c 	str	r3, [fp, #-12]
  104064:	e55b300d 	ldrb	r3, [fp, #-13]
  104068:	e3530000 	cmp	r3, #0
  10406c:	1a000002 	bne	10407c <alt_clk_pll_bypass_disable+0x110>
  104070:	e55b300e 	ldrb	r3, [fp, #-14]
  104074:	e3530000 	cmp	r3, #0
  104078:	0a000003 	beq	10408c <alt_clk_pll_bypass_disable+0x120>
  10407c:	e3043060 	movw	r3, #16480	; 0x4060
  104080:	e34f3fd0 	movt	r3, #65488	; 0xffd0
  104084:	e51b200c 	ldr	r2, [fp, #-12]
  104088:	e5832000 	str	r2, [r3]
  10408c:	e3043040 	movw	r3, #16448	; 0x4040
  104090:	e34f3fd0 	movt	r3, #65488	; 0xffd0
  104094:	e5933000 	ldr	r3, [r3]
  104098:	e50b300c 	str	r3, [fp, #-12]
  10409c:	e3043040 	movw	r3, #16448	; 0x4040
  1040a0:	e34f3fd0 	movt	r3, #65488	; 0xffd0
  1040a4:	e51b200c 	ldr	r2, [fp, #-12]
  1040a8:	e3822401 	orr	r2, r2, #16777216	; 0x1000000
  1040ac:	e5832000 	str	r2, [r3]
  1040b0:	e3043040 	movw	r3, #16448	; 0x4040
  1040b4:	e34f3fd0 	movt	r3, #65488	; 0xffd0
  1040b8:	e51b200c 	ldr	r2, [fp, #-12]
  1040bc:	e3c22401 	bic	r2, r2, #16777216	; 0x1000000
  1040c0:	e5832000 	str	r2, [r3]
  1040c4:	ebfffe86 	bl	103ae4 <alt_clk_plls_settle_wait>
  1040c8:	e3043004 	movw	r3, #16388	; 0x4004
  1040cc:	e34f3fd0 	movt	r3, #65488	; 0xffd0
  1040d0:	e3042004 	movw	r2, #16388	; 0x4004
  1040d4:	e34f2fd0 	movt	r2, #65488	; 0xffd0
  1040d8:	e5922000 	ldr	r2, [r2]
  1040dc:	e3c22001 	bic	r2, r2, #1
  1040e0:	e5832000 	str	r2, [r3]
  1040e4:	ebfffe7e 	bl	103ae4 <alt_clk_plls_settle_wait>
  1040e8:	e50b0008 	str	r0, [fp, #-8]
  1040ec:	e55b300d 	ldrb	r3, [fp, #-13]
  1040f0:	e3530000 	cmp	r3, #0
  1040f4:	1a000002 	bne	104104 <alt_clk_pll_bypass_disable+0x198>
  1040f8:	e55b300e 	ldrb	r3, [fp, #-14]
  1040fc:	e3530000 	cmp	r3, #0
  104100:	0a000084 	beq	104318 <alt_clk_pll_bypass_disable+0x3ac>
  104104:	e3a0101e 	mov	r1, #30
  104108:	e3040060 	movw	r0, #16480	; 0x4060
  10410c:	e34f0fd0 	movt	r0, #65488	; 0xffd0
  104110:	ebfffe61 	bl	103a9c <alt_clk_mgr_wait>
  104114:	e3043060 	movw	r3, #16480	; 0x4060
  104118:	e34f3fd0 	movt	r3, #65488	; 0xffd0
  10411c:	e51b2014 	ldr	r2, [fp, #-20]	; 0xffffffec
  104120:	e5832000 	str	r2, [r3]
  104124:	ea00007b 	b	104318 <alt_clk_pll_bypass_disable+0x3ac>
  104128:	e55b3015 	ldrb	r3, [fp, #-21]	; 0xffffffeb
  10412c:	e353000a 	cmp	r3, #10
  104130:	1a00005a 	bne	1042a0 <alt_clk_pll_bypass_disable+0x334>
  104134:	e3043070 	movw	r3, #16496	; 0x4070
  104138:	e34f3fd0 	movt	r3, #65488	; 0xffd0
  10413c:	e5933000 	ldr	r3, [r3]
  104140:	e50b300c 	str	r3, [fp, #-12]
  104144:	e3043060 	movw	r3, #16480	; 0x4060
  104148:	e34f3fd0 	movt	r3, #65488	; 0xffd0
  10414c:	e5933000 	ldr	r3, [r3]
  104150:	e50b3014 	str	r3, [fp, #-20]	; 0xffffffec
  104154:	e51b3014 	ldr	r3, [fp, #-20]	; 0xffffffec
  104158:	e2033004 	and	r3, r3, #4
  10415c:	e3530000 	cmp	r3, #0
  104160:	0a000005 	beq	10417c <alt_clk_pll_bypass_disable+0x210>
  104164:	e51b300c 	ldr	r3, [fp, #-12]
  104168:	e2033001 	and	r3, r3, #1
  10416c:	e3530000 	cmp	r3, #0
  104170:	0a000001 	beq	10417c <alt_clk_pll_bypass_disable+0x210>
  104174:	e3a03001 	mov	r3, #1
  104178:	e54b300d 	strb	r3, [fp, #-13]
  10417c:	e51b3014 	ldr	r3, [fp, #-20]	; 0xffffffec
  104180:	e2033008 	and	r3, r3, #8
  104184:	e3530000 	cmp	r3, #0
  104188:	0a000005 	beq	1041a4 <alt_clk_pll_bypass_disable+0x238>
  10418c:	e51b300c 	ldr	r3, [fp, #-12]
  104190:	e2033002 	and	r3, r3, #2
  104194:	e3530000 	cmp	r3, #0
  104198:	0a000001 	beq	1041a4 <alt_clk_pll_bypass_disable+0x238>
  10419c:	e3a03001 	mov	r3, #1
  1041a0:	e54b300e 	strb	r3, [fp, #-14]
  1041a4:	e51b3014 	ldr	r3, [fp, #-20]	; 0xffffffec
  1041a8:	e50b300c 	str	r3, [fp, #-12]
  1041ac:	e55b300d 	ldrb	r3, [fp, #-13]
  1041b0:	e3530000 	cmp	r3, #0
  1041b4:	0a000002 	beq	1041c4 <alt_clk_pll_bypass_disable+0x258>
  1041b8:	e51b300c 	ldr	r3, [fp, #-12]
  1041bc:	e3c33004 	bic	r3, r3, #4
  1041c0:	e50b300c 	str	r3, [fp, #-12]
  1041c4:	e55b300e 	ldrb	r3, [fp, #-14]
  1041c8:	e3530000 	cmp	r3, #0
  1041cc:	0a000002 	beq	1041dc <alt_clk_pll_bypass_disable+0x270>
  1041d0:	e51b300c 	ldr	r3, [fp, #-12]
  1041d4:	e3c33008 	bic	r3, r3, #8
  1041d8:	e50b300c 	str	r3, [fp, #-12]
  1041dc:	e55b300d 	ldrb	r3, [fp, #-13]
  1041e0:	e3530000 	cmp	r3, #0
  1041e4:	1a000002 	bne	1041f4 <alt_clk_pll_bypass_disable+0x288>
  1041e8:	e55b300e 	ldrb	r3, [fp, #-14]
  1041ec:	e3530000 	cmp	r3, #0
  1041f0:	0a000003 	beq	104204 <alt_clk_pll_bypass_disable+0x298>
  1041f4:	e3043060 	movw	r3, #16480	; 0x4060
  1041f8:	e34f3fd0 	movt	r3, #65488	; 0xffd0
  1041fc:	e51b200c 	ldr	r2, [fp, #-12]
  104200:	e5832000 	str	r2, [r3]
  104204:	e3043080 	movw	r3, #16512	; 0x4080
  104208:	e34f3fd0 	movt	r3, #65488	; 0xffd0
  10420c:	e5933000 	ldr	r3, [r3]
  104210:	e50b300c 	str	r3, [fp, #-12]
  104214:	e3043080 	movw	r3, #16512	; 0x4080
  104218:	e34f3fd0 	movt	r3, #65488	; 0xffd0
  10421c:	e51b200c 	ldr	r2, [fp, #-12]
  104220:	e3822401 	orr	r2, r2, #16777216	; 0x1000000
  104224:	e5832000 	str	r2, [r3]
  104228:	ebfffe2d 	bl	103ae4 <alt_clk_plls_settle_wait>
  10422c:	e3043080 	movw	r3, #16512	; 0x4080
  104230:	e34f3fd0 	movt	r3, #65488	; 0xffd0
  104234:	e51b200c 	ldr	r2, [fp, #-12]
  104238:	e3c22401 	bic	r2, r2, #16777216	; 0x1000000
  10423c:	e5832000 	str	r2, [r3]
  104240:	e3043004 	movw	r3, #16388	; 0x4004
  104244:	e34f3fd0 	movt	r3, #65488	; 0xffd0
  104248:	e3042004 	movw	r2, #16388	; 0x4004
  10424c:	e34f2fd0 	movt	r2, #65488	; 0xffd0
  104250:	e5922000 	ldr	r2, [r2]
  104254:	e3c22008 	bic	r2, r2, #8
  104258:	e5832000 	str	r2, [r3]
  10425c:	ebfffe20 	bl	103ae4 <alt_clk_plls_settle_wait>
  104260:	e50b0008 	str	r0, [fp, #-8]
  104264:	e55b300d 	ldrb	r3, [fp, #-13]
  104268:	e3530000 	cmp	r3, #0
  10426c:	1a000002 	bne	10427c <alt_clk_pll_bypass_disable+0x310>
  104270:	e55b300e 	ldrb	r3, [fp, #-14]
  104274:	e3530000 	cmp	r3, #0
  104278:	0a000026 	beq	104318 <alt_clk_pll_bypass_disable+0x3ac>
  10427c:	e3a0101e 	mov	r1, #30
  104280:	e3040060 	movw	r0, #16480	; 0x4060
  104284:	e34f0fd0 	movt	r0, #65488	; 0xffd0
  104288:	ebfffe03 	bl	103a9c <alt_clk_mgr_wait>
  10428c:	e3043060 	movw	r3, #16480	; 0x4060
  104290:	e34f3fd0 	movt	r3, #65488	; 0xffd0
  104294:	e51b2014 	ldr	r2, [fp, #-20]	; 0xffffffec
  104298:	e5832000 	str	r2, [r3]
  10429c:	ea00001d 	b	104318 <alt_clk_pll_bypass_disable+0x3ac>
  1042a0:	e55b3015 	ldrb	r3, [fp, #-21]	; 0xffffffeb
  1042a4:	e353000b 	cmp	r3, #11
  1042a8:	1a00001a 	bne	104318 <alt_clk_pll_bypass_disable+0x3ac>
  1042ac:	e30430c0 	movw	r3, #16576	; 0x40c0
  1042b0:	e34f3fd0 	movt	r3, #65488	; 0xffd0
  1042b4:	e5933000 	ldr	r3, [r3]
  1042b8:	e50b300c 	str	r3, [fp, #-12]
  1042bc:	e30430c0 	movw	r3, #16576	; 0x40c0
  1042c0:	e34f3fd0 	movt	r3, #65488	; 0xffd0
  1042c4:	e51b200c 	ldr	r2, [fp, #-12]
  1042c8:	e3822401 	orr	r2, r2, #16777216	; 0x1000000
  1042cc:	e5832000 	str	r2, [r3]
  1042d0:	e30430c0 	movw	r3, #16576	; 0x40c0
  1042d4:	e34f3fd0 	movt	r3, #65488	; 0xffd0
  1042d8:	e51b200c 	ldr	r2, [fp, #-12]
  1042dc:	e3c22401 	bic	r2, r2, #16777216	; 0x1000000
  1042e0:	e5832000 	str	r2, [r3]
  1042e4:	ebfffdfe 	bl	103ae4 <alt_clk_plls_settle_wait>
  1042e8:	e3043004 	movw	r3, #16388	; 0x4004
  1042ec:	e34f3fd0 	movt	r3, #65488	; 0xffd0
  1042f0:	e3042004 	movw	r2, #16388	; 0x4004
  1042f4:	e34f2fd0 	movt	r2, #65488	; 0xffd0
  1042f8:	e5922000 	ldr	r2, [r2]
  1042fc:	e3c22004 	bic	r2, r2, #4
  104300:	e5832000 	str	r2, [r3]
  104304:	ebfffdf6 	bl	103ae4 <alt_clk_plls_settle_wait>
  104308:	e50b0008 	str	r0, [fp, #-8]
  10430c:	ea000001 	b	104318 <alt_clk_pll_bypass_disable+0x3ac>
  104310:	e3e03000 	mvn	r3, #0
  104314:	e50b3008 	str	r3, [fp, #-8]
  104318:	e51b3008 	ldr	r3, [fp, #-8]
  10431c:	e1a00003 	mov	r0, r3
  104320:	e24bd004 	sub	sp, fp, #4
  104324:	e8bd8800 	pop	{fp, pc}

00104328 <alt_clk_pll_bypass_enable>:
  104328:	e92d4800 	push	{fp, lr}
  10432c:	e28db004 	add	fp, sp, #4
  104330:	e24dd018 	sub	sp, sp, #24
  104334:	e1a03000 	mov	r3, r0
  104338:	e1a02001 	mov	r2, r1
  10433c:	e54b3015 	strb	r3, [fp, #-21]	; 0xffffffeb
  104340:	e1a03002 	mov	r3, r2
  104344:	e54b3016 	strb	r3, [fp, #-22]	; 0xffffffea
  104348:	e3e03008 	mvn	r3, #8
  10434c:	e50b3008 	str	r3, [fp, #-8]
  104350:	e3a03000 	mov	r3, #0
  104354:	e54b300d 	strb	r3, [fp, #-13]
  104358:	e3a03000 	mov	r3, #0
  10435c:	e54b300e 	strb	r3, [fp, #-14]
  104360:	e55b3015 	ldrb	r3, [fp, #-21]	; 0xffffffeb
  104364:	e3530009 	cmp	r3, #9
  104368:	1a000051 	bne	1044b4 <alt_clk_pll_bypass_enable+0x18c>
  10436c:	e55b3016 	ldrb	r3, [fp, #-22]	; 0xffffffea
  104370:	e2233001 	eor	r3, r3, #1
  104374:	e6ef3073 	uxtb	r3, r3
  104378:	e3530000 	cmp	r3, #0
  10437c:	0a000049 	beq	1044a8 <alt_clk_pll_bypass_enable+0x180>
  104380:	e3043070 	movw	r3, #16496	; 0x4070
  104384:	e34f3fd0 	movt	r3, #65488	; 0xffd0
  104388:	e5933000 	ldr	r3, [r3]
  10438c:	e50b300c 	str	r3, [fp, #-12]
  104390:	e3043060 	movw	r3, #16480	; 0x4060
  104394:	e34f3fd0 	movt	r3, #65488	; 0xffd0
  104398:	e5933000 	ldr	r3, [r3]
  10439c:	e50b3014 	str	r3, [fp, #-20]	; 0xffffffec
  1043a0:	e51b3014 	ldr	r3, [fp, #-20]	; 0xffffffec
  1043a4:	e2033004 	and	r3, r3, #4
  1043a8:	e3530000 	cmp	r3, #0
  1043ac:	0a000005 	beq	1043c8 <alt_clk_pll_bypass_enable+0xa0>
  1043b0:	e51b300c 	ldr	r3, [fp, #-12]
  1043b4:	e2033001 	and	r3, r3, #1
  1043b8:	e3530000 	cmp	r3, #0
  1043bc:	1a000001 	bne	1043c8 <alt_clk_pll_bypass_enable+0xa0>
  1043c0:	e3a03001 	mov	r3, #1
  1043c4:	e54b300d 	strb	r3, [fp, #-13]
  1043c8:	e51b3014 	ldr	r3, [fp, #-20]	; 0xffffffec
  1043cc:	e2033008 	and	r3, r3, #8
  1043d0:	e3530000 	cmp	r3, #0
  1043d4:	0a000005 	beq	1043f0 <alt_clk_pll_bypass_enable+0xc8>
  1043d8:	e51b300c 	ldr	r3, [fp, #-12]
  1043dc:	e2033002 	and	r3, r3, #2
  1043e0:	e3530000 	cmp	r3, #0
  1043e4:	1a000001 	bne	1043f0 <alt_clk_pll_bypass_enable+0xc8>
  1043e8:	e3a03001 	mov	r3, #1
  1043ec:	e54b300e 	strb	r3, [fp, #-14]
  1043f0:	e51b3014 	ldr	r3, [fp, #-20]	; 0xffffffec
  1043f4:	e50b300c 	str	r3, [fp, #-12]
  1043f8:	e55b300d 	ldrb	r3, [fp, #-13]
  1043fc:	e3530000 	cmp	r3, #0
  104400:	0a000002 	beq	104410 <alt_clk_pll_bypass_enable+0xe8>
  104404:	e51b300c 	ldr	r3, [fp, #-12]
  104408:	e3c33004 	bic	r3, r3, #4
  10440c:	e50b300c 	str	r3, [fp, #-12]
  104410:	e55b300e 	ldrb	r3, [fp, #-14]
  104414:	e3530000 	cmp	r3, #0
  104418:	0a000002 	beq	104428 <alt_clk_pll_bypass_enable+0x100>
  10441c:	e51b300c 	ldr	r3, [fp, #-12]
  104420:	e3c33008 	bic	r3, r3, #8
  104424:	e50b300c 	str	r3, [fp, #-12]
  104428:	e55b300d 	ldrb	r3, [fp, #-13]
  10442c:	e3530000 	cmp	r3, #0
  104430:	1a000002 	bne	104440 <alt_clk_pll_bypass_enable+0x118>
  104434:	e55b300e 	ldrb	r3, [fp, #-14]
  104438:	e3530000 	cmp	r3, #0
  10443c:	0a000003 	beq	104450 <alt_clk_pll_bypass_enable+0x128>
  104440:	e3043060 	movw	r3, #16480	; 0x4060
  104444:	e34f3fd0 	movt	r3, #65488	; 0xffd0
  104448:	e51b200c 	ldr	r2, [fp, #-12]
  10444c:	e5832000 	str	r2, [r3]
  104450:	e3043004 	movw	r3, #16388	; 0x4004
  104454:	e34f3fd0 	movt	r3, #65488	; 0xffd0
  104458:	e3042004 	movw	r2, #16388	; 0x4004
  10445c:	e34f2fd0 	movt	r2, #65488	; 0xffd0
  104460:	e5922000 	ldr	r2, [r2]
  104464:	e3822001 	orr	r2, r2, #1
  104468:	e5832000 	str	r2, [r3]
  10446c:	ebfffd9c 	bl	103ae4 <alt_clk_plls_settle_wait>
  104470:	e50b0008 	str	r0, [fp, #-8]
  104474:	e55b300d 	ldrb	r3, [fp, #-13]
  104478:	e3530000 	cmp	r3, #0
  10447c:	1a000002 	bne	10448c <alt_clk_pll_bypass_enable+0x164>
  104480:	e55b300e 	ldrb	r3, [fp, #-14]
  104484:	e3530000 	cmp	r3, #0
  104488:	0a000003 	beq	10449c <alt_clk_pll_bypass_enable+0x174>
  10448c:	e3043060 	movw	r3, #16480	; 0x4060
  104490:	e34f3fd0 	movt	r3, #65488	; 0xffd0
  104494:	e51b2014 	ldr	r2, [fp, #-20]	; 0xffffffec
  104498:	e5832000 	str	r2, [r3]
  10449c:	e3a03000 	mov	r3, #0
  1044a0:	e50b3008 	str	r3, [fp, #-8]
  1044a4:	ea000073 	b	104678 <alt_clk_pll_bypass_enable+0x350>
  1044a8:	e3e03008 	mvn	r3, #8
  1044ac:	e50b3008 	str	r3, [fp, #-8]
  1044b0:	ea000070 	b	104678 <alt_clk_pll_bypass_enable+0x350>
  1044b4:	e55b3015 	ldrb	r3, [fp, #-21]	; 0xffffffeb
  1044b8:	e353000a 	cmp	r3, #10
  1044bc:	1a000056 	bne	10461c <alt_clk_pll_bypass_enable+0x2f4>
  1044c0:	e3043070 	movw	r3, #16496	; 0x4070
  1044c4:	e34f3fd0 	movt	r3, #65488	; 0xffd0
  1044c8:	e5933000 	ldr	r3, [r3]
  1044cc:	e50b300c 	str	r3, [fp, #-12]
  1044d0:	e3043060 	movw	r3, #16480	; 0x4060
  1044d4:	e34f3fd0 	movt	r3, #65488	; 0xffd0
  1044d8:	e5933000 	ldr	r3, [r3]
  1044dc:	e50b3014 	str	r3, [fp, #-20]	; 0xffffffec
  1044e0:	e51b3014 	ldr	r3, [fp, #-20]	; 0xffffffec
  1044e4:	e2033004 	and	r3, r3, #4
  1044e8:	e3530000 	cmp	r3, #0
  1044ec:	0a000005 	beq	104508 <alt_clk_pll_bypass_enable+0x1e0>
  1044f0:	e51b300c 	ldr	r3, [fp, #-12]
  1044f4:	e2033001 	and	r3, r3, #1
  1044f8:	e3530000 	cmp	r3, #0
  1044fc:	0a000001 	beq	104508 <alt_clk_pll_bypass_enable+0x1e0>
  104500:	e3a03001 	mov	r3, #1
  104504:	e54b300d 	strb	r3, [fp, #-13]
  104508:	e51b3014 	ldr	r3, [fp, #-20]	; 0xffffffec
  10450c:	e2033008 	and	r3, r3, #8
  104510:	e3530000 	cmp	r3, #0
  104514:	0a000005 	beq	104530 <alt_clk_pll_bypass_enable+0x208>
  104518:	e51b300c 	ldr	r3, [fp, #-12]
  10451c:	e2033002 	and	r3, r3, #2
  104520:	e3530000 	cmp	r3, #0
  104524:	0a000001 	beq	104530 <alt_clk_pll_bypass_enable+0x208>
  104528:	e3a03001 	mov	r3, #1
  10452c:	e54b300e 	strb	r3, [fp, #-14]
  104530:	e51b3014 	ldr	r3, [fp, #-20]	; 0xffffffec
  104534:	e50b300c 	str	r3, [fp, #-12]
  104538:	e55b300d 	ldrb	r3, [fp, #-13]
  10453c:	e3530000 	cmp	r3, #0
  104540:	0a000002 	beq	104550 <alt_clk_pll_bypass_enable+0x228>
  104544:	e51b300c 	ldr	r3, [fp, #-12]
  104548:	e3c33004 	bic	r3, r3, #4
  10454c:	e50b300c 	str	r3, [fp, #-12]
  104550:	e55b300e 	ldrb	r3, [fp, #-14]
  104554:	e3530000 	cmp	r3, #0
  104558:	0a000002 	beq	104568 <alt_clk_pll_bypass_enable+0x240>
  10455c:	e51b300c 	ldr	r3, [fp, #-12]
  104560:	e3c33008 	bic	r3, r3, #8
  104564:	e50b300c 	str	r3, [fp, #-12]
  104568:	e55b300d 	ldrb	r3, [fp, #-13]
  10456c:	e3530000 	cmp	r3, #0
  104570:	1a000002 	bne	104580 <alt_clk_pll_bypass_enable+0x258>
  104574:	e55b300e 	ldrb	r3, [fp, #-14]
  104578:	e3530000 	cmp	r3, #0
  10457c:	0a000003 	beq	104590 <alt_clk_pll_bypass_enable+0x268>
  104580:	e3043060 	movw	r3, #16480	; 0x4060
  104584:	e34f3fd0 	movt	r3, #65488	; 0xffd0
  104588:	e51b200c 	ldr	r2, [fp, #-12]
  10458c:	e5832000 	str	r2, [r3]
  104590:	e3043004 	movw	r3, #16388	; 0x4004
  104594:	e34f3fd0 	movt	r3, #65488	; 0xffd0
  104598:	e5933000 	ldr	r3, [r3]
  10459c:	e3c33018 	bic	r3, r3, #24
  1045a0:	e50b300c 	str	r3, [fp, #-12]
  1045a4:	e55b3016 	ldrb	r3, [fp, #-22]	; 0xffffffea
  1045a8:	e3530000 	cmp	r3, #0
  1045ac:	0a000001 	beq	1045b8 <alt_clk_pll_bypass_enable+0x290>
  1045b0:	e3a03018 	mov	r3, #24
  1045b4:	ea000000 	b	1045bc <alt_clk_pll_bypass_enable+0x294>
  1045b8:	e3a03008 	mov	r3, #8
  1045bc:	e51b200c 	ldr	r2, [fp, #-12]
  1045c0:	e1823003 	orr	r3, r2, r3
  1045c4:	e50b300c 	str	r3, [fp, #-12]
  1045c8:	e3043004 	movw	r3, #16388	; 0x4004
  1045cc:	e34f3fd0 	movt	r3, #65488	; 0xffd0
  1045d0:	e51b200c 	ldr	r2, [fp, #-12]
  1045d4:	e5832000 	str	r2, [r3]
  1045d8:	e3a0101e 	mov	r1, #30
  1045dc:	e3040060 	movw	r0, #16480	; 0x4060
  1045e0:	e34f0fd0 	movt	r0, #65488	; 0xffd0
  1045e4:	ebfffd2c 	bl	103a9c <alt_clk_mgr_wait>
  1045e8:	e55b300d 	ldrb	r3, [fp, #-13]
  1045ec:	e3530000 	cmp	r3, #0
  1045f0:	1a000002 	bne	104600 <alt_clk_pll_bypass_enable+0x2d8>
  1045f4:	e55b300e 	ldrb	r3, [fp, #-14]
  1045f8:	e3530000 	cmp	r3, #0
  1045fc:	0a000003 	beq	104610 <alt_clk_pll_bypass_enable+0x2e8>
  104600:	e3043060 	movw	r3, #16480	; 0x4060
  104604:	e34f3fd0 	movt	r3, #65488	; 0xffd0
  104608:	e51b2014 	ldr	r2, [fp, #-20]	; 0xffffffec
  10460c:	e5832000 	str	r2, [r3]
  104610:	e3a03000 	mov	r3, #0
  104614:	e50b3008 	str	r3, [fp, #-8]
  104618:	ea000016 	b	104678 <alt_clk_pll_bypass_enable+0x350>
  10461c:	e55b3015 	ldrb	r3, [fp, #-21]	; 0xffffffeb
  104620:	e353000b 	cmp	r3, #11
  104624:	1a000013 	bne	104678 <alt_clk_pll_bypass_enable+0x350>
  104628:	e3043004 	movw	r3, #16388	; 0x4004
  10462c:	e34f3fd0 	movt	r3, #65488	; 0xffd0
  104630:	e5933000 	ldr	r3, [r3]
  104634:	e3c33006 	bic	r3, r3, #6
  104638:	e50b300c 	str	r3, [fp, #-12]
  10463c:	e55b3016 	ldrb	r3, [fp, #-22]	; 0xffffffea
  104640:	e3530000 	cmp	r3, #0
  104644:	0a000001 	beq	104650 <alt_clk_pll_bypass_enable+0x328>
  104648:	e3a03006 	mov	r3, #6
  10464c:	ea000000 	b	104654 <alt_clk_pll_bypass_enable+0x32c>
  104650:	e3a03002 	mov	r3, #2
  104654:	e51b200c 	ldr	r2, [fp, #-12]
  104658:	e1823003 	orr	r3, r2, r3
  10465c:	e50b300c 	str	r3, [fp, #-12]
  104660:	e3043004 	movw	r3, #16388	; 0x4004
  104664:	e34f3fd0 	movt	r3, #65488	; 0xffd0
  104668:	e51b200c 	ldr	r2, [fp, #-12]
  10466c:	e5832000 	str	r2, [r3]
  104670:	e3a03000 	mov	r3, #0
  104674:	e50b3008 	str	r3, [fp, #-8]
  104678:	e51b3008 	ldr	r3, [fp, #-8]
  10467c:	e1a00003 	mov	r0, r3
  104680:	e24bd004 	sub	sp, fp, #4
  104684:	e8bd8800 	pop	{fp, pc}

00104688 <alt_clk_pll_is_bypassed>:
  104688:	e52db004 	push	{fp}		; (str fp, [sp, #-4]!)
  10468c:	e28db000 	add	fp, sp, #0
  104690:	e24dd014 	sub	sp, sp, #20
  104694:	e1a03000 	mov	r3, r0
  104698:	e54b300d 	strb	r3, [fp, #-13]
  10469c:	e3e03008 	mvn	r3, #8
  1046a0:	e50b3008 	str	r3, [fp, #-8]
  1046a4:	e55b300d 	ldrb	r3, [fp, #-13]
  1046a8:	e3530009 	cmp	r3, #9
  1046ac:	1a000010 	bne	1046f4 <alt_clk_pll_is_bypassed+0x6c>
  1046b0:	e3a03901 	mov	r3, #16384	; 0x4000
  1046b4:	e34f3fd0 	movt	r3, #65488	; 0xffd0
  1046b8:	e5933000 	ldr	r3, [r3]
  1046bc:	e2033001 	and	r3, r3, #1
  1046c0:	e3530000 	cmp	r3, #0
  1046c4:	1a000005 	bne	1046e0 <alt_clk_pll_is_bypassed+0x58>
  1046c8:	e3043004 	movw	r3, #16388	; 0x4004
  1046cc:	e34f3fd0 	movt	r3, #65488	; 0xffd0
  1046d0:	e5933000 	ldr	r3, [r3]
  1046d4:	e2033001 	and	r3, r3, #1
  1046d8:	e3530000 	cmp	r3, #0
  1046dc:	0a000001 	beq	1046e8 <alt_clk_pll_is_bypassed+0x60>
  1046e0:	e3a03001 	mov	r3, #1
  1046e4:	ea000000 	b	1046ec <alt_clk_pll_is_bypassed+0x64>
  1046e8:	e3a03000 	mov	r3, #0
  1046ec:	e50b3008 	str	r3, [fp, #-8]
  1046f0:	ea000026 	b	104790 <alt_clk_pll_is_bypassed+0x108>
  1046f4:	e55b300d 	ldrb	r3, [fp, #-13]
  1046f8:	e353000a 	cmp	r3, #10
  1046fc:	1a000010 	bne	104744 <alt_clk_pll_is_bypassed+0xbc>
  104700:	e3a03901 	mov	r3, #16384	; 0x4000
  104704:	e34f3fd0 	movt	r3, #65488	; 0xffd0
  104708:	e5933000 	ldr	r3, [r3]
  10470c:	e2033001 	and	r3, r3, #1
  104710:	e3530000 	cmp	r3, #0
  104714:	1a000005 	bne	104730 <alt_clk_pll_is_bypassed+0xa8>
  104718:	e3043004 	movw	r3, #16388	; 0x4004
  10471c:	e34f3fd0 	movt	r3, #65488	; 0xffd0
  104720:	e5933000 	ldr	r3, [r3]
  104724:	e2033008 	and	r3, r3, #8
  104728:	e3530000 	cmp	r3, #0
  10472c:	0a000001 	beq	104738 <alt_clk_pll_is_bypassed+0xb0>
  104730:	e3a03001 	mov	r3, #1
  104734:	ea000000 	b	10473c <alt_clk_pll_is_bypassed+0xb4>
  104738:	e3a03000 	mov	r3, #0
  10473c:	e50b3008 	str	r3, [fp, #-8]
  104740:	ea000012 	b	104790 <alt_clk_pll_is_bypassed+0x108>
  104744:	e55b300d 	ldrb	r3, [fp, #-13]
  104748:	e353000b 	cmp	r3, #11
  10474c:	1a00000f 	bne	104790 <alt_clk_pll_is_bypassed+0x108>
  104750:	e3a03901 	mov	r3, #16384	; 0x4000
  104754:	e34f3fd0 	movt	r3, #65488	; 0xffd0
  104758:	e5933000 	ldr	r3, [r3]
  10475c:	e2033001 	and	r3, r3, #1
  104760:	e3530000 	cmp	r3, #0
  104764:	1a000005 	bne	104780 <alt_clk_pll_is_bypassed+0xf8>
  104768:	e3043004 	movw	r3, #16388	; 0x4004
  10476c:	e34f3fd0 	movt	r3, #65488	; 0xffd0
  104770:	e5933000 	ldr	r3, [r3]
  104774:	e2033002 	and	r3, r3, #2
  104778:	e3530000 	cmp	r3, #0
  10477c:	0a000001 	beq	104788 <alt_clk_pll_is_bypassed+0x100>
  104780:	e3a03001 	mov	r3, #1
  104784:	ea000000 	b	10478c <alt_clk_pll_is_bypassed+0x104>
  104788:	e3a03000 	mov	r3, #0
  10478c:	e50b3008 	str	r3, [fp, #-8]
  104790:	e51b3008 	ldr	r3, [fp, #-8]
  104794:	e1a00003 	mov	r0, r3
  104798:	e24bd000 	sub	sp, fp, #0
  10479c:	e49db004 	pop	{fp}		; (ldr fp, [sp], #4)
  1047a0:	e12fff1e 	bx	lr

001047a4 <alt_clk_pll_source_get>:
  1047a4:	e52db004 	push	{fp}		; (str fp, [sp, #-4]!)
  1047a8:	e28db000 	add	fp, sp, #0
  1047ac:	e24dd014 	sub	sp, sp, #20
  1047b0:	e1a03000 	mov	r3, r0
  1047b4:	e54b300d 	strb	r3, [fp, #-13]
  1047b8:	e3a0304b 	mov	r3, #75	; 0x4b
  1047bc:	e54b3005 	strb	r3, [fp, #-5]
  1047c0:	e55b300d 	ldrb	r3, [fp, #-13]
  1047c4:	e3530009 	cmp	r3, #9
  1047c8:	1a000002 	bne	1047d8 <alt_clk_pll_source_get+0x34>
  1047cc:	e3a03000 	mov	r3, #0
  1047d0:	e54b3005 	strb	r3, [fp, #-5]
  1047d4:	ea000034 	b	1048ac <alt_clk_pll_source_get+0x108>
  1047d8:	e55b300d 	ldrb	r3, [fp, #-13]
  1047dc:	e353000a 	cmp	r3, #10
  1047e0:	1a000017 	bne	104844 <alt_clk_pll_source_get+0xa0>
  1047e4:	e3043080 	movw	r3, #16512	; 0x4080
  1047e8:	e34f3fd0 	movt	r3, #65488	; 0xffd0
  1047ec:	e5933000 	ldr	r3, [r3]
  1047f0:	e1a03b23 	lsr	r3, r3, #22
  1047f4:	e2033003 	and	r3, r3, #3
  1047f8:	e50b300c 	str	r3, [fp, #-12]
  1047fc:	e51b300c 	ldr	r3, [fp, #-12]
  104800:	e3530000 	cmp	r3, #0
  104804:	1a000002 	bne	104814 <alt_clk_pll_source_get+0x70>
  104808:	e3a03000 	mov	r3, #0
  10480c:	e54b3005 	strb	r3, [fp, #-5]
  104810:	ea000025 	b	1048ac <alt_clk_pll_source_get+0x108>
  104814:	e51b300c 	ldr	r3, [fp, #-12]
  104818:	e3530001 	cmp	r3, #1
  10481c:	1a000002 	bne	10482c <alt_clk_pll_source_get+0x88>
  104820:	e3a03001 	mov	r3, #1
  104824:	e54b3005 	strb	r3, [fp, #-5]
  104828:	ea00001f 	b	1048ac <alt_clk_pll_source_get+0x108>
  10482c:	e51b300c 	ldr	r3, [fp, #-12]
  104830:	e3530002 	cmp	r3, #2
  104834:	1a00001c 	bne	1048ac <alt_clk_pll_source_get+0x108>
  104838:	e3a03002 	mov	r3, #2
  10483c:	e54b3005 	strb	r3, [fp, #-5]
  104840:	ea000019 	b	1048ac <alt_clk_pll_source_get+0x108>
  104844:	e55b300d 	ldrb	r3, [fp, #-13]
  104848:	e353000b 	cmp	r3, #11
  10484c:	1a000016 	bne	1048ac <alt_clk_pll_source_get+0x108>
  104850:	e30430c0 	movw	r3, #16576	; 0x40c0
  104854:	e34f3fd0 	movt	r3, #65488	; 0xffd0
  104858:	e5933000 	ldr	r3, [r3]
  10485c:	e1a03b23 	lsr	r3, r3, #22
  104860:	e2033003 	and	r3, r3, #3
  104864:	e50b300c 	str	r3, [fp, #-12]
  104868:	e51b300c 	ldr	r3, [fp, #-12]
  10486c:	e3530000 	cmp	r3, #0
  104870:	1a000002 	bne	104880 <alt_clk_pll_source_get+0xdc>
  104874:	e3a03000 	mov	r3, #0
  104878:	e54b3005 	strb	r3, [fp, #-5]
  10487c:	ea00000a 	b	1048ac <alt_clk_pll_source_get+0x108>
  104880:	e51b300c 	ldr	r3, [fp, #-12]
  104884:	e3530001 	cmp	r3, #1
  104888:	1a000002 	bne	104898 <alt_clk_pll_source_get+0xf4>
  10488c:	e3a03001 	mov	r3, #1
  104890:	e54b3005 	strb	r3, [fp, #-5]
  104894:	ea000004 	b	1048ac <alt_clk_pll_source_get+0x108>
  104898:	e51b300c 	ldr	r3, [fp, #-12]
  10489c:	e3530002 	cmp	r3, #2
  1048a0:	1a000001 	bne	1048ac <alt_clk_pll_source_get+0x108>
  1048a4:	e3a03003 	mov	r3, #3
  1048a8:	e54b3005 	strb	r3, [fp, #-5]
  1048ac:	e55b3005 	ldrb	r3, [fp, #-5]
  1048b0:	e1a00003 	mov	r0, r3
  1048b4:	e24bd000 	sub	sp, fp, #0
  1048b8:	e49db004 	pop	{fp}		; (ldr fp, [sp], #4)
  1048bc:	e12fff1e 	bx	lr

001048c0 <alt_clk_clock_disable>:
  1048c0:	e92d4800 	push	{fp, lr}
  1048c4:	e28db004 	add	fp, sp, #4
  1048c8:	e24dd010 	sub	sp, sp, #16
  1048cc:	e1a03000 	mov	r3, r0
  1048d0:	e54b300d 	strb	r3, [fp, #-13]
  1048d4:	e3a03000 	mov	r3, #0
  1048d8:	e50b3008 	str	r3, [fp, #-8]
  1048dc:	e55b300d 	ldrb	r3, [fp, #-13]
  1048e0:	e2433009 	sub	r3, r3, #9
  1048e4:	e3530037 	cmp	r3, #55	; 0x37
  1048e8:	979ff103 	ldrls	pc, [pc, r3, lsl #2]
  1048ec:	ea00010b 	b	104d20 <alt_clk_clock_disable+0x460>
  1048f0:	001049d0 	.word	0x001049d0
  1048f4:	001049d0 	.word	0x001049d0
  1048f8:	001049d0 	.word	0x001049d0
  1048fc:	00104d20 	.word	0x00104d20
  104900:	00104d20 	.word	0x00104d20
  104904:	00104d20 	.word	0x00104d20
  104908:	00104d20 	.word	0x00104d20
  10490c:	00104d20 	.word	0x00104d20
  104910:	00104d20 	.word	0x00104d20
  104914:	00104d20 	.word	0x00104d20
  104918:	00104d20 	.word	0x00104d20
  10491c:	00104d20 	.word	0x00104d20
  104920:	00104d20 	.word	0x00104d20
  104924:	00104d20 	.word	0x00104d20
  104928:	00104a08 	.word	0x00104a08
  10492c:	00104d20 	.word	0x00104d20
  104930:	001049e8 	.word	0x001049e8
  104934:	00104a28 	.word	0x00104a28
  104938:	00104a48 	.word	0x00104a48
  10493c:	00104d20 	.word	0x00104d20
  104940:	00104a68 	.word	0x00104a68
  104944:	00104aa8 	.word	0x00104aa8
  104948:	00104ac8 	.word	0x00104ac8
  10494c:	00104a88 	.word	0x00104a88
  104950:	00104d20 	.word	0x00104d20
  104954:	00104d20 	.word	0x00104d20
  104958:	00104ae8 	.word	0x00104ae8
  10495c:	00104b08 	.word	0x00104b08
  104960:	00104d20 	.word	0x00104d20
  104964:	00104d20 	.word	0x00104d20
  104968:	00104d20 	.word	0x00104d20
  10496c:	00104d20 	.word	0x00104d20
  104970:	00104d20 	.word	0x00104d20
  104974:	00104d20 	.word	0x00104d20
  104978:	00104d14 	.word	0x00104d14
  10497c:	00104b68 	.word	0x00104b68
  104980:	00104c74 	.word	0x00104c74
  104984:	00104c28 	.word	0x00104c28
  104988:	00104d14 	.word	0x00104d14
  10498c:	00104c08 	.word	0x00104c08
  104990:	00104b28 	.word	0x00104b28
  104994:	00104b48 	.word	0x00104b48
  104998:	00104b88 	.word	0x00104b88
  10499c:	00104ba8 	.word	0x00104ba8
  1049a0:	00104bc8 	.word	0x00104bc8
  1049a4:	00104be8 	.word	0x00104be8
  1049a8:	00104d20 	.word	0x00104d20
  1049ac:	00104d20 	.word	0x00104d20
  1049b0:	00104d20 	.word	0x00104d20
  1049b4:	00104d20 	.word	0x00104d20
  1049b8:	00104d20 	.word	0x00104d20
  1049bc:	00104d20 	.word	0x00104d20
  1049c0:	00104c94 	.word	0x00104c94
  1049c4:	00104cb4 	.word	0x00104cb4
  1049c8:	00104cd4 	.word	0x00104cd4
  1049cc:	00104cf4 	.word	0x00104cf4
  1049d0:	e55b300d 	ldrb	r3, [fp, #-13]
  1049d4:	e3a01000 	mov	r1, #0
  1049d8:	e1a00003 	mov	r0, r3
  1049dc:	ebfffe51 	bl	104328 <alt_clk_pll_bypass_enable>
  1049e0:	e50b0008 	str	r0, [fp, #-8]
  1049e4:	ea0000d0 	b	104d2c <alt_clk_clock_disable+0x46c>
  1049e8:	e3043060 	movw	r3, #16480	; 0x4060
  1049ec:	e34f3fd0 	movt	r3, #65488	; 0xffd0
  1049f0:	e3042060 	movw	r2, #16480	; 0x4060
  1049f4:	e34f2fd0 	movt	r2, #65488	; 0xffd0
  1049f8:	e5922000 	ldr	r2, [r2]
  1049fc:	e3c22001 	bic	r2, r2, #1
  104a00:	e5832000 	str	r2, [r3]
  104a04:	ea0000c8 	b	104d2c <alt_clk_clock_disable+0x46c>
  104a08:	e3043060 	movw	r3, #16480	; 0x4060
  104a0c:	e34f3fd0 	movt	r3, #65488	; 0xffd0
  104a10:	e3042060 	movw	r2, #16480	; 0x4060
  104a14:	e34f2fd0 	movt	r2, #65488	; 0xffd0
  104a18:	e5922000 	ldr	r2, [r2]
  104a1c:	e3c22002 	bic	r2, r2, #2
  104a20:	e5832000 	str	r2, [r3]
  104a24:	ea0000c0 	b	104d2c <alt_clk_clock_disable+0x46c>
  104a28:	e3043060 	movw	r3, #16480	; 0x4060
  104a2c:	e34f3fd0 	movt	r3, #65488	; 0xffd0
  104a30:	e3042060 	movw	r2, #16480	; 0x4060
  104a34:	e34f2fd0 	movt	r2, #65488	; 0xffd0
  104a38:	e5922000 	ldr	r2, [r2]
  104a3c:	e3c22004 	bic	r2, r2, #4
  104a40:	e5832000 	str	r2, [r3]
  104a44:	ea0000b8 	b	104d2c <alt_clk_clock_disable+0x46c>
  104a48:	e3043060 	movw	r3, #16480	; 0x4060
  104a4c:	e34f3fd0 	movt	r3, #65488	; 0xffd0
  104a50:	e3042060 	movw	r2, #16480	; 0x4060
  104a54:	e34f2fd0 	movt	r2, #65488	; 0xffd0
  104a58:	e5922000 	ldr	r2, [r2]
  104a5c:	e3c22008 	bic	r2, r2, #8
  104a60:	e5832000 	str	r2, [r3]
  104a64:	ea0000b0 	b	104d2c <alt_clk_clock_disable+0x46c>
  104a68:	e3043060 	movw	r3, #16480	; 0x4060
  104a6c:	e34f3fd0 	movt	r3, #65488	; 0xffd0
  104a70:	e3042060 	movw	r2, #16480	; 0x4060
  104a74:	e34f2fd0 	movt	r2, #65488	; 0xffd0
  104a78:	e5922000 	ldr	r2, [r2]
  104a7c:	e3c22010 	bic	r2, r2, #16
  104a80:	e5832000 	str	r2, [r3]
  104a84:	ea0000a8 	b	104d2c <alt_clk_clock_disable+0x46c>
  104a88:	e3043060 	movw	r3, #16480	; 0x4060
  104a8c:	e34f3fd0 	movt	r3, #65488	; 0xffd0
  104a90:	e3042060 	movw	r2, #16480	; 0x4060
  104a94:	e34f2fd0 	movt	r2, #65488	; 0xffd0
  104a98:	e5922000 	ldr	r2, [r2]
  104a9c:	e3c22020 	bic	r2, r2, #32
  104aa0:	e5832000 	str	r2, [r3]
  104aa4:	ea0000a0 	b	104d2c <alt_clk_clock_disable+0x46c>
  104aa8:	e3043060 	movw	r3, #16480	; 0x4060
  104aac:	e34f3fd0 	movt	r3, #65488	; 0xffd0
  104ab0:	e3042060 	movw	r2, #16480	; 0x4060
  104ab4:	e34f2fd0 	movt	r2, #65488	; 0xffd0
  104ab8:	e5922000 	ldr	r2, [r2]
  104abc:	e3c22040 	bic	r2, r2, #64	; 0x40
  104ac0:	e5832000 	str	r2, [r3]
  104ac4:	ea000098 	b	104d2c <alt_clk_clock_disable+0x46c>
  104ac8:	e3043060 	movw	r3, #16480	; 0x4060
  104acc:	e34f3fd0 	movt	r3, #65488	; 0xffd0
  104ad0:	e3042060 	movw	r2, #16480	; 0x4060
  104ad4:	e34f2fd0 	movt	r2, #65488	; 0xffd0
  104ad8:	e5922000 	ldr	r2, [r2]
  104adc:	e3c22080 	bic	r2, r2, #128	; 0x80
  104ae0:	e5832000 	str	r2, [r3]
  104ae4:	ea000090 	b	104d2c <alt_clk_clock_disable+0x46c>
  104ae8:	e3043060 	movw	r3, #16480	; 0x4060
  104aec:	e34f3fd0 	movt	r3, #65488	; 0xffd0
  104af0:	e3042060 	movw	r2, #16480	; 0x4060
  104af4:	e34f2fd0 	movt	r2, #65488	; 0xffd0
  104af8:	e5922000 	ldr	r2, [r2]
  104afc:	e3c22c01 	bic	r2, r2, #256	; 0x100
  104b00:	e5832000 	str	r2, [r3]
  104b04:	ea000088 	b	104d2c <alt_clk_clock_disable+0x46c>
  104b08:	e3043060 	movw	r3, #16480	; 0x4060
  104b0c:	e34f3fd0 	movt	r3, #65488	; 0xffd0
  104b10:	e3042060 	movw	r2, #16480	; 0x4060
  104b14:	e34f2fd0 	movt	r2, #65488	; 0xffd0
  104b18:	e5922000 	ldr	r2, [r2]
  104b1c:	e3c22c02 	bic	r2, r2, #512	; 0x200
  104b20:	e5832000 	str	r2, [r3]
  104b24:	ea000080 	b	104d2c <alt_clk_clock_disable+0x46c>
  104b28:	e30430a0 	movw	r3, #16544	; 0x40a0
  104b2c:	e34f3fd0 	movt	r3, #65488	; 0xffd0
  104b30:	e30420a0 	movw	r2, #16544	; 0x40a0
  104b34:	e34f2fd0 	movt	r2, #65488	; 0xffd0
  104b38:	e5922000 	ldr	r2, [r2]
  104b3c:	e3c22001 	bic	r2, r2, #1
  104b40:	e5832000 	str	r2, [r3]
  104b44:	ea000078 	b	104d2c <alt_clk_clock_disable+0x46c>
  104b48:	e30430a0 	movw	r3, #16544	; 0x40a0
  104b4c:	e34f3fd0 	movt	r3, #65488	; 0xffd0
  104b50:	e30420a0 	movw	r2, #16544	; 0x40a0
  104b54:	e34f2fd0 	movt	r2, #65488	; 0xffd0
  104b58:	e5922000 	ldr	r2, [r2]
  104b5c:	e3c22002 	bic	r2, r2, #2
  104b60:	e5832000 	str	r2, [r3]
  104b64:	ea000070 	b	104d2c <alt_clk_clock_disable+0x46c>
  104b68:	e30430a0 	movw	r3, #16544	; 0x40a0
  104b6c:	e34f3fd0 	movt	r3, #65488	; 0xffd0
  104b70:	e30420a0 	movw	r2, #16544	; 0x40a0
  104b74:	e34f2fd0 	movt	r2, #65488	; 0xffd0
  104b78:	e5922000 	ldr	r2, [r2]
  104b7c:	e3c22008 	bic	r2, r2, #8
  104b80:	e5832000 	str	r2, [r3]
  104b84:	ea000068 	b	104d2c <alt_clk_clock_disable+0x46c>
  104b88:	e30430a0 	movw	r3, #16544	; 0x40a0
  104b8c:	e34f3fd0 	movt	r3, #65488	; 0xffd0
  104b90:	e30420a0 	movw	r2, #16544	; 0x40a0
  104b94:	e34f2fd0 	movt	r2, #65488	; 0xffd0
  104b98:	e5922000 	ldr	r2, [r2]
  104b9c:	e3c22010 	bic	r2, r2, #16
  104ba0:	e5832000 	str	r2, [r3]
  104ba4:	ea000060 	b	104d2c <alt_clk_clock_disable+0x46c>
  104ba8:	e30430a0 	movw	r3, #16544	; 0x40a0
  104bac:	e34f3fd0 	movt	r3, #65488	; 0xffd0
  104bb0:	e30420a0 	movw	r2, #16544	; 0x40a0
  104bb4:	e34f2fd0 	movt	r2, #65488	; 0xffd0
  104bb8:	e5922000 	ldr	r2, [r2]
  104bbc:	e3c22020 	bic	r2, r2, #32
  104bc0:	e5832000 	str	r2, [r3]
  104bc4:	ea000058 	b	104d2c <alt_clk_clock_disable+0x46c>
  104bc8:	e30430a0 	movw	r3, #16544	; 0x40a0
  104bcc:	e34f3fd0 	movt	r3, #65488	; 0xffd0
  104bd0:	e30420a0 	movw	r2, #16544	; 0x40a0
  104bd4:	e34f2fd0 	movt	r2, #65488	; 0xffd0
  104bd8:	e5922000 	ldr	r2, [r2]
  104bdc:	e3c22040 	bic	r2, r2, #64	; 0x40
  104be0:	e5832000 	str	r2, [r3]
  104be4:	ea000050 	b	104d2c <alt_clk_clock_disable+0x46c>
  104be8:	e30430a0 	movw	r3, #16544	; 0x40a0
  104bec:	e34f3fd0 	movt	r3, #65488	; 0xffd0
  104bf0:	e30420a0 	movw	r2, #16544	; 0x40a0
  104bf4:	e34f2fd0 	movt	r2, #65488	; 0xffd0
  104bf8:	e5922000 	ldr	r2, [r2]
  104bfc:	e3c22080 	bic	r2, r2, #128	; 0x80
  104c00:	e5832000 	str	r2, [r3]
  104c04:	ea000048 	b	104d2c <alt_clk_clock_disable+0x46c>
  104c08:	e30430a0 	movw	r3, #16544	; 0x40a0
  104c0c:	e34f3fd0 	movt	r3, #65488	; 0xffd0
  104c10:	e30420a0 	movw	r2, #16544	; 0x40a0
  104c14:	e34f2fd0 	movt	r2, #65488	; 0xffd0
  104c18:	e5922000 	ldr	r2, [r2]
  104c1c:	e3c22c01 	bic	r2, r2, #256	; 0x100
  104c20:	e5832000 	str	r2, [r3]
  104c24:	ea000040 	b	104d2c <alt_clk_clock_disable+0x46c>
  104c28:	e30430a0 	movw	r3, #16544	; 0x40a0
  104c2c:	e34f3fd0 	movt	r3, #65488	; 0xffd0
  104c30:	e30420a0 	movw	r2, #16544	; 0x40a0
  104c34:	e34f2fd0 	movt	r2, #65488	; 0xffd0
  104c38:	e5922000 	ldr	r2, [r2]
  104c3c:	e3c22b01 	bic	r2, r2, #1024	; 0x400
  104c40:	e5832000 	str	r2, [r3]
  104c44:	e3a01008 	mov	r1, #8
  104c48:	e30400a0 	movw	r0, #16544	; 0x40a0
  104c4c:	e34f0fd0 	movt	r0, #65488	; 0xffd0
  104c50:	ebfffb91 	bl	103a9c <alt_clk_mgr_wait>
  104c54:	e30430a0 	movw	r3, #16544	; 0x40a0
  104c58:	e34f3fd0 	movt	r3, #65488	; 0xffd0
  104c5c:	e30420a0 	movw	r2, #16544	; 0x40a0
  104c60:	e34f2fd0 	movt	r2, #65488	; 0xffd0
  104c64:	e5922000 	ldr	r2, [r2]
  104c68:	e3c22c02 	bic	r2, r2, #512	; 0x200
  104c6c:	e5832000 	str	r2, [r3]
  104c70:	ea00002d 	b	104d2c <alt_clk_clock_disable+0x46c>
  104c74:	e30430a0 	movw	r3, #16544	; 0x40a0
  104c78:	e34f3fd0 	movt	r3, #65488	; 0xffd0
  104c7c:	e30420a0 	movw	r2, #16544	; 0x40a0
  104c80:	e34f2fd0 	movt	r2, #65488	; 0xffd0
  104c84:	e5922000 	ldr	r2, [r2]
  104c88:	e3c22b02 	bic	r2, r2, #2048	; 0x800
  104c8c:	e5832000 	str	r2, [r3]
  104c90:	ea000025 	b	104d2c <alt_clk_clock_disable+0x46c>
  104c94:	e30430d8 	movw	r3, #16600	; 0x40d8
  104c98:	e34f3fd0 	movt	r3, #65488	; 0xffd0
  104c9c:	e30420d8 	movw	r2, #16600	; 0x40d8
  104ca0:	e34f2fd0 	movt	r2, #65488	; 0xffd0
  104ca4:	e5922000 	ldr	r2, [r2]
  104ca8:	e3c22001 	bic	r2, r2, #1
  104cac:	e5832000 	str	r2, [r3]
  104cb0:	ea00001d 	b	104d2c <alt_clk_clock_disable+0x46c>
  104cb4:	e30430d8 	movw	r3, #16600	; 0x40d8
  104cb8:	e34f3fd0 	movt	r3, #65488	; 0xffd0
  104cbc:	e30420d8 	movw	r2, #16600	; 0x40d8
  104cc0:	e34f2fd0 	movt	r2, #65488	; 0xffd0
  104cc4:	e5922000 	ldr	r2, [r2]
  104cc8:	e3c22002 	bic	r2, r2, #2
  104ccc:	e5832000 	str	r2, [r3]
  104cd0:	ea000015 	b	104d2c <alt_clk_clock_disable+0x46c>
  104cd4:	e30430d8 	movw	r3, #16600	; 0x40d8
  104cd8:	e34f3fd0 	movt	r3, #65488	; 0xffd0
  104cdc:	e30420d8 	movw	r2, #16600	; 0x40d8
  104ce0:	e34f2fd0 	movt	r2, #65488	; 0xffd0
  104ce4:	e5922000 	ldr	r2, [r2]
  104ce8:	e3c22004 	bic	r2, r2, #4
  104cec:	e5832000 	str	r2, [r3]
  104cf0:	ea00000d 	b	104d2c <alt_clk_clock_disable+0x46c>
  104cf4:	e30430d8 	movw	r3, #16600	; 0x40d8
  104cf8:	e34f3fd0 	movt	r3, #65488	; 0xffd0
  104cfc:	e30420d8 	movw	r2, #16600	; 0x40d8
  104d00:	e34f2fd0 	movt	r2, #65488	; 0xffd0
  104d04:	e5922000 	ldr	r2, [r2]
  104d08:	e3c22008 	bic	r2, r2, #8
  104d0c:	e5832000 	str	r2, [r3]
  104d10:	ea000005 	b	104d2c <alt_clk_clock_disable+0x46c>
  104d14:	e3e0300d 	mvn	r3, #13
  104d18:	e50b3008 	str	r3, [fp, #-8]
  104d1c:	ea000002 	b	104d2c <alt_clk_clock_disable+0x46c>
  104d20:	e3e03008 	mvn	r3, #8
  104d24:	e50b3008 	str	r3, [fp, #-8]
  104d28:	e320f000 	nop	{0}
  104d2c:	e51b3008 	ldr	r3, [fp, #-8]
  104d30:	e1a00003 	mov	r0, r3
  104d34:	e24bd004 	sub	sp, fp, #4
  104d38:	e8bd8800 	pop	{fp, pc}

00104d3c <alt_clk_clock_enable>:
  104d3c:	e92d4800 	push	{fp, lr}
  104d40:	e28db004 	add	fp, sp, #4
  104d44:	e24dd010 	sub	sp, sp, #16
  104d48:	e1a03000 	mov	r3, r0
  104d4c:	e54b300d 	strb	r3, [fp, #-13]
  104d50:	e3a03000 	mov	r3, #0
  104d54:	e50b3008 	str	r3, [fp, #-8]
  104d58:	e55b300d 	ldrb	r3, [fp, #-13]
  104d5c:	e2433009 	sub	r3, r3, #9
  104d60:	e3530037 	cmp	r3, #55	; 0x37
  104d64:	979ff103 	ldrls	pc, [pc, r3, lsl #2]
  104d68:	ea00011b 	b	1051dc <alt_clk_clock_enable+0x4a0>
  104d6c:	00104e4c 	.word	0x00104e4c
  104d70:	00104e4c 	.word	0x00104e4c
  104d74:	00104e4c 	.word	0x00104e4c
  104d78:	001051dc 	.word	0x001051dc
  104d7c:	001051dc 	.word	0x001051dc
  104d80:	001051dc 	.word	0x001051dc
  104d84:	001051dc 	.word	0x001051dc
  104d88:	001051dc 	.word	0x001051dc
  104d8c:	001051dc 	.word	0x001051dc
  104d90:	001051dc 	.word	0x001051dc
  104d94:	001051dc 	.word	0x001051dc
  104d98:	001051dc 	.word	0x001051dc
  104d9c:	001051dc 	.word	0x001051dc
  104da0:	001051dc 	.word	0x001051dc
  104da4:	00104e80 	.word	0x00104e80
  104da8:	001051dc 	.word	0x001051dc
  104dac:	00104e60 	.word	0x00104e60
  104db0:	00104ea0 	.word	0x00104ea0
  104db4:	00104ec0 	.word	0x00104ec0
  104db8:	001051dc 	.word	0x001051dc
  104dbc:	00104ee0 	.word	0x00104ee0
  104dc0:	00104f20 	.word	0x00104f20
  104dc4:	00104f40 	.word	0x00104f40
  104dc8:	00104f00 	.word	0x00104f00
  104dcc:	001051dc 	.word	0x001051dc
  104dd0:	001051dc 	.word	0x001051dc
  104dd4:	00104f60 	.word	0x00104f60
  104dd8:	00104f80 	.word	0x00104f80
  104ddc:	001051dc 	.word	0x001051dc
  104de0:	001051dc 	.word	0x001051dc
  104de4:	001051dc 	.word	0x001051dc
  104de8:	001051dc 	.word	0x001051dc
  104dec:	001051dc 	.word	0x001051dc
  104df0:	001051dc 	.word	0x001051dc
  104df4:	00104fe0 	.word	0x00104fe0
  104df8:	00105000 	.word	0x00105000
  104dfc:	0010513c 	.word	0x0010513c
  104e00:	001050c0 	.word	0x001050c0
  104e04:	001050f0 	.word	0x001050f0
  104e08:	001050a0 	.word	0x001050a0
  104e0c:	00104fa0 	.word	0x00104fa0
  104e10:	00104fc0 	.word	0x00104fc0
  104e14:	00105020 	.word	0x00105020
  104e18:	00105040 	.word	0x00105040
  104e1c:	00105060 	.word	0x00105060
  104e20:	00105080 	.word	0x00105080
  104e24:	001051dc 	.word	0x001051dc
  104e28:	001051dc 	.word	0x001051dc
  104e2c:	001051dc 	.word	0x001051dc
  104e30:	001051dc 	.word	0x001051dc
  104e34:	001051dc 	.word	0x001051dc
  104e38:	001051dc 	.word	0x001051dc
  104e3c:	0010515c 	.word	0x0010515c
  104e40:	0010517c 	.word	0x0010517c
  104e44:	0010519c 	.word	0x0010519c
  104e48:	001051bc 	.word	0x001051bc
  104e4c:	e55b300d 	ldrb	r3, [fp, #-13]
  104e50:	e1a00003 	mov	r0, r3
  104e54:	ebfffc44 	bl	103f6c <alt_clk_pll_bypass_disable>
  104e58:	e50b0008 	str	r0, [fp, #-8]
  104e5c:	ea0000e1 	b	1051e8 <alt_clk_clock_enable+0x4ac>
  104e60:	e3043060 	movw	r3, #16480	; 0x4060
  104e64:	e34f3fd0 	movt	r3, #65488	; 0xffd0
  104e68:	e3042060 	movw	r2, #16480	; 0x4060
  104e6c:	e34f2fd0 	movt	r2, #65488	; 0xffd0
  104e70:	e5922000 	ldr	r2, [r2]
  104e74:	e3822001 	orr	r2, r2, #1
  104e78:	e5832000 	str	r2, [r3]
  104e7c:	ea0000d9 	b	1051e8 <alt_clk_clock_enable+0x4ac>
  104e80:	e3043060 	movw	r3, #16480	; 0x4060
  104e84:	e34f3fd0 	movt	r3, #65488	; 0xffd0
  104e88:	e3042060 	movw	r2, #16480	; 0x4060
  104e8c:	e34f2fd0 	movt	r2, #65488	; 0xffd0
  104e90:	e5922000 	ldr	r2, [r2]
  104e94:	e3822002 	orr	r2, r2, #2
  104e98:	e5832000 	str	r2, [r3]
  104e9c:	ea0000d1 	b	1051e8 <alt_clk_clock_enable+0x4ac>
  104ea0:	e3043060 	movw	r3, #16480	; 0x4060
  104ea4:	e34f3fd0 	movt	r3, #65488	; 0xffd0
  104ea8:	e3042060 	movw	r2, #16480	; 0x4060
  104eac:	e34f2fd0 	movt	r2, #65488	; 0xffd0
  104eb0:	e5922000 	ldr	r2, [r2]
  104eb4:	e3822004 	orr	r2, r2, #4
  104eb8:	e5832000 	str	r2, [r3]
  104ebc:	ea0000c9 	b	1051e8 <alt_clk_clock_enable+0x4ac>
  104ec0:	e3043060 	movw	r3, #16480	; 0x4060
  104ec4:	e34f3fd0 	movt	r3, #65488	; 0xffd0
  104ec8:	e3042060 	movw	r2, #16480	; 0x4060
  104ecc:	e34f2fd0 	movt	r2, #65488	; 0xffd0
  104ed0:	e5922000 	ldr	r2, [r2]
  104ed4:	e3822008 	orr	r2, r2, #8
  104ed8:	e5832000 	str	r2, [r3]
  104edc:	ea0000c1 	b	1051e8 <alt_clk_clock_enable+0x4ac>
  104ee0:	e3043060 	movw	r3, #16480	; 0x4060
  104ee4:	e34f3fd0 	movt	r3, #65488	; 0xffd0
  104ee8:	e3042060 	movw	r2, #16480	; 0x4060
  104eec:	e34f2fd0 	movt	r2, #65488	; 0xffd0
  104ef0:	e5922000 	ldr	r2, [r2]
  104ef4:	e3822010 	orr	r2, r2, #16
  104ef8:	e5832000 	str	r2, [r3]
  104efc:	ea0000b9 	b	1051e8 <alt_clk_clock_enable+0x4ac>
  104f00:	e3043060 	movw	r3, #16480	; 0x4060
  104f04:	e34f3fd0 	movt	r3, #65488	; 0xffd0
  104f08:	e3042060 	movw	r2, #16480	; 0x4060
  104f0c:	e34f2fd0 	movt	r2, #65488	; 0xffd0
  104f10:	e5922000 	ldr	r2, [r2]
  104f14:	e3822020 	orr	r2, r2, #32
  104f18:	e5832000 	str	r2, [r3]
  104f1c:	ea0000b1 	b	1051e8 <alt_clk_clock_enable+0x4ac>
  104f20:	e3043060 	movw	r3, #16480	; 0x4060
  104f24:	e34f3fd0 	movt	r3, #65488	; 0xffd0
  104f28:	e3042060 	movw	r2, #16480	; 0x4060
  104f2c:	e34f2fd0 	movt	r2, #65488	; 0xffd0
  104f30:	e5922000 	ldr	r2, [r2]
  104f34:	e3822040 	orr	r2, r2, #64	; 0x40
  104f38:	e5832000 	str	r2, [r3]
  104f3c:	ea0000a9 	b	1051e8 <alt_clk_clock_enable+0x4ac>
  104f40:	e3043060 	movw	r3, #16480	; 0x4060
  104f44:	e34f3fd0 	movt	r3, #65488	; 0xffd0
  104f48:	e3042060 	movw	r2, #16480	; 0x4060
  104f4c:	e34f2fd0 	movt	r2, #65488	; 0xffd0
  104f50:	e5922000 	ldr	r2, [r2]
  104f54:	e3822080 	orr	r2, r2, #128	; 0x80
  104f58:	e5832000 	str	r2, [r3]
  104f5c:	ea0000a1 	b	1051e8 <alt_clk_clock_enable+0x4ac>
  104f60:	e3043060 	movw	r3, #16480	; 0x4060
  104f64:	e34f3fd0 	movt	r3, #65488	; 0xffd0
  104f68:	e3042060 	movw	r2, #16480	; 0x4060
  104f6c:	e34f2fd0 	movt	r2, #65488	; 0xffd0
  104f70:	e5922000 	ldr	r2, [r2]
  104f74:	e3822c01 	orr	r2, r2, #256	; 0x100
  104f78:	e5832000 	str	r2, [r3]
  104f7c:	ea000099 	b	1051e8 <alt_clk_clock_enable+0x4ac>
  104f80:	e3043060 	movw	r3, #16480	; 0x4060
  104f84:	e34f3fd0 	movt	r3, #65488	; 0xffd0
  104f88:	e3042060 	movw	r2, #16480	; 0x4060
  104f8c:	e34f2fd0 	movt	r2, #65488	; 0xffd0
  104f90:	e5922000 	ldr	r2, [r2]
  104f94:	e3822c02 	orr	r2, r2, #512	; 0x200
  104f98:	e5832000 	str	r2, [r3]
  104f9c:	ea000091 	b	1051e8 <alt_clk_clock_enable+0x4ac>
  104fa0:	e30430a0 	movw	r3, #16544	; 0x40a0
  104fa4:	e34f3fd0 	movt	r3, #65488	; 0xffd0
  104fa8:	e30420a0 	movw	r2, #16544	; 0x40a0
  104fac:	e34f2fd0 	movt	r2, #65488	; 0xffd0
  104fb0:	e5922000 	ldr	r2, [r2]
  104fb4:	e3822001 	orr	r2, r2, #1
  104fb8:	e5832000 	str	r2, [r3]
  104fbc:	ea000089 	b	1051e8 <alt_clk_clock_enable+0x4ac>
  104fc0:	e30430a0 	movw	r3, #16544	; 0x40a0
  104fc4:	e34f3fd0 	movt	r3, #65488	; 0xffd0
  104fc8:	e30420a0 	movw	r2, #16544	; 0x40a0
  104fcc:	e34f2fd0 	movt	r2, #65488	; 0xffd0
  104fd0:	e5922000 	ldr	r2, [r2]
  104fd4:	e3822002 	orr	r2, r2, #2
  104fd8:	e5832000 	str	r2, [r3]
  104fdc:	ea000081 	b	1051e8 <alt_clk_clock_enable+0x4ac>
  104fe0:	e30430a0 	movw	r3, #16544	; 0x40a0
  104fe4:	e34f3fd0 	movt	r3, #65488	; 0xffd0
  104fe8:	e30420a0 	movw	r2, #16544	; 0x40a0
  104fec:	e34f2fd0 	movt	r2, #65488	; 0xffd0
  104ff0:	e5922000 	ldr	r2, [r2]
  104ff4:	e3822004 	orr	r2, r2, #4
  104ff8:	e5832000 	str	r2, [r3]
  104ffc:	ea000079 	b	1051e8 <alt_clk_clock_enable+0x4ac>
  105000:	e30430a0 	movw	r3, #16544	; 0x40a0
  105004:	e34f3fd0 	movt	r3, #65488	; 0xffd0
  105008:	e30420a0 	movw	r2, #16544	; 0x40a0
  10500c:	e34f2fd0 	movt	r2, #65488	; 0xffd0
  105010:	e5922000 	ldr	r2, [r2]
  105014:	e3822008 	orr	r2, r2, #8
  105018:	e5832000 	str	r2, [r3]
  10501c:	ea000071 	b	1051e8 <alt_clk_clock_enable+0x4ac>
  105020:	e30430a0 	movw	r3, #16544	; 0x40a0
  105024:	e34f3fd0 	movt	r3, #65488	; 0xffd0
  105028:	e30420a0 	movw	r2, #16544	; 0x40a0
  10502c:	e34f2fd0 	movt	r2, #65488	; 0xffd0
  105030:	e5922000 	ldr	r2, [r2]
  105034:	e3822010 	orr	r2, r2, #16
  105038:	e5832000 	str	r2, [r3]
  10503c:	ea000069 	b	1051e8 <alt_clk_clock_enable+0x4ac>
  105040:	e30430a0 	movw	r3, #16544	; 0x40a0
  105044:	e34f3fd0 	movt	r3, #65488	; 0xffd0
  105048:	e30420a0 	movw	r2, #16544	; 0x40a0
  10504c:	e34f2fd0 	movt	r2, #65488	; 0xffd0
  105050:	e5922000 	ldr	r2, [r2]
  105054:	e3822020 	orr	r2, r2, #32
  105058:	e5832000 	str	r2, [r3]
  10505c:	ea000061 	b	1051e8 <alt_clk_clock_enable+0x4ac>
  105060:	e30430a0 	movw	r3, #16544	; 0x40a0
  105064:	e34f3fd0 	movt	r3, #65488	; 0xffd0
  105068:	e30420a0 	movw	r2, #16544	; 0x40a0
  10506c:	e34f2fd0 	movt	r2, #65488	; 0xffd0
  105070:	e5922000 	ldr	r2, [r2]
  105074:	e3822040 	orr	r2, r2, #64	; 0x40
  105078:	e5832000 	str	r2, [r3]
  10507c:	ea000059 	b	1051e8 <alt_clk_clock_enable+0x4ac>
  105080:	e30430a0 	movw	r3, #16544	; 0x40a0
  105084:	e34f3fd0 	movt	r3, #65488	; 0xffd0
  105088:	e30420a0 	movw	r2, #16544	; 0x40a0
  10508c:	e34f2fd0 	movt	r2, #65488	; 0xffd0
  105090:	e5922000 	ldr	r2, [r2]
  105094:	e3822080 	orr	r2, r2, #128	; 0x80
  105098:	e5832000 	str	r2, [r3]
  10509c:	ea000051 	b	1051e8 <alt_clk_clock_enable+0x4ac>
  1050a0:	e30430a0 	movw	r3, #16544	; 0x40a0
  1050a4:	e34f3fd0 	movt	r3, #65488	; 0xffd0
  1050a8:	e30420a0 	movw	r2, #16544	; 0x40a0
  1050ac:	e34f2fd0 	movt	r2, #65488	; 0xffd0
  1050b0:	e5922000 	ldr	r2, [r2]
  1050b4:	e3822c01 	orr	r2, r2, #256	; 0x100
  1050b8:	e5832000 	str	r2, [r3]
  1050bc:	ea000049 	b	1051e8 <alt_clk_clock_enable+0x4ac>
  1050c0:	e30430a0 	movw	r3, #16544	; 0x40a0
  1050c4:	e34f3fd0 	movt	r3, #65488	; 0xffd0
  1050c8:	e30420a0 	movw	r2, #16544	; 0x40a0
  1050cc:	e34f2fd0 	movt	r2, #65488	; 0xffd0
  1050d0:	e5922000 	ldr	r2, [r2]
  1050d4:	e3822c02 	orr	r2, r2, #512	; 0x200
  1050d8:	e5832000 	str	r2, [r3]
  1050dc:	e3a01008 	mov	r1, #8
  1050e0:	e30400a0 	movw	r0, #16544	; 0x40a0
  1050e4:	e34f0fd0 	movt	r0, #65488	; 0xffd0
  1050e8:	ebfffa6b 	bl	103a9c <alt_clk_mgr_wait>
  1050ec:	ea00003d 	b	1051e8 <alt_clk_clock_enable+0x4ac>
  1050f0:	e30430a0 	movw	r3, #16544	; 0x40a0
  1050f4:	e34f3fd0 	movt	r3, #65488	; 0xffd0
  1050f8:	e30420a0 	movw	r2, #16544	; 0x40a0
  1050fc:	e34f2fd0 	movt	r2, #65488	; 0xffd0
  105100:	e5922000 	ldr	r2, [r2]
  105104:	e3822c02 	orr	r2, r2, #512	; 0x200
  105108:	e5832000 	str	r2, [r3]
  10510c:	e3a01008 	mov	r1, #8
  105110:	e30400a0 	movw	r0, #16544	; 0x40a0
  105114:	e34f0fd0 	movt	r0, #65488	; 0xffd0
  105118:	ebfffa5f 	bl	103a9c <alt_clk_mgr_wait>
  10511c:	e30430a0 	movw	r3, #16544	; 0x40a0
  105120:	e34f3fd0 	movt	r3, #65488	; 0xffd0
  105124:	e30420a0 	movw	r2, #16544	; 0x40a0
  105128:	e34f2fd0 	movt	r2, #65488	; 0xffd0
  10512c:	e5922000 	ldr	r2, [r2]
  105130:	e3822b01 	orr	r2, r2, #1024	; 0x400
  105134:	e5832000 	str	r2, [r3]
  105138:	ea00002a 	b	1051e8 <alt_clk_clock_enable+0x4ac>
  10513c:	e30430a0 	movw	r3, #16544	; 0x40a0
  105140:	e34f3fd0 	movt	r3, #65488	; 0xffd0
  105144:	e30420a0 	movw	r2, #16544	; 0x40a0
  105148:	e34f2fd0 	movt	r2, #65488	; 0xffd0
  10514c:	e5922000 	ldr	r2, [r2]
  105150:	e3822b02 	orr	r2, r2, #2048	; 0x800
  105154:	e5832000 	str	r2, [r3]
  105158:	ea000022 	b	1051e8 <alt_clk_clock_enable+0x4ac>
  10515c:	e30430d8 	movw	r3, #16600	; 0x40d8
  105160:	e34f3fd0 	movt	r3, #65488	; 0xffd0
  105164:	e30420d8 	movw	r2, #16600	; 0x40d8
  105168:	e34f2fd0 	movt	r2, #65488	; 0xffd0
  10516c:	e5922000 	ldr	r2, [r2]
  105170:	e3822001 	orr	r2, r2, #1
  105174:	e5832000 	str	r2, [r3]
  105178:	ea00001a 	b	1051e8 <alt_clk_clock_enable+0x4ac>
  10517c:	e30430d8 	movw	r3, #16600	; 0x40d8
  105180:	e34f3fd0 	movt	r3, #65488	; 0xffd0
  105184:	e30420d8 	movw	r2, #16600	; 0x40d8
  105188:	e34f2fd0 	movt	r2, #65488	; 0xffd0
  10518c:	e5922000 	ldr	r2, [r2]
  105190:	e3822002 	orr	r2, r2, #2
  105194:	e5832000 	str	r2, [r3]
  105198:	ea000012 	b	1051e8 <alt_clk_clock_enable+0x4ac>
  10519c:	e30430d8 	movw	r3, #16600	; 0x40d8
  1051a0:	e34f3fd0 	movt	r3, #65488	; 0xffd0
  1051a4:	e30420d8 	movw	r2, #16600	; 0x40d8
  1051a8:	e34f2fd0 	movt	r2, #65488	; 0xffd0
  1051ac:	e5922000 	ldr	r2, [r2]
  1051b0:	e3822004 	orr	r2, r2, #4
  1051b4:	e5832000 	str	r2, [r3]
  1051b8:	ea00000a 	b	1051e8 <alt_clk_clock_enable+0x4ac>
  1051bc:	e30430d8 	movw	r3, #16600	; 0x40d8
  1051c0:	e34f3fd0 	movt	r3, #65488	; 0xffd0
  1051c4:	e30420d8 	movw	r2, #16600	; 0x40d8
  1051c8:	e34f2fd0 	movt	r2, #65488	; 0xffd0
  1051cc:	e5922000 	ldr	r2, [r2]
  1051d0:	e3822008 	orr	r2, r2, #8
  1051d4:	e5832000 	str	r2, [r3]
  1051d8:	ea000002 	b	1051e8 <alt_clk_clock_enable+0x4ac>
  1051dc:	e3e03008 	mvn	r3, #8
  1051e0:	e50b3008 	str	r3, [fp, #-8]
  1051e4:	e320f000 	nop	{0}
  1051e8:	e51b3008 	ldr	r3, [fp, #-8]
  1051ec:	e1a00003 	mov	r0, r3
  1051f0:	e24bd004 	sub	sp, fp, #4
  1051f4:	e8bd8800 	pop	{fp, pc}

001051f8 <alt_clk_is_enabled>:
  1051f8:	e92d4800 	push	{fp, lr}
  1051fc:	e28db004 	add	fp, sp, #4
  105200:	e24dd010 	sub	sp, sp, #16
  105204:	e1a03000 	mov	r3, r0
  105208:	e54b300d 	strb	r3, [fp, #-13]
  10520c:	e3e03008 	mvn	r3, #8
  105210:	e50b3008 	str	r3, [fp, #-8]
  105214:	e55b300d 	ldrb	r3, [fp, #-13]
  105218:	e2433009 	sub	r3, r3, #9
  10521c:	e3530037 	cmp	r3, #55	; 0x37
  105220:	979ff103 	ldrls	pc, [pc, r3, lsl #2]
  105224:	ea000148 	b	10574c <alt_clk_is_enabled+0x554>
  105228:	00105308 	.word	0x00105308
  10522c:	00105308 	.word	0x00105308
  105230:	00105308 	.word	0x00105308
  105234:	0010574c 	.word	0x0010574c
  105238:	00105330 	.word	0x00105330
  10523c:	00105330 	.word	0x00105330
  105240:	00105330 	.word	0x00105330
  105244:	00105330 	.word	0x00105330
  105248:	00105330 	.word	0x00105330
  10524c:	00105330 	.word	0x00105330
  105250:	00105330 	.word	0x00105330
  105254:	00105330 	.word	0x00105330
  105258:	00105330 	.word	0x00105330
  10525c:	00105330 	.word	0x00105330
  105260:	00105364 	.word	0x00105364
  105264:	00105330 	.word	0x00105330
  105268:	0010533c 	.word	0x0010533c
  10526c:	0010538c 	.word	0x0010538c
  105270:	001053b4 	.word	0x001053b4
  105274:	00105330 	.word	0x00105330
  105278:	001053dc 	.word	0x001053dc
  10527c:	0010542c 	.word	0x0010542c
  105280:	00105454 	.word	0x00105454
  105284:	00105404 	.word	0x00105404
  105288:	00105330 	.word	0x00105330
  10528c:	00105330 	.word	0x00105330
  105290:	0010547c 	.word	0x0010547c
  105294:	001054a4 	.word	0x001054a4
  105298:	00105330 	.word	0x00105330
  10529c:	00105330 	.word	0x00105330
  1052a0:	00105330 	.word	0x00105330
  1052a4:	00105330 	.word	0x00105330
  1052a8:	00105330 	.word	0x00105330
  1052ac:	00105330 	.word	0x00105330
  1052b0:	0010551c 	.word	0x0010551c
  1052b4:	00105544 	.word	0x00105544
  1052b8:	00105684 	.word	0x00105684
  1052bc:	00105634 	.word	0x00105634
  1052c0:	0010565c 	.word	0x0010565c
  1052c4:	0010560c 	.word	0x0010560c
  1052c8:	001054cc 	.word	0x001054cc
  1052cc:	001054f4 	.word	0x001054f4
  1052d0:	0010556c 	.word	0x0010556c
  1052d4:	00105594 	.word	0x00105594
  1052d8:	001055bc 	.word	0x001055bc
  1052dc:	001055e4 	.word	0x001055e4
  1052e0:	00105330 	.word	0x00105330
  1052e4:	00105330 	.word	0x00105330
  1052e8:	00105330 	.word	0x00105330
  1052ec:	0010574c 	.word	0x0010574c
  1052f0:	0010574c 	.word	0x0010574c
  1052f4:	00105330 	.word	0x00105330
  1052f8:	001056ac 	.word	0x001056ac
  1052fc:	001056d4 	.word	0x001056d4
  105300:	001056fc 	.word	0x001056fc
  105304:	00105724 	.word	0x00105724
  105308:	e55b300d 	ldrb	r3, [fp, #-13]
  10530c:	e1a00003 	mov	r0, r3
  105310:	ebfffcdc 	bl	104688 <alt_clk_pll_is_bypassed>
  105314:	e1a03000 	mov	r3, r0
  105318:	e3530001 	cmp	r3, #1
  10531c:	13a03001 	movne	r3, #1
  105320:	03a03000 	moveq	r3, #0
  105324:	e6ef3073 	uxtb	r3, r3
  105328:	e50b3008 	str	r3, [fp, #-8]
  10532c:	ea000109 	b	105758 <alt_clk_is_enabled+0x560>
  105330:	e3e03008 	mvn	r3, #8
  105334:	e50b3008 	str	r3, [fp, #-8]
  105338:	ea000106 	b	105758 <alt_clk_is_enabled+0x560>
  10533c:	e3043060 	movw	r3, #16480	; 0x4060
  105340:	e34f3fd0 	movt	r3, #65488	; 0xffd0
  105344:	e5933000 	ldr	r3, [r3]
  105348:	e2033001 	and	r3, r3, #1
  10534c:	e3530000 	cmp	r3, #0
  105350:	13a03001 	movne	r3, #1
  105354:	03a03000 	moveq	r3, #0
  105358:	e6ef3073 	uxtb	r3, r3
  10535c:	e50b3008 	str	r3, [fp, #-8]
  105360:	ea0000fc 	b	105758 <alt_clk_is_enabled+0x560>
  105364:	e3043060 	movw	r3, #16480	; 0x4060
  105368:	e34f3fd0 	movt	r3, #65488	; 0xffd0
  10536c:	e5933000 	ldr	r3, [r3]
  105370:	e2033002 	and	r3, r3, #2
  105374:	e3530000 	cmp	r3, #0
  105378:	13a03001 	movne	r3, #1
  10537c:	03a03000 	moveq	r3, #0
  105380:	e6ef3073 	uxtb	r3, r3
  105384:	e50b3008 	str	r3, [fp, #-8]
  105388:	ea0000f2 	b	105758 <alt_clk_is_enabled+0x560>
  10538c:	e3043060 	movw	r3, #16480	; 0x4060
  105390:	e34f3fd0 	movt	r3, #65488	; 0xffd0
  105394:	e5933000 	ldr	r3, [r3]
  105398:	e2033004 	and	r3, r3, #4
  10539c:	e3530000 	cmp	r3, #0
  1053a0:	13a03001 	movne	r3, #1
  1053a4:	03a03000 	moveq	r3, #0
  1053a8:	e6ef3073 	uxtb	r3, r3
  1053ac:	e50b3008 	str	r3, [fp, #-8]
  1053b0:	ea0000e8 	b	105758 <alt_clk_is_enabled+0x560>
  1053b4:	e3043060 	movw	r3, #16480	; 0x4060
  1053b8:	e34f3fd0 	movt	r3, #65488	; 0xffd0
  1053bc:	e5933000 	ldr	r3, [r3]
  1053c0:	e2033008 	and	r3, r3, #8
  1053c4:	e3530000 	cmp	r3, #0
  1053c8:	13a03001 	movne	r3, #1
  1053cc:	03a03000 	moveq	r3, #0
  1053d0:	e6ef3073 	uxtb	r3, r3
  1053d4:	e50b3008 	str	r3, [fp, #-8]
  1053d8:	ea0000de 	b	105758 <alt_clk_is_enabled+0x560>
  1053dc:	e3043060 	movw	r3, #16480	; 0x4060
  1053e0:	e34f3fd0 	movt	r3, #65488	; 0xffd0
  1053e4:	e5933000 	ldr	r3, [r3]
  1053e8:	e2033010 	and	r3, r3, #16
  1053ec:	e3530000 	cmp	r3, #0
  1053f0:	13a03001 	movne	r3, #1
  1053f4:	03a03000 	moveq	r3, #0
  1053f8:	e6ef3073 	uxtb	r3, r3
  1053fc:	e50b3008 	str	r3, [fp, #-8]
  105400:	ea0000d4 	b	105758 <alt_clk_is_enabled+0x560>
  105404:	e3043060 	movw	r3, #16480	; 0x4060
  105408:	e34f3fd0 	movt	r3, #65488	; 0xffd0
  10540c:	e5933000 	ldr	r3, [r3]
  105410:	e2033020 	and	r3, r3, #32
  105414:	e3530000 	cmp	r3, #0
  105418:	13a03001 	movne	r3, #1
  10541c:	03a03000 	moveq	r3, #0
  105420:	e6ef3073 	uxtb	r3, r3
  105424:	e50b3008 	str	r3, [fp, #-8]
  105428:	ea0000ca 	b	105758 <alt_clk_is_enabled+0x560>
  10542c:	e3043060 	movw	r3, #16480	; 0x4060
  105430:	e34f3fd0 	movt	r3, #65488	; 0xffd0
  105434:	e5933000 	ldr	r3, [r3]
  105438:	e2033040 	and	r3, r3, #64	; 0x40
  10543c:	e3530000 	cmp	r3, #0
  105440:	13a03001 	movne	r3, #1
  105444:	03a03000 	moveq	r3, #0
  105448:	e6ef3073 	uxtb	r3, r3
  10544c:	e50b3008 	str	r3, [fp, #-8]
  105450:	ea0000c0 	b	105758 <alt_clk_is_enabled+0x560>
  105454:	e3043060 	movw	r3, #16480	; 0x4060
  105458:	e34f3fd0 	movt	r3, #65488	; 0xffd0
  10545c:	e5933000 	ldr	r3, [r3]
  105460:	e2033080 	and	r3, r3, #128	; 0x80
  105464:	e3530000 	cmp	r3, #0
  105468:	13a03001 	movne	r3, #1
  10546c:	03a03000 	moveq	r3, #0
  105470:	e6ef3073 	uxtb	r3, r3
  105474:	e50b3008 	str	r3, [fp, #-8]
  105478:	ea0000b6 	b	105758 <alt_clk_is_enabled+0x560>
  10547c:	e3043060 	movw	r3, #16480	; 0x4060
  105480:	e34f3fd0 	movt	r3, #65488	; 0xffd0
  105484:	e5933000 	ldr	r3, [r3]
  105488:	e2033c01 	and	r3, r3, #256	; 0x100
  10548c:	e3530000 	cmp	r3, #0
  105490:	13a03001 	movne	r3, #1
  105494:	03a03000 	moveq	r3, #0
  105498:	e6ef3073 	uxtb	r3, r3
  10549c:	e50b3008 	str	r3, [fp, #-8]
  1054a0:	ea0000ac 	b	105758 <alt_clk_is_enabled+0x560>
  1054a4:	e3043060 	movw	r3, #16480	; 0x4060
  1054a8:	e34f3fd0 	movt	r3, #65488	; 0xffd0
  1054ac:	e5933000 	ldr	r3, [r3]
  1054b0:	e2033c02 	and	r3, r3, #512	; 0x200
  1054b4:	e3530000 	cmp	r3, #0
  1054b8:	13a03001 	movne	r3, #1
  1054bc:	03a03000 	moveq	r3, #0
  1054c0:	e6ef3073 	uxtb	r3, r3
  1054c4:	e50b3008 	str	r3, [fp, #-8]
  1054c8:	ea0000a2 	b	105758 <alt_clk_is_enabled+0x560>
  1054cc:	e30430a0 	movw	r3, #16544	; 0x40a0
  1054d0:	e34f3fd0 	movt	r3, #65488	; 0xffd0
  1054d4:	e5933000 	ldr	r3, [r3]
  1054d8:	e2033001 	and	r3, r3, #1
  1054dc:	e3530000 	cmp	r3, #0
  1054e0:	13a03001 	movne	r3, #1
  1054e4:	03a03000 	moveq	r3, #0
  1054e8:	e6ef3073 	uxtb	r3, r3
  1054ec:	e50b3008 	str	r3, [fp, #-8]
  1054f0:	ea000098 	b	105758 <alt_clk_is_enabled+0x560>
  1054f4:	e30430a0 	movw	r3, #16544	; 0x40a0
  1054f8:	e34f3fd0 	movt	r3, #65488	; 0xffd0
  1054fc:	e5933000 	ldr	r3, [r3]
  105500:	e2033002 	and	r3, r3, #2
  105504:	e3530000 	cmp	r3, #0
  105508:	13a03001 	movne	r3, #1
  10550c:	03a03000 	moveq	r3, #0
  105510:	e6ef3073 	uxtb	r3, r3
  105514:	e50b3008 	str	r3, [fp, #-8]
  105518:	ea00008e 	b	105758 <alt_clk_is_enabled+0x560>
  10551c:	e30430a0 	movw	r3, #16544	; 0x40a0
  105520:	e34f3fd0 	movt	r3, #65488	; 0xffd0
  105524:	e5933000 	ldr	r3, [r3]
  105528:	e2033004 	and	r3, r3, #4
  10552c:	e3530000 	cmp	r3, #0
  105530:	13a03001 	movne	r3, #1
  105534:	03a03000 	moveq	r3, #0
  105538:	e6ef3073 	uxtb	r3, r3
  10553c:	e50b3008 	str	r3, [fp, #-8]
  105540:	ea000084 	b	105758 <alt_clk_is_enabled+0x560>
  105544:	e30430a0 	movw	r3, #16544	; 0x40a0
  105548:	e34f3fd0 	movt	r3, #65488	; 0xffd0
  10554c:	e5933000 	ldr	r3, [r3]
  105550:	e2033008 	and	r3, r3, #8
  105554:	e3530000 	cmp	r3, #0
  105558:	13a03001 	movne	r3, #1
  10555c:	03a03000 	moveq	r3, #0
  105560:	e6ef3073 	uxtb	r3, r3
  105564:	e50b3008 	str	r3, [fp, #-8]
  105568:	ea00007a 	b	105758 <alt_clk_is_enabled+0x560>
  10556c:	e30430a0 	movw	r3, #16544	; 0x40a0
  105570:	e34f3fd0 	movt	r3, #65488	; 0xffd0
  105574:	e5933000 	ldr	r3, [r3]
  105578:	e2033010 	and	r3, r3, #16
  10557c:	e3530000 	cmp	r3, #0
  105580:	13a03001 	movne	r3, #1
  105584:	03a03000 	moveq	r3, #0
  105588:	e6ef3073 	uxtb	r3, r3
  10558c:	e50b3008 	str	r3, [fp, #-8]
  105590:	ea000070 	b	105758 <alt_clk_is_enabled+0x560>
  105594:	e30430a0 	movw	r3, #16544	; 0x40a0
  105598:	e34f3fd0 	movt	r3, #65488	; 0xffd0
  10559c:	e5933000 	ldr	r3, [r3]
  1055a0:	e2033020 	and	r3, r3, #32
  1055a4:	e3530000 	cmp	r3, #0
  1055a8:	13a03001 	movne	r3, #1
  1055ac:	03a03000 	moveq	r3, #0
  1055b0:	e6ef3073 	uxtb	r3, r3
  1055b4:	e50b3008 	str	r3, [fp, #-8]
  1055b8:	ea000066 	b	105758 <alt_clk_is_enabled+0x560>
  1055bc:	e30430a0 	movw	r3, #16544	; 0x40a0
  1055c0:	e34f3fd0 	movt	r3, #65488	; 0xffd0
  1055c4:	e5933000 	ldr	r3, [r3]
  1055c8:	e2033040 	and	r3, r3, #64	; 0x40
  1055cc:	e3530000 	cmp	r3, #0
  1055d0:	13a03001 	movne	r3, #1
  1055d4:	03a03000 	moveq	r3, #0
  1055d8:	e6ef3073 	uxtb	r3, r3
  1055dc:	e50b3008 	str	r3, [fp, #-8]
  1055e0:	ea00005c 	b	105758 <alt_clk_is_enabled+0x560>
  1055e4:	e30430a0 	movw	r3, #16544	; 0x40a0
  1055e8:	e34f3fd0 	movt	r3, #65488	; 0xffd0
  1055ec:	e5933000 	ldr	r3, [r3]
  1055f0:	e2033080 	and	r3, r3, #128	; 0x80
  1055f4:	e3530000 	cmp	r3, #0
  1055f8:	13a03001 	movne	r3, #1
  1055fc:	03a03000 	moveq	r3, #0
  105600:	e6ef3073 	uxtb	r3, r3
  105604:	e50b3008 	str	r3, [fp, #-8]
  105608:	ea000052 	b	105758 <alt_clk_is_enabled+0x560>
  10560c:	e30430a0 	movw	r3, #16544	; 0x40a0
  105610:	e34f3fd0 	movt	r3, #65488	; 0xffd0
  105614:	e5933000 	ldr	r3, [r3]
  105618:	e2033c01 	and	r3, r3, #256	; 0x100
  10561c:	e3530000 	cmp	r3, #0
  105620:	13a03001 	movne	r3, #1
  105624:	03a03000 	moveq	r3, #0
  105628:	e6ef3073 	uxtb	r3, r3
  10562c:	e50b3008 	str	r3, [fp, #-8]
  105630:	ea000048 	b	105758 <alt_clk_is_enabled+0x560>
  105634:	e30430a0 	movw	r3, #16544	; 0x40a0
  105638:	e34f3fd0 	movt	r3, #65488	; 0xffd0
  10563c:	e5933000 	ldr	r3, [r3]
  105640:	e2033c02 	and	r3, r3, #512	; 0x200
  105644:	e3530000 	cmp	r3, #0
  105648:	13a03001 	movne	r3, #1
  10564c:	03a03000 	moveq	r3, #0
  105650:	e6ef3073 	uxtb	r3, r3
  105654:	e50b3008 	str	r3, [fp, #-8]
  105658:	ea00003e 	b	105758 <alt_clk_is_enabled+0x560>
  10565c:	e30430a0 	movw	r3, #16544	; 0x40a0
  105660:	e34f3fd0 	movt	r3, #65488	; 0xffd0
  105664:	e5933000 	ldr	r3, [r3]
  105668:	e2033b01 	and	r3, r3, #1024	; 0x400
  10566c:	e3530000 	cmp	r3, #0
  105670:	13a03001 	movne	r3, #1
  105674:	03a03000 	moveq	r3, #0
  105678:	e6ef3073 	uxtb	r3, r3
  10567c:	e50b3008 	str	r3, [fp, #-8]
  105680:	ea000034 	b	105758 <alt_clk_is_enabled+0x560>
  105684:	e30430a0 	movw	r3, #16544	; 0x40a0
  105688:	e34f3fd0 	movt	r3, #65488	; 0xffd0
  10568c:	e5933000 	ldr	r3, [r3]
  105690:	e2033b02 	and	r3, r3, #2048	; 0x800
  105694:	e3530000 	cmp	r3, #0
  105698:	13a03001 	movne	r3, #1
  10569c:	03a03000 	moveq	r3, #0
  1056a0:	e6ef3073 	uxtb	r3, r3
  1056a4:	e50b3008 	str	r3, [fp, #-8]
  1056a8:	ea00002a 	b	105758 <alt_clk_is_enabled+0x560>
  1056ac:	e30430d8 	movw	r3, #16600	; 0x40d8
  1056b0:	e34f3fd0 	movt	r3, #65488	; 0xffd0
  1056b4:	e5933000 	ldr	r3, [r3]
  1056b8:	e2033001 	and	r3, r3, #1
  1056bc:	e3530000 	cmp	r3, #0
  1056c0:	13a03001 	movne	r3, #1
  1056c4:	03a03000 	moveq	r3, #0
  1056c8:	e6ef3073 	uxtb	r3, r3
  1056cc:	e50b3008 	str	r3, [fp, #-8]
  1056d0:	ea000020 	b	105758 <alt_clk_is_enabled+0x560>
  1056d4:	e30430d8 	movw	r3, #16600	; 0x40d8
  1056d8:	e34f3fd0 	movt	r3, #65488	; 0xffd0
  1056dc:	e5933000 	ldr	r3, [r3]
  1056e0:	e2033002 	and	r3, r3, #2
  1056e4:	e3530000 	cmp	r3, #0
  1056e8:	13a03001 	movne	r3, #1
  1056ec:	03a03000 	moveq	r3, #0
  1056f0:	e6ef3073 	uxtb	r3, r3
  1056f4:	e50b3008 	str	r3, [fp, #-8]
  1056f8:	ea000016 	b	105758 <alt_clk_is_enabled+0x560>
  1056fc:	e30430d8 	movw	r3, #16600	; 0x40d8
  105700:	e34f3fd0 	movt	r3, #65488	; 0xffd0
  105704:	e5933000 	ldr	r3, [r3]
  105708:	e2033004 	and	r3, r3, #4
  10570c:	e3530000 	cmp	r3, #0
  105710:	13a03001 	movne	r3, #1
  105714:	03a03000 	moveq	r3, #0
  105718:	e6ef3073 	uxtb	r3, r3
  10571c:	e50b3008 	str	r3, [fp, #-8]
  105720:	ea00000c 	b	105758 <alt_clk_is_enabled+0x560>
  105724:	e30430d8 	movw	r3, #16600	; 0x40d8
  105728:	e34f3fd0 	movt	r3, #65488	; 0xffd0
  10572c:	e5933000 	ldr	r3, [r3]
  105730:	e2033008 	and	r3, r3, #8
  105734:	e3530000 	cmp	r3, #0
  105738:	13a03001 	movne	r3, #1
  10573c:	03a03000 	moveq	r3, #0
  105740:	e6ef3073 	uxtb	r3, r3
  105744:	e50b3008 	str	r3, [fp, #-8]
  105748:	ea000002 	b	105758 <alt_clk_is_enabled+0x560>
  10574c:	e3e03008 	mvn	r3, #8
  105750:	e50b3008 	str	r3, [fp, #-8]
  105754:	e320f000 	nop	{0}
  105758:	e51b3008 	ldr	r3, [fp, #-8]
  10575c:	e1a00003 	mov	r0, r3
  105760:	e24bd004 	sub	sp, fp, #4
  105764:	e8bd8800 	pop	{fp, pc}

00105768 <alt_clk_source_get>:
  105768:	e92d4800 	push	{fp, lr}
  10576c:	e28db004 	add	fp, sp, #4
  105770:	e24dd010 	sub	sp, sp, #16
  105774:	e1a03000 	mov	r3, r0
  105778:	e54b300d 	strb	r3, [fp, #-13]
  10577c:	e3a0304b 	mov	r3, #75	; 0x4b
  105780:	e54b3005 	strb	r3, [fp, #-5]
  105784:	e55b300d 	ldrb	r3, [fp, #-13]
  105788:	e353004a 	cmp	r3, #74	; 0x4a
  10578c:	979ff103 	ldrls	pc, [pc, r3, lsl #2]
  105790:	ea0001ca 	b	105ec0 <alt_clk_source_get+0x758>
  105794:	001058c0 	.word	0x001058c0
  105798:	001058c0 	.word	0x001058c0
  10579c:	001058c0 	.word	0x001058c0
  1057a0:	001058c0 	.word	0x001058c0
  1057a4:	001058c0 	.word	0x001058c0
  1057a8:	001058c0 	.word	0x001058c0
  1057ac:	001058c0 	.word	0x001058c0
  1057b0:	001058c0 	.word	0x001058c0
  1057b4:	001058c0 	.word	0x001058c0
  1057b8:	001058cc 	.word	0x001058cc
  1057bc:	001058d8 	.word	0x001058d8
  1057c0:	001058ec 	.word	0x001058ec
  1057c4:	001058cc 	.word	0x001058cc
  1057c8:	00105900 	.word	0x00105900
  1057cc:	00105900 	.word	0x00105900
  1057d0:	00105900 	.word	0x00105900
  1057d4:	00105900 	.word	0x00105900
  1057d8:	00105900 	.word	0x00105900
  1057dc:	00105900 	.word	0x00105900
  1057e0:	00105928 	.word	0x00105928
  1057e4:	00105928 	.word	0x00105928
  1057e8:	00105928 	.word	0x00105928
  1057ec:	00105950 	.word	0x00105950
  1057f0:	00105950 	.word	0x00105950
  1057f4:	00105950 	.word	0x00105950
  1057f8:	00105950 	.word	0x00105950
  1057fc:	00105978 	.word	0x00105978
  105800:	001059e8 	.word	0x001059e8
  105804:	00105a58 	.word	0x00105a58
  105808:	00105a58 	.word	0x00105a58
  10580c:	00105a58 	.word	0x00105a58
  105810:	00105a58 	.word	0x00105a58
  105814:	00105a58 	.word	0x00105a58
  105818:	00105a80 	.word	0x00105a80
  10581c:	00105aa8 	.word	0x00105aa8
  105820:	00105ad0 	.word	0x00105ad0
  105824:	00105ad0 	.word	0x00105ad0
  105828:	00105af8 	.word	0x00105af8
  10582c:	00105af8 	.word	0x00105af8
  105830:	00105af8 	.word	0x00105af8
  105834:	00105af8 	.word	0x00105af8
  105838:	00105af8 	.word	0x00105af8
  10583c:	00105af8 	.word	0x00105af8
  105840:	00105b88 	.word	0x00105b88
  105844:	00105b88 	.word	0x00105b88
  105848:	00105d24 	.word	0x00105d24
  10584c:	00105c84 	.word	0x00105c84
  105850:	00105c84 	.word	0x00105c84
  105854:	00105be8 	.word	0x00105be8
  105858:	00105b28 	.word	0x00105b28
  10585c:	00105b58 	.word	0x00105b58
  105860:	00105b88 	.word	0x00105b88
  105864:	00105b88 	.word	0x00105b88
  105868:	00105b88 	.word	0x00105b88
  10586c:	00105bb8 	.word	0x00105bb8
  105870:	00105dc4 	.word	0x00105dc4
  105874:	00105dc4 	.word	0x00105dc4
  105878:	00105dc4 	.word	0x00105dc4
  10587c:	00105dc4 	.word	0x00105dc4
  105880:	00105dc4 	.word	0x00105dc4
  105884:	00105dc4 	.word	0x00105dc4
  105888:	00105df4 	.word	0x00105df4
  10588c:	00105e24 	.word	0x00105e24
  105890:	00105e54 	.word	0x00105e54
  105894:	00105e84 	.word	0x00105e84
  105898:	00105eb4 	.word	0x00105eb4
  10589c:	00105eb4 	.word	0x00105eb4
  1058a0:	00105eb4 	.word	0x00105eb4
  1058a4:	00105eb4 	.word	0x00105eb4
  1058a8:	00105eb4 	.word	0x00105eb4
  1058ac:	00105eb4 	.word	0x00105eb4
  1058b0:	00105eb4 	.word	0x00105eb4
  1058b4:	00105eb4 	.word	0x00105eb4
  1058b8:	00105eb4 	.word	0x00105eb4
  1058bc:	00105eb4 	.word	0x00105eb4
  1058c0:	e55b300d 	ldrb	r3, [fp, #-13]
  1058c4:	e54b3005 	strb	r3, [fp, #-5]
  1058c8:	ea000184 	b	105ee0 <alt_clk_source_get+0x778>
  1058cc:	e3a03000 	mov	r3, #0
  1058d0:	e54b3005 	strb	r3, [fp, #-5]
  1058d4:	ea000181 	b	105ee0 <alt_clk_source_get+0x778>
  1058d8:	e3a0000a 	mov	r0, #10
  1058dc:	ebfffbb0 	bl	1047a4 <alt_clk_pll_source_get>
  1058e0:	e1a03000 	mov	r3, r0
  1058e4:	e54b3005 	strb	r3, [fp, #-5]
  1058e8:	ea00017c 	b	105ee0 <alt_clk_source_get+0x778>
  1058ec:	e3a0000b 	mov	r0, #11
  1058f0:	ebfffbab 	bl	1047a4 <alt_clk_pll_source_get>
  1058f4:	e1a03000 	mov	r3, r0
  1058f8:	e54b3005 	strb	r3, [fp, #-5]
  1058fc:	ea000177 	b	105ee0 <alt_clk_source_get+0x778>
  105900:	e3a00009 	mov	r0, #9
  105904:	ebfffb5f 	bl	104688 <alt_clk_pll_is_bypassed>
  105908:	e1a03000 	mov	r3, r0
  10590c:	e3530001 	cmp	r3, #1
  105910:	1a000001 	bne	10591c <alt_clk_source_get+0x1b4>
  105914:	e3a03000 	mov	r3, #0
  105918:	ea000000 	b	105920 <alt_clk_source_get+0x1b8>
  10591c:	e3a03009 	mov	r3, #9
  105920:	e54b3005 	strb	r3, [fp, #-5]
  105924:	ea00016d 	b	105ee0 <alt_clk_source_get+0x778>
  105928:	e3a00009 	mov	r0, #9
  10592c:	ebfffb55 	bl	104688 <alt_clk_pll_is_bypassed>
  105930:	e1a03000 	mov	r3, r0
  105934:	e3530001 	cmp	r3, #1
  105938:	1a000001 	bne	105944 <alt_clk_source_get+0x1dc>
  10593c:	e3a03000 	mov	r3, #0
  105940:	ea000000 	b	105948 <alt_clk_source_get+0x1e0>
  105944:	e3a0300d 	mov	r3, #13
  105948:	e54b3005 	strb	r3, [fp, #-5]
  10594c:	ea000163 	b	105ee0 <alt_clk_source_get+0x778>
  105950:	e3a00009 	mov	r0, #9
  105954:	ebfffb4b 	bl	104688 <alt_clk_pll_is_bypassed>
  105958:	e1a03000 	mov	r3, r0
  10595c:	e3530001 	cmp	r3, #1
  105960:	1a000001 	bne	10596c <alt_clk_source_get+0x204>
  105964:	e3a03000 	mov	r3, #0
  105968:	ea000000 	b	105970 <alt_clk_source_get+0x208>
  10596c:	e3a0300e 	mov	r3, #14
  105970:	e54b3005 	strb	r3, [fp, #-5]
  105974:	ea000159 	b	105ee0 <alt_clk_source_get+0x778>
  105978:	e3043070 	movw	r3, #16496	; 0x4070
  10597c:	e34f3fd0 	movt	r3, #65488	; 0xffd0
  105980:	e5933000 	ldr	r3, [r3]
  105984:	e2033001 	and	r3, r3, #1
  105988:	e3530000 	cmp	r3, #0
  10598c:	1a000009 	bne	1059b8 <alt_clk_source_get+0x250>
  105990:	e3a00009 	mov	r0, #9
  105994:	ebfffb3b 	bl	104688 <alt_clk_pll_is_bypassed>
  105998:	e1a03000 	mov	r3, r0
  10599c:	e3530001 	cmp	r3, #1
  1059a0:	1a000001 	bne	1059ac <alt_clk_source_get+0x244>
  1059a4:	e3a03000 	mov	r3, #0
  1059a8:	ea000000 	b	1059b0 <alt_clk_source_get+0x248>
  1059ac:	e3a0300e 	mov	r3, #14
  1059b0:	e54b3005 	strb	r3, [fp, #-5]
  1059b4:	ea000149 	b	105ee0 <alt_clk_source_get+0x778>
  1059b8:	e3a0000a 	mov	r0, #10
  1059bc:	ebfffb31 	bl	104688 <alt_clk_pll_is_bypassed>
  1059c0:	e1a03000 	mov	r3, r0
  1059c4:	e3530001 	cmp	r3, #1
  1059c8:	1a000003 	bne	1059dc <alt_clk_source_get+0x274>
  1059cc:	e3a0000a 	mov	r0, #10
  1059d0:	ebfffb73 	bl	1047a4 <alt_clk_pll_source_get>
  1059d4:	e1a03000 	mov	r3, r0
  1059d8:	ea000000 	b	1059e0 <alt_clk_source_get+0x278>
  1059dc:	e3a03029 	mov	r3, #41	; 0x29
  1059e0:	e54b3005 	strb	r3, [fp, #-5]
  1059e4:	ea00013d 	b	105ee0 <alt_clk_source_get+0x778>
  1059e8:	e3043070 	movw	r3, #16496	; 0x4070
  1059ec:	e34f3fd0 	movt	r3, #65488	; 0xffd0
  1059f0:	e5933000 	ldr	r3, [r3]
  1059f4:	e2033002 	and	r3, r3, #2
  1059f8:	e3530000 	cmp	r3, #0
  1059fc:	1a000009 	bne	105a28 <alt_clk_source_get+0x2c0>
  105a00:	e3a00009 	mov	r0, #9
  105a04:	ebfffb1f 	bl	104688 <alt_clk_pll_is_bypassed>
  105a08:	e1a03000 	mov	r3, r0
  105a0c:	e3530001 	cmp	r3, #1
  105a10:	1a000001 	bne	105a1c <alt_clk_source_get+0x2b4>
  105a14:	e3a03000 	mov	r3, #0
  105a18:	ea000000 	b	105a20 <alt_clk_source_get+0x2b8>
  105a1c:	e3a0300e 	mov	r3, #14
  105a20:	e54b3005 	strb	r3, [fp, #-5]
  105a24:	ea00012d 	b	105ee0 <alt_clk_source_get+0x778>
  105a28:	e3a0000a 	mov	r0, #10
  105a2c:	ebfffb15 	bl	104688 <alt_clk_pll_is_bypassed>
  105a30:	e1a03000 	mov	r3, r0
  105a34:	e3530001 	cmp	r3, #1
  105a38:	1a000003 	bne	105a4c <alt_clk_source_get+0x2e4>
  105a3c:	e3a0000a 	mov	r0, #10
  105a40:	ebfffb57 	bl	1047a4 <alt_clk_pll_source_get>
  105a44:	e1a03000 	mov	r3, r0
  105a48:	ea000000 	b	105a50 <alt_clk_source_get+0x2e8>
  105a4c:	e3a03029 	mov	r3, #41	; 0x29
  105a50:	e54b3005 	strb	r3, [fp, #-5]
  105a54:	ea000121 	b	105ee0 <alt_clk_source_get+0x778>
  105a58:	e3a00009 	mov	r0, #9
  105a5c:	ebfffb09 	bl	104688 <alt_clk_pll_is_bypassed>
  105a60:	e1a03000 	mov	r3, r0
  105a64:	e3530001 	cmp	r3, #1
  105a68:	1a000001 	bne	105a74 <alt_clk_source_get+0x30c>
  105a6c:	e3a0300c 	mov	r3, #12
  105a70:	ea000000 	b	105a78 <alt_clk_source_get+0x310>
  105a74:	e3a0300f 	mov	r3, #15
  105a78:	e54b3005 	strb	r3, [fp, #-5]
  105a7c:	ea000117 	b	105ee0 <alt_clk_source_get+0x778>
  105a80:	e3a00009 	mov	r0, #9
  105a84:	ebfffaff 	bl	104688 <alt_clk_pll_is_bypassed>
  105a88:	e1a03000 	mov	r3, r0
  105a8c:	e3530001 	cmp	r3, #1
  105a90:	1a000001 	bne	105a9c <alt_clk_source_get+0x334>
  105a94:	e3a0300c 	mov	r3, #12
  105a98:	ea000000 	b	105aa0 <alt_clk_source_get+0x338>
  105a9c:	e3a03010 	mov	r3, #16
  105aa0:	e54b3005 	strb	r3, [fp, #-5]
  105aa4:	ea00010d 	b	105ee0 <alt_clk_source_get+0x778>
  105aa8:	e3a00009 	mov	r0, #9
  105aac:	ebfffaf5 	bl	104688 <alt_clk_pll_is_bypassed>
  105ab0:	e1a03000 	mov	r3, r0
  105ab4:	e3530001 	cmp	r3, #1
  105ab8:	1a000001 	bne	105ac4 <alt_clk_source_get+0x35c>
  105abc:	e3a0300c 	mov	r3, #12
  105ac0:	ea000000 	b	105ac8 <alt_clk_source_get+0x360>
  105ac4:	e3a03011 	mov	r3, #17
  105ac8:	e54b3005 	strb	r3, [fp, #-5]
  105acc:	ea000103 	b	105ee0 <alt_clk_source_get+0x778>
  105ad0:	e3a00009 	mov	r0, #9
  105ad4:	ebfffaeb 	bl	104688 <alt_clk_pll_is_bypassed>
  105ad8:	e1a03000 	mov	r3, r0
  105adc:	e3530001 	cmp	r3, #1
  105ae0:	1a000001 	bne	105aec <alt_clk_source_get+0x384>
  105ae4:	e3a0300c 	mov	r3, #12
  105ae8:	ea000000 	b	105af0 <alt_clk_source_get+0x388>
  105aec:	e3a03012 	mov	r3, #18
  105af0:	e54b3005 	strb	r3, [fp, #-5]
  105af4:	ea0000f9 	b	105ee0 <alt_clk_source_get+0x778>
  105af8:	e3a0000a 	mov	r0, #10
  105afc:	ebfffae1 	bl	104688 <alt_clk_pll_is_bypassed>
  105b00:	e1a03000 	mov	r3, r0
  105b04:	e3530001 	cmp	r3, #1
  105b08:	1a000003 	bne	105b1c <alt_clk_source_get+0x3b4>
  105b0c:	e3a0000a 	mov	r0, #10
  105b10:	ebfffb23 	bl	1047a4 <alt_clk_pll_source_get>
  105b14:	e1a03000 	mov	r3, r0
  105b18:	ea000000 	b	105b20 <alt_clk_source_get+0x3b8>
  105b1c:	e3a0300a 	mov	r3, #10
  105b20:	e54b3005 	strb	r3, [fp, #-5]
  105b24:	ea0000ed 	b	105ee0 <alt_clk_source_get+0x778>
  105b28:	e3a0000a 	mov	r0, #10
  105b2c:	ebfffad5 	bl	104688 <alt_clk_pll_is_bypassed>
  105b30:	e1a03000 	mov	r3, r0
  105b34:	e3530001 	cmp	r3, #1
  105b38:	1a000003 	bne	105b4c <alt_clk_source_get+0x3e4>
  105b3c:	e3a0000a 	mov	r0, #10
  105b40:	ebfffb17 	bl	1047a4 <alt_clk_pll_source_get>
  105b44:	e1a03000 	mov	r3, r0
  105b48:	ea000000 	b	105b50 <alt_clk_source_get+0x3e8>
  105b4c:	e3a03025 	mov	r3, #37	; 0x25
  105b50:	e54b3005 	strb	r3, [fp, #-5]
  105b54:	ea0000e1 	b	105ee0 <alt_clk_source_get+0x778>
  105b58:	e3a0000a 	mov	r0, #10
  105b5c:	ebfffac9 	bl	104688 <alt_clk_pll_is_bypassed>
  105b60:	e1a03000 	mov	r3, r0
  105b64:	e3530001 	cmp	r3, #1
  105b68:	1a000003 	bne	105b7c <alt_clk_source_get+0x414>
  105b6c:	e3a0000a 	mov	r0, #10
  105b70:	ebfffb0b 	bl	1047a4 <alt_clk_pll_source_get>
  105b74:	e1a03000 	mov	r3, r0
  105b78:	ea000000 	b	105b80 <alt_clk_source_get+0x418>
  105b7c:	e3a03026 	mov	r3, #38	; 0x26
  105b80:	e54b3005 	strb	r3, [fp, #-5]
  105b84:	ea0000d5 	b	105ee0 <alt_clk_source_get+0x778>
  105b88:	e3a0000a 	mov	r0, #10
  105b8c:	ebfffabd 	bl	104688 <alt_clk_pll_is_bypassed>
  105b90:	e1a03000 	mov	r3, r0
  105b94:	e3530001 	cmp	r3, #1
  105b98:	1a000003 	bne	105bac <alt_clk_source_get+0x444>
  105b9c:	e3a0000a 	mov	r0, #10
  105ba0:	ebfffaff 	bl	1047a4 <alt_clk_pll_source_get>
  105ba4:	e1a03000 	mov	r3, r0
  105ba8:	ea000000 	b	105bb0 <alt_clk_source_get+0x448>
  105bac:	e3a03029 	mov	r3, #41	; 0x29
  105bb0:	e54b3005 	strb	r3, [fp, #-5]
  105bb4:	ea0000c9 	b	105ee0 <alt_clk_source_get+0x778>
  105bb8:	e3a0000a 	mov	r0, #10
  105bbc:	ebfffab1 	bl	104688 <alt_clk_pll_is_bypassed>
  105bc0:	e1a03000 	mov	r3, r0
  105bc4:	e3530001 	cmp	r3, #1
  105bc8:	1a000003 	bne	105bdc <alt_clk_source_get+0x474>
  105bcc:	e3a0000a 	mov	r0, #10
  105bd0:	ebfffaf3 	bl	1047a4 <alt_clk_pll_source_get>
  105bd4:	e1a03000 	mov	r3, r0
  105bd8:	ea000000 	b	105be0 <alt_clk_source_get+0x478>
  105bdc:	e3a0302a 	mov	r3, #42	; 0x2a
  105be0:	e54b3005 	strb	r3, [fp, #-5]
  105be4:	ea0000bd 	b	105ee0 <alt_clk_source_get+0x778>
  105be8:	e30430ac 	movw	r3, #16556	; 0x40ac
  105bec:	e34f3fd0 	movt	r3, #65488	; 0xffd0
  105bf0:	e5933000 	ldr	r3, [r3]
  105bf4:	e2033003 	and	r3, r3, #3
  105bf8:	e50b300c 	str	r3, [fp, #-12]
  105bfc:	e51b300c 	ldr	r3, [fp, #-12]
  105c00:	e3530000 	cmp	r3, #0
  105c04:	1a000002 	bne	105c14 <alt_clk_source_get+0x4ac>
  105c08:	e3a03002 	mov	r3, #2
  105c0c:	e54b3005 	strb	r3, [fp, #-5]
  105c10:	ea0000ad 	b	105ecc <alt_clk_source_get+0x764>
  105c14:	e51b300c 	ldr	r3, [fp, #-12]
  105c18:	e3530001 	cmp	r3, #1
  105c1c:	1a000009 	bne	105c48 <alt_clk_source_get+0x4e0>
  105c20:	e3a00009 	mov	r0, #9
  105c24:	ebfffa97 	bl	104688 <alt_clk_pll_is_bypassed>
  105c28:	e1a03000 	mov	r3, r0
  105c2c:	e3530001 	cmp	r3, #1
  105c30:	1a000001 	bne	105c3c <alt_clk_source_get+0x4d4>
  105c34:	e3a03000 	mov	r3, #0
  105c38:	ea000000 	b	105c40 <alt_clk_source_get+0x4d8>
  105c3c:	e3a03011 	mov	r3, #17
  105c40:	e54b3005 	strb	r3, [fp, #-5]
  105c44:	ea0000a0 	b	105ecc <alt_clk_source_get+0x764>
  105c48:	e51b300c 	ldr	r3, [fp, #-12]
  105c4c:	e3530002 	cmp	r3, #2
  105c50:	1a00009d 	bne	105ecc <alt_clk_source_get+0x764>
  105c54:	e3a0000a 	mov	r0, #10
  105c58:	ebfffa8a 	bl	104688 <alt_clk_pll_is_bypassed>
  105c5c:	e1a03000 	mov	r3, r0
  105c60:	e3530001 	cmp	r3, #1
  105c64:	1a000003 	bne	105c78 <alt_clk_source_get+0x510>
  105c68:	e3a0000a 	mov	r0, #10
  105c6c:	ebfffacc 	bl	1047a4 <alt_clk_pll_source_get>
  105c70:	e1a03000 	mov	r3, r0
  105c74:	ea000000 	b	105c7c <alt_clk_source_get+0x514>
  105c78:	e3a03028 	mov	r3, #40	; 0x28
  105c7c:	e54b3005 	strb	r3, [fp, #-5]
  105c80:	ea000091 	b	105ecc <alt_clk_source_get+0x764>
  105c84:	e30430ac 	movw	r3, #16556	; 0x40ac
  105c88:	e34f3fd0 	movt	r3, #65488	; 0xffd0
  105c8c:	e5933000 	ldr	r3, [r3]
  105c90:	e1a03123 	lsr	r3, r3, #2
  105c94:	e2033003 	and	r3, r3, #3
  105c98:	e50b300c 	str	r3, [fp, #-12]
  105c9c:	e51b300c 	ldr	r3, [fp, #-12]
  105ca0:	e3530000 	cmp	r3, #0
  105ca4:	1a000002 	bne	105cb4 <alt_clk_source_get+0x54c>
  105ca8:	e3a03002 	mov	r3, #2
  105cac:	e54b3005 	strb	r3, [fp, #-5]
  105cb0:	ea000087 	b	105ed4 <alt_clk_source_get+0x76c>
  105cb4:	e51b300c 	ldr	r3, [fp, #-12]
  105cb8:	e3530001 	cmp	r3, #1
  105cbc:	1a000009 	bne	105ce8 <alt_clk_source_get+0x580>
  105cc0:	e3a00009 	mov	r0, #9
  105cc4:	ebfffa6f 	bl	104688 <alt_clk_pll_is_bypassed>
  105cc8:	e1a03000 	mov	r3, r0
  105ccc:	e3530001 	cmp	r3, #1
  105cd0:	1a000001 	bne	105cdc <alt_clk_source_get+0x574>
  105cd4:	e3a03000 	mov	r3, #0
  105cd8:	ea000000 	b	105ce0 <alt_clk_source_get+0x578>
  105cdc:	e3a03011 	mov	r3, #17
  105ce0:	e54b3005 	strb	r3, [fp, #-5]
  105ce4:	ea00007a 	b	105ed4 <alt_clk_source_get+0x76c>
  105ce8:	e51b300c 	ldr	r3, [fp, #-12]
  105cec:	e3530002 	cmp	r3, #2
  105cf0:	1a000077 	bne	105ed4 <alt_clk_source_get+0x76c>
  105cf4:	e3a0000a 	mov	r0, #10
  105cf8:	ebfffa62 	bl	104688 <alt_clk_pll_is_bypassed>
  105cfc:	e1a03000 	mov	r3, r0
  105d00:	e3530001 	cmp	r3, #1
  105d04:	1a000003 	bne	105d18 <alt_clk_source_get+0x5b0>
  105d08:	e3a0000a 	mov	r0, #10
  105d0c:	ebfffaa4 	bl	1047a4 <alt_clk_pll_source_get>
  105d10:	e1a03000 	mov	r3, r0
  105d14:	ea000000 	b	105d1c <alt_clk_source_get+0x5b4>
  105d18:	e3a03028 	mov	r3, #40	; 0x28
  105d1c:	e54b3005 	strb	r3, [fp, #-5]
  105d20:	ea00006b 	b	105ed4 <alt_clk_source_get+0x76c>
  105d24:	e30430ac 	movw	r3, #16556	; 0x40ac
  105d28:	e34f3fd0 	movt	r3, #65488	; 0xffd0
  105d2c:	e5933000 	ldr	r3, [r3]
  105d30:	e1a03223 	lsr	r3, r3, #4
  105d34:	e2033003 	and	r3, r3, #3
  105d38:	e50b300c 	str	r3, [fp, #-12]
  105d3c:	e51b300c 	ldr	r3, [fp, #-12]
  105d40:	e3530000 	cmp	r3, #0
  105d44:	1a000002 	bne	105d54 <alt_clk_source_get+0x5ec>
  105d48:	e3a03002 	mov	r3, #2
  105d4c:	e54b3005 	strb	r3, [fp, #-5]
  105d50:	ea000061 	b	105edc <alt_clk_source_get+0x774>
  105d54:	e51b300c 	ldr	r3, [fp, #-12]
  105d58:	e3530001 	cmp	r3, #1
  105d5c:	1a000009 	bne	105d88 <alt_clk_source_get+0x620>
  105d60:	e3a00009 	mov	r0, #9
  105d64:	ebfffa47 	bl	104688 <alt_clk_pll_is_bypassed>
  105d68:	e1a03000 	mov	r3, r0
  105d6c:	e3530001 	cmp	r3, #1
  105d70:	1a000001 	bne	105d7c <alt_clk_source_get+0x614>
  105d74:	e3a03000 	mov	r3, #0
  105d78:	ea000000 	b	105d80 <alt_clk_source_get+0x618>
  105d7c:	e3a03010 	mov	r3, #16
  105d80:	e54b3005 	strb	r3, [fp, #-5]
  105d84:	ea000054 	b	105edc <alt_clk_source_get+0x774>
  105d88:	e51b300c 	ldr	r3, [fp, #-12]
  105d8c:	e3530002 	cmp	r3, #2
  105d90:	1a000051 	bne	105edc <alt_clk_source_get+0x774>
  105d94:	e3a0000a 	mov	r0, #10
  105d98:	ebfffa3a 	bl	104688 <alt_clk_pll_is_bypassed>
  105d9c:	e1a03000 	mov	r3, r0
  105da0:	e3530001 	cmp	r3, #1
  105da4:	1a000003 	bne	105db8 <alt_clk_source_get+0x650>
  105da8:	e3a0000a 	mov	r0, #10
  105dac:	ebfffa7c 	bl	1047a4 <alt_clk_pll_source_get>
  105db0:	e1a03000 	mov	r3, r0
  105db4:	ea000000 	b	105dbc <alt_clk_source_get+0x654>
  105db8:	e3a03027 	mov	r3, #39	; 0x27
  105dbc:	e54b3005 	strb	r3, [fp, #-5]
  105dc0:	ea000045 	b	105edc <alt_clk_source_get+0x774>
  105dc4:	e3a0000b 	mov	r0, #11
  105dc8:	ebfffa2e 	bl	104688 <alt_clk_pll_is_bypassed>
  105dcc:	e1a03000 	mov	r3, r0
  105dd0:	e3530001 	cmp	r3, #1
  105dd4:	1a000003 	bne	105de8 <alt_clk_source_get+0x680>
  105dd8:	e3a0000b 	mov	r0, #11
  105ddc:	ebfffa70 	bl	1047a4 <alt_clk_pll_source_get>
  105de0:	e1a03000 	mov	r3, r0
  105de4:	ea000000 	b	105dec <alt_clk_source_get+0x684>
  105de8:	e3a0300b 	mov	r3, #11
  105dec:	e54b3005 	strb	r3, [fp, #-5]
  105df0:	ea00003a 	b	105ee0 <alt_clk_source_get+0x778>
  105df4:	e3a0000b 	mov	r0, #11
  105df8:	ebfffa22 	bl	104688 <alt_clk_pll_is_bypassed>
  105dfc:	e1a03000 	mov	r3, r0
  105e00:	e3530001 	cmp	r3, #1
  105e04:	1a000003 	bne	105e18 <alt_clk_source_get+0x6b0>
  105e08:	e3a0000b 	mov	r0, #11
  105e0c:	ebfffa64 	bl	1047a4 <alt_clk_pll_source_get>
  105e10:	e1a03000 	mov	r3, r0
  105e14:	ea000000 	b	105e1c <alt_clk_source_get+0x6b4>
  105e18:	e3a03037 	mov	r3, #55	; 0x37
  105e1c:	e54b3005 	strb	r3, [fp, #-5]
  105e20:	ea00002e 	b	105ee0 <alt_clk_source_get+0x778>
  105e24:	e3a0000b 	mov	r0, #11
  105e28:	ebfffa16 	bl	104688 <alt_clk_pll_is_bypassed>
  105e2c:	e1a03000 	mov	r3, r0
  105e30:	e3530001 	cmp	r3, #1
  105e34:	1a000003 	bne	105e48 <alt_clk_source_get+0x6e0>
  105e38:	e3a0000b 	mov	r0, #11
  105e3c:	ebfffa58 	bl	1047a4 <alt_clk_pll_source_get>
  105e40:	e1a03000 	mov	r3, r0
  105e44:	ea000000 	b	105e4c <alt_clk_source_get+0x6e4>
  105e48:	e3a03038 	mov	r3, #56	; 0x38
  105e4c:	e54b3005 	strb	r3, [fp, #-5]
  105e50:	ea000022 	b	105ee0 <alt_clk_source_get+0x778>
  105e54:	e3a0000b 	mov	r0, #11
  105e58:	ebfffa0a 	bl	104688 <alt_clk_pll_is_bypassed>
  105e5c:	e1a03000 	mov	r3, r0
  105e60:	e3530001 	cmp	r3, #1
  105e64:	1a000003 	bne	105e78 <alt_clk_source_get+0x710>
  105e68:	e3a0000b 	mov	r0, #11
  105e6c:	ebfffa4c 	bl	1047a4 <alt_clk_pll_source_get>
  105e70:	e1a03000 	mov	r3, r0
  105e74:	ea000000 	b	105e7c <alt_clk_source_get+0x714>
  105e78:	e3a03039 	mov	r3, #57	; 0x39
  105e7c:	e54b3005 	strb	r3, [fp, #-5]
  105e80:	ea000016 	b	105ee0 <alt_clk_source_get+0x778>
  105e84:	e3a0000b 	mov	r0, #11
  105e88:	ebfff9fe 	bl	104688 <alt_clk_pll_is_bypassed>
  105e8c:	e1a03000 	mov	r3, r0
  105e90:	e3530001 	cmp	r3, #1
  105e94:	1a000003 	bne	105ea8 <alt_clk_source_get+0x740>
  105e98:	e3a0000b 	mov	r0, #11
  105e9c:	ebfffa40 	bl	1047a4 <alt_clk_pll_source_get>
  105ea0:	e1a03000 	mov	r3, r0
  105ea4:	ea000000 	b	105eac <alt_clk_source_get+0x744>
  105ea8:	e3a0303c 	mov	r3, #60	; 0x3c
  105eac:	e54b3005 	strb	r3, [fp, #-5]
  105eb0:	ea00000a 	b	105ee0 <alt_clk_source_get+0x778>
  105eb4:	e3a0304b 	mov	r3, #75	; 0x4b
  105eb8:	e54b3005 	strb	r3, [fp, #-5]
  105ebc:	ea000007 	b	105ee0 <alt_clk_source_get+0x778>
  105ec0:	e3a0304b 	mov	r3, #75	; 0x4b
  105ec4:	e54b3005 	strb	r3, [fp, #-5]
  105ec8:	ea000004 	b	105ee0 <alt_clk_source_get+0x778>
  105ecc:	e320f000 	nop	{0}
  105ed0:	ea000002 	b	105ee0 <alt_clk_source_get+0x778>
  105ed4:	e320f000 	nop	{0}
  105ed8:	ea000000 	b	105ee0 <alt_clk_source_get+0x778>
  105edc:	e320f000 	nop	{0}
  105ee0:	e55b3005 	ldrb	r3, [fp, #-5]
  105ee4:	e1a00003 	mov	r0, r3
  105ee8:	e24bd004 	sub	sp, fp, #4
  105eec:	e8bd8800 	pop	{fp, pc}

00105ef0 <alt_clk_source_set>:
  105ef0:	e52db004 	push	{fp}		; (str fp, [sp, #-4]!)
  105ef4:	e28db000 	add	fp, sp, #0
  105ef8:	e24dd014 	sub	sp, sp, #20
  105efc:	e1a03000 	mov	r3, r0
  105f00:	e1a02001 	mov	r2, r1
  105f04:	e54b300d 	strb	r3, [fp, #-13]
  105f08:	e1a03002 	mov	r3, r2
  105f0c:	e54b300e 	strb	r3, [fp, #-14]
  105f10:	e3a03000 	mov	r3, #0
  105f14:	e50b3008 	str	r3, [fp, #-8]
  105f18:	e55b300d 	ldrb	r3, [fp, #-13]
  105f1c:	e3530009 	cmp	r3, #9
  105f20:	1a000008 	bne	105f48 <alt_clk_source_set+0x58>
  105f24:	e55b300e 	ldrb	r3, [fp, #-14]
  105f28:	e3530000 	cmp	r3, #0
  105f2c:	0a000125 	beq	1063c8 <alt_clk_source_set+0x4d8>
  105f30:	e55b300e 	ldrb	r3, [fp, #-14]
  105f34:	e353000c 	cmp	r3, #12
  105f38:	0a000122 	beq	1063c8 <alt_clk_source_set+0x4d8>
  105f3c:	e3e03008 	mvn	r3, #8
  105f40:	e50b3008 	str	r3, [fp, #-8]
  105f44:	ea00011f 	b	1063c8 <alt_clk_source_set+0x4d8>
  105f48:	e55b300d 	ldrb	r3, [fp, #-13]
  105f4c:	e353000a 	cmp	r3, #10
  105f50:	1a00002a 	bne	106000 <alt_clk_source_set+0x110>
  105f54:	e3043080 	movw	r3, #16512	; 0x4080
  105f58:	e34f3fd0 	movt	r3, #65488	; 0xffd0
  105f5c:	e5933000 	ldr	r3, [r3]
  105f60:	e50b300c 	str	r3, [fp, #-12]
  105f64:	e51b300c 	ldr	r3, [fp, #-12]
  105f68:	e3c33503 	bic	r3, r3, #12582912	; 0xc00000
  105f6c:	e50b300c 	str	r3, [fp, #-12]
  105f70:	e55b300e 	ldrb	r3, [fp, #-14]
  105f74:	e3530000 	cmp	r3, #0
  105f78:	0a000002 	beq	105f88 <alt_clk_source_set+0x98>
  105f7c:	e55b300e 	ldrb	r3, [fp, #-14]
  105f80:	e353000c 	cmp	r3, #12
  105f84:	1a000004 	bne	105f9c <alt_clk_source_set+0xac>
  105f88:	e3043080 	movw	r3, #16512	; 0x4080
  105f8c:	e34f3fd0 	movt	r3, #65488	; 0xffd0
  105f90:	e51b200c 	ldr	r2, [fp, #-12]
  105f94:	e5832000 	str	r2, [r3]
  105f98:	ea00010a 	b	1063c8 <alt_clk_source_set+0x4d8>
  105f9c:	e55b300e 	ldrb	r3, [fp, #-14]
  105fa0:	e3530001 	cmp	r3, #1
  105fa4:	1a000007 	bne	105fc8 <alt_clk_source_set+0xd8>
  105fa8:	e51b300c 	ldr	r3, [fp, #-12]
  105fac:	e3833501 	orr	r3, r3, #4194304	; 0x400000
  105fb0:	e50b300c 	str	r3, [fp, #-12]
  105fb4:	e3043080 	movw	r3, #16512	; 0x4080
  105fb8:	e34f3fd0 	movt	r3, #65488	; 0xffd0
  105fbc:	e51b200c 	ldr	r2, [fp, #-12]
  105fc0:	e5832000 	str	r2, [r3]
