
src/hwlib.axf:     file format elf32-littlearm


Disassembly of section .text:

00100040 <__cs3_interrupt_vector>:
  100040:	18 f0 9f e5 18 f0 9f e5 18 f0 9f e5 18 f0 9f e5     ................
  100050:	18 f0 9f e5 18 f0 9f e5 18 f0 9f e5 18 f0 9f e5     ................
  100060:	80 00 10 00 b4 16 12 00 b8 16 12 00 bc 16 12 00     ................
  100070:	c0 16 12 00 b0 16 12 00 c4 16 12 00 c8 16 12 00     ................

00100080 <__cs3_reset>:
  100080:	ea000022 	b	100110 <_start>

00100084 <__cs3_start_c>:
  100084:	e3008002 	movw	r8, #2
  100088:	e92d4080 	push	{r7, lr}
  10008c:	e3408000 	movt	r8, #0
  100090:	e3580000 	cmp	r8, #0
  100094:	0a00001c 	beq	10010c <__cs3_start_c+0x88>
  100098:	e302e4dc 	movw	lr, #9436	; 0x24dc
  10009c:	e2488001 	sub	r8, r8, #1
  1000a0:	e3a04000 	mov	r4, #0
  1000a4:	e3a05000 	mov	r5, #0
  1000a8:	e340e012 	movt	lr, #18
  1000ac:	e99e1005 	ldmib	lr, {r0, r2, ip}
  1000b0:	e1500002 	cmp	r0, r2
  1000b4:	0082200c 	addeq	r2, r2, ip
  1000b8:	0a000007 	beq	1000dc <__cs3_start_c+0x58>
  1000bc:	e35c0000 	cmp	ip, #0
  1000c0:	0a000005 	beq	1000dc <__cs3_start_c+0x58>
  1000c4:	e1a03000 	mov	r3, r0
  1000c8:	e0c360d8 	ldrd	r6, [r3], #8
  1000cc:	e0431000 	sub	r1, r3, r0
  1000d0:	e0c260f8 	strd	r6, [r2], #8
  1000d4:	e151000c 	cmp	r1, ip
  1000d8:	1afffffa 	bne	1000c8 <__cs3_start_c+0x44>
  1000dc:	e59e0010 	ldr	r0, [lr, #16]
  1000e0:	e3500000 	cmp	r0, #0
  1000e4:	11a03002 	movne	r3, r2
  1000e8:	0a000003 	beq	1000fc <__cs3_start_c+0x78>
  1000ec:	e0c340f8 	strd	r4, [r3], #8
  1000f0:	e0431002 	sub	r1, r3, r2
  1000f4:	e1500001 	cmp	r0, r1
  1000f8:	1afffffb 	bne	1000ec <__cs3_start_c+0x68>
  1000fc:	e2488001 	sub	r8, r8, #1
  100100:	e28ee014 	add	lr, lr, #20
  100104:	e3780001 	cmn	r8, #1
  100108:	1affffe7 	bne	1000ac <__cs3_start_c+0x28>
  10010c:	eb00851a 	bl	12157c <__cs3_premain>

00100110 <_start>:
  100110:	e51fd000 	ldr	sp, [pc, #-0]	; 100118 <_start+0x8>
  100114:	eaffffda 	b	100084 <__cs3_start_c>
  100118:	01100040 	.word	0x01100040

0010011c <deregister_tm_clones>:
  10011c:	e59f3024 	ldr	r3, [pc, #36]	; 100148 <deregister_tm_clones+0x2c>
  100120:	e30c0aa0 	movw	r0, #51872	; 0xcaa0
  100124:	e3400012 	movt	r0, #18
  100128:	e0433000 	sub	r3, r3, r0
  10012c:	e3530006 	cmp	r3, #6
  100130:	912fff1e 	bxls	lr
  100134:	e3003000 	movw	r3, #0
  100138:	e3403000 	movt	r3, #0
  10013c:	e3530000 	cmp	r3, #0
  100140:	012fff1e 	bxeq	lr
  100144:	e12fff13 	bx	r3
  100148:	0012caa3 	.word	0x0012caa3

0010014c <register_tm_clones>:
  10014c:	e30c3aa0 	movw	r3, #51872	; 0xcaa0
  100150:	e30c0aa0 	movw	r0, #51872	; 0xcaa0
  100154:	e3403012 	movt	r3, #18
  100158:	e3400012 	movt	r0, #18
  10015c:	e0431000 	sub	r1, r3, r0
  100160:	e1a01141 	asr	r1, r1, #2
  100164:	e0811fa1 	add	r1, r1, r1, lsr #31
  100168:	e1b010c1 	asrs	r1, r1, #1
  10016c:	012fff1e 	bxeq	lr
  100170:	e3003000 	movw	r3, #0
  100174:	e3403000 	movt	r3, #0
  100178:	e3530000 	cmp	r3, #0
  10017c:	012fff1e 	bxeq	lr
  100180:	e12fff13 	bx	r3

00100184 <__do_global_dtors_aux>:
  100184:	e92d4010 	push	{r4, lr}
  100188:	e30c4aa0 	movw	r4, #51872	; 0xcaa0
  10018c:	e3404012 	movt	r4, #18
  100190:	e5d43000 	ldrb	r3, [r4]
  100194:	e3530000 	cmp	r3, #0
  100198:	18bd8010 	popne	{r4, pc}
  10019c:	ebffffde 	bl	10011c <deregister_tm_clones>
  1001a0:	e3003000 	movw	r3, #0
  1001a4:	e3403000 	movt	r3, #0
  1001a8:	e3530000 	cmp	r3, #0
  1001ac:	0a000002 	beq	1001bc <__do_global_dtors_aux+0x38>
  1001b0:	e3010750 	movw	r0, #5968	; 0x1750
  1001b4:	e3400012 	movt	r0, #18
  1001b8:	e320f000 	nop	{0}
  1001bc:	e3a03001 	mov	r3, #1
  1001c0:	e5c43000 	strb	r3, [r4]
  1001c4:	e8bd8010 	pop	{r4, pc}

001001c8 <frame_dummy>:
  1001c8:	e3003000 	movw	r3, #0
  1001cc:	e92d4010 	push	{r4, lr}
  1001d0:	e3403000 	movt	r3, #0
  1001d4:	e3530000 	cmp	r3, #0
  1001d8:	0a000004 	beq	1001f0 <frame_dummy+0x28>
  1001dc:	e30c1aa4 	movw	r1, #51876	; 0xcaa4
  1001e0:	e3010750 	movw	r0, #5968	; 0x1750
  1001e4:	e3401012 	movt	r1, #18
  1001e8:	e3400012 	movt	r0, #18
  1001ec:	e320f000 	nop	{0}
  1001f0:	e3040000 	movw	r0, #16384	; 0x4000
  1001f4:	e3400012 	movt	r0, #18
  1001f8:	e5903000 	ldr	r3, [r0]
  1001fc:	e3530000 	cmp	r3, #0
  100200:	1a000001 	bne	10020c <frame_dummy+0x44>
  100204:	e8bd4010 	pop	{r4, lr}
  100208:	eaffffcf 	b	10014c <register_tm_clones>
  10020c:	e3003000 	movw	r3, #0
  100210:	e3403000 	movt	r3, #0
  100214:	e3530000 	cmp	r3, #0
  100218:	0afffff9 	beq	100204 <frame_dummy+0x3c>
  10021c:	e12fff33 	blx	r3
  100220:	eafffff7 	b	100204 <frame_dummy+0x3c>

00100224 <main>:
  100224:	e92d4800 	push	{fp, lr}
  100228:	e28db004 	add	fp, sp, #4
  10022c:	e24dd801 	sub	sp, sp, #65536	; 0x10000
  100230:	e24dd068 	sub	sp, sp, #104	; 0x68
  100234:	e24b3801 	sub	r3, fp, #65536	; 0x10000
  100238:	e2433004 	sub	r3, r3, #4
  10023c:	e5030064 	str	r0, [r3, #-100]	; 0xffffff9c
  100240:	e24b3801 	sub	r3, fp, #65536	; 0x10000
  100244:	e2433004 	sub	r3, r3, #4
  100248:	e5031068 	str	r1, [r3, #-104]	; 0xffffff98
  10024c:	e3010760 	movw	r0, #5984	; 0x1760
  100250:	e3400012 	movt	r0, #18
  100254:	eb006344 	bl	118f6c <puts>
  100258:	e3a03000 	mov	r3, #0
  10025c:	e50b3008 	str	r3, [fp, #-8]
  100260:	e24b3801 	sub	r3, fp, #65536	; 0x10000
  100264:	e2433004 	sub	r3, r3, #4
  100268:	e2433018 	sub	r3, r3, #24
  10026c:	e3a02000 	mov	r2, #0
  100270:	e5832000 	str	r2, [r3]
  100274:	e5832004 	str	r2, [r3, #4]
  100278:	e5832008 	str	r2, [r3, #8]
  10027c:	e24b3801 	sub	r3, fp, #65536	; 0x10000
  100280:	e2433004 	sub	r3, r3, #4
  100284:	e1a02003 	mov	r2, r3
  100288:	e3a03000 	mov	r3, #0
  10028c:	e34f3f25 	movt	r3, #65317	; 0xff25
  100290:	e5023018 	str	r3, [r2, #-24]	; 0xffffffe8
  100294:	e24b3801 	sub	r3, fp, #65536	; 0x10000
  100298:	e2433004 	sub	r3, r3, #4
  10029c:	e3a02002 	mov	r2, #2
  1002a0:	e5432010 	strb	r2, [r3, #-16]
  1002a4:	e24b3801 	sub	r3, fp, #65536	; 0x10000
  1002a8:	e2433004 	sub	r3, r3, #4
  1002ac:	e243302c 	sub	r3, r3, #44	; 0x2c
  1002b0:	e3a02000 	mov	r2, #0
  1002b4:	e5832000 	str	r2, [r3]
  1002b8:	e5832004 	str	r2, [r3, #4]
  1002bc:	e5832008 	str	r2, [r3, #8]
  1002c0:	e583200c 	str	r2, [r3, #12]
  1002c4:	e5832010 	str	r2, [r3, #16]
  1002c8:	e24b3801 	sub	r3, fp, #65536	; 0x10000
  1002cc:	e2433004 	sub	r3, r3, #4
  1002d0:	e1a02003 	mov	r2, r3
  1002d4:	e3a03b2d 	mov	r3, #46080	; 0xb400
  1002d8:	e34034c4 	movt	r3, #1220	; 0x4c4
  1002dc:	e502302c 	str	r3, [r2, #-44]	; 0xffffffd4
  1002e0:	e24b3801 	sub	r3, fp, #65536	; 0x10000
  1002e4:	e2433004 	sub	r3, r3, #4
  1002e8:	e3a02002 	mov	r2, #2
  1002ec:	e5432028 	strb	r2, [r3, #-40]	; 0xffffffd8
  1002f0:	e24b3801 	sub	r3, fp, #65536	; 0x10000
  1002f4:	e2433004 	sub	r3, r3, #4
  1002f8:	e1a02003 	mov	r2, r3
  1002fc:	e3a03000 	mov	r3, #0
  100300:	e34f3f24 	movt	r3, #65316	; 0xff24
  100304:	e5023024 	str	r3, [r2, #-36]	; 0xffffffdc
  100308:	e24b3801 	sub	r3, fp, #65536	; 0x10000
  10030c:	e2433004 	sub	r3, r3, #4
  100310:	e243303c 	sub	r3, r3, #60	; 0x3c
  100314:	e3a02000 	mov	r2, #0
  100318:	e5832000 	str	r2, [r3]
  10031c:	e5832004 	str	r2, [r3, #4]
  100320:	e5832008 	str	r2, [r3, #8]
  100324:	e583200c 	str	r2, [r3, #12]
  100328:	e24b3801 	sub	r3, fp, #65536	; 0x10000
  10032c:	e2433004 	sub	r3, r3, #4
  100330:	e1a02003 	mov	r2, r3
  100334:	e3a03c5a 	mov	r3, #23040	; 0x5a00
  100338:	e3403262 	movt	r3, #610	; 0x262
  10033c:	e502303c 	str	r3, [r2, #-60]	; 0xffffffc4
  100340:	e24b3801 	sub	r3, fp, #65536	; 0x10000
  100344:	e2433004 	sub	r3, r3, #4
  100348:	e3a02003 	mov	r2, #3
  10034c:	e5432037 	strb	r2, [r3, #-55]	; 0xffffffc9
  100350:	e24b3801 	sub	r3, fp, #65536	; 0x10000
  100354:	e2433004 	sub	r3, r3, #4
  100358:	e1a02003 	mov	r2, r3
  10035c:	e3013b34 	movw	r3, #6964	; 0x1b34
  100360:	e3403012 	movt	r3, #18
  100364:	e5023034 	str	r3, [r2, #-52]	; 0xffffffcc
  100368:	e24b3801 	sub	r3, fp, #65536	; 0x10000
  10036c:	e2433004 	sub	r3, r3, #4
  100370:	e1a02003 	mov	r2, r3
  100374:	e24b3801 	sub	r3, fp, #65536	; 0x10000
  100378:	e2433004 	sub	r3, r3, #4
  10037c:	e243302c 	sub	r3, r3, #44	; 0x2c
  100380:	e5023030 	str	r3, [r2, #-48]	; 0xffffffd0
  100384:	e24b3801 	sub	r3, fp, #65536	; 0x10000
  100388:	e2433004 	sub	r3, r3, #4
  10038c:	e1a02003 	mov	r2, r3
  100390:	e24b3801 	sub	r3, fp, #65536	; 0x10000
  100394:	e2433004 	sub	r3, r3, #4
  100398:	e243303c 	sub	r3, r3, #60	; 0x3c
  10039c:	e5023050 	str	r3, [r2, #-80]	; 0xffffffb0
  1003a0:	e24b3801 	sub	r3, fp, #65536	; 0x10000
  1003a4:	e2433004 	sub	r3, r3, #4
  1003a8:	e1a02003 	mov	r2, r3
  1003ac:	e24b3801 	sub	r3, fp, #65536	; 0x10000
  1003b0:	e2433004 	sub	r3, r3, #4
  1003b4:	e2433018 	sub	r3, r3, #24
  1003b8:	e502304c 	str	r3, [r2, #-76]	; 0xffffffb4
  1003bc:	e24b3801 	sub	r3, fp, #65536	; 0x10000
  1003c0:	e2433004 	sub	r3, r3, #4
  1003c4:	e1a02003 	mov	r2, r3
  1003c8:	e3a03000 	mov	r3, #0
  1003cc:	e34f3f24 	movt	r3, #65316	; 0xff24
  1003d0:	e5023048 	str	r3, [r2, #-72]	; 0xffffffb8
  1003d4:	e24b3801 	sub	r3, fp, #65536	; 0x10000
  1003d8:	e2433004 	sub	r3, r3, #4
  1003dc:	e3a02020 	mov	r2, #32
  1003e0:	e5432044 	strb	r2, [r3, #-68]	; 0xffffffbc
  1003e4:	e24b3801 	sub	r3, fp, #65536	; 0x10000
  1003e8:	e2433004 	sub	r3, r3, #4
  1003ec:	e3a02018 	mov	r2, #24
  1003f0:	e5432043 	strb	r2, [r3, #-67]	; 0xffffffbd
  1003f4:	e24b3801 	sub	r3, fp, #65536	; 0x10000
  1003f8:	e2433004 	sub	r3, r3, #4
  1003fc:	e3a02000 	mov	r2, #0
  100400:	e5432042 	strb	r2, [r3, #-66]	; 0xffffffbe
  100404:	e24b3801 	sub	r3, fp, #65536	; 0x10000
  100408:	e2433004 	sub	r3, r3, #4
  10040c:	e3a02001 	mov	r2, #1
  100410:	e5432041 	strb	r2, [r3, #-65]	; 0xffffffbf
  100414:	e24b3801 	sub	r3, fp, #65536	; 0x10000
  100418:	e2433004 	sub	r3, r3, #4
  10041c:	e1a02003 	mov	r2, r3
  100420:	e3023394 	movw	r3, #9108	; 0x2394
  100424:	e3403011 	movt	r3, #17
  100428:	e5023040 	str	r3, [r2, #-64]	; 0xffffffc0
  10042c:	e24b3801 	sub	r3, fp, #65536	; 0x10000
  100430:	e2433004 	sub	r3, r3, #4
  100434:	e1a02003 	mov	r2, r3
  100438:	e3013810 	movw	r3, #6160	; 0x1810
  10043c:	e3403012 	movt	r3, #18
  100440:	e242c060 	sub	ip, r2, #96	; 0x60
  100444:	e8930007 	ldm	r3, {r0, r1, r2}
  100448:	e88c0007 	stm	ip, {r0, r1, r2}
  10044c:	eb00008a 	bl	10067c <cache_fun>
  100450:	e24b2801 	sub	r2, fp, #65536	; 0x10000
  100454:	e2422004 	sub	r2, r2, #4
  100458:	e2422050 	sub	r2, r2, #80	; 0x50
  10045c:	e24b3801 	sub	r3, fp, #65536	; 0x10000
  100460:	e2433004 	sub	r3, r3, #4
  100464:	e243300c 	sub	r3, r3, #12
  100468:	e1a01002 	mov	r1, r2
  10046c:	e1a00003 	mov	r0, r3
  100470:	eb000521 	bl	1018fc <ad469x_init>
  100474:	e50b000c 	str	r0, [fp, #-12]
  100478:	e51b300c 	ldr	r3, [fp, #-12]
  10047c:	e3530000 	cmp	r3, #0
  100480:	aa000001 	bge	10048c <main+0x268>
  100484:	e51b300c 	ldr	r3, [fp, #-12]
  100488:	ea000078 	b	100670 <main+0x44c>
  10048c:	e24b2801 	sub	r2, fp, #65536	; 0x10000
  100490:	e2422004 	sub	r2, r2, #4
  100494:	e2422060 	sub	r2, r2, #96	; 0x60
  100498:	e24b3801 	sub	r3, fp, #65536	; 0x10000
  10049c:	e2433004 	sub	r3, r3, #4
  1004a0:	e2433054 	sub	r3, r3, #84	; 0x54
  1004a4:	e1a01002 	mov	r1, r2
  1004a8:	e1a00003 	mov	r0, r3
  1004ac:	eb001065 	bl	104648 <axi_adc_init>
  1004b0:	e50b000c 	str	r0, [fp, #-12]
  1004b4:	e51b300c 	ldr	r3, [fp, #-12]
  1004b8:	e3530000 	cmp	r3, #0
  1004bc:	0a000001 	beq	1004c8 <main+0x2a4>
  1004c0:	e3e03000 	mvn	r3, #0
  1004c4:	ea000069 	b	100670 <main+0x44c>
  1004c8:	e3010788 	movw	r0, #6024	; 0x1788
  1004cc:	e3400012 	movt	r0, #18
  1004d0:	eb0062a5 	bl	118f6c <puts>
  1004d4:	e24b3801 	sub	r3, fp, #65536	; 0x10000
  1004d8:	e2433004 	sub	r3, r3, #4
  1004dc:	e513300c 	ldr	r3, [r3, #-12]
  1004e0:	e30f1fff 	movw	r1, #65535	; 0xffff
  1004e4:	e1a00003 	mov	r0, r3
  1004e8:	eb000384 	bl	101300 <ad469x_std_sequence_ch>
  1004ec:	e50b000c 	str	r0, [fp, #-12]
  1004f0:	e51b300c 	ldr	r3, [fp, #-12]
  1004f4:	e3530000 	cmp	r3, #0
  1004f8:	0a000001 	beq	100504 <main+0x2e0>
  1004fc:	e51b300c 	ldr	r3, [fp, #-12]
  100500:	ea00005a 	b	100670 <main+0x44c>
  100504:	e24b3801 	sub	r3, fp, #65536	; 0x10000
  100508:	e2433004 	sub	r3, r3, #4
  10050c:	e513300c 	ldr	r3, [r3, #-12]
  100510:	e1a00003 	mov	r0, r3
  100514:	eb0003ab 	bl	1013c8 <ad469x_sequence_disable_temp>
  100518:	e50b000c 	str	r0, [fp, #-12]
  10051c:	e51b300c 	ldr	r3, [fp, #-12]
  100520:	e3530000 	cmp	r3, #0
  100524:	0a000001 	beq	100530 <main+0x30c>
  100528:	e51b300c 	ldr	r3, [fp, #-12]
  10052c:	ea00004f 	b	100670 <main+0x44c>
  100530:	e24b3801 	sub	r3, fp, #65536	; 0x10000
  100534:	e2433004 	sub	r3, r3, #4
  100538:	e513300c 	ldr	r3, [r3, #-12]
  10053c:	e3a01002 	mov	r1, #2
  100540:	e1a00003 	mov	r0, r3
  100544:	eb0002a0 	bl	100fcc <ad469x_set_channel_sequence>
  100548:	e50b000c 	str	r0, [fp, #-12]
  10054c:	e51b300c 	ldr	r3, [fp, #-12]
  100550:	e3530000 	cmp	r3, #0
  100554:	0a000001 	beq	100560 <main+0x33c>
  100558:	e51b300c 	ldr	r3, [fp, #-12]
  10055c:	ea000043 	b	100670 <main+0x44c>
  100560:	e24b3801 	sub	r3, fp, #65536	; 0x10000
  100564:	e2433004 	sub	r3, r3, #4
  100568:	e513300c 	ldr	r3, [r3, #-12]
  10056c:	e1a00003 	mov	r0, r3
  100570:	eb0003aa 	bl	101420 <ad469x_enter_conversion_mode>
  100574:	e50b000c 	str	r0, [fp, #-12]
  100578:	e51b300c 	ldr	r3, [fp, #-12]
  10057c:	e3530000 	cmp	r3, #0
  100580:	0a000001 	beq	10058c <main+0x368>
  100584:	e51b300c 	ldr	r3, [fp, #-12]
  100588:	ea000038 	b	100670 <main+0x44c>
  10058c:	e30107a4 	movw	r0, #6052	; 0x17a4
  100590:	e3400012 	movt	r0, #18
  100594:	eb006274 	bl	118f6c <puts>
  100598:	e24b3801 	sub	r3, fp, #65536	; 0x10000
  10059c:	e2433004 	sub	r3, r3, #4
  1005a0:	e513000c 	ldr	r0, [r3, #-12]
  1005a4:	e24b3801 	sub	r3, fp, #65536	; 0x10000
  1005a8:	e2433004 	sub	r3, r3, #4
  1005ac:	e2433008 	sub	r3, r3, #8
  1005b0:	e3a02b01 	mov	r2, #1024	; 0x400
  1005b4:	e1a01003 	mov	r1, r3
  1005b8:	eb0003dd 	bl	101534 <ad469x_seq_read_data>
  1005bc:	e50b000c 	str	r0, [fp, #-12]
  1005c0:	e51b300c 	ldr	r3, [fp, #-12]
  1005c4:	e3530000 	cmp	r3, #0
  1005c8:	0a000001 	beq	1005d4 <main+0x3b0>
  1005cc:	e51b300c 	ldr	r3, [fp, #-12]
  1005d0:	ea000026 	b	100670 <main+0x44c>
  1005d4:	e3a03000 	mov	r3, #0
  1005d8:	e50b3008 	str	r3, [fp, #-8]
  1005dc:	ea00001f 	b	100660 <main+0x43c>
  1005e0:	e51b3008 	ldr	r3, [fp, #-8]
  1005e4:	e2033007 	and	r3, r3, #7
  1005e8:	e3530000 	cmp	r3, #0
  1005ec:	1a000002 	bne	1005fc <main+0x3d8>
  1005f0:	e30107f0 	movw	r0, #6128	; 0x17f0
  1005f4:	e3400012 	movt	r0, #18
  1005f8:	eb00625b 	bl	118f6c <puts>
  1005fc:	e24b3801 	sub	r3, fp, #65536	; 0x10000
  100600:	e2433004 	sub	r3, r3, #4
  100604:	e1a02003 	mov	r2, r3
  100608:	e51b3008 	ldr	r3, [fp, #-8]
  10060c:	e1a03103 	lsl	r3, r3, #2
  100610:	e0823003 	add	r3, r2, r3
  100614:	e5133008 	ldr	r3, [r3, #-8]
  100618:	e6ff3073 	uxth	r3, r3
  10061c:	e1a01003 	mov	r1, r3
  100620:	e24b3801 	sub	r3, fp, #65536	; 0x10000
  100624:	e2433004 	sub	r3, r3, #4
  100628:	e1a02003 	mov	r2, r3
  10062c:	e51b3008 	ldr	r3, [fp, #-8]
  100630:	e1a03103 	lsl	r3, r3, #2
  100634:	e0823003 	add	r3, r2, r3
  100638:	e5133008 	ldr	r3, [r3, #-8]
  10063c:	e1a03823 	lsr	r3, r3, #16
  100640:	e6ff3073 	uxth	r3, r3
  100644:	e1a02003 	mov	r2, r3
  100648:	e30107f4 	movw	r0, #6132	; 0x17f4
  10064c:	e3400012 	movt	r0, #18
  100650:	eb0061f7 	bl	118e34 <printf>
  100654:	e51b3008 	ldr	r3, [fp, #-8]
  100658:	e2833001 	add	r3, r3, #1
  10065c:	e50b3008 	str	r3, [fp, #-8]
  100660:	e51b3008 	ldr	r3, [fp, #-8]
  100664:	e3530c02 	cmp	r3, #512	; 0x200
  100668:	3affffdc 	bcc	1005e0 <main+0x3bc>
  10066c:	eaffffc9 	b	100598 <main+0x374>
  100670:	e1a00003 	mov	r0, r3
  100674:	e24bd004 	sub	sp, fp, #4
  100678:	e8bd8800 	pop	{fp, pc}

0010067c <cache_fun>:
  10067c:	e92d4800 	push	{fp, lr}
  100680:	e28db004 	add	fp, sp, #4
  100684:	e3a00009 	mov	r0, #9
  100688:	eb000001 	bl	100694 <cache_configuration>
  10068c:	e320f000 	nop	{0}
  100690:	e8bd8800 	pop	{fp, pc}

00100694 <cache_configuration>:
  100694:	e92d4800 	push	{fp, lr}
  100698:	e28db004 	add	fp, sp, #4
  10069c:	e24dd008 	sub	sp, sp, #8
  1006a0:	e50b0008 	str	r0, [fp, #-8]
  1006a4:	e51b3008 	ldr	r3, [fp, #-8]
  1006a8:	e3530000 	cmp	r3, #0
  1006ac:	ca000003 	bgt	1006c0 <cache_configuration+0x2c>
  1006b0:	e301081c 	movw	r0, #6172	; 0x181c
  1006b4:	e3400012 	movt	r0, #18
  1006b8:	eb0061dd 	bl	118e34 <printf>
  1006bc:	ea0000a2 	b	10094c <cache_configuration+0x2b8>
  1006c0:	e51b3008 	ldr	r3, [fp, #-8]
  1006c4:	e3530001 	cmp	r3, #1
  1006c8:	ca000004 	bgt	1006e0 <cache_configuration+0x4c>
  1006cc:	e3010838 	movw	r0, #6200	; 0x1838
  1006d0:	e3400012 	movt	r0, #18
  1006d4:	eb0061d6 	bl	118e34 <printf>
  1006d8:	eb0011ea 	bl	104e88 <enable_MMU>
  1006dc:	ea00009a 	b	10094c <cache_configuration+0x2b8>
  1006e0:	e51b3008 	ldr	r3, [fp, #-8]
  1006e4:	e3530002 	cmp	r3, #2
  1006e8:	ca000005 	bgt	100704 <cache_configuration+0x70>
  1006ec:	e3010858 	movw	r0, #6232	; 0x1858
  1006f0:	e3400012 	movt	r0, #18
  1006f4:	eb0061ce 	bl	118e34 <printf>
  1006f8:	eb0011e2 	bl	104e88 <enable_MMU>
  1006fc:	eb00122d 	bl	104fb8 <initialize_L2C>
  100700:	ea000091 	b	10094c <cache_configuration+0x2b8>
  100704:	e51b3008 	ldr	r3, [fp, #-8]
  100708:	e3530003 	cmp	r3, #3
  10070c:	ca000006 	bgt	10072c <cache_configuration+0x98>
  100710:	e3010884 	movw	r0, #6276	; 0x1884
  100714:	e3400012 	movt	r0, #18
  100718:	eb0061c5 	bl	118e34 <printf>
  10071c:	eb0011d9 	bl	104e88 <enable_MMU>
  100720:	eb001224 	bl	104fb8 <initialize_L2C>
  100724:	eb001287 	bl	105148 <enable_SCU>
  100728:	ea000087 	b	10094c <cache_configuration+0x2b8>
  10072c:	e51b3008 	ldr	r3, [fp, #-8]
  100730:	e3530004 	cmp	r3, #4
  100734:	ca000007 	bgt	100758 <cache_configuration+0xc4>
  100738:	e30108b8 	movw	r0, #6328	; 0x18b8
  10073c:	e3400012 	movt	r0, #18
  100740:	eb0061bb 	bl	118e34 <printf>
  100744:	eb0011cf 	bl	104e88 <enable_MMU>
  100748:	eb00121a 	bl	104fb8 <initialize_L2C>
  10074c:	eb00127d 	bl	105148 <enable_SCU>
  100750:	eb00123e 	bl	105050 <enable_L1_I>
  100754:	ea00007c 	b	10094c <cache_configuration+0x2b8>
  100758:	e51b3008 	ldr	r3, [fp, #-8]
  10075c:	e3530005 	cmp	r3, #5
  100760:	ca000008 	bgt	100788 <cache_configuration+0xf4>
  100764:	e30108d0 	movw	r0, #6352	; 0x18d0
  100768:	e3400012 	movt	r0, #18
  10076c:	eb0061b0 	bl	118e34 <printf>
  100770:	eb0011c4 	bl	104e88 <enable_MMU>
  100774:	eb00120f 	bl	104fb8 <initialize_L2C>
  100778:	eb001272 	bl	105148 <enable_SCU>
  10077c:	eb001233 	bl	105050 <enable_L1_I>
  100780:	eb001236 	bl	105060 <enable_branch_prediction>
  100784:	ea000070 	b	10094c <cache_configuration+0x2b8>
  100788:	e51b3008 	ldr	r3, [fp, #-8]
  10078c:	e3530006 	cmp	r3, #6
  100790:	ca000009 	bgt	1007bc <cache_configuration+0x128>
  100794:	e3010900 	movw	r0, #6400	; 0x1900
  100798:	e3400012 	movt	r0, #18
  10079c:	eb0061a4 	bl	118e34 <printf>
  1007a0:	eb0011b8 	bl	104e88 <enable_MMU>
  1007a4:	eb001203 	bl	104fb8 <initialize_L2C>
  1007a8:	eb001266 	bl	105148 <enable_SCU>
  1007ac:	eb001223 	bl	105040 <enable_L1_D>
  1007b0:	eb001226 	bl	105050 <enable_L1_I>
  1007b4:	eb001229 	bl	105060 <enable_branch_prediction>
  1007b8:	ea000063 	b	10094c <cache_configuration+0x2b8>
  1007bc:	e51b3008 	ldr	r3, [fp, #-8]
  1007c0:	e3530007 	cmp	r3, #7
  1007c4:	ca00000a 	bgt	1007f4 <cache_configuration+0x160>
  1007c8:	e3010934 	movw	r0, #6452	; 0x1934
  1007cc:	e3400012 	movt	r0, #18
  1007d0:	eb006197 	bl	118e34 <printf>
  1007d4:	eb0011ab 	bl	104e88 <enable_MMU>
  1007d8:	eb0011f6 	bl	104fb8 <initialize_L2C>
  1007dc:	eb001245 	bl	1050f8 <enable_L1_D_side_prefetch>
  1007e0:	eb001258 	bl	105148 <enable_SCU>
  1007e4:	eb001215 	bl	105040 <enable_L1_D>
  1007e8:	eb001218 	bl	105050 <enable_L1_I>
  1007ec:	eb00121b 	bl	105060 <enable_branch_prediction>
  1007f0:	ea000055 	b	10094c <cache_configuration+0x2b8>
  1007f4:	e51b3008 	ldr	r3, [fp, #-8]
  1007f8:	e3530008 	cmp	r3, #8
  1007fc:	ca000008 	bgt	100824 <cache_configuration+0x190>
  100800:	e3010980 	movw	r0, #6528	; 0x1980
  100804:	e3400012 	movt	r0, #18
  100808:	eb006189 	bl	118e34 <printf>
  10080c:	eb00119d 	bl	104e88 <enable_MMU>
  100810:	eb0011e8 	bl	104fb8 <initialize_L2C>
  100814:	eb001237 	bl	1050f8 <enable_L1_D_side_prefetch>
  100818:	eb00124a 	bl	105148 <enable_SCU>
  10081c:	eb0011fe 	bl	10501c <enable_caches>
  100820:	ea000049 	b	10094c <cache_configuration+0x2b8>
  100824:	e51b3008 	ldr	r3, [fp, #-8]
  100828:	e3530009 	cmp	r3, #9
  10082c:	ca000009 	bgt	100858 <cache_configuration+0x1c4>
  100830:	e30109cc 	movw	r0, #6604	; 0x19cc
  100834:	e3400012 	movt	r0, #18
  100838:	eb00617d 	bl	118e34 <printf>
  10083c:	eb001191 	bl	104e88 <enable_MMU>
  100840:	eb0011dc 	bl	104fb8 <initialize_L2C>
  100844:	eb00122b 	bl	1050f8 <enable_L1_D_side_prefetch>
  100848:	eb00122e 	bl	105108 <enable_L2_prefetch_hint>
  10084c:	eb00123d 	bl	105148 <enable_SCU>
  100850:	eb0011f1 	bl	10501c <enable_caches>
  100854:	ea00003c 	b	10094c <cache_configuration+0x2b8>
  100858:	e51b3008 	ldr	r3, [fp, #-8]
  10085c:	e353000a 	cmp	r3, #10
  100860:	ca00000a 	bgt	100890 <cache_configuration+0x1fc>
  100864:	e3010a00 	movw	r0, #6656	; 0x1a00
  100868:	e3400012 	movt	r0, #18
  10086c:	eb006170 	bl	118e34 <printf>
  100870:	eb001184 	bl	104e88 <enable_MMU>
  100874:	eb0011cf 	bl	104fb8 <initialize_L2C>
  100878:	eb00121e 	bl	1050f8 <enable_L1_D_side_prefetch>
  10087c:	eb001221 	bl	105108 <enable_L2_prefetch_hint>
  100880:	eb001230 	bl	105148 <enable_SCU>
  100884:	eb00120f 	bl	1050c8 <enable_write_full_line_zeros>
  100888:	eb0011e3 	bl	10501c <enable_caches>
  10088c:	ea00002e 	b	10094c <cache_configuration+0x2b8>
  100890:	e51b3008 	ldr	r3, [fp, #-8]
  100894:	e353000b 	cmp	r3, #11
  100898:	ca00000b 	bgt	1008cc <cache_configuration+0x238>
  10089c:	e3010a3c 	movw	r0, #6716	; 0x1a3c
  1008a0:	e3400012 	movt	r0, #18
  1008a4:	eb006162 	bl	118e34 <printf>
  1008a8:	eb001176 	bl	104e88 <enable_MMU>
  1008ac:	eb0011c1 	bl	104fb8 <initialize_L2C>
  1008b0:	eb001210 	bl	1050f8 <enable_L1_D_side_prefetch>
  1008b4:	eb001213 	bl	105108 <enable_L2_prefetch_hint>
  1008b8:	eb001222 	bl	105148 <enable_SCU>
  1008bc:	eb001226 	bl	10515c <enable_L2_speculative_linefill>
  1008c0:	eb001200 	bl	1050c8 <enable_write_full_line_zeros>
  1008c4:	eb0011d4 	bl	10501c <enable_caches>
  1008c8:	ea00001f 	b	10094c <cache_configuration+0x2b8>
  1008cc:	e51b3008 	ldr	r3, [fp, #-8]
  1008d0:	e353000c 	cmp	r3, #12
  1008d4:	ca00000c 	bgt	10090c <cache_configuration+0x278>
  1008d8:	e3010a88 	movw	r0, #6792	; 0x1a88
  1008dc:	e3400012 	movt	r0, #18
  1008e0:	eb006153 	bl	118e34 <printf>
  1008e4:	eb001167 	bl	104e88 <enable_MMU>
  1008e8:	eb0011b2 	bl	104fb8 <initialize_L2C>
  1008ec:	eb001201 	bl	1050f8 <enable_L1_D_side_prefetch>
  1008f0:	eb001204 	bl	105108 <enable_L2_prefetch_hint>
  1008f4:	eb001213 	bl	105148 <enable_SCU>
  1008f8:	eb001217 	bl	10515c <enable_L2_speculative_linefill>
  1008fc:	eb0011f1 	bl	1050c8 <enable_write_full_line_zeros>
  100900:	eb0011e7 	bl	1050a4 <enable_early_BRESP>
  100904:	eb0011c4 	bl	10501c <enable_caches>
  100908:	ea00000f 	b	10094c <cache_configuration+0x2b8>
  10090c:	e51b3008 	ldr	r3, [fp, #-8]
  100910:	e353000d 	cmp	r3, #13
  100914:	ca00000c 	bgt	10094c <cache_configuration+0x2b8>
  100918:	e3010ac8 	movw	r0, #6856	; 0x1ac8
  10091c:	e3400012 	movt	r0, #18
  100920:	eb006143 	bl	118e34 <printf>
  100924:	eb001157 	bl	104e88 <enable_MMU>
  100928:	eb0011a2 	bl	104fb8 <initialize_L2C>
  10092c:	eb0011f1 	bl	1050f8 <enable_L1_D_side_prefetch>
  100930:	eb0011f4 	bl	105108 <enable_L2_prefetch_hint>
  100934:	eb001203 	bl	105148 <enable_SCU>
  100938:	eb001207 	bl	10515c <enable_L2_speculative_linefill>
  10093c:	eb0011e1 	bl	1050c8 <enable_write_full_line_zeros>
  100940:	eb0011d7 	bl	1050a4 <enable_early_BRESP>
  100944:	eb0011cd 	bl	105080 <enable_store_buffer_device_limitation>
  100948:	eb0011b3 	bl	10501c <enable_caches>
  10094c:	e320f000 	nop	{0}
  100950:	e24bd004 	sub	sp, fp, #4
  100954:	e8bd8800 	pop	{fp, pc}

00100958 <ad469x_spi_reg_read>:
  100958:	e92d4800 	push	{fp, lr}
  10095c:	e28db004 	add	fp, sp, #4
  100960:	e24dd018 	sub	sp, sp, #24
  100964:	e50b0010 	str	r0, [fp, #-16]
  100968:	e1a03001 	mov	r3, r1
  10096c:	e50b2018 	str	r2, [fp, #-24]	; 0xffffffe8
  100970:	e14b31b2 	strh	r3, [fp, #-18]	; 0xffffffee
  100974:	e51b3010 	ldr	r3, [fp, #-16]
  100978:	e5932000 	ldr	r2, [r3]
  10097c:	e51b3010 	ldr	r3, [fp, #-16]
  100980:	e5d33008 	ldrb	r3, [r3, #8]
  100984:	e1a01003 	mov	r1, r3
  100988:	e1a00002 	mov	r0, r2
  10098c:	eb0006c9 	bl	1024b8 <spi_engine_set_transfer_width>
  100990:	e50b0008 	str	r0, [fp, #-8]
  100994:	e51b3008 	ldr	r3, [fp, #-8]
  100998:	e3530000 	cmp	r3, #0
  10099c:	0a000001 	beq	1009a8 <ad469x_spi_reg_read+0x50>
  1009a0:	e51b3008 	ldr	r3, [fp, #-8]
  1009a4:	ea00004c 	b	100adc <ad469x_spi_reg_read+0x184>
  1009a8:	e15b31b2 	ldrh	r3, [fp, #-18]	; 0xffffffee
  1009ac:	e1a03423 	lsr	r3, r3, #8
  1009b0:	e6ff3073 	uxth	r3, r3
  1009b4:	e6af3073 	sxtb	r3, r3
  1009b8:	e1e03c83 	mvn	r3, r3, lsl #25
  1009bc:	e1e03ca3 	mvn	r3, r3, lsr #25
  1009c0:	e6af3073 	sxtb	r3, r3
  1009c4:	e6ef3073 	uxtb	r3, r3
  1009c8:	e54b300c 	strb	r3, [fp, #-12]
  1009cc:	e15b31b2 	ldrh	r3, [fp, #-18]	; 0xffffffee
  1009d0:	e6ef3073 	uxtb	r3, r3
  1009d4:	e54b300b 	strb	r3, [fp, #-11]
  1009d8:	e3e03000 	mvn	r3, #0
  1009dc:	e54b300a 	strb	r3, [fp, #-10]
  1009e0:	e3e03000 	mvn	r3, #0
  1009e4:	e54b3009 	strb	r3, [fp, #-9]
  1009e8:	e51b3010 	ldr	r3, [fp, #-16]
  1009ec:	e5933000 	ldr	r3, [r3]
  1009f0:	e24b100c 	sub	r1, fp, #12
  1009f4:	e3a02004 	mov	r2, #4
  1009f8:	e1a00003 	mov	r0, r3
  1009fc:	eb0004d0 	bl	101d44 <spi_write_and_read>
  100a00:	e50b0008 	str	r0, [fp, #-8]
  100a04:	e15b31b2 	ldrh	r3, [fp, #-18]	; 0xffffffee
  100a08:	e3530025 	cmp	r3, #37	; 0x25
  100a0c:	03a03001 	moveq	r3, #1
  100a10:	13a03000 	movne	r3, #0
  100a14:	e6ef3073 	uxtb	r3, r3
  100a18:	e1a01003 	mov	r1, r3
  100a1c:	e15b31b2 	ldrh	r3, [fp, #-18]	; 0xffffffee
  100a20:	e353003f 	cmp	r3, #63	; 0x3f
  100a24:	83a03001 	movhi	r3, #1
  100a28:	93a03000 	movls	r3, #0
  100a2c:	e6ef2073 	uxtb	r2, r3
  100a30:	e15b31b2 	ldrh	r3, [fp, #-18]	; 0xffffffee
  100a34:	e35300ff 	cmp	r3, #255	; 0xff
  100a38:	93a03001 	movls	r3, #1
  100a3c:	83a03000 	movhi	r3, #0
  100a40:	e6ef3073 	uxtb	r3, r3
  100a44:	e0033002 	and	r3, r3, r2
  100a48:	e6ef3073 	uxtb	r3, r3
  100a4c:	e1813003 	orr	r3, r1, r3
  100a50:	e3530000 	cmp	r3, #0
  100a54:	0a000009 	beq	100a80 <ad469x_spi_reg_read+0x128>
  100a58:	e55b3009 	ldrb	r3, [fp, #-9]
  100a5c:	e6ff2073 	uxth	r2, r3
  100a60:	e51b3018 	ldr	r3, [fp, #-24]	; 0xffffffe8
  100a64:	e1c320b0 	strh	r2, [r3]
  100a68:	e51b3018 	ldr	r3, [fp, #-24]	; 0xffffffe8
  100a6c:	e2833002 	add	r3, r3, #2
  100a70:	e55b200a 	ldrb	r2, [fp, #-10]
  100a74:	e6ff2072 	uxth	r2, r2
  100a78:	e1c320b0 	strh	r2, [r3]
  100a7c:	ea000008 	b	100aa4 <ad469x_spi_reg_read+0x14c>
  100a80:	e55b300a 	ldrb	r3, [fp, #-10]
  100a84:	e6ff2073 	uxth	r2, r3
  100a88:	e51b3018 	ldr	r3, [fp, #-24]	; 0xffffffe8
  100a8c:	e1c320b0 	strh	r2, [r3]
  100a90:	e51b3018 	ldr	r3, [fp, #-24]	; 0xffffffe8
  100a94:	e2833002 	add	r3, r3, #2
  100a98:	e55b2009 	ldrb	r2, [fp, #-9]
  100a9c:	e6ff2072 	uxth	r2, r2
  100aa0:	e1c320b0 	strh	r2, [r3]
  100aa4:	e51b3010 	ldr	r3, [fp, #-16]
  100aa8:	e5932000 	ldr	r2, [r3]
  100aac:	e51b3010 	ldr	r3, [fp, #-16]
  100ab0:	e5d33009 	ldrb	r3, [r3, #9]
  100ab4:	e1a01003 	mov	r1, r3
  100ab8:	e1a00002 	mov	r0, r2
  100abc:	eb00067d 	bl	1024b8 <spi_engine_set_transfer_width>
  100ac0:	e50b0008 	str	r0, [fp, #-8]
  100ac4:	e51b3008 	ldr	r3, [fp, #-8]
  100ac8:	e3530000 	cmp	r3, #0
  100acc:	0a000001 	beq	100ad8 <ad469x_spi_reg_read+0x180>
  100ad0:	e51b3008 	ldr	r3, [fp, #-8]
  100ad4:	ea000000 	b	100adc <ad469x_spi_reg_read+0x184>
  100ad8:	e51b3008 	ldr	r3, [fp, #-8]
  100adc:	e1a00003 	mov	r0, r3
  100ae0:	e24bd004 	sub	sp, fp, #4
  100ae4:	e8bd8800 	pop	{fp, pc}

00100ae8 <ad469x_spi_reg_write>:
  100ae8:	e92d4800 	push	{fp, lr}
  100aec:	e28db004 	add	fp, sp, #4
  100af0:	e24dd010 	sub	sp, sp, #16
  100af4:	e50b0010 	str	r0, [fp, #-16]
  100af8:	e1a03002 	mov	r3, r2
  100afc:	e14b11b2 	strh	r1, [fp, #-18]	; 0xffffffee
  100b00:	e14b31b4 	strh	r3, [fp, #-20]	; 0xffffffec
  100b04:	e51b3010 	ldr	r3, [fp, #-16]
  100b08:	e5932000 	ldr	r2, [r3]
  100b0c:	e51b3010 	ldr	r3, [fp, #-16]
  100b10:	e5d33008 	ldrb	r3, [r3, #8]
  100b14:	e1a01003 	mov	r1, r3
  100b18:	e1a00002 	mov	r0, r2
  100b1c:	eb000665 	bl	1024b8 <spi_engine_set_transfer_width>
  100b20:	e50b0008 	str	r0, [fp, #-8]
  100b24:	e51b3008 	ldr	r3, [fp, #-8]
  100b28:	e3530000 	cmp	r3, #0
  100b2c:	0a000001 	beq	100b38 <ad469x_spi_reg_write+0x50>
  100b30:	e51b3008 	ldr	r3, [fp, #-8]
  100b34:	ea000044 	b	100c4c <ad469x_spi_reg_write+0x164>
  100b38:	e15b31b2 	ldrh	r3, [fp, #-18]	; 0xffffffee
  100b3c:	e1a03423 	lsr	r3, r3, #8
  100b40:	e6ff3073 	uxth	r3, r3
  100b44:	e6ef3073 	uxtb	r3, r3
  100b48:	e203307f 	and	r3, r3, #127	; 0x7f
  100b4c:	e6ef3073 	uxtb	r3, r3
  100b50:	e54b300c 	strb	r3, [fp, #-12]
  100b54:	e15b31b2 	ldrh	r3, [fp, #-18]	; 0xffffffee
  100b58:	e6ef3073 	uxtb	r3, r3
  100b5c:	e54b300b 	strb	r3, [fp, #-11]
  100b60:	e15b31b2 	ldrh	r3, [fp, #-18]	; 0xffffffee
  100b64:	e3530025 	cmp	r3, #37	; 0x25
  100b68:	03a03001 	moveq	r3, #1
  100b6c:	13a03000 	movne	r3, #0
  100b70:	e6ef3073 	uxtb	r3, r3
  100b74:	e1a01003 	mov	r1, r3
  100b78:	e15b31b2 	ldrh	r3, [fp, #-18]	; 0xffffffee
  100b7c:	e353003f 	cmp	r3, #63	; 0x3f
  100b80:	83a03001 	movhi	r3, #1
  100b84:	93a03000 	movls	r3, #0
  100b88:	e6ef2073 	uxtb	r2, r3
  100b8c:	e15b31b2 	ldrh	r3, [fp, #-18]	; 0xffffffee
  100b90:	e35300ff 	cmp	r3, #255	; 0xff
  100b94:	93a03001 	movls	r3, #1
  100b98:	83a03000 	movhi	r3, #0
  100b9c:	e6ef3073 	uxtb	r3, r3
  100ba0:	e0033002 	and	r3, r3, r2
  100ba4:	e6ef3073 	uxtb	r3, r3
  100ba8:	e1813003 	orr	r3, r1, r3
  100bac:	e3530000 	cmp	r3, #0
  100bb0:	0a000008 	beq	100bd8 <ad469x_spi_reg_write+0xf0>
  100bb4:	e15b31b4 	ldrh	r3, [fp, #-20]	; 0xffffffec
  100bb8:	e6ef3073 	uxtb	r3, r3
  100bbc:	e54b3009 	strb	r3, [fp, #-9]
  100bc0:	e15b31b4 	ldrh	r3, [fp, #-20]	; 0xffffffec
  100bc4:	e1a03423 	lsr	r3, r3, #8
  100bc8:	e6ff3073 	uxth	r3, r3
  100bcc:	e6ef3073 	uxtb	r3, r3
  100bd0:	e54b300a 	strb	r3, [fp, #-10]
  100bd4:	ea000007 	b	100bf8 <ad469x_spi_reg_write+0x110>
  100bd8:	e15b31b4 	ldrh	r3, [fp, #-20]	; 0xffffffec
  100bdc:	e6ef3073 	uxtb	r3, r3
  100be0:	e54b300a 	strb	r3, [fp, #-10]
  100be4:	e15b31b4 	ldrh	r3, [fp, #-20]	; 0xffffffec
  100be8:	e1a03423 	lsr	r3, r3, #8
  100bec:	e6ff3073 	uxth	r3, r3
  100bf0:	e6ef3073 	uxtb	r3, r3
  100bf4:	e54b3009 	strb	r3, [fp, #-9]
  100bf8:	e51b3010 	ldr	r3, [fp, #-16]
  100bfc:	e5933000 	ldr	r3, [r3]
  100c00:	e24b100c 	sub	r1, fp, #12
  100c04:	e3a02004 	mov	r2, #4
  100c08:	e1a00003 	mov	r0, r3
  100c0c:	eb00044c 	bl	101d44 <spi_write_and_read>
  100c10:	e50b0008 	str	r0, [fp, #-8]
  100c14:	e51b3010 	ldr	r3, [fp, #-16]
  100c18:	e5932000 	ldr	r2, [r3]
  100c1c:	e51b3010 	ldr	r3, [fp, #-16]
  100c20:	e5d33009 	ldrb	r3, [r3, #9]
  100c24:	e1a01003 	mov	r1, r3
  100c28:	e1a00002 	mov	r0, r2
  100c2c:	eb000621 	bl	1024b8 <spi_engine_set_transfer_width>
  100c30:	e50b0008 	str	r0, [fp, #-8]
  100c34:	e51b3008 	ldr	r3, [fp, #-8]
  100c38:	e3530000 	cmp	r3, #0
  100c3c:	0a000001 	beq	100c48 <ad469x_spi_reg_write+0x160>
  100c40:	e51b3008 	ldr	r3, [fp, #-8]
  100c44:	ea000000 	b	100c4c <ad469x_spi_reg_write+0x164>
  100c48:	e51b3008 	ldr	r3, [fp, #-8]
  100c4c:	e1a00003 	mov	r0, r3
  100c50:	e24bd004 	sub	sp, fp, #4
  100c54:	e8bd8800 	pop	{fp, pc}

00100c58 <ad469x_spi_read_mask>:
  100c58:	e92d4800 	push	{fp, lr}
  100c5c:	e28db004 	add	fp, sp, #4
  100c60:	e24dd018 	sub	sp, sp, #24
  100c64:	e50b0010 	str	r0, [fp, #-16]
  100c68:	e50b3018 	str	r3, [fp, #-24]	; 0xffffffe8
  100c6c:	e14b11b2 	strh	r1, [fp, #-18]	; 0xffffffee
  100c70:	e1a03002 	mov	r3, r2
  100c74:	e54b3013 	strb	r3, [fp, #-19]	; 0xffffffed
  100c78:	e24b200c 	sub	r2, fp, #12
  100c7c:	e15b31b2 	ldrh	r3, [fp, #-18]	; 0xffffffee
  100c80:	e1a01003 	mov	r1, r3
  100c84:	e51b0010 	ldr	r0, [fp, #-16]
  100c88:	ebffff32 	bl	100958 <ad469x_spi_reg_read>
  100c8c:	e50b0008 	str	r0, [fp, #-8]
  100c90:	e51b3008 	ldr	r3, [fp, #-8]
  100c94:	e3530000 	cmp	r3, #0
  100c98:	0a000001 	beq	100ca4 <ad469x_spi_read_mask+0x4c>
  100c9c:	e51b3008 	ldr	r3, [fp, #-8]
  100ca0:	ea000007 	b	100cc4 <ad469x_spi_read_mask+0x6c>
  100ca4:	e15b30bc 	ldrh	r3, [fp, #-12]
  100ca8:	e6ef2073 	uxtb	r2, r3
  100cac:	e55b3013 	ldrb	r3, [fp, #-19]	; 0xffffffed
  100cb0:	e0033002 	and	r3, r3, r2
  100cb4:	e6ef2073 	uxtb	r2, r3
  100cb8:	e51b3018 	ldr	r3, [fp, #-24]	; 0xffffffe8
  100cbc:	e5c32000 	strb	r2, [r3]
  100cc0:	e51b3008 	ldr	r3, [fp, #-8]
  100cc4:	e1a00003 	mov	r0, r3
  100cc8:	e24bd004 	sub	sp, fp, #4
  100ccc:	e8bd8800 	pop	{fp, pc}

00100cd0 <ad469x_spi_write_mask>:
  100cd0:	e92d4800 	push	{fp, lr}
  100cd4:	e28db004 	add	fp, sp, #4
  100cd8:	e24dd010 	sub	sp, sp, #16
  100cdc:	e50b0010 	str	r0, [fp, #-16]
  100ce0:	e1a00002 	mov	r0, r2
  100ce4:	e1a02003 	mov	r2, r3
  100ce8:	e14b11b2 	strh	r1, [fp, #-18]	; 0xffffffee
  100cec:	e1a03000 	mov	r3, r0
  100cf0:	e54b3013 	strb	r3, [fp, #-19]	; 0xffffffed
  100cf4:	e1a03002 	mov	r3, r2
  100cf8:	e54b3014 	strb	r3, [fp, #-20]	; 0xffffffec
  100cfc:	e24b200a 	sub	r2, fp, #10
  100d00:	e15b31b2 	ldrh	r3, [fp, #-18]	; 0xffffffee
  100d04:	e1a01003 	mov	r1, r3
  100d08:	e51b0010 	ldr	r0, [fp, #-16]
  100d0c:	ebffff11 	bl	100958 <ad469x_spi_reg_read>
  100d10:	e50b0008 	str	r0, [fp, #-8]
  100d14:	e51b3008 	ldr	r3, [fp, #-8]
  100d18:	e3530000 	cmp	r3, #0
  100d1c:	0a000001 	beq	100d28 <ad469x_spi_write_mask+0x58>
  100d20:	e51b3008 	ldr	r3, [fp, #-8]
  100d24:	ea000016 	b	100d84 <ad469x_spi_write_mask+0xb4>
  100d28:	e55b3013 	ldrb	r3, [fp, #-19]	; 0xffffffed
  100d2c:	e6ff3073 	uxth	r3, r3
  100d30:	e1e03003 	mvn	r3, r3
  100d34:	e6ff3073 	uxth	r3, r3
  100d38:	e6bf2073 	sxth	r2, r3
  100d3c:	e15b30ba 	ldrh	r3, [fp, #-10]
  100d40:	e6bf3073 	sxth	r3, r3
  100d44:	e0033002 	and	r3, r3, r2
  100d48:	e6bf3073 	sxth	r3, r3
  100d4c:	e6ff3073 	uxth	r3, r3
  100d50:	e14b30ba 	strh	r3, [fp, #-10]
  100d54:	e55b3014 	ldrb	r3, [fp, #-20]	; 0xffffffec
  100d58:	e6ff2073 	uxth	r2, r3
  100d5c:	e15b30ba 	ldrh	r3, [fp, #-10]
  100d60:	e1823003 	orr	r3, r2, r3
  100d64:	e6ff3073 	uxth	r3, r3
  100d68:	e14b30ba 	strh	r3, [fp, #-10]
  100d6c:	e15b20ba 	ldrh	r2, [fp, #-10]
  100d70:	e15b31b2 	ldrh	r3, [fp, #-18]	; 0xffffffee
  100d74:	e1a01003 	mov	r1, r3
  100d78:	e51b0010 	ldr	r0, [fp, #-16]
  100d7c:	ebffff59 	bl	100ae8 <ad469x_spi_reg_write>
  100d80:	e1a03000 	mov	r3, r0
  100d84:	e1a00003 	mov	r0, r3
  100d88:	e24bd004 	sub	sp, fp, #4
  100d8c:	e8bd8800 	pop	{fp, pc}

00100d90 <ad469x_set_reg_access_mode>:
  100d90:	e92d4800 	push	{fp, lr}
  100d94:	e28db004 	add	fp, sp, #4
  100d98:	e24dd008 	sub	sp, sp, #8
  100d9c:	e50b0008 	str	r0, [fp, #-8]
  100da0:	e1a03001 	mov	r3, r1
  100da4:	e54b3009 	strb	r3, [fp, #-9]
  100da8:	e55b3009 	ldrb	r3, [fp, #-9]
  100dac:	e1a03283 	lsl	r3, r3, #5
  100db0:	e6ef3073 	uxtb	r3, r3
  100db4:	e2033020 	and	r3, r3, #32
  100db8:	e6ef3073 	uxtb	r3, r3
  100dbc:	e3a02020 	mov	r2, #32
  100dc0:	e3a01010 	mov	r1, #16
  100dc4:	e51b0008 	ldr	r0, [fp, #-8]
  100dc8:	ebffffc0 	bl	100cd0 <ad469x_spi_write_mask>
  100dcc:	e1a03000 	mov	r3, r0
  100dd0:	e1a00003 	mov	r0, r3
  100dd4:	e24bd004 	sub	sp, fp, #4
  100dd8:	e8bd8800 	pop	{fp, pc}

00100ddc <ad469x_adv_seq_osr>:
  100ddc:	e92d4800 	push	{fp, lr}
  100de0:	e28db004 	add	fp, sp, #4
  100de4:	e24dd010 	sub	sp, sp, #16
  100de8:	e50b0010 	str	r0, [fp, #-16]
  100dec:	e1a03001 	mov	r3, r1
  100df0:	e14b31b2 	strh	r3, [fp, #-18]	; 0xffffffee
  100df4:	e1a03002 	mov	r3, r2
  100df8:	e54b3013 	strb	r3, [fp, #-19]	; 0xffffffed
  100dfc:	e51b3010 	ldr	r3, [fp, #-16]
  100e00:	e5d33018 	ldrb	r3, [r3, #24]
  100e04:	e3530000 	cmp	r3, #0
  100e08:	0a000003 	beq	100e1c <ad469x_adv_seq_osr+0x40>
  100e0c:	e51b3010 	ldr	r3, [fp, #-16]
  100e10:	e5d33018 	ldrb	r3, [r3, #24]
  100e14:	e3530001 	cmp	r3, #1
  100e18:	1a000001 	bne	100e24 <ad469x_adv_seq_osr+0x48>
  100e1c:	e3e03000 	mvn	r3, #0
  100e20:	ea00001b 	b	100e94 <ad469x_adv_seq_osr+0xb8>
  100e24:	e15b31b2 	ldrh	r3, [fp, #-18]	; 0xffffffee
  100e28:	e353000f 	cmp	r3, #15
  100e2c:	9a000001 	bls	100e38 <ad469x_adv_seq_osr+0x5c>
  100e30:	e3e03000 	mvn	r3, #0
  100e34:	ea000016 	b	100e94 <ad469x_adv_seq_osr+0xb8>
  100e38:	e15b31f2 	ldrsh	r3, [fp, #-18]	; 0xffffffee
  100e3c:	e203300f 	and	r3, r3, #15
  100e40:	e6bf3073 	sxth	r3, r3
  100e44:	e3833030 	orr	r3, r3, #48	; 0x30
  100e48:	e6bf3073 	sxth	r3, r3
  100e4c:	e6ff1073 	uxth	r1, r3
  100e50:	e3a03000 	mov	r3, #0
  100e54:	e3a02003 	mov	r2, #3
  100e58:	e51b0010 	ldr	r0, [fp, #-16]
  100e5c:	ebffff9b 	bl	100cd0 <ad469x_spi_write_mask>
  100e60:	e50b0008 	str	r0, [fp, #-8]
  100e64:	e51b3008 	ldr	r3, [fp, #-8]
  100e68:	e3530000 	cmp	r3, #0
  100e6c:	0a000001 	beq	100e78 <ad469x_adv_seq_osr+0x9c>
  100e70:	e51b3008 	ldr	r3, [fp, #-8]
  100e74:	ea000006 	b	100e94 <ad469x_adv_seq_osr+0xb8>
  100e78:	e15b31b2 	ldrh	r3, [fp, #-18]	; 0xffffffee
  100e7c:	e3a01010 	mov	r1, #16
  100e80:	e51b2010 	ldr	r2, [fp, #-16]
  100e84:	e0823003 	add	r3, r2, r3
  100e88:	e1a02001 	mov	r2, r1
  100e8c:	e5c32019 	strb	r2, [r3, #25]
  100e90:	e3a03000 	mov	r3, #0
  100e94:	e1a00003 	mov	r0, r3
  100e98:	e24bd004 	sub	sp, fp, #4
  100e9c:	e8bd8800 	pop	{fp, pc}

00100ea0 <ad469x_seq_osr_clear>:
  100ea0:	e92d4800 	push	{fp, lr}
  100ea4:	e28db004 	add	fp, sp, #4
  100ea8:	e24dd010 	sub	sp, sp, #16
  100eac:	e50b0010 	str	r0, [fp, #-16]
  100eb0:	e3a03000 	mov	r3, #0
  100eb4:	e54b3005 	strb	r3, [fp, #-5]
  100eb8:	e3a03000 	mov	r3, #0
  100ebc:	e54b3005 	strb	r3, [fp, #-5]
  100ec0:	ea000019 	b	100f2c <ad469x_seq_osr_clear+0x8c>
  100ec4:	e55b3005 	ldrb	r3, [fp, #-5]
  100ec8:	e6bf3073 	sxth	r3, r3
  100ecc:	e203300f 	and	r3, r3, #15
  100ed0:	e6bf3073 	sxth	r3, r3
  100ed4:	e3833030 	orr	r3, r3, #48	; 0x30
  100ed8:	e6bf3073 	sxth	r3, r3
  100edc:	e6ff1073 	uxth	r1, r3
  100ee0:	e3a03000 	mov	r3, #0
  100ee4:	e3a02003 	mov	r2, #3
  100ee8:	e51b0010 	ldr	r0, [fp, #-16]
  100eec:	ebffff77 	bl	100cd0 <ad469x_spi_write_mask>
  100ef0:	e50b000c 	str	r0, [fp, #-12]
  100ef4:	e51b300c 	ldr	r3, [fp, #-12]
  100ef8:	e3530000 	cmp	r3, #0
  100efc:	0a000001 	beq	100f08 <ad469x_seq_osr_clear+0x68>
  100f00:	e51b300c 	ldr	r3, [fp, #-12]
  100f04:	ea00000c 	b	100f3c <ad469x_seq_osr_clear+0x9c>
  100f08:	e55b3005 	ldrb	r3, [fp, #-5]
  100f0c:	e3a01010 	mov	r1, #16
  100f10:	e51b2010 	ldr	r2, [fp, #-16]
  100f14:	e0823003 	add	r3, r2, r3
  100f18:	e1a02001 	mov	r2, r1
  100f1c:	e5c32019 	strb	r2, [r3, #25]
  100f20:	e55b3005 	ldrb	r3, [fp, #-5]
  100f24:	e2833001 	add	r3, r3, #1
  100f28:	e54b3005 	strb	r3, [fp, #-5]
  100f2c:	e55b3005 	ldrb	r3, [fp, #-5]
  100f30:	e353000f 	cmp	r3, #15
  100f34:	9affffe2 	bls	100ec4 <ad469x_seq_osr_clear+0x24>
  100f38:	e3a03000 	mov	r3, #0
  100f3c:	e1a00003 	mov	r0, r3
  100f40:	e24bd004 	sub	sp, fp, #4
  100f44:	e8bd8800 	pop	{fp, pc}

00100f48 <ad469x_std_seq_osr>:
  100f48:	e92d4800 	push	{fp, lr}
  100f4c:	e28db004 	add	fp, sp, #4
  100f50:	e24dd010 	sub	sp, sp, #16
  100f54:	e50b0010 	str	r0, [fp, #-16]
  100f58:	e1a03001 	mov	r3, r1
  100f5c:	e54b3011 	strb	r3, [fp, #-17]	; 0xffffffef
  100f60:	e51b3010 	ldr	r3, [fp, #-16]
  100f64:	e5d33018 	ldrb	r3, [r3, #24]
  100f68:	e3530000 	cmp	r3, #0
  100f6c:	0a000003 	beq	100f80 <ad469x_std_seq_osr+0x38>
  100f70:	e51b3010 	ldr	r3, [fp, #-16]
  100f74:	e5d33018 	ldrb	r3, [r3, #24]
  100f78:	e3530001 	cmp	r3, #1
  100f7c:	1a000001 	bne	100f88 <ad469x_std_seq_osr+0x40>
  100f80:	e3e03000 	mvn	r3, #0
  100f84:	ea00000d 	b	100fc0 <ad469x_std_seq_osr+0x78>
  100f88:	e55b3011 	ldrb	r3, [fp, #-17]	; 0xffffffef
  100f8c:	e2033003 	and	r3, r3, #3
  100f90:	e6ef3073 	uxtb	r3, r3
  100f94:	e3a02003 	mov	r2, #3
  100f98:	e3a01030 	mov	r1, #48	; 0x30
  100f9c:	e51b0010 	ldr	r0, [fp, #-16]
  100fa0:	ebffff4a 	bl	100cd0 <ad469x_spi_write_mask>
  100fa4:	e50b0008 	str	r0, [fp, #-8]
  100fa8:	e51b3008 	ldr	r3, [fp, #-8]
  100fac:	e3530000 	cmp	r3, #0
  100fb0:	0a000001 	beq	100fbc <ad469x_std_seq_osr+0x74>
  100fb4:	e51b3008 	ldr	r3, [fp, #-8]
  100fb8:	ea000000 	b	100fc0 <ad469x_std_seq_osr+0x78>
  100fbc:	e51b3008 	ldr	r3, [fp, #-8]
  100fc0:	e1a00003 	mov	r0, r3
  100fc4:	e24bd004 	sub	sp, fp, #4
  100fc8:	e8bd8800 	pop	{fp, pc}

00100fcc <ad469x_set_channel_sequence>:
  100fcc:	e92d4800 	push	{fp, lr}
  100fd0:	e28db004 	add	fp, sp, #4
  100fd4:	e24dd010 	sub	sp, sp, #16
  100fd8:	e50b0010 	str	r0, [fp, #-16]
  100fdc:	e1a03001 	mov	r3, r1
  100fe0:	e54b3011 	strb	r3, [fp, #-17]	; 0xffffffef
  100fe4:	e55b3011 	ldrb	r3, [fp, #-17]	; 0xffffffef
  100fe8:	e3530003 	cmp	r3, #3
  100fec:	979ff103 	ldrls	pc, [pc, r3, lsl #2]
  100ff0:	ea00006b 	b	1011a4 <ad469x_set_channel_sequence+0x1d8>
  100ff4:	00101004 	.word	0x00101004
  100ff8:	001010a8 	.word	0x001010a8
  100ffc:	0010114c 	.word	0x0010114c
  101000:	00101178 	.word	0x00101178
  101004:	e3a03000 	mov	r3, #0
  101008:	e3a02080 	mov	r2, #128	; 0x80
  10100c:	e3a01022 	mov	r1, #34	; 0x22
  101010:	e51b0010 	ldr	r0, [fp, #-16]
  101014:	ebffff2d 	bl	100cd0 <ad469x_spi_write_mask>
  101018:	e50b0008 	str	r0, [fp, #-8]
  10101c:	e51b3008 	ldr	r3, [fp, #-8]
  101020:	e3530000 	cmp	r3, #0
  101024:	0a000001 	beq	101030 <ad469x_set_channel_sequence+0x64>
  101028:	e51b3008 	ldr	r3, [fp, #-8]
  10102c:	ea000069 	b	1011d8 <ad469x_set_channel_sequence+0x20c>
  101030:	e3a03000 	mov	r3, #0
  101034:	e3a0207f 	mov	r2, #127	; 0x7f
  101038:	e3a01022 	mov	r1, #34	; 0x22
  10103c:	e51b0010 	ldr	r0, [fp, #-16]
  101040:	ebffff22 	bl	100cd0 <ad469x_spi_write_mask>
  101044:	e50b0008 	str	r0, [fp, #-8]
  101048:	e51b3008 	ldr	r3, [fp, #-8]
  10104c:	e3530000 	cmp	r3, #0
  101050:	0a000001 	beq	10105c <ad469x_set_channel_sequence+0x90>
  101054:	e51b3008 	ldr	r3, [fp, #-8]
  101058:	ea00005e 	b	1011d8 <ad469x_set_channel_sequence+0x20c>
  10105c:	e3a03000 	mov	r3, #0
  101060:	e3a02002 	mov	r2, #2
  101064:	e3a01020 	mov	r1, #32
  101068:	e51b0010 	ldr	r0, [fp, #-16]
  10106c:	ebffff17 	bl	100cd0 <ad469x_spi_write_mask>
  101070:	e50b0008 	str	r0, [fp, #-8]
  101074:	e51b3008 	ldr	r3, [fp, #-8]
  101078:	e3530000 	cmp	r3, #0
  10107c:	0a000001 	beq	101088 <ad469x_set_channel_sequence+0xbc>
  101080:	e51b3008 	ldr	r3, [fp, #-8]
  101084:	ea000053 	b	1011d8 <ad469x_set_channel_sequence+0x20c>
  101088:	e51b0010 	ldr	r0, [fp, #-16]
  10108c:	ebffff83 	bl	100ea0 <ad469x_seq_osr_clear>
  101090:	e50b0008 	str	r0, [fp, #-8]
  101094:	e51b3008 	ldr	r3, [fp, #-8]
  101098:	e3530000 	cmp	r3, #0
  10109c:	0a000042 	beq	1011ac <ad469x_set_channel_sequence+0x1e0>
  1010a0:	e51b3008 	ldr	r3, [fp, #-8]
  1010a4:	ea00004b 	b	1011d8 <ad469x_set_channel_sequence+0x20c>
  1010a8:	e3a03000 	mov	r3, #0
  1010ac:	e3a02080 	mov	r2, #128	; 0x80
  1010b0:	e3a01022 	mov	r1, #34	; 0x22
  1010b4:	e51b0010 	ldr	r0, [fp, #-16]
  1010b8:	ebffff04 	bl	100cd0 <ad469x_spi_write_mask>
  1010bc:	e50b0008 	str	r0, [fp, #-8]
  1010c0:	e51b3008 	ldr	r3, [fp, #-8]
  1010c4:	e3530000 	cmp	r3, #0
  1010c8:	0a000001 	beq	1010d4 <ad469x_set_channel_sequence+0x108>
  1010cc:	e51b3008 	ldr	r3, [fp, #-8]
  1010d0:	ea000040 	b	1011d8 <ad469x_set_channel_sequence+0x20c>
  1010d4:	e3a03000 	mov	r3, #0
  1010d8:	e3a0207f 	mov	r2, #127	; 0x7f
  1010dc:	e3a01022 	mov	r1, #34	; 0x22
  1010e0:	e51b0010 	ldr	r0, [fp, #-16]
  1010e4:	ebfffef9 	bl	100cd0 <ad469x_spi_write_mask>
  1010e8:	e50b0008 	str	r0, [fp, #-8]
  1010ec:	e51b3008 	ldr	r3, [fp, #-8]
  1010f0:	e3530000 	cmp	r3, #0
  1010f4:	0a000001 	beq	101100 <ad469x_set_channel_sequence+0x134>
  1010f8:	e51b3008 	ldr	r3, [fp, #-8]
  1010fc:	ea000035 	b	1011d8 <ad469x_set_channel_sequence+0x20c>
  101100:	e3a03002 	mov	r3, #2
  101104:	e3a02002 	mov	r2, #2
  101108:	e3a01020 	mov	r1, #32
  10110c:	e51b0010 	ldr	r0, [fp, #-16]
  101110:	ebfffeee 	bl	100cd0 <ad469x_spi_write_mask>
  101114:	e50b0008 	str	r0, [fp, #-8]
  101118:	e51b3008 	ldr	r3, [fp, #-8]
  10111c:	e3530000 	cmp	r3, #0
  101120:	0a000001 	beq	10112c <ad469x_set_channel_sequence+0x160>
  101124:	e51b3008 	ldr	r3, [fp, #-8]
  101128:	ea00002a 	b	1011d8 <ad469x_set_channel_sequence+0x20c>
  10112c:	e51b0010 	ldr	r0, [fp, #-16]
  101130:	ebffff5a 	bl	100ea0 <ad469x_seq_osr_clear>
  101134:	e50b0008 	str	r0, [fp, #-8]
  101138:	e51b3008 	ldr	r3, [fp, #-8]
  10113c:	e3530000 	cmp	r3, #0
  101140:	0a00001b 	beq	1011b4 <ad469x_set_channel_sequence+0x1e8>
  101144:	e51b3008 	ldr	r3, [fp, #-8]
  101148:	ea000022 	b	1011d8 <ad469x_set_channel_sequence+0x20c>
  10114c:	e3a03080 	mov	r3, #128	; 0x80
  101150:	e3a02080 	mov	r2, #128	; 0x80
  101154:	e3a01022 	mov	r1, #34	; 0x22
  101158:	e51b0010 	ldr	r0, [fp, #-16]
  10115c:	ebfffedb 	bl	100cd0 <ad469x_spi_write_mask>
  101160:	e50b0008 	str	r0, [fp, #-8]
  101164:	e51b3008 	ldr	r3, [fp, #-8]
  101168:	e3530000 	cmp	r3, #0
  10116c:	0a000012 	beq	1011bc <ad469x_set_channel_sequence+0x1f0>
  101170:	e51b3008 	ldr	r3, [fp, #-8]
  101174:	ea000017 	b	1011d8 <ad469x_set_channel_sequence+0x20c>
  101178:	e3a03000 	mov	r3, #0
  10117c:	e3a02080 	mov	r2, #128	; 0x80
  101180:	e3a01022 	mov	r1, #34	; 0x22
  101184:	e51b0010 	ldr	r0, [fp, #-16]
  101188:	ebfffed0 	bl	100cd0 <ad469x_spi_write_mask>
  10118c:	e50b0008 	str	r0, [fp, #-8]
  101190:	e51b3008 	ldr	r3, [fp, #-8]
  101194:	e3530000 	cmp	r3, #0
  101198:	0a000009 	beq	1011c4 <ad469x_set_channel_sequence+0x1f8>
  10119c:	e51b3008 	ldr	r3, [fp, #-8]
  1011a0:	ea00000c 	b	1011d8 <ad469x_set_channel_sequence+0x20c>
  1011a4:	e3e03000 	mvn	r3, #0
  1011a8:	ea00000a 	b	1011d8 <ad469x_set_channel_sequence+0x20c>
  1011ac:	e320f000 	nop	{0}
  1011b0:	ea000004 	b	1011c8 <ad469x_set_channel_sequence+0x1fc>
  1011b4:	e320f000 	nop	{0}
  1011b8:	ea000002 	b	1011c8 <ad469x_set_channel_sequence+0x1fc>
  1011bc:	e320f000 	nop	{0}
  1011c0:	ea000000 	b	1011c8 <ad469x_set_channel_sequence+0x1fc>
  1011c4:	e320f000 	nop	{0}
  1011c8:	e51b3010 	ldr	r3, [fp, #-16]
  1011cc:	e55b2011 	ldrb	r2, [fp, #-17]	; 0xffffffef
  1011d0:	e5c32018 	strb	r2, [r3, #24]
  1011d4:	e51b3008 	ldr	r3, [fp, #-8]
  1011d8:	e1a00003 	mov	r0, r3
  1011dc:	e24bd004 	sub	sp, fp, #4
  1011e0:	e8bd8800 	pop	{fp, pc}

001011e4 <ad469x_adv_sequence_set_num_slots>:
  1011e4:	e92d4800 	push	{fp, lr}
  1011e8:	e28db004 	add	fp, sp, #4
  1011ec:	e24dd010 	sub	sp, sp, #16
  1011f0:	e50b0010 	str	r0, [fp, #-16]
  1011f4:	e1a03001 	mov	r3, r1
  1011f8:	e54b3011 	strb	r3, [fp, #-17]	; 0xffffffef
  1011fc:	e3a03000 	mov	r3, #0
  101200:	e54b3005 	strb	r3, [fp, #-5]
  101204:	e55b3011 	ldrb	r3, [fp, #-17]	; 0xffffffef
  101208:	e3530000 	cmp	r3, #0
  10120c:	0a000002 	beq	10121c <ad469x_adv_sequence_set_num_slots+0x38>
  101210:	e55b3011 	ldrb	r3, [fp, #-17]	; 0xffffffef
  101214:	e2433001 	sub	r3, r3, #1
  101218:	e54b3005 	strb	r3, [fp, #-5]
  10121c:	e55b3005 	ldrb	r3, [fp, #-5]
  101220:	e203307f 	and	r3, r3, #127	; 0x7f
  101224:	e6ef3073 	uxtb	r3, r3
  101228:	e3a0207f 	mov	r2, #127	; 0x7f
  10122c:	e3a01022 	mov	r1, #34	; 0x22
  101230:	e51b0010 	ldr	r0, [fp, #-16]
  101234:	ebfffea5 	bl	100cd0 <ad469x_spi_write_mask>
  101238:	e50b000c 	str	r0, [fp, #-12]
  10123c:	e51b300c 	ldr	r3, [fp, #-12]
  101240:	e3530000 	cmp	r3, #0
  101244:	0a000001 	beq	101250 <ad469x_adv_sequence_set_num_slots+0x6c>
  101248:	e51b300c 	ldr	r3, [fp, #-12]
  10124c:	ea000003 	b	101260 <ad469x_adv_sequence_set_num_slots+0x7c>
  101250:	e51b3010 	ldr	r3, [fp, #-16]
  101254:	e55b2011 	ldrb	r2, [fp, #-17]	; 0xffffffef
  101258:	e5c320aa 	strb	r2, [r3, #170]	; 0xaa
  10125c:	e3a03000 	mov	r3, #0
  101260:	e1a00003 	mov	r0, r3
  101264:	e24bd004 	sub	sp, fp, #4
  101268:	e8bd8800 	pop	{fp, pc}

0010126c <ad469x_adv_sequence_set_slot>:
  10126c:	e92d4800 	push	{fp, lr}
  101270:	e28db004 	add	fp, sp, #4
  101274:	e24dd010 	sub	sp, sp, #16
  101278:	e50b0010 	str	r0, [fp, #-16]
  10127c:	e1a03001 	mov	r3, r1
  101280:	e54b3011 	strb	r3, [fp, #-17]	; 0xffffffef
  101284:	e1a03002 	mov	r3, r2
  101288:	e54b3012 	strb	r3, [fp, #-18]	; 0xffffffee
  10128c:	e55b3011 	ldrb	r3, [fp, #-17]	; 0xffffffef
  101290:	e6bf3073 	sxth	r3, r3
  101294:	e203307f 	and	r3, r3, #127	; 0x7f
  101298:	e6bf3073 	sxth	r3, r3
  10129c:	e3833c01 	orr	r3, r3, #256	; 0x100
  1012a0:	e6bf3073 	sxth	r3, r3
  1012a4:	e6ff1073 	uxth	r1, r3
  1012a8:	e55b3012 	ldrb	r3, [fp, #-18]	; 0xffffffee
  1012ac:	e6ff3073 	uxth	r3, r3
  1012b0:	e203300f 	and	r3, r3, #15
  1012b4:	e6ff3073 	uxth	r3, r3
  1012b8:	e1a02003 	mov	r2, r3
  1012bc:	e51b0010 	ldr	r0, [fp, #-16]
  1012c0:	ebfffe08 	bl	100ae8 <ad469x_spi_reg_write>
  1012c4:	e50b0008 	str	r0, [fp, #-8]
  1012c8:	e51b3008 	ldr	r3, [fp, #-8]
  1012cc:	e3530000 	cmp	r3, #0
  1012d0:	0a000001 	beq	1012dc <ad469x_adv_sequence_set_slot+0x70>
  1012d4:	e51b3008 	ldr	r3, [fp, #-8]
  1012d8:	ea000005 	b	1012f4 <ad469x_adv_sequence_set_slot+0x88>
  1012dc:	e55b3011 	ldrb	r3, [fp, #-17]	; 0xffffffef
  1012e0:	e51b2010 	ldr	r2, [fp, #-16]
  1012e4:	e0823003 	add	r3, r2, r3
  1012e8:	e55b2012 	ldrb	r2, [fp, #-18]	; 0xffffffee
  1012ec:	e5c32029 	strb	r2, [r3, #41]	; 0x29
  1012f0:	e3a03000 	mov	r3, #0
  1012f4:	e1a00003 	mov	r0, r3
  1012f8:	e24bd004 	sub	sp, fp, #4
  1012fc:	e8bd8800 	pop	{fp, pc}

00101300 <ad469x_std_sequence_ch>:
  101300:	e92d4800 	push	{fp, lr}
  101304:	e28db004 	add	fp, sp, #4
  101308:	e24dd010 	sub	sp, sp, #16
  10130c:	e50b0010 	str	r0, [fp, #-16]
  101310:	e1a03001 	mov	r3, r1
  101314:	e14b31b2 	strh	r3, [fp, #-18]	; 0xffffffee
  101318:	e15b31b2 	ldrh	r3, [fp, #-18]	; 0xffffffee
  10131c:	e1a02003 	mov	r2, r3
  101320:	e3a01025 	mov	r1, #37	; 0x25
  101324:	e51b0010 	ldr	r0, [fp, #-16]
  101328:	ebfffdee 	bl	100ae8 <ad469x_spi_reg_write>
  10132c:	e50b0008 	str	r0, [fp, #-8]
  101330:	e51b3008 	ldr	r3, [fp, #-8]
  101334:	e3530000 	cmp	r3, #0
  101338:	0a000001 	beq	101344 <ad469x_std_sequence_ch+0x44>
  10133c:	e51b3008 	ldr	r3, [fp, #-8]
  101340:	ea000007 	b	101364 <ad469x_std_sequence_ch+0x64>
  101344:	e15b31b2 	ldrh	r3, [fp, #-18]	; 0xffffffee
  101348:	e1a00003 	mov	r0, r3
  10134c:	eb0003a8 	bl	1021f4 <hweight8>
  101350:	e1a03000 	mov	r3, r0
  101354:	e6ef2073 	uxtb	r2, r3
  101358:	e51b3010 	ldr	r3, [fp, #-16]
  10135c:	e5c320aa 	strb	r2, [r3, #170]	; 0xaa
  101360:	e51b3008 	ldr	r3, [fp, #-8]
  101364:	e1a00003 	mov	r0, r3
  101368:	e24bd004 	sub	sp, fp, #4
  10136c:	e8bd8800 	pop	{fp, pc}

00101370 <ad469x_sequence_enable_temp>:
  101370:	e92d4800 	push	{fp, lr}
  101374:	e28db004 	add	fp, sp, #4
  101378:	e24dd010 	sub	sp, sp, #16
  10137c:	e50b0010 	str	r0, [fp, #-16]
  101380:	e3a03001 	mov	r3, #1
  101384:	e3a02001 	mov	r2, #1
  101388:	e3a01029 	mov	r1, #41	; 0x29
  10138c:	e51b0010 	ldr	r0, [fp, #-16]
  101390:	ebfffe4e 	bl	100cd0 <ad469x_spi_write_mask>
  101394:	e50b0008 	str	r0, [fp, #-8]
  101398:	e51b3008 	ldr	r3, [fp, #-8]
  10139c:	e3530000 	cmp	r3, #0
  1013a0:	0a000001 	beq	1013ac <ad469x_sequence_enable_temp+0x3c>
  1013a4:	e51b3008 	ldr	r3, [fp, #-8]
  1013a8:	ea000003 	b	1013bc <ad469x_sequence_enable_temp+0x4c>
  1013ac:	e51b3010 	ldr	r3, [fp, #-16]
  1013b0:	e3a02001 	mov	r2, #1
  1013b4:	e5c320a9 	strb	r2, [r3, #169]	; 0xa9
  1013b8:	e51b3008 	ldr	r3, [fp, #-8]
  1013bc:	e1a00003 	mov	r0, r3
  1013c0:	e24bd004 	sub	sp, fp, #4
  1013c4:	e8bd8800 	pop	{fp, pc}

001013c8 <ad469x_sequence_disable_temp>:
  1013c8:	e92d4800 	push	{fp, lr}
  1013cc:	e28db004 	add	fp, sp, #4
  1013d0:	e24dd010 	sub	sp, sp, #16
  1013d4:	e50b0010 	str	r0, [fp, #-16]
  1013d8:	e3a03000 	mov	r3, #0
  1013dc:	e3a02001 	mov	r2, #1
  1013e0:	e3a01029 	mov	r1, #41	; 0x29
  1013e4:	e51b0010 	ldr	r0, [fp, #-16]
  1013e8:	ebfffe38 	bl	100cd0 <ad469x_spi_write_mask>
  1013ec:	e50b0008 	str	r0, [fp, #-8]
  1013f0:	e51b3008 	ldr	r3, [fp, #-8]
  1013f4:	e3530000 	cmp	r3, #0
  1013f8:	0a000001 	beq	101404 <ad469x_sequence_disable_temp+0x3c>
  1013fc:	e51b3008 	ldr	r3, [fp, #-8]
  101400:	ea000003 	b	101414 <ad469x_sequence_disable_temp+0x4c>
  101404:	e51b3010 	ldr	r3, [fp, #-16]
  101408:	e3a02000 	mov	r2, #0
  10140c:	e5c320a9 	strb	r2, [r3, #169]	; 0xa9
  101410:	e51b3008 	ldr	r3, [fp, #-8]
  101414:	e1a00003 	mov	r0, r3
  101418:	e24bd004 	sub	sp, fp, #4
  10141c:	e8bd8800 	pop	{fp, pc}

00101420 <ad469x_enter_conversion_mode>:
  101420:	e92d4800 	push	{fp, lr}
  101424:	e28db004 	add	fp, sp, #4
  101428:	e24dd008 	sub	sp, sp, #8
  10142c:	e50b0008 	str	r0, [fp, #-8]
  101430:	e3a03004 	mov	r3, #4
  101434:	e3a02004 	mov	r2, #4
  101438:	e3a01020 	mov	r1, #32
  10143c:	e51b0008 	ldr	r0, [fp, #-8]
  101440:	ebfffe22 	bl	100cd0 <ad469x_spi_write_mask>
  101444:	e1a03000 	mov	r3, r0
  101448:	e1a00003 	mov	r0, r3
  10144c:	e24bd004 	sub	sp, fp, #4
  101450:	e8bd8800 	pop	{fp, pc}

00101454 <ad469x_exit_conversion_mode>:
  101454:	e92d4800 	push	{fp, lr}
  101458:	e28db004 	add	fp, sp, #4
  10145c:	e24dd010 	sub	sp, sp, #16
  101460:	e50b0010 	str	r0, [fp, #-16]
  101464:	e3a03000 	mov	r3, #0
  101468:	e54b3009 	strb	r3, [fp, #-9]
  10146c:	ea000007 	b	101490 <ad469x_exit_conversion_mode+0x3c>
  101470:	e3a02000 	mov	r2, #0
  101474:	e3a01a05 	mov	r1, #20480	; 0x5000
  101478:	e51b0010 	ldr	r0, [fp, #-16]
  10147c:	ebfffd99 	bl	100ae8 <ad469x_spi_reg_write>
  101480:	e50b0008 	str	r0, [fp, #-8]
  101484:	e55b3009 	ldrb	r3, [fp, #-9]
  101488:	e2833001 	add	r3, r3, #1
  10148c:	e54b3009 	strb	r3, [fp, #-9]
  101490:	e55b3009 	ldrb	r3, [fp, #-9]
  101494:	e3530004 	cmp	r3, #4
  101498:	9afffff4 	bls	101470 <ad469x_exit_conversion_mode+0x1c>
  10149c:	e51b3008 	ldr	r3, [fp, #-8]
  1014a0:	e1a00003 	mov	r0, r3
  1014a4:	e24bd004 	sub	sp, fp, #4
  1014a8:	e8bd8800 	pop	{fp, pc}

001014ac <ad469x_adv_seq_osr_get_util_data>:
  1014ac:	e92d4800 	push	{fp, lr}
  1014b0:	e28db004 	add	fp, sp, #4
  1014b4:	e24dd018 	sub	sp, sp, #24
  1014b8:	e50b0010 	str	r0, [fp, #-16]
  1014bc:	e1a03001 	mov	r3, r1
  1014c0:	e50b2018 	str	r2, [fp, #-24]	; 0xffffffe8
  1014c4:	e14b31b2 	strh	r3, [fp, #-18]	; 0xffffffee
  1014c8:	e15b21b2 	ldrh	r2, [fp, #-18]	; 0xffffffee
  1014cc:	e51b3010 	ldr	r3, [fp, #-16]
  1014d0:	e5d330aa 	ldrb	r3, [r3, #170]	; 0xaa
  1014d4:	e1a01003 	mov	r1, r3
  1014d8:	e51b3010 	ldr	r3, [fp, #-16]
  1014dc:	e5d330a9 	ldrb	r3, [r3, #169]	; 0xa9
  1014e0:	e0813003 	add	r3, r1, r3
  1014e4:	e1a01003 	mov	r1, r3
  1014e8:	e1a00002 	mov	r0, r2
  1014ec:	eb005b81 	bl	1182f8 <__aeabi_idivmod>
  1014f0:	e1a03001 	mov	r3, r1
  1014f4:	e54b3005 	strb	r3, [fp, #-5]
  1014f8:	e51b3010 	ldr	r3, [fp, #-16]
  1014fc:	e5d330a9 	ldrb	r3, [r3, #169]	; 0xa9
  101500:	e3530000 	cmp	r3, #0
  101504:	0a000006 	beq	101524 <ad469x_adv_seq_osr_get_util_data+0x78>
  101508:	e51b3010 	ldr	r3, [fp, #-16]
  10150c:	e5d330aa 	ldrb	r3, [r3, #170]	; 0xaa
  101510:	e55b2005 	ldrb	r2, [fp, #-5]
  101514:	e1520003 	cmp	r2, r3
  101518:	1a000001 	bne	101524 <ad469x_adv_seq_osr_get_util_data+0x78>
  10151c:	e3a03000 	mov	r3, #0
  101520:	ea000000 	b	101528 <ad469x_adv_seq_osr_get_util_data+0x7c>
  101524:	e3a03000 	mov	r3, #0
  101528:	e1a00003 	mov	r0, r3
  10152c:	e24bd004 	sub	sp, fp, #4
  101530:	e8bd8800 	pop	{fp, pc}

00101534 <ad469x_seq_read_data>:
  101534:	e92d4800 	push	{fp, lr}
  101538:	e28db004 	add	fp, sp, #4
  10153c:	e24dd020 	sub	sp, sp, #32
  101540:	e50b0018 	str	r0, [fp, #-24]	; 0xffffffe8
  101544:	e50b101c 	str	r1, [fp, #-28]	; 0xffffffe4
  101548:	e1a03002 	mov	r3, r2
  10154c:	e14b31be 	strh	r3, [fp, #-30]	; 0xffffffe2
  101550:	e15b31be 	ldrh	r3, [fp, #-30]	; 0xffffffe2
  101554:	e51b2018 	ldr	r2, [fp, #-24]	; 0xffffffe8
  101558:	e5d220aa 	ldrb	r2, [r2, #170]	; 0xaa
  10155c:	e1a01002 	mov	r1, r2
  101560:	e51b2018 	ldr	r2, [fp, #-24]	; 0xffffffe8
  101564:	e5d220a9 	ldrb	r2, [r2, #169]	; 0xa9
  101568:	e0812002 	add	r2, r1, r2
  10156c:	e0030392 	mul	r3, r2, r3
  101570:	e50b300c 	str	r3, [fp, #-12]
  101574:	e51b300c 	ldr	r3, [fp, #-12]
  101578:	e6ff3073 	uxth	r3, r3
  10157c:	e51b201c 	ldr	r2, [fp, #-28]	; 0xffffffe4
  101580:	e3a01000 	mov	r1, #0
  101584:	e51b0018 	ldr	r0, [fp, #-24]	; 0xffffffe8
  101588:	eb000048 	bl	1016b0 <ad469x_read_data>
  10158c:	e50b0010 	str	r0, [fp, #-16]
  101590:	e51b3010 	ldr	r3, [fp, #-16]
  101594:	e3530000 	cmp	r3, #0
  101598:	0a000001 	beq	1015a4 <ad469x_seq_read_data+0x70>
  10159c:	e51b3010 	ldr	r3, [fp, #-16]
  1015a0:	ea00001e 	b	101620 <ad469x_seq_read_data+0xec>
  1015a4:	e51b3018 	ldr	r3, [fp, #-24]	; 0xffffffe8
  1015a8:	e5d33018 	ldrb	r3, [r3, #24]
  1015ac:	e3530003 	cmp	r3, #3
  1015b0:	0a000001 	beq	1015bc <ad469x_seq_read_data+0x88>
  1015b4:	e3a03000 	mov	r3, #0
  1015b8:	ea000018 	b	101620 <ad469x_seq_read_data+0xec>
  1015bc:	e3a03000 	mov	r3, #0
  1015c0:	e14b30b6 	strh	r3, [fp, #-6]
  1015c4:	ea000010 	b	10160c <ad469x_seq_read_data+0xd8>
  1015c8:	e15b30b6 	ldrh	r3, [fp, #-6]
  1015cc:	e1a03103 	lsl	r3, r3, #2
  1015d0:	e51b201c 	ldr	r2, [fp, #-28]	; 0xffffffe4
  1015d4:	e0822003 	add	r2, r2, r3
  1015d8:	e15b30b6 	ldrh	r3, [fp, #-6]
  1015dc:	e1a01003 	mov	r1, r3
  1015e0:	e51b0018 	ldr	r0, [fp, #-24]	; 0xffffffe8
  1015e4:	ebffffb0 	bl	1014ac <ad469x_adv_seq_osr_get_util_data>
  1015e8:	e50b0010 	str	r0, [fp, #-16]
  1015ec:	e51b3010 	ldr	r3, [fp, #-16]
  1015f0:	e3530000 	cmp	r3, #0
  1015f4:	0a000001 	beq	101600 <ad469x_seq_read_data+0xcc>
  1015f8:	e51b3010 	ldr	r3, [fp, #-16]
  1015fc:	ea000007 	b	101620 <ad469x_seq_read_data+0xec>
  101600:	e15b30b6 	ldrh	r3, [fp, #-6]
  101604:	e2833001 	add	r3, r3, #1
  101608:	e14b30b6 	strh	r3, [fp, #-6]
  10160c:	e15b20b6 	ldrh	r2, [fp, #-6]
  101610:	e51b300c 	ldr	r3, [fp, #-12]
  101614:	e1520003 	cmp	r2, r3
  101618:	3affffea 	bcc	1015c8 <ad469x_seq_read_data+0x94>
  10161c:	e3a03000 	mov	r3, #0
  101620:	e1a00003 	mov	r0, r3
  101624:	e24bd004 	sub	sp, fp, #4
  101628:	e8bd8800 	pop	{fp, pc}

0010162c <no_of_ones>:
  10162c:	e52db004 	push	{fp}		; (str fp, [sp, #-4]!)
  101630:	e28db000 	add	fp, sp, #0
  101634:	e24dd014 	sub	sp, sp, #20
  101638:	e1a03000 	mov	r3, r0
  10163c:	e14b30be 	strh	r3, [fp, #-14]
  101640:	e3a03000 	mov	r3, #0
  101644:	e14b30b6 	strh	r3, [fp, #-6]
  101648:	e3a03000 	mov	r3, #0
  10164c:	e14b30b6 	strh	r3, [fp, #-6]
  101650:	ea00000e 	b	101690 <no_of_ones+0x64>
  101654:	e15b20be 	ldrh	r2, [fp, #-14]
  101658:	e15b30b6 	ldrh	r3, [fp, #-6]
  10165c:	e1a03352 	asr	r3, r2, r3
  101660:	e6ef3073 	uxtb	r3, r3
  101664:	e2033001 	and	r3, r3, #1
  101668:	e54b3008 	strb	r3, [fp, #-8]
  10166c:	e55b3008 	ldrb	r3, [fp, #-8]
  101670:	e3530001 	cmp	r3, #1
  101674:	1a000002 	bne	101684 <no_of_ones+0x58>
  101678:	e55b3007 	ldrb	r3, [fp, #-7]
  10167c:	e2833001 	add	r3, r3, #1
  101680:	e54b3007 	strb	r3, [fp, #-7]
  101684:	e15b30b6 	ldrh	r3, [fp, #-6]
  101688:	e2833001 	add	r3, r3, #1
  10168c:	e14b30b6 	strh	r3, [fp, #-6]
  101690:	e15b30b6 	ldrh	r3, [fp, #-6]
  101694:	e353000f 	cmp	r3, #15
  101698:	9affffed 	bls	101654 <no_of_ones+0x28>
  10169c:	e55b3007 	ldrb	r3, [fp, #-7]
  1016a0:	e1a00003 	mov	r0, r3
  1016a4:	e24bd000 	sub	sp, fp, #0
  1016a8:	e49db004 	pop	{fp}		; (ldr fp, [sp], #4)
  1016ac:	e12fff1e 	bx	lr

001016b0 <ad469x_read_data>:
  1016b0:	e92d4810 	push	{r4, fp, lr}
  1016b4:	e28db008 	add	fp, sp, #8
  1016b8:	e24dd054 	sub	sp, sp, #84	; 0x54
  1016bc:	e50b0040 	str	r0, [fp, #-64]	; 0xffffffc0
  1016c0:	e50b2048 	str	r2, [fp, #-72]	; 0xffffffb8
  1016c4:	e1a02001 	mov	r2, r1
  1016c8:	e54b2041 	strb	r2, [fp, #-65]	; 0xffffffbf
  1016cc:	e14b34b4 	strh	r3, [fp, #-68]	; 0xffffffbc
  1016d0:	e3013b28 	movw	r3, #6952	; 0x1b28
  1016d4:	e3403012 	movt	r3, #18
  1016d8:	e24bc03c 	sub	ip, fp, #60	; 0x3c
  1016dc:	e8930007 	ldm	r3, {r0, r1, r2}
  1016e0:	e88c0007 	stm	ip, {r0, r1, r2}
  1016e4:	e55b3041 	ldrb	r3, [fp, #-65]	; 0xffffffbf
  1016e8:	e353000f 	cmp	r3, #15
  1016ec:	8a000007 	bhi	101710 <ad469x_read_data+0x60>
  1016f0:	e55b3041 	ldrb	r3, [fp, #-65]	; 0xffffffbf
  1016f4:	e203300f 	and	r3, r3, #15
  1016f8:	e6ef3073 	uxtb	r3, r3
  1016fc:	e3833010 	orr	r3, r3, #16
  101700:	e6ef3073 	uxtb	r3, r3
  101704:	e1a03583 	lsl	r3, r3, #11
  101708:	e50b3018 	str	r3, [fp, #-24]	; 0xffffffe8
  10170c:	ea000007 	b	101730 <ad469x_read_data+0x80>
  101710:	e55b3041 	ldrb	r3, [fp, #-65]	; 0xffffffbf
  101714:	e3530010 	cmp	r3, #16
  101718:	1a000002 	bne	101728 <ad469x_read_data+0x78>
  10171c:	e3a03b1e 	mov	r3, #30720	; 0x7800
  101720:	e50b3018 	str	r3, [fp, #-24]	; 0xffffffe8
  101724:	ea000001 	b	101730 <ad469x_read_data+0x80>
  101728:	e3e03000 	mvn	r3, #0
  10172c:	ea00006f 	b	1018f0 <ad469x_read_data+0x240>
  101730:	e51b3040 	ldr	r3, [fp, #-64]	; 0xffffffc0
  101734:	e5d33010 	ldrb	r3, [r3, #16]
  101738:	e3530000 	cmp	r3, #0
  10173c:	0a00002e 	beq	1017fc <ad469x_read_data+0x14c>
  101740:	e51b0040 	ldr	r0, [fp, #-64]	; 0xffffffc0
  101744:	ebffff42 	bl	101454 <ad469x_exit_conversion_mode>
  101748:	e3a03080 	mov	r3, #128	; 0x80
  10174c:	e3a02080 	mov	r2, #128	; 0x80
  101750:	e3a01022 	mov	r1, #34	; 0x22
  101754:	e51b0040 	ldr	r0, [fp, #-64]	; 0xffffffc0
  101758:	ebfffd5c 	bl	100cd0 <ad469x_spi_write_mask>
  10175c:	e30f2fff 	movw	r2, #65535	; 0xffff
  101760:	e3a01025 	mov	r1, #37	; 0x25
  101764:	e51b0040 	ldr	r0, [fp, #-64]	; 0xffffffc0
  101768:	ebfffcde 	bl	100ae8 <ad469x_spi_reg_write>
  10176c:	e24b301a 	sub	r3, fp, #26
  101770:	e1a02003 	mov	r2, r3
  101774:	e3a01024 	mov	r1, #36	; 0x24
  101778:	e51b0040 	ldr	r0, [fp, #-64]	; 0xffffffc0
  10177c:	ebfffc75 	bl	100958 <ad469x_spi_reg_read>
  101780:	e24b301c 	sub	r3, fp, #28
  101784:	e1a02003 	mov	r2, r3
  101788:	e3a01025 	mov	r1, #37	; 0x25
  10178c:	e51b0040 	ldr	r0, [fp, #-64]	; 0xffffffc0
  101790:	ebfffc70 	bl	100958 <ad469x_spi_reg_read>
  101794:	e15b31ba 	ldrh	r3, [fp, #-26]	; 0xffffffe6
  101798:	e1a03403 	lsl	r3, r3, #8
  10179c:	e6bf2073 	sxth	r2, r3
  1017a0:	e15b31bc 	ldrh	r3, [fp, #-28]	; 0xffffffe4
  1017a4:	e6bf3073 	sxth	r3, r3
  1017a8:	e1823003 	orr	r3, r2, r3
  1017ac:	e6bf3073 	sxth	r3, r3
  1017b0:	e14b30be 	strh	r3, [fp, #-14]
  1017b4:	e51b3040 	ldr	r3, [fp, #-64]	; 0xffffffc0
  1017b8:	e593300c 	ldr	r3, [r3, #12]
  1017bc:	e15b20be 	ldrh	r2, [fp, #-14]
  1017c0:	e3001404 	movw	r1, #1028	; 0x404
  1017c4:	e1a00003 	mov	r0, r3
  1017c8:	eb000d25 	bl	104c64 <axi_io_write>
  1017cc:	e51b3040 	ldr	r3, [fp, #-64]	; 0xffffffc0
  1017d0:	e593400c 	ldr	r4, [r3, #12]
  1017d4:	e15b30be 	ldrh	r3, [fp, #-14]
  1017d8:	e1a00003 	mov	r0, r3
  1017dc:	ebffff92 	bl	10162c <no_of_ones>
  1017e0:	e1a03000 	mov	r3, r0
  1017e4:	e1a02003 	mov	r2, r3
  1017e8:	e3001418 	movw	r1, #1048	; 0x418
  1017ec:	e1a00004 	mov	r0, r4
  1017f0:	eb000d1b 	bl	104c64 <axi_io_write>
  1017f4:	e51b0040 	ldr	r0, [fp, #-64]	; 0xffffffc0
  1017f8:	ebffff08 	bl	101420 <ad469x_enter_conversion_mode>
  1017fc:	e51b3040 	ldr	r3, [fp, #-64]	; 0xffffffc0
  101800:	e593000c 	ldr	r0, [r3, #12]
  101804:	e51b3040 	ldr	r3, [fp, #-64]	; 0xffffffc0
  101808:	e5d33010 	ldrb	r3, [r3, #16]
  10180c:	e1a03103 	lsl	r3, r3, #2
  101810:	e3833003 	orr	r3, r3, #3
  101814:	e1a02003 	mov	r2, r3
  101818:	e300140c 	movw	r1, #1036	; 0x40c
  10181c:	eb000d10 	bl	104c64 <axi_io_write>
  101820:	e51b3040 	ldr	r3, [fp, #-64]	; 0xffffffc0
  101824:	e5932000 	ldr	r2, [r3]
  101828:	e51b3040 	ldr	r3, [fp, #-64]	; 0xffffffc0
  10182c:	e5933004 	ldr	r3, [r3, #4]
  101830:	e1a01003 	mov	r1, r3
  101834:	e1a00002 	mov	r0, r2
  101838:	eb0006ec 	bl	1033f0 <spi_engine_offload_init>
  10183c:	e50b0014 	str	r0, [fp, #-20]	; 0xffffffec
  101840:	e51b3014 	ldr	r3, [fp, #-20]	; 0xffffffec
  101844:	e3530000 	cmp	r3, #0
  101848:	0a000001 	beq	101854 <ad469x_read_data+0x1a4>
  10184c:	e51b3014 	ldr	r3, [fp, #-20]	; 0xffffffec
  101850:	ea000026 	b	1018f0 <ad469x_read_data+0x240>
  101854:	e24b303c 	sub	r3, fp, #60	; 0x3c
  101858:	e50b3030 	str	r3, [fp, #-48]	; 0xffffffd0
  10185c:	e3a03003 	mov	r3, #3
  101860:	e50b302c 	str	r3, [fp, #-44]	; 0xffffffd4
  101864:	e51b3048 	ldr	r3, [fp, #-72]	; 0xffffffb8
  101868:	e50b3020 	str	r3, [fp, #-32]	; 0xffffffe0
  10186c:	e24b3018 	sub	r3, fp, #24
  101870:	e50b3028 	str	r3, [fp, #-40]	; 0xffffffd8
  101874:	e51b3040 	ldr	r3, [fp, #-64]	; 0xffffffc0
  101878:	e593c000 	ldr	ip, [r3]
  10187c:	e15b34b4 	ldrh	r3, [fp, #-68]	; 0xffffffbc
  101880:	e58d3008 	str	r3, [sp, #8]
  101884:	e1a0200d 	mov	r2, sp
  101888:	e24b3024 	sub	r3, fp, #36	; 0x24
  10188c:	e8930003 	ldm	r3, {r0, r1}
  101890:	e8820003 	stm	r2, {r0, r1}
  101894:	e24b3030 	sub	r3, fp, #48	; 0x30
  101898:	e893000e 	ldm	r3, {r1, r2, r3}
  10189c:	e1a0000c 	mov	r0, ip
  1018a0:	eb000718 	bl	103508 <spi_engine_offload_transfer>
  1018a4:	e50b0014 	str	r0, [fp, #-20]	; 0xffffffec
  1018a8:	e51b3014 	ldr	r3, [fp, #-20]	; 0xffffffec
  1018ac:	e3530000 	cmp	r3, #0
  1018b0:	0a000001 	beq	1018bc <ad469x_read_data+0x20c>
  1018b4:	e51b3014 	ldr	r3, [fp, #-20]	; 0xffffffec
  1018b8:	ea00000c 	b	1018f0 <ad469x_read_data+0x240>
  1018bc:	e51b3040 	ldr	r3, [fp, #-64]	; 0xffffffc0
  1018c0:	e5933014 	ldr	r3, [r3, #20]
  1018c4:	e3530000 	cmp	r3, #0
  1018c8:	0a000007 	beq	1018ec <ad469x_read_data+0x23c>
  1018cc:	e51b3040 	ldr	r3, [fp, #-64]	; 0xffffffc0
  1018d0:	e5933014 	ldr	r3, [r3, #20]
  1018d4:	e51b2020 	ldr	r2, [fp, #-32]	; 0xffffffe0
  1018d8:	e1a00002 	mov	r0, r2
  1018dc:	e15b24b4 	ldrh	r2, [fp, #-68]	; 0xffffffbc
  1018e0:	e1a02282 	lsl	r2, r2, #5
  1018e4:	e1a01002 	mov	r1, r2
  1018e8:	e12fff33 	blx	r3
  1018ec:	e51b3014 	ldr	r3, [fp, #-20]	; 0xffffffec
  1018f0:	e1a00003 	mov	r0, r3
  1018f4:	e24bd008 	sub	sp, fp, #8
  1018f8:	e8bd8810 	pop	{r4, fp, pc}

001018fc <ad469x_init>:
  1018fc:	e92d4800 	push	{fp, lr}
  101900:	e28db004 	add	fp, sp, #4
  101904:	e24dd018 	sub	sp, sp, #24
  101908:	e50b0018 	str	r0, [fp, #-24]	; 0xffffffe8
  10190c:	e50b101c 	str	r1, [fp, #-28]	; 0xffffffe4
  101910:	e3a03000 	mov	r3, #0
  101914:	e14b30be 	strh	r3, [fp, #-14]
  101918:	e3a000ac 	mov	r0, #172	; 0xac
  10191c:	eb005b03 	bl	118530 <malloc>
  101920:	e1a03000 	mov	r3, r0
  101924:	e50b3008 	str	r3, [fp, #-8]
  101928:	e51b3008 	ldr	r3, [fp, #-8]
  10192c:	e3530000 	cmp	r3, #0
  101930:	1a000001 	bne	10193c <ad469x_init+0x40>
  101934:	e3e03000 	mvn	r3, #0
  101938:	ea0000ba 	b	101c28 <ad469x_init+0x32c>
  10193c:	e51b2008 	ldr	r2, [fp, #-8]
  101940:	e51b301c 	ldr	r3, [fp, #-28]	; 0xffffffe4
  101944:	e5933000 	ldr	r3, [r3]
  101948:	e1a01003 	mov	r1, r3
  10194c:	e1a00002 	mov	r0, r2
  101950:	eb0000d0 	bl	101c98 <spi_init>
  101954:	e50b000c 	str	r0, [fp, #-12]
  101958:	e51b300c 	ldr	r3, [fp, #-12]
  10195c:	e3530000 	cmp	r3, #0
  101960:	1a0000aa 	bne	101c10 <ad469x_init+0x314>
  101964:	e51b301c 	ldr	r3, [fp, #-28]	; 0xffffffe4
  101968:	e5932004 	ldr	r2, [r3, #4]
  10196c:	e51b3008 	ldr	r3, [fp, #-8]
  101970:	e5832004 	str	r2, [r3, #4]
  101974:	e51b301c 	ldr	r3, [fp, #-28]	; 0xffffffe4
  101978:	e5d3200c 	ldrb	r2, [r3, #12]
  10197c:	e51b3008 	ldr	r3, [fp, #-8]
  101980:	e5c32008 	strb	r2, [r3, #8]
  101984:	e51b301c 	ldr	r3, [fp, #-28]	; 0xffffffe4
  101988:	e5d3200d 	ldrb	r2, [r3, #13]
  10198c:	e51b3008 	ldr	r3, [fp, #-8]
  101990:	e5c32009 	strb	r2, [r3, #9]
  101994:	e51b301c 	ldr	r3, [fp, #-28]	; 0xffffffe4
  101998:	e5d3200e 	ldrb	r2, [r3, #14]
  10199c:	e51b3008 	ldr	r3, [fp, #-8]
  1019a0:	e5c32010 	strb	r2, [r3, #16]
  1019a4:	e51b301c 	ldr	r3, [fp, #-28]	; 0xffffffe4
  1019a8:	e5d3200f 	ldrb	r2, [r3, #15]
  1019ac:	e51b3008 	ldr	r3, [fp, #-8]
  1019b0:	e5c32011 	strb	r2, [r3, #17]
  1019b4:	e51b301c 	ldr	r3, [fp, #-28]	; 0xffffffe4
  1019b8:	e5932010 	ldr	r2, [r3, #16]
  1019bc:	e51b3008 	ldr	r3, [fp, #-8]
  1019c0:	e5832014 	str	r2, [r3, #20]
  1019c4:	e51b3008 	ldr	r3, [fp, #-8]
  1019c8:	e3a02002 	mov	r2, #2
  1019cc:	e5c32018 	strb	r2, [r3, #24]
  1019d0:	e51b3008 	ldr	r3, [fp, #-8]
  1019d4:	e3a02000 	mov	r2, #0
  1019d8:	e5c320aa 	strb	r2, [r3, #170]	; 0xaa
  1019dc:	e51b3008 	ldr	r3, [fp, #-8]
  1019e0:	e3a02000 	mov	r2, #0
  1019e4:	e5c320a9 	strb	r2, [r3, #169]	; 0xa9
  1019e8:	e51b301c 	ldr	r3, [fp, #-28]	; 0xffffffe4
  1019ec:	e5932008 	ldr	r2, [r3, #8]
  1019f0:	e51b3008 	ldr	r3, [fp, #-8]
  1019f4:	e583200c 	str	r2, [r3, #12]
  1019f8:	e51b3008 	ldr	r3, [fp, #-8]
  1019fc:	e2833029 	add	r3, r3, #41	; 0x29
  101a00:	e3a02080 	mov	r2, #128	; 0x80
  101a04:	e3a01000 	mov	r1, #0
  101a08:	e1a00003 	mov	r0, r3
  101a0c:	eb005cae 	bl	118ccc <memset>
  101a10:	e51b0008 	ldr	r0, [fp, #-8]
  101a14:	ebfffe8e 	bl	101454 <ad469x_exit_conversion_mode>
  101a18:	e50b000c 	str	r0, [fp, #-12]
  101a1c:	e51b300c 	ldr	r3, [fp, #-12]
  101a20:	e3530000 	cmp	r3, #0
  101a24:	1a00007b 	bne	101c18 <ad469x_init+0x31c>
  101a28:	e3a02080 	mov	r2, #128	; 0x80
  101a2c:	e3a01001 	mov	r1, #1
  101a30:	e51b0008 	ldr	r0, [fp, #-8]
  101a34:	ebfffc2b 	bl	100ae8 <ad469x_spi_reg_write>
  101a38:	e50b000c 	str	r0, [fp, #-12]
  101a3c:	e51b300c 	ldr	r3, [fp, #-12]
  101a40:	e3530000 	cmp	r3, #0
  101a44:	0a000001 	beq	101a50 <ad469x_init+0x154>
  101a48:	e51b300c 	ldr	r3, [fp, #-12]
  101a4c:	ea000075 	b	101c28 <ad469x_init+0x32c>
  101a50:	e3a020ea 	mov	r2, #234	; 0xea
  101a54:	e3a0100a 	mov	r1, #10
  101a58:	e51b0008 	ldr	r0, [fp, #-8]
  101a5c:	ebfffc21 	bl	100ae8 <ad469x_spi_reg_write>
  101a60:	e50b000c 	str	r0, [fp, #-12]
  101a64:	e51b300c 	ldr	r3, [fp, #-12]
  101a68:	e3530000 	cmp	r3, #0
  101a6c:	1a000055 	bne	101bc8 <ad469x_init+0x2cc>
  101a70:	e24b300e 	sub	r3, fp, #14
  101a74:	e1a02003 	mov	r2, r3
  101a78:	e3a0100a 	mov	r1, #10
  101a7c:	e51b0008 	ldr	r0, [fp, #-8]
  101a80:	ebfffbb4 	bl	100958 <ad469x_spi_reg_read>
  101a84:	e50b000c 	str	r0, [fp, #-12]
  101a88:	e51b300c 	ldr	r3, [fp, #-12]
  101a8c:	e3530000 	cmp	r3, #0
  101a90:	1a00004e 	bne	101bd0 <ad469x_init+0x2d4>
  101a94:	e15b30be 	ldrh	r3, [fp, #-14]
  101a98:	e35300ea 	cmp	r3, #234	; 0xea
  101a9c:	1a00004d 	bne	101bd8 <ad469x_init+0x2dc>
  101aa0:	e3a01001 	mov	r1, #1
  101aa4:	e51b0008 	ldr	r0, [fp, #-8]
  101aa8:	ebfffcb8 	bl	100d90 <ad469x_set_reg_access_mode>
  101aac:	e50b000c 	str	r0, [fp, #-12]
  101ab0:	e51b300c 	ldr	r3, [fp, #-12]
  101ab4:	e3530000 	cmp	r3, #0
  101ab8:	1a000048 	bne	101be0 <ad469x_init+0x2e4>
  101abc:	e51b0008 	ldr	r0, [fp, #-8]
  101ac0:	ebfffcf6 	bl	100ea0 <ad469x_seq_osr_clear>
  101ac4:	e50b000c 	str	r0, [fp, #-12]
  101ac8:	e51b300c 	ldr	r3, [fp, #-12]
  101acc:	e3530000 	cmp	r3, #0
  101ad0:	1a000044 	bne	101be8 <ad469x_init+0x2ec>
  101ad4:	e3a0208e 	mov	r2, #142	; 0x8e
  101ad8:	e3a01027 	mov	r1, #39	; 0x27
  101adc:	e51b0008 	ldr	r0, [fp, #-8]
  101ae0:	ebfffc00 	bl	100ae8 <ad469x_spi_reg_write>
  101ae4:	e50b000c 	str	r0, [fp, #-12]
  101ae8:	e51b300c 	ldr	r3, [fp, #-12]
  101aec:	e3530000 	cmp	r3, #0
  101af0:	1a00003e 	bne	101bf0 <ad469x_init+0x2f4>
  101af4:	e51b3008 	ldr	r3, [fp, #-8]
  101af8:	e593300c 	ldr	r3, [r3, #12]
  101afc:	e3a02000 	mov	r2, #0
  101b00:	e300140c 	movw	r1, #1036	; 0x40c
  101b04:	e1a00003 	mov	r0, r3
  101b08:	eb000c55 	bl	104c64 <axi_io_write>
  101b0c:	e51b3008 	ldr	r3, [fp, #-8]
  101b10:	e593000c 	ldr	r0, [r3, #12]
  101b14:	e51b3008 	ldr	r3, [fp, #-8]
  101b18:	e5d33011 	ldrb	r3, [r3, #17]
  101b1c:	e1a01003 	mov	r1, r3
  101b20:	e3042008 	movw	r2, #16392	; 0x4008
  101b24:	e3402012 	movt	r2, #18
  101b28:	e1a03001 	mov	r3, r1
  101b2c:	e1a03083 	lsl	r3, r3, #1
  101b30:	e0833001 	add	r3, r3, r1
  101b34:	e1a03103 	lsl	r3, r3, #2
  101b38:	e0823003 	add	r3, r2, r3
  101b3c:	e283300a 	add	r3, r3, #10
  101b40:	e1d330b0 	ldrh	r3, [r3]
  101b44:	e1a02003 	mov	r2, r3
  101b48:	e3001408 	movw	r1, #1032	; 0x408
  101b4c:	eb000c44 	bl	104c64 <axi_io_write>
  101b50:	e51b3008 	ldr	r3, [fp, #-8]
  101b54:	e593000c 	ldr	r0, [r3, #12]
  101b58:	e51b3008 	ldr	r3, [fp, #-8]
  101b5c:	e5d33011 	ldrb	r3, [r3, #17]
  101b60:	e1a01003 	mov	r1, r3
  101b64:	e3042008 	movw	r2, #16392	; 0x4008
  101b68:	e3402012 	movt	r2, #18
  101b6c:	e1a03001 	mov	r3, r1
  101b70:	e1a03083 	lsl	r3, r3, #1
  101b74:	e0833001 	add	r3, r3, r1
  101b78:	e1a03103 	lsl	r3, r3, #2
  101b7c:	e0823003 	add	r3, r2, r3
  101b80:	e2833008 	add	r3, r3, #8
  101b84:	e1d330b0 	ldrh	r3, [r3]
  101b88:	e1a02003 	mov	r2, r3
  101b8c:	e300141c 	movw	r1, #1052	; 0x41c
  101b90:	eb000c33 	bl	104c64 <axi_io_write>
  101b94:	e3a02030 	mov	r2, #48	; 0x30
  101b98:	e3a01020 	mov	r1, #32
  101b9c:	e51b0008 	ldr	r0, [fp, #-8]
  101ba0:	ebfffbd0 	bl	100ae8 <ad469x_spi_reg_write>
  101ba4:	e50b000c 	str	r0, [fp, #-12]
  101ba8:	e51b300c 	ldr	r3, [fp, #-12]
  101bac:	e3530000 	cmp	r3, #0
  101bb0:	1a000010 	bne	101bf8 <ad469x_init+0x2fc>
  101bb4:	e51b3018 	ldr	r3, [fp, #-24]	; 0xffffffe8
  101bb8:	e51b2008 	ldr	r2, [fp, #-8]
  101bbc:	e5832000 	str	r2, [r3]
  101bc0:	e51b300c 	ldr	r3, [fp, #-12]
  101bc4:	ea000017 	b	101c28 <ad469x_init+0x32c>
  101bc8:	e320f000 	nop	{0}
  101bcc:	ea00000a 	b	101bfc <ad469x_init+0x300>
  101bd0:	e320f000 	nop	{0}
  101bd4:	ea000008 	b	101bfc <ad469x_init+0x300>
  101bd8:	e320f000 	nop	{0}
  101bdc:	ea000006 	b	101bfc <ad469x_init+0x300>
  101be0:	e320f000 	nop	{0}
  101be4:	ea000004 	b	101bfc <ad469x_init+0x300>
  101be8:	e320f000 	nop	{0}
  101bec:	ea000002 	b	101bfc <ad469x_init+0x300>
  101bf0:	e320f000 	nop	{0}
  101bf4:	ea000000 	b	101bfc <ad469x_init+0x300>
  101bf8:	e320f000 	nop	{0}
  101bfc:	e51b3008 	ldr	r3, [fp, #-8]
  101c00:	e5933000 	ldr	r3, [r3]
  101c04:	e1a00003 	mov	r0, r3
  101c08:	eb000040 	bl	101d10 <spi_remove>
  101c0c:	ea000002 	b	101c1c <ad469x_init+0x320>
  101c10:	e320f000 	nop	{0}
  101c14:	ea000000 	b	101c1c <ad469x_init+0x320>
  101c18:	e320f000 	nop	{0}
  101c1c:	e51b0008 	ldr	r0, [fp, #-8]
  101c20:	eb005a48 	bl	118548 <free>
  101c24:	e3e03000 	mvn	r3, #0
  101c28:	e1a00003 	mov	r0, r3
  101c2c:	e24bd004 	sub	sp, fp, #4
  101c30:	e8bd8800 	pop	{fp, pc}

00101c34 <ad469x_remove>:
  101c34:	e92d4800 	push	{fp, lr}
  101c38:	e28db004 	add	fp, sp, #4
  101c3c:	e24dd010 	sub	sp, sp, #16
  101c40:	e50b0010 	str	r0, [fp, #-16]
  101c44:	e51b3010 	ldr	r3, [fp, #-16]
  101c48:	e3530000 	cmp	r3, #0
  101c4c:	1a000001 	bne	101c58 <ad469x_remove+0x24>
  101c50:	e3e03000 	mvn	r3, #0
  101c54:	ea00000c 	b	101c8c <ad469x_remove+0x58>
  101c58:	e51b3010 	ldr	r3, [fp, #-16]
  101c5c:	e5933000 	ldr	r3, [r3]
  101c60:	e1a00003 	mov	r0, r3
  101c64:	eb000029 	bl	101d10 <spi_remove>
  101c68:	e50b0008 	str	r0, [fp, #-8]
  101c6c:	e51b3008 	ldr	r3, [fp, #-8]
  101c70:	e3530000 	cmp	r3, #0
  101c74:	0a000001 	beq	101c80 <ad469x_remove+0x4c>
  101c78:	e51b3008 	ldr	r3, [fp, #-8]
  101c7c:	ea000002 	b	101c8c <ad469x_remove+0x58>
  101c80:	e51b0010 	ldr	r0, [fp, #-16]
  101c84:	eb005a2f 	bl	118548 <free>
  101c88:	e51b3008 	ldr	r3, [fp, #-8]
  101c8c:	e1a00003 	mov	r0, r3
  101c90:	e24bd004 	sub	sp, fp, #4
  101c94:	e8bd8800 	pop	{fp, pc}

00101c98 <spi_init>:
  101c98:	e92d4800 	push	{fp, lr}
  101c9c:	e28db004 	add	fp, sp, #4
  101ca0:	e24dd008 	sub	sp, sp, #8
  101ca4:	e50b0008 	str	r0, [fp, #-8]
  101ca8:	e50b100c 	str	r1, [fp, #-12]
  101cac:	e51b300c 	ldr	r3, [fp, #-12]
  101cb0:	e3530000 	cmp	r3, #0
  101cb4:	1a000001 	bne	101cc0 <spi_init+0x28>
  101cb8:	e3e03000 	mvn	r3, #0
  101cbc:	ea000010 	b	101d04 <spi_init+0x6c>
  101cc0:	e51b300c 	ldr	r3, [fp, #-12]
  101cc4:	e5933008 	ldr	r3, [r3, #8]
  101cc8:	e5933000 	ldr	r3, [r3]
  101ccc:	e51b100c 	ldr	r1, [fp, #-12]
  101cd0:	e51b0008 	ldr	r0, [fp, #-8]
  101cd4:	e12fff33 	blx	r3
  101cd8:	e1a03000 	mov	r3, r0
  101cdc:	e3530000 	cmp	r3, #0
  101ce0:	0a000001 	beq	101cec <spi_init+0x54>
  101ce4:	e3e03000 	mvn	r3, #0
  101ce8:	ea000005 	b	101d04 <spi_init+0x6c>
  101cec:	e51b3008 	ldr	r3, [fp, #-8]
  101cf0:	e5933000 	ldr	r3, [r3]
  101cf4:	e51b200c 	ldr	r2, [fp, #-12]
  101cf8:	e5922008 	ldr	r2, [r2, #8]
  101cfc:	e5832008 	str	r2, [r3, #8]
  101d00:	e3a03000 	mov	r3, #0
  101d04:	e1a00003 	mov	r0, r3
  101d08:	e24bd004 	sub	sp, fp, #4
  101d0c:	e8bd8800 	pop	{fp, pc}

00101d10 <spi_remove>:
  101d10:	e92d4800 	push	{fp, lr}
  101d14:	e28db004 	add	fp, sp, #4
  101d18:	e24dd008 	sub	sp, sp, #8
  101d1c:	e50b0008 	str	r0, [fp, #-8]
  101d20:	e51b3008 	ldr	r3, [fp, #-8]
  101d24:	e5933008 	ldr	r3, [r3, #8]
  101d28:	e5933008 	ldr	r3, [r3, #8]
  101d2c:	e51b0008 	ldr	r0, [fp, #-8]
  101d30:	e12fff33 	blx	r3
  101d34:	e1a03000 	mov	r3, r0
  101d38:	e1a00003 	mov	r0, r3
  101d3c:	e24bd004 	sub	sp, fp, #4
  101d40:	e8bd8800 	pop	{fp, pc}

00101d44 <spi_write_and_read>:
  101d44:	e92d4800 	push	{fp, lr}
  101d48:	e28db004 	add	fp, sp, #4
  101d4c:	e24dd010 	sub	sp, sp, #16
  101d50:	e50b0008 	str	r0, [fp, #-8]
  101d54:	e50b100c 	str	r1, [fp, #-12]
  101d58:	e1a03002 	mov	r3, r2
  101d5c:	e14b30be 	strh	r3, [fp, #-14]
  101d60:	e51b3008 	ldr	r3, [fp, #-8]
  101d64:	e5933008 	ldr	r3, [r3, #8]
  101d68:	e5933004 	ldr	r3, [r3, #4]
  101d6c:	e15b20be 	ldrh	r2, [fp, #-14]
  101d70:	e51b100c 	ldr	r1, [fp, #-12]
  101d74:	e51b0008 	ldr	r0, [fp, #-8]
  101d78:	e12fff33 	blx	r3
  101d7c:	e1a03000 	mov	r3, r0
  101d80:	e1a00003 	mov	r0, r3
  101d84:	e24bd004 	sub	sp, fp, #4
  101d88:	e8bd8800 	pop	{fp, pc}

00101d8c <udelay>:
  101d8c:	e92d4800 	push	{fp, lr}
  101d90:	e28db004 	add	fp, sp, #4
  101d94:	e24dd010 	sub	sp, sp, #16
  101d98:	e50b0010 	str	r0, [fp, #-16]
  101d9c:	e3a00003 	mov	r0, #3
  101da0:	eb004a42 	bl	1146b0 <alt_gpt_counter_get>
  101da4:	e50b0008 	str	r0, [fp, #-8]
  101da8:	e51b3010 	ldr	r3, [fp, #-16]
  101dac:	e3a02ffa 	mov	r2, #1000	; 0x3e8
  101db0:	e0030392 	mul	r3, r2, r3
  101db4:	e1a02003 	mov	r2, r3
  101db8:	e51b1008 	ldr	r1, [fp, #-8]
  101dbc:	e3a00003 	mov	r0, #3
  101dc0:	eb004b4a 	bl	114af0 <alt_gpt_delay_ns>
  101dc4:	e320f000 	nop	{0}
  101dc8:	e24bd004 	sub	sp, fp, #4
  101dcc:	e8bd8800 	pop	{fp, pc}

00101dd0 <mdelay>:
  101dd0:	e92d4800 	push	{fp, lr}
  101dd4:	e28db004 	add	fp, sp, #4
  101dd8:	e24dd010 	sub	sp, sp, #16
  101ddc:	e50b0010 	str	r0, [fp, #-16]
  101de0:	e3a00003 	mov	r0, #3
  101de4:	eb004a31 	bl	1146b0 <alt_gpt_counter_get>
  101de8:	e50b0008 	str	r0, [fp, #-8]
  101dec:	e51b2010 	ldr	r2, [fp, #-16]
  101df0:	e3043240 	movw	r3, #16960	; 0x4240
  101df4:	e340300f 	movt	r3, #15
  101df8:	e0030293 	mul	r3, r3, r2
  101dfc:	e1a02003 	mov	r2, r3
  101e00:	e51b1008 	ldr	r1, [fp, #-8]
  101e04:	e3a00003 	mov	r0, #3
  101e08:	eb004b38 	bl	114af0 <alt_gpt_delay_ns>
  101e0c:	e320f000 	nop	{0}
  101e10:	e24bd004 	sub	sp, fp, #4
  101e14:	e8bd8800 	pop	{fp, pc}

00101e18 <find_first_set_bit>:
  101e18:	e52db004 	push	{fp}		; (str fp, [sp, #-4]!)
  101e1c:	e28db000 	add	fp, sp, #0
  101e20:	e24dd014 	sub	sp, sp, #20
  101e24:	e50b0010 	str	r0, [fp, #-16]
  101e28:	e3a03000 	mov	r3, #0
  101e2c:	e50b3008 	str	r3, [fp, #-8]
  101e30:	ea00000b 	b	101e64 <find_first_set_bit+0x4c>
  101e34:	e51b3010 	ldr	r3, [fp, #-16]
  101e38:	e2033001 	and	r3, r3, #1
  101e3c:	e3530000 	cmp	r3, #0
  101e40:	0a000001 	beq	101e4c <find_first_set_bit+0x34>
  101e44:	e51b3008 	ldr	r3, [fp, #-8]
  101e48:	ea000009 	b	101e74 <find_first_set_bit+0x5c>
  101e4c:	e51b3010 	ldr	r3, [fp, #-16]
  101e50:	e1a030a3 	lsr	r3, r3, #1
  101e54:	e50b3010 	str	r3, [fp, #-16]
  101e58:	e51b3008 	ldr	r3, [fp, #-8]
  101e5c:	e2833001 	add	r3, r3, #1
  101e60:	e50b3008 	str	r3, [fp, #-8]
  101e64:	e51b3010 	ldr	r3, [fp, #-16]
  101e68:	e3530000 	cmp	r3, #0
  101e6c:	1afffff0 	bne	101e34 <find_first_set_bit+0x1c>
  101e70:	e3a03020 	mov	r3, #32
  101e74:	e1a00003 	mov	r0, r3
  101e78:	e24bd000 	sub	sp, fp, #0
  101e7c:	e49db004 	pop	{fp}		; (ldr fp, [sp], #4)
  101e80:	e12fff1e 	bx	lr

00101e84 <find_last_set_bit>:
  101e84:	e52db004 	push	{fp}		; (str fp, [sp, #-4]!)
  101e88:	e28db000 	add	fp, sp, #0
  101e8c:	e24dd014 	sub	sp, sp, #20
  101e90:	e50b0010 	str	r0, [fp, #-16]
  101e94:	e3a03000 	mov	r3, #0
  101e98:	e50b3008 	str	r3, [fp, #-8]
  101e9c:	e3a03020 	mov	r3, #32
  101ea0:	e50b300c 	str	r3, [fp, #-12]
  101ea4:	ea00000b 	b	101ed8 <find_last_set_bit+0x54>
  101ea8:	e51b3010 	ldr	r3, [fp, #-16]
  101eac:	e2033001 	and	r3, r3, #1
  101eb0:	e3530000 	cmp	r3, #0
  101eb4:	0a000001 	beq	101ec0 <find_last_set_bit+0x3c>
  101eb8:	e51b3008 	ldr	r3, [fp, #-8]
  101ebc:	e50b300c 	str	r3, [fp, #-12]
  101ec0:	e51b3010 	ldr	r3, [fp, #-16]
  101ec4:	e1a030a3 	lsr	r3, r3, #1
  101ec8:	e50b3010 	str	r3, [fp, #-16]
  101ecc:	e51b3008 	ldr	r3, [fp, #-8]
  101ed0:	e2833001 	add	r3, r3, #1
  101ed4:	e50b3008 	str	r3, [fp, #-8]
  101ed8:	e51b3010 	ldr	r3, [fp, #-16]
  101edc:	e3530000 	cmp	r3, #0
  101ee0:	1afffff0 	bne	101ea8 <find_last_set_bit+0x24>
  101ee4:	e51b300c 	ldr	r3, [fp, #-12]
  101ee8:	e1a00003 	mov	r0, r3
  101eec:	e24bd000 	sub	sp, fp, #0
  101ef0:	e49db004 	pop	{fp}		; (ldr fp, [sp], #4)
  101ef4:	e12fff1e 	bx	lr

00101ef8 <find_closest>:
  101ef8:	e52db004 	push	{fp}		; (str fp, [sp, #-4]!)
  101efc:	e28db000 	add	fp, sp, #0
  101f00:	e24dd024 	sub	sp, sp, #36	; 0x24
  101f04:	e50b0018 	str	r0, [fp, #-24]	; 0xffffffe8
  101f08:	e50b101c 	str	r1, [fp, #-28]	; 0xffffffe4
  101f0c:	e50b2020 	str	r2, [fp, #-32]	; 0xffffffe0
  101f10:	e51b301c 	ldr	r3, [fp, #-28]	; 0xffffffe4
  101f14:	e5932000 	ldr	r2, [r3]
  101f18:	e51b3018 	ldr	r3, [fp, #-24]	; 0xffffffe8
  101f1c:	e0423003 	sub	r3, r2, r3
  101f20:	e3530000 	cmp	r3, #0
  101f24:	b2633000 	rsblt	r3, r3, #0
  101f28:	e50b3008 	str	r3, [fp, #-8]
  101f2c:	e3a03000 	mov	r3, #0
  101f30:	e50b300c 	str	r3, [fp, #-12]
  101f34:	e3a03001 	mov	r3, #1
  101f38:	e50b3010 	str	r3, [fp, #-16]
  101f3c:	ea00001a 	b	101fac <find_closest+0xb4>
  101f40:	e51b3010 	ldr	r3, [fp, #-16]
  101f44:	e1a03103 	lsl	r3, r3, #2
  101f48:	e51b201c 	ldr	r2, [fp, #-28]	; 0xffffffe4
  101f4c:	e0823003 	add	r3, r2, r3
  101f50:	e5932000 	ldr	r2, [r3]
  101f54:	e51b3018 	ldr	r3, [fp, #-24]	; 0xffffffe8
  101f58:	e0423003 	sub	r3, r2, r3
  101f5c:	e0232fc3 	eor	r2, r3, r3, asr #31
  101f60:	e0422fc3 	sub	r2, r2, r3, asr #31
  101f64:	e51b3008 	ldr	r3, [fp, #-8]
  101f68:	e1520003 	cmp	r2, r3
  101f6c:	aa00000b 	bge	101fa0 <find_closest+0xa8>
  101f70:	e51b3010 	ldr	r3, [fp, #-16]
  101f74:	e1a03103 	lsl	r3, r3, #2
  101f78:	e51b201c 	ldr	r2, [fp, #-28]	; 0xffffffe4
  101f7c:	e0823003 	add	r3, r2, r3
  101f80:	e5932000 	ldr	r2, [r3]
  101f84:	e51b3018 	ldr	r3, [fp, #-24]	; 0xffffffe8
  101f88:	e0423003 	sub	r3, r2, r3
  101f8c:	e3530000 	cmp	r3, #0
  101f90:	b2633000 	rsblt	r3, r3, #0
  101f94:	e50b3008 	str	r3, [fp, #-8]
  101f98:	e51b3010 	ldr	r3, [fp, #-16]
  101f9c:	e50b300c 	str	r3, [fp, #-12]
  101fa0:	e51b3010 	ldr	r3, [fp, #-16]
  101fa4:	e2833001 	add	r3, r3, #1
  101fa8:	e50b3010 	str	r3, [fp, #-16]
  101fac:	e51b2010 	ldr	r2, [fp, #-16]
  101fb0:	e51b3020 	ldr	r3, [fp, #-32]	; 0xffffffe0
  101fb4:	e1520003 	cmp	r2, r3
  101fb8:	3affffe0 	bcc	101f40 <find_closest+0x48>
  101fbc:	e51b300c 	ldr	r3, [fp, #-12]
  101fc0:	e1a00003 	mov	r0, r3
  101fc4:	e24bd000 	sub	sp, fp, #0
  101fc8:	e49db004 	pop	{fp}		; (ldr fp, [sp], #4)
  101fcc:	e12fff1e 	bx	lr

00101fd0 <field_prep>:
  101fd0:	e92d4800 	push	{fp, lr}
  101fd4:	e28db004 	add	fp, sp, #4
  101fd8:	e24dd008 	sub	sp, sp, #8
  101fdc:	e50b0008 	str	r0, [fp, #-8]
  101fe0:	e50b100c 	str	r1, [fp, #-12]
  101fe4:	e51b0008 	ldr	r0, [fp, #-8]
  101fe8:	ebffff8a 	bl	101e18 <find_first_set_bit>
  101fec:	e1a02000 	mov	r2, r0
  101ff0:	e51b300c 	ldr	r3, [fp, #-12]
  101ff4:	e1a02213 	lsl	r2, r3, r2
  101ff8:	e51b3008 	ldr	r3, [fp, #-8]
  101ffc:	e0033002 	and	r3, r3, r2
  102000:	e1a00003 	mov	r0, r3
  102004:	e24bd004 	sub	sp, fp, #4
  102008:	e8bd8800 	pop	{fp, pc}

0010200c <field_get>:
  10200c:	e92d4810 	push	{r4, fp, lr}
  102010:	e28db008 	add	fp, sp, #8
  102014:	e24dd00c 	sub	sp, sp, #12
  102018:	e50b0010 	str	r0, [fp, #-16]
  10201c:	e50b1014 	str	r1, [fp, #-20]	; 0xffffffec
  102020:	e51b2014 	ldr	r2, [fp, #-20]	; 0xffffffec
  102024:	e51b3010 	ldr	r3, [fp, #-16]
  102028:	e0024003 	and	r4, r2, r3
  10202c:	e51b0010 	ldr	r0, [fp, #-16]
  102030:	ebffff78 	bl	101e18 <find_first_set_bit>
  102034:	e1a03000 	mov	r3, r0
  102038:	e1a03334 	lsr	r3, r4, r3
  10203c:	e1a00003 	mov	r0, r3
  102040:	e24bd008 	sub	sp, fp, #8
  102044:	e8bd8810 	pop	{r4, fp, pc}

00102048 <log_base_2>:
  102048:	e92d4800 	push	{fp, lr}
  10204c:	e28db004 	add	fp, sp, #4
  102050:	e24dd008 	sub	sp, sp, #8
  102054:	e50b0008 	str	r0, [fp, #-8]
  102058:	e51b0008 	ldr	r0, [fp, #-8]
  10205c:	ebffff88 	bl	101e84 <find_last_set_bit>
  102060:	e1a03000 	mov	r3, r0
  102064:	e1a00003 	mov	r0, r3
  102068:	e24bd004 	sub	sp, fp, #4
  10206c:	e8bd8800 	pop	{fp, pc}

00102070 <greatest_common_divisor>:
  102070:	e92d4800 	push	{fp, lr}
  102074:	e28db004 	add	fp, sp, #4
  102078:	e24dd010 	sub	sp, sp, #16
  10207c:	e50b0010 	str	r0, [fp, #-16]
  102080:	e50b1014 	str	r1, [fp, #-20]	; 0xffffffec
  102084:	e3a03001 	mov	r3, #1
  102088:	e50b300c 	str	r3, [fp, #-12]
  10208c:	e51b3010 	ldr	r3, [fp, #-16]
  102090:	e3530000 	cmp	r3, #0
  102094:	0a000002 	beq	1020a4 <greatest_common_divisor+0x34>
  102098:	e51b3014 	ldr	r3, [fp, #-20]	; 0xffffffec
  10209c:	e3530000 	cmp	r3, #0
  1020a0:	1a000005 	bne	1020bc <greatest_common_divisor+0x4c>
  1020a4:	e51b2014 	ldr	r2, [fp, #-20]	; 0xffffffec
  1020a8:	e51b3010 	ldr	r3, [fp, #-16]
  1020ac:	e1520003 	cmp	r2, r3
  1020b0:	21a03002 	movcs	r3, r2
  1020b4:	31a03003 	movcc	r3, r3
  1020b8:	ea00001e 	b	102138 <greatest_common_divisor+0xc8>
  1020bc:	e3a03001 	mov	r3, #1
  1020c0:	e50b3008 	str	r3, [fp, #-8]
  1020c4:	ea000012 	b	102114 <greatest_common_divisor+0xa4>
  1020c8:	e51b3010 	ldr	r3, [fp, #-16]
  1020cc:	e51b1008 	ldr	r1, [fp, #-8]
  1020d0:	e1a00003 	mov	r0, r3
  1020d4:	eb0057f7 	bl	1180b8 <__aeabi_uidivmod>
  1020d8:	e1a03001 	mov	r3, r1
  1020dc:	e3530000 	cmp	r3, #0
  1020e0:	1a000008 	bne	102108 <greatest_common_divisor+0x98>
  1020e4:	e51b3014 	ldr	r3, [fp, #-20]	; 0xffffffec
  1020e8:	e51b1008 	ldr	r1, [fp, #-8]
  1020ec:	e1a00003 	mov	r0, r3
  1020f0:	eb0057f0 	bl	1180b8 <__aeabi_uidivmod>
  1020f4:	e1a03001 	mov	r3, r1
  1020f8:	e3530000 	cmp	r3, #0
  1020fc:	1a000001 	bne	102108 <greatest_common_divisor+0x98>
  102100:	e51b3008 	ldr	r3, [fp, #-8]
  102104:	e50b300c 	str	r3, [fp, #-12]
  102108:	e51b3008 	ldr	r3, [fp, #-8]
  10210c:	e2833001 	add	r3, r3, #1
  102110:	e50b3008 	str	r3, [fp, #-8]
  102114:	e51b2008 	ldr	r2, [fp, #-8]
  102118:	e51b3010 	ldr	r3, [fp, #-16]
  10211c:	e1520003 	cmp	r2, r3
  102120:	8a000003 	bhi	102134 <greatest_common_divisor+0xc4>
  102124:	e51b2008 	ldr	r2, [fp, #-8]
  102128:	e51b3014 	ldr	r3, [fp, #-20]	; 0xffffffec
  10212c:	e1520003 	cmp	r2, r3
  102130:	9affffe4 	bls	1020c8 <greatest_common_divisor+0x58>
  102134:	e51b300c 	ldr	r3, [fp, #-12]
  102138:	e1a00003 	mov	r0, r3
  10213c:	e24bd004 	sub	sp, fp, #4
  102140:	e8bd8800 	pop	{fp, pc}

00102144 <rational_best_approximation>:
  102144:	e92d4800 	push	{fp, lr}
  102148:	e28db004 	add	fp, sp, #4
  10214c:	e24dd018 	sub	sp, sp, #24
  102150:	e50b0010 	str	r0, [fp, #-16]
  102154:	e50b1014 	str	r1, [fp, #-20]	; 0xffffffec
  102158:	e50b2018 	str	r2, [fp, #-24]	; 0xffffffe8
  10215c:	e50b301c 	str	r3, [fp, #-28]	; 0xffffffe4
  102160:	e51b1014 	ldr	r1, [fp, #-20]	; 0xffffffec
  102164:	e51b0010 	ldr	r0, [fp, #-16]
  102168:	ebffffc0 	bl	102070 <greatest_common_divisor>
  10216c:	e50b0008 	str	r0, [fp, #-8]
  102170:	e51b1008 	ldr	r1, [fp, #-8]
  102174:	e51b0010 	ldr	r0, [fp, #-16]
  102178:	eb005753 	bl	117ecc <__aeabi_uidiv>
  10217c:	e1a03000 	mov	r3, r0
  102180:	e1a02003 	mov	r2, r3
  102184:	e59b3004 	ldr	r3, [fp, #4]
  102188:	e5832000 	str	r2, [r3]
  10218c:	e51b1008 	ldr	r1, [fp, #-8]
  102190:	e51b0014 	ldr	r0, [fp, #-20]	; 0xffffffec
  102194:	eb00574c 	bl	117ecc <__aeabi_uidiv>
  102198:	e1a03000 	mov	r3, r0
  10219c:	e1a02003 	mov	r2, r3
  1021a0:	e59b3008 	ldr	r3, [fp, #8]
  1021a4:	e5832000 	str	r2, [r3]
  1021a8:	e59b3004 	ldr	r3, [fp, #4]
  1021ac:	e5932000 	ldr	r2, [r3]
  1021b0:	e51b3018 	ldr	r3, [fp, #-24]	; 0xffffffe8
  1021b4:	e1520003 	cmp	r2, r3
  1021b8:	8a000004 	bhi	1021d0 <rational_best_approximation+0x8c>
  1021bc:	e59b3008 	ldr	r3, [fp, #8]
  1021c0:	e5932000 	ldr	r2, [r3]
  1021c4:	e51b301c 	ldr	r3, [fp, #-28]	; 0xffffffe4
  1021c8:	e1520003 	cmp	r2, r3
  1021cc:	9a000005 	bls	1021e8 <rational_best_approximation+0xa4>
  1021d0:	e59b3004 	ldr	r3, [fp, #4]
  1021d4:	e3a02000 	mov	r2, #0
  1021d8:	e5832000 	str	r2, [r3]
  1021dc:	e59b3008 	ldr	r3, [fp, #8]
  1021e0:	e3a02000 	mov	r2, #0
  1021e4:	e5832000 	str	r2, [r3]
  1021e8:	e320f000 	nop	{0}
  1021ec:	e24bd004 	sub	sp, fp, #4
  1021f0:	e8bd8800 	pop	{fp, pc}

001021f4 <hweight8>:
  1021f4:	e52db004 	push	{fp}		; (str fp, [sp, #-4]!)
  1021f8:	e28db000 	add	fp, sp, #0
  1021fc:	e24dd014 	sub	sp, sp, #20
  102200:	e50b0010 	str	r0, [fp, #-16]
  102204:	e3a03000 	mov	r3, #0
  102208:	e50b3008 	str	r3, [fp, #-8]
  10220c:	ea000009 	b	102238 <hweight8+0x44>
  102210:	e51b3010 	ldr	r3, [fp, #-16]
  102214:	e2033001 	and	r3, r3, #1
  102218:	e3530000 	cmp	r3, #0
  10221c:	0a000002 	beq	10222c <hweight8+0x38>
  102220:	e51b3008 	ldr	r3, [fp, #-8]
  102224:	e2833001 	add	r3, r3, #1
  102228:	e50b3008 	str	r3, [fp, #-8]
  10222c:	e51b3010 	ldr	r3, [fp, #-16]
  102230:	e1a030a3 	lsr	r3, r3, #1
  102234:	e50b3010 	str	r3, [fp, #-16]
  102238:	e51b3010 	ldr	r3, [fp, #-16]
  10223c:	e3530000 	cmp	r3, #0
  102240:	1afffff2 	bne	102210 <hweight8+0x1c>
  102244:	e51b3008 	ldr	r3, [fp, #-8]
  102248:	e1a00003 	mov	r0, r3
  10224c:	e24bd000 	sub	sp, fp, #0
  102250:	e49db004 	pop	{fp}		; (ldr fp, [sp], #4)
  102254:	e12fff1e 	bx	lr

00102258 <do_div>:
  102258:	e92d4800 	push	{fp, lr}
  10225c:	e28db004 	add	fp, sp, #4
  102260:	e24dd018 	sub	sp, sp, #24
  102264:	e50b0010 	str	r0, [fp, #-16]
  102268:	e14b21fc 	strd	r2, [fp, #-28]	; 0xffffffe4
  10226c:	f2c00010 	vmov.i32	d16, #0	; 0x00000000
  102270:	ed4b0b03 	vstr	d16, [fp, #-12]
  102274:	e51b3010 	ldr	r3, [fp, #-16]
  102278:	e1c300d0 	ldrd	r0, [r3]
  10227c:	e14b21dc 	ldrd	r2, [fp, #-28]	; 0xffffffe4
  102280:	eb005825 	bl	11831c <__aeabi_uldivmod>
  102284:	e14b20fc 	strd	r2, [fp, #-12]
  102288:	e51b3010 	ldr	r3, [fp, #-16]
  10228c:	e1c300d0 	ldrd	r0, [r3]
  102290:	e14b21dc 	ldrd	r2, [fp, #-28]	; 0xffffffe4
  102294:	eb005820 	bl	11831c <__aeabi_uldivmod>
  102298:	e1a02000 	mov	r2, r0
  10229c:	e1a03001 	mov	r3, r1
  1022a0:	e51b1010 	ldr	r1, [fp, #-16]
  1022a4:	e1c120f0 	strd	r2, [r1]
  1022a8:	e14b20dc 	ldrd	r2, [fp, #-12]
  1022ac:	e1a00002 	mov	r0, r2
  1022b0:	e1a01003 	mov	r1, r3
  1022b4:	e24bd004 	sub	sp, fp, #4
  1022b8:	e8bd8800 	pop	{fp, pc}

001022bc <div64_u64_rem>:
  1022bc:	e92d4800 	push	{fp, lr}
  1022c0:	e28db004 	add	fp, sp, #4
  1022c4:	e24dd010 	sub	sp, sp, #16
  1022c8:	e14b00fc 	strd	r0, [fp, #-12]
  1022cc:	e14b21f4 	strd	r2, [fp, #-20]	; 0xffffffec
  1022d0:	e14b00dc 	ldrd	r0, [fp, #-12]
  1022d4:	e14b21d4 	ldrd	r2, [fp, #-20]	; 0xffffffec
  1022d8:	eb00580f 	bl	11831c <__aeabi_uldivmod>
  1022dc:	e59b1004 	ldr	r1, [fp, #4]
  1022e0:	e1c120f0 	strd	r2, [r1]
  1022e4:	e14b21d4 	ldrd	r2, [fp, #-20]	; 0xffffffec
  1022e8:	e14b00dc 	ldrd	r0, [fp, #-12]
  1022ec:	eb00580a 	bl	11831c <__aeabi_uldivmod>
  1022f0:	e1a02000 	mov	r2, r0
  1022f4:	e1a03001 	mov	r3, r1
  1022f8:	e1a00002 	mov	r0, r2
  1022fc:	e1a01003 	mov	r1, r3
  102300:	e24bd004 	sub	sp, fp, #4
  102304:	e8bd8800 	pop	{fp, pc}

00102308 <div_u64_rem>:
  102308:	e92d4800 	push	{fp, lr}
  10230c:	e28db004 	add	fp, sp, #4
  102310:	e24dd010 	sub	sp, sp, #16
  102314:	e14b00fc 	strd	r0, [fp, #-12]
  102318:	e50b2010 	str	r2, [fp, #-16]
  10231c:	e50b3014 	str	r3, [fp, #-20]	; 0xffffffec
  102320:	e51b3010 	ldr	r3, [fp, #-16]
  102324:	e1a02003 	mov	r2, r3
  102328:	e3a03000 	mov	r3, #0
  10232c:	e24b100c 	sub	r1, fp, #12
  102330:	e1a00001 	mov	r0, r1
  102334:	ebffffc7 	bl	102258 <do_div>
  102338:	e1a02000 	mov	r2, r0
  10233c:	e1a03001 	mov	r3, r1
  102340:	e51b3014 	ldr	r3, [fp, #-20]	; 0xffffffec
  102344:	e5832000 	str	r2, [r3]
  102348:	e14b20dc 	ldrd	r2, [fp, #-12]
  10234c:	e1a00002 	mov	r0, r2
  102350:	e1a01003 	mov	r1, r3
  102354:	e24bd004 	sub	sp, fp, #4
  102358:	e8bd8800 	pop	{fp, pc}

0010235c <div_u64>:
  10235c:	e92d4800 	push	{fp, lr}
  102360:	e28db004 	add	fp, sp, #4
  102364:	e24dd018 	sub	sp, sp, #24
  102368:	e14b01f4 	strd	r0, [fp, #-20]	; 0xffffffec
  10236c:	e50b2018 	str	r2, [fp, #-24]	; 0xffffffe8
  102370:	e24b3008 	sub	r3, fp, #8
  102374:	e51b2018 	ldr	r2, [fp, #-24]	; 0xffffffe8
  102378:	e14b01d4 	ldrd	r0, [fp, #-20]	; 0xffffffec
  10237c:	ebffffe1 	bl	102308 <div_u64_rem>
  102380:	e1a02000 	mov	r2, r0
  102384:	e1a03001 	mov	r3, r1
  102388:	e1a00002 	mov	r0, r2
  10238c:	e1a01003 	mov	r1, r3
  102390:	e24bd004 	sub	sp, fp, #4
  102394:	e8bd8800 	pop	{fp, pc}

00102398 <str_to_int32>:
  102398:	e92d4800 	push	{fp, lr}
  10239c:	e28db004 	add	fp, sp, #4
  1023a0:	e24dd010 	sub	sp, sp, #16
  1023a4:	e50b0010 	str	r0, [fp, #-16]
  1023a8:	e24b300c 	sub	r3, fp, #12
  1023ac:	e3a02000 	mov	r2, #0
  1023b0:	e1a01003 	mov	r1, r3
  1023b4:	e51b0010 	ldr	r0, [fp, #-16]
  1023b8:	eb005be0 	bl	119340 <strtol>
  1023bc:	e50b0008 	str	r0, [fp, #-8]
  1023c0:	e51b200c 	ldr	r2, [fp, #-12]
  1023c4:	e51b3010 	ldr	r3, [fp, #-16]
  1023c8:	e1520003 	cmp	r2, r3
  1023cc:	1a000001 	bne	1023d8 <str_to_int32+0x40>
  1023d0:	e3e03015 	mvn	r3, #21
  1023d4:	ea000000 	b	1023dc <str_to_int32+0x44>
  1023d8:	e51b3008 	ldr	r3, [fp, #-8]
  1023dc:	e1a00003 	mov	r0, r3
  1023e0:	e24bd004 	sub	sp, fp, #4
  1023e4:	e8bd8800 	pop	{fp, pc}

001023e8 <srt_to_uint32>:
  1023e8:	e92d4800 	push	{fp, lr}
  1023ec:	e28db004 	add	fp, sp, #4
  1023f0:	e24dd010 	sub	sp, sp, #16
  1023f4:	e50b0010 	str	r0, [fp, #-16]
  1023f8:	e24b300c 	sub	r3, fp, #12
  1023fc:	e3a02000 	mov	r2, #0
  102400:	e1a01003 	mov	r1, r3
  102404:	e51b0010 	ldr	r0, [fp, #-16]
  102408:	eb005c7a 	bl	1195f8 <strtoul>
  10240c:	e50b0008 	str	r0, [fp, #-8]
  102410:	e51b200c 	ldr	r2, [fp, #-12]
  102414:	e51b3010 	ldr	r3, [fp, #-16]
  102418:	e1520003 	cmp	r2, r3
  10241c:	1a000001 	bne	102428 <srt_to_uint32+0x40>
  102420:	e3e03015 	mvn	r3, #21
  102424:	ea000000 	b	10242c <srt_to_uint32+0x44>
  102428:	e51b3008 	ldr	r3, [fp, #-8]
  10242c:	e1a00003 	mov	r0, r3
  102430:	e24bd004 	sub	sp, fp, #4
  102434:	e8bd8800 	pop	{fp, pc}

00102438 <spi_engine_write>:
  102438:	e92d4800 	push	{fp, lr}
  10243c:	e28db004 	add	fp, sp, #4
  102440:	e24dd010 	sub	sp, sp, #16
  102444:	e50b0008 	str	r0, [fp, #-8]
  102448:	e50b100c 	str	r1, [fp, #-12]
  10244c:	e50b2010 	str	r2, [fp, #-16]
  102450:	e51b3008 	ldr	r3, [fp, #-8]
  102454:	e5933014 	ldr	r3, [r3, #20]
  102458:	e51b2010 	ldr	r2, [fp, #-16]
  10245c:	e51b100c 	ldr	r1, [fp, #-12]
  102460:	e1a00003 	mov	r0, r3
  102464:	eb0009fe 	bl	104c64 <axi_io_write>
  102468:	e3a03000 	mov	r3, #0
  10246c:	e1a00003 	mov	r0, r3
  102470:	e24bd004 	sub	sp, fp, #4
  102474:	e8bd8800 	pop	{fp, pc}

00102478 <spi_engine_read>:
  102478:	e92d4800 	push	{fp, lr}
  10247c:	e28db004 	add	fp, sp, #4
  102480:	e24dd010 	sub	sp, sp, #16
  102484:	e50b0008 	str	r0, [fp, #-8]
  102488:	e50b100c 	str	r1, [fp, #-12]
  10248c:	e50b2010 	str	r2, [fp, #-16]
  102490:	e51b3008 	ldr	r3, [fp, #-8]
  102494:	e5933014 	ldr	r3, [r3, #20]
  102498:	e51b2010 	ldr	r2, [fp, #-16]
  10249c:	e51b100c 	ldr	r1, [fp, #-12]
  1024a0:	e1a00003 	mov	r0, r3
  1024a4:	eb0009dd 	bl	104c20 <axi_io_read>
  1024a8:	e3a03000 	mov	r3, #0
  1024ac:	e1a00003 	mov	r0, r3
  1024b0:	e24bd004 	sub	sp, fp, #4
  1024b4:	e8bd8800 	pop	{fp, pc}

001024b8 <spi_engine_set_transfer_width>:
  1024b8:	e52db004 	push	{fp}		; (str fp, [sp, #-4]!)
  1024bc:	e28db000 	add	fp, sp, #0
  1024c0:	e24dd014 	sub	sp, sp, #20
  1024c4:	e50b0010 	str	r0, [fp, #-16]
  1024c8:	e1a03001 	mov	r3, r1
  1024cc:	e54b3011 	strb	r3, [fp, #-17]	; 0xffffffef
  1024d0:	e51b3010 	ldr	r3, [fp, #-16]
  1024d4:	e593300c 	ldr	r3, [r3, #12]
  1024d8:	e50b3008 	str	r3, [fp, #-8]
  1024dc:	e51b3008 	ldr	r3, [fp, #-8]
  1024e0:	e5d33029 	ldrb	r3, [r3, #41]	; 0x29
  1024e4:	e55b2011 	ldrb	r2, [fp, #-17]	; 0xffffffef
  1024e8:	e1520003 	cmp	r2, r3
  1024ec:	9a000004 	bls	102504 <spi_engine_set_transfer_width+0x4c>
  1024f0:	e51b3008 	ldr	r3, [fp, #-8]
  1024f4:	e5d32029 	ldrb	r2, [r3, #41]	; 0x29
  1024f8:	e51b3008 	ldr	r3, [fp, #-8]
  1024fc:	e5c32028 	strb	r2, [r3, #40]	; 0x28
  102500:	ea000002 	b	102510 <spi_engine_set_transfer_width+0x58>
  102504:	e51b3008 	ldr	r3, [fp, #-8]
  102508:	e55b2011 	ldrb	r2, [fp, #-17]	; 0xffffffef
  10250c:	e5c32028 	strb	r2, [r3, #40]	; 0x28
  102510:	e3a03000 	mov	r3, #0
  102514:	e1a00003 	mov	r0, r3
  102518:	e24bd000 	sub	sp, fp, #0
  10251c:	e49db004 	pop	{fp}		; (ldr fp, [sp], #4)
  102520:	e12fff1e 	bx	lr

00102524 <spi_engine_set_speed>:
  102524:	e92d4800 	push	{fp, lr}
  102528:	e28db004 	add	fp, sp, #4
  10252c:	e24dd010 	sub	sp, sp, #16
  102530:	e50b0010 	str	r0, [fp, #-16]
  102534:	e50b1014 	str	r1, [fp, #-20]	; 0xffffffec
  102538:	e51b3010 	ldr	r3, [fp, #-16]
  10253c:	e593300c 	ldr	r3, [r3, #12]
  102540:	e50b3008 	str	r3, [fp, #-8]
  102544:	e51b3008 	ldr	r3, [fp, #-8]
  102548:	e5932000 	ldr	r2, [r3]
  10254c:	e51b3014 	ldr	r3, [fp, #-20]	; 0xffffffec
  102550:	e1a03083 	lsl	r3, r3, #1
  102554:	e1a01003 	mov	r1, r3
  102558:	e1a00002 	mov	r0, r2
  10255c:	eb00565a 	bl	117ecc <__aeabi_uidiv>
  102560:	e1a03000 	mov	r3, r0
  102564:	e2432001 	sub	r2, r3, #1
  102568:	e51b3008 	ldr	r3, [fp, #-8]
  10256c:	e5832024 	str	r2, [r3, #36]	; 0x24
  102570:	e320f000 	nop	{0}
  102574:	e24bd004 	sub	sp, fp, #4
  102578:	e8bd8800 	pop	{fp, pc}

0010257c <spi_get_words_number>:
  10257c:	e92d4800 	push	{fp, lr}
  102580:	e28db004 	add	fp, sp, #4
  102584:	e24dd010 	sub	sp, sp, #16
  102588:	e50b0010 	str	r0, [fp, #-16]
  10258c:	e1a03001 	mov	r3, r1
  102590:	e54b3011 	strb	r3, [fp, #-17]	; 0xffffffef
  102594:	e51b3010 	ldr	r3, [fp, #-16]
  102598:	e5d33028 	ldrb	r3, [r3, #40]	; 0x28
  10259c:	e1a031a3 	lsr	r3, r3, #3
  1025a0:	e54b3006 	strb	r3, [fp, #-6]
  1025a4:	e55b3011 	ldrb	r3, [fp, #-17]	; 0xffffffef
  1025a8:	e55b2006 	ldrb	r2, [fp, #-6]
  1025ac:	e1a01002 	mov	r1, r2
  1025b0:	e1a00003 	mov	r0, r3
  1025b4:	eb005644 	bl	117ecc <__aeabi_uidiv>
  1025b8:	e1a03000 	mov	r3, r0
  1025bc:	e54b3005 	strb	r3, [fp, #-5]
  1025c0:	e55b3011 	ldrb	r3, [fp, #-17]	; 0xffffffef
  1025c4:	e55b2006 	ldrb	r2, [fp, #-6]
  1025c8:	e1a01002 	mov	r1, r2
  1025cc:	e1a00003 	mov	r0, r3
  1025d0:	eb0056b8 	bl	1180b8 <__aeabi_uidivmod>
  1025d4:	e1a03001 	mov	r3, r1
  1025d8:	e6ef3073 	uxtb	r3, r3
  1025dc:	e3530000 	cmp	r3, #0
  1025e0:	0a000002 	beq	1025f0 <spi_get_words_number+0x74>
  1025e4:	e55b3005 	ldrb	r3, [fp, #-5]
  1025e8:	e2833001 	add	r3, r3, #1
  1025ec:	e54b3005 	strb	r3, [fp, #-5]
  1025f0:	e55b3005 	ldrb	r3, [fp, #-5]
  1025f4:	e1a00003 	mov	r0, r3
  1025f8:	e24bd004 	sub	sp, fp, #4
  1025fc:	e8bd8800 	pop	{fp, pc}

00102600 <spi_get_word_lenght>:
  102600:	e52db004 	push	{fp}		; (str fp, [sp, #-4]!)
  102604:	e28db000 	add	fp, sp, #0
  102608:	e24dd014 	sub	sp, sp, #20
  10260c:	e50b0010 	str	r0, [fp, #-16]
  102610:	e51b3010 	ldr	r3, [fp, #-16]
  102614:	e5d33028 	ldrb	r3, [r3, #40]	; 0x28
  102618:	e1a031a3 	lsr	r3, r3, #3
  10261c:	e54b3005 	strb	r3, [fp, #-5]
  102620:	e55b3005 	ldrb	r3, [fp, #-5]
  102624:	e1a00003 	mov	r0, r3
  102628:	e24bd000 	sub	sp, fp, #0
  10262c:	e49db004 	pop	{fp}		; (ldr fp, [sp], #4)
  102630:	e12fff1e 	bx	lr

00102634 <spi_get_sleep_div>:
  102634:	e92d4800 	push	{fp, lr}
  102638:	e28db004 	add	fp, sp, #4
  10263c:	e24dd018 	sub	sp, sp, #24
  102640:	e50b0010 	str	r0, [fp, #-16]
  102644:	e50b1014 	str	r1, [fp, #-20]	; 0xffffffec
  102648:	e50b2018 	str	r2, [fp, #-24]	; 0xffffffe8
  10264c:	e51b3010 	ldr	r3, [fp, #-16]
  102650:	e593300c 	ldr	r3, [r3, #12]
  102654:	e50b3008 	str	r3, [fp, #-8]
  102658:	e51b3010 	ldr	r3, [fp, #-16]
  10265c:	e5932000 	ldr	r2, [r3]
  102660:	e30d3e83 	movw	r3, #56963	; 0xde83
  102664:	e344331b 	movt	r3, #17179	; 0x431b
  102668:	e0832392 	umull	r2, r3, r2, r3
  10266c:	e1a03923 	lsr	r3, r3, #18
  102670:	e51b2014 	ldr	r2, [fp, #-20]	; 0xffffffec
  102674:	e0020392 	mul	r2, r2, r3
  102678:	e3043dd3 	movw	r3, #19923	; 0x4dd3
  10267c:	e3413062 	movt	r3, #4194	; 0x1062
  102680:	e0832392 	umull	r2, r3, r2, r3
  102684:	e1a02323 	lsr	r2, r3, #6
  102688:	e51b3008 	ldr	r3, [fp, #-8]
  10268c:	e5933024 	ldr	r3, [r3, #36]	; 0x24
  102690:	e2833001 	add	r3, r3, #1
  102694:	e1a03083 	lsl	r3, r3, #1
  102698:	e1a01003 	mov	r1, r3
  10269c:	e1a00002 	mov	r0, r2
  1026a0:	eb005609 	bl	117ecc <__aeabi_uidiv>
  1026a4:	e1a03000 	mov	r3, r0
  1026a8:	e2432001 	sub	r2, r3, #1
  1026ac:	e51b3018 	ldr	r3, [fp, #-24]	; 0xffffffe8
  1026b0:	e5832000 	str	r2, [r3]
  1026b4:	e3a03000 	mov	r3, #0
  1026b8:	e1a00003 	mov	r0, r3
  1026bc:	e24bd004 	sub	sp, fp, #4
  1026c0:	e8bd8800 	pop	{fp, pc}

001026c4 <spi_engine_queue_new_cmd>:
  1026c4:	e92d4800 	push	{fp, lr}
  1026c8:	e28db004 	add	fp, sp, #4
  1026cc:	e24dd010 	sub	sp, sp, #16
  1026d0:	e50b0010 	str	r0, [fp, #-16]
  1026d4:	e50b1014 	str	r1, [fp, #-20]	; 0xffffffec
  1026d8:	e3a00008 	mov	r0, #8
  1026dc:	eb005793 	bl	118530 <malloc>
  1026e0:	e1a03000 	mov	r3, r0
  1026e4:	e50b3008 	str	r3, [fp, #-8]
  1026e8:	e51b3008 	ldr	r3, [fp, #-8]
  1026ec:	e3530000 	cmp	r3, #0
  1026f0:	1a000001 	bne	1026fc <spi_engine_queue_new_cmd+0x38>
  1026f4:	e3e03000 	mvn	r3, #0
  1026f8:	ea000009 	b	102724 <spi_engine_queue_new_cmd+0x60>
  1026fc:	e51b3008 	ldr	r3, [fp, #-8]
  102700:	e51b2014 	ldr	r2, [fp, #-20]	; 0xffffffec
  102704:	e5832000 	str	r2, [r3]
  102708:	e51b3008 	ldr	r3, [fp, #-8]
  10270c:	e3a02000 	mov	r2, #0
  102710:	e5832004 	str	r2, [r3, #4]
  102714:	e51b3010 	ldr	r3, [fp, #-16]
  102718:	e51b2008 	ldr	r2, [fp, #-8]
  10271c:	e5832000 	str	r2, [r3]
  102720:	e3a03000 	mov	r3, #0
  102724:	e1a00003 	mov	r0, r3
  102728:	e24bd004 	sub	sp, fp, #4
  10272c:	e8bd8800 	pop	{fp, pc}

00102730 <spi_engine_queue_add_cmd>:
  102730:	e92d4800 	push	{fp, lr}
  102734:	e28db004 	add	fp, sp, #4
  102738:	e24dd010 	sub	sp, sp, #16
  10273c:	e50b0010 	str	r0, [fp, #-16]
  102740:	e50b1014 	str	r1, [fp, #-20]	; 0xffffffec
  102744:	e3a03000 	mov	r3, #0
  102748:	e50b300c 	str	r3, [fp, #-12]
  10274c:	e51b3010 	ldr	r3, [fp, #-16]
  102750:	e5933000 	ldr	r3, [r3]
  102754:	e50b3008 	str	r3, [fp, #-8]
  102758:	ea000002 	b	102768 <spi_engine_queue_add_cmd+0x38>
  10275c:	e51b3008 	ldr	r3, [fp, #-8]
  102760:	e5933004 	ldr	r3, [r3, #4]
  102764:	e50b3008 	str	r3, [fp, #-8]
  102768:	e51b3008 	ldr	r3, [fp, #-8]
  10276c:	e5933004 	ldr	r3, [r3, #4]
  102770:	e3530000 	cmp	r3, #0
  102774:	1afffff8 	bne	10275c <spi_engine_queue_add_cmd+0x2c>
  102778:	e24b300c 	sub	r3, fp, #12
  10277c:	e51b1014 	ldr	r1, [fp, #-20]	; 0xffffffec
  102780:	e1a00003 	mov	r0, r3
  102784:	ebffffce 	bl	1026c4 <spi_engine_queue_new_cmd>
  102788:	e51b200c 	ldr	r2, [fp, #-12]
  10278c:	e51b3008 	ldr	r3, [fp, #-8]
  102790:	e5832004 	str	r2, [r3, #4]
  102794:	e320f000 	nop	{0}
  102798:	e24bd004 	sub	sp, fp, #4
  10279c:	e8bd8800 	pop	{fp, pc}

001027a0 <spi_engine_queue_append_cmd>:
  1027a0:	e92d4800 	push	{fp, lr}
  1027a4:	e28db004 	add	fp, sp, #4
  1027a8:	e24dd010 	sub	sp, sp, #16
  1027ac:	e50b0010 	str	r0, [fp, #-16]
  1027b0:	e50b1014 	str	r1, [fp, #-20]	; 0xffffffec
  1027b4:	e3a03000 	mov	r3, #0
  1027b8:	e50b3008 	str	r3, [fp, #-8]
  1027bc:	e24b3008 	sub	r3, fp, #8
  1027c0:	e51b1014 	ldr	r1, [fp, #-20]	; 0xffffffec
  1027c4:	e1a00003 	mov	r0, r3
  1027c8:	ebffffbd 	bl	1026c4 <spi_engine_queue_new_cmd>
  1027cc:	e51b3008 	ldr	r3, [fp, #-8]
  1027d0:	e51b2010 	ldr	r2, [fp, #-16]
  1027d4:	e5922000 	ldr	r2, [r2]
  1027d8:	e5832004 	str	r2, [r3, #4]
  1027dc:	e51b2008 	ldr	r2, [fp, #-8]
  1027e0:	e51b3010 	ldr	r3, [fp, #-16]
  1027e4:	e5832000 	str	r2, [r3]
  1027e8:	e320f000 	nop	{0}
  1027ec:	e24bd004 	sub	sp, fp, #4
  1027f0:	e8bd8800 	pop	{fp, pc}

001027f4 <spi_engine_queue_get_cmd>:
  1027f4:	e92d4800 	push	{fp, lr}
  1027f8:	e28db004 	add	fp, sp, #4
  1027fc:	e24dd010 	sub	sp, sp, #16
  102800:	e50b0010 	str	r0, [fp, #-16]
  102804:	e50b1014 	str	r1, [fp, #-20]	; 0xffffffec
  102808:	e51b3010 	ldr	r3, [fp, #-16]
  10280c:	e5933000 	ldr	r3, [r3]
  102810:	e3530000 	cmp	r3, #0
  102814:	1a000001 	bne	102820 <spi_engine_queue_get_cmd+0x2c>
  102818:	e3e03000 	mvn	r3, #0
  10281c:	ea00001a 	b	10288c <spi_engine_queue_get_cmd+0x98>
  102820:	e51b3010 	ldr	r3, [fp, #-16]
  102824:	e5933000 	ldr	r3, [r3]
  102828:	e50b3008 	str	r3, [fp, #-8]
  10282c:	e51b3008 	ldr	r3, [fp, #-8]
  102830:	e5932000 	ldr	r2, [r3]
  102834:	e51b3014 	ldr	r3, [fp, #-20]	; 0xffffffec
  102838:	e5832000 	str	r2, [r3]
  10283c:	e51b3010 	ldr	r3, [fp, #-16]
  102840:	e5933000 	ldr	r3, [r3]
  102844:	e5933004 	ldr	r3, [r3, #4]
  102848:	e3530000 	cmp	r3, #0
  10284c:	0a000006 	beq	10286c <spi_engine_queue_get_cmd+0x78>
  102850:	e51b3008 	ldr	r3, [fp, #-8]
  102854:	e5932004 	ldr	r2, [r3, #4]
  102858:	e51b3010 	ldr	r3, [fp, #-16]
  10285c:	e5832000 	str	r2, [r3]
  102860:	e51b0008 	ldr	r0, [fp, #-8]
  102864:	eb005737 	bl	118548 <free>
  102868:	ea000006 	b	102888 <spi_engine_queue_get_cmd+0x94>
  10286c:	e51b3010 	ldr	r3, [fp, #-16]
  102870:	e5933000 	ldr	r3, [r3]
  102874:	e1a00003 	mov	r0, r3
  102878:	eb005732 	bl	118548 <free>
  10287c:	e51b3010 	ldr	r3, [fp, #-16]
  102880:	e3a02000 	mov	r2, #0
  102884:	e5832000 	str	r2, [r3]
  102888:	e3a03000 	mov	r3, #0
  10288c:	e1a00003 	mov	r0, r3
  102890:	e24bd004 	sub	sp, fp, #4
  102894:	e8bd8800 	pop	{fp, pc}

00102898 <spi_engine_queue_free>:
  102898:	e92d4800 	push	{fp, lr}
  10289c:	e28db004 	add	fp, sp, #4
  1028a0:	e24dd008 	sub	sp, sp, #8
  1028a4:	e50b0008 	str	r0, [fp, #-8]
  1028a8:	e51b3008 	ldr	r3, [fp, #-8]
  1028ac:	e5933000 	ldr	r3, [r3]
  1028b0:	e3530000 	cmp	r3, #0
  1028b4:	0a000009 	beq	1028e0 <spi_engine_queue_free+0x48>
  1028b8:	e51b3008 	ldr	r3, [fp, #-8]
  1028bc:	e5933000 	ldr	r3, [r3]
  1028c0:	e5933004 	ldr	r3, [r3, #4]
  1028c4:	e3530000 	cmp	r3, #0
  1028c8:	0a000004 	beq	1028e0 <spi_engine_queue_free+0x48>
  1028cc:	e51b3008 	ldr	r3, [fp, #-8]
  1028d0:	e5933000 	ldr	r3, [r3]
  1028d4:	e2833004 	add	r3, r3, #4
  1028d8:	e1a00003 	mov	r0, r3
  1028dc:	ebffffed 	bl	102898 <spi_engine_queue_free>
  1028e0:	e51b3008 	ldr	r3, [fp, #-8]
  1028e4:	e5933000 	ldr	r3, [r3]
  1028e8:	e3530000 	cmp	r3, #0
  1028ec:	0a000006 	beq	10290c <spi_engine_queue_free+0x74>
  1028f0:	e51b3008 	ldr	r3, [fp, #-8]
  1028f4:	e5933000 	ldr	r3, [r3]
  1028f8:	e1a00003 	mov	r0, r3
  1028fc:	eb005711 	bl	118548 <free>
  102900:	e51b3008 	ldr	r3, [fp, #-8]
  102904:	e3a02000 	mov	r2, #0
  102908:	e5832000 	str	r2, [r3]
  10290c:	e3a03000 	mov	r3, #0
  102910:	e1a00003 	mov	r0, r3
  102914:	e24bd004 	sub	sp, fp, #4
  102918:	e8bd8800 	pop	{fp, pc}

0010291c <spi_engine_write_cmd_reg>:
  10291c:	e92d4800 	push	{fp, lr}
  102920:	e28db004 	add	fp, sp, #4
  102924:	e24dd010 	sub	sp, sp, #16
  102928:	e50b0010 	str	r0, [fp, #-16]
  10292c:	e50b1014 	str	r1, [fp, #-20]	; 0xffffffec
  102930:	e51b3010 	ldr	r3, [fp, #-16]
  102934:	e5d33010 	ldrb	r3, [r3, #16]
  102938:	e2033003 	and	r3, r3, #3
  10293c:	e3530000 	cmp	r3, #0
  102940:	0a000005 	beq	10295c <spi_engine_write_cmd_reg+0x40>
  102944:	e51b2014 	ldr	r2, [fp, #-20]	; 0xffffffec
  102948:	e3a01e11 	mov	r1, #272	; 0x110
  10294c:	e51b0010 	ldr	r0, [fp, #-16]
  102950:	ebfffeb8 	bl	102438 <spi_engine_write>
  102954:	e50b0008 	str	r0, [fp, #-8]
  102958:	ea000004 	b	102970 <spi_engine_write_cmd_reg+0x54>
  10295c:	e51b2014 	ldr	r2, [fp, #-20]	; 0xffffffec
  102960:	e3a010e0 	mov	r1, #224	; 0xe0
  102964:	e51b0010 	ldr	r0, [fp, #-16]
  102968:	ebfffeb2 	bl	102438 <spi_engine_write>
  10296c:	e50b0008 	str	r0, [fp, #-8]
  102970:	e51b3008 	ldr	r3, [fp, #-8]
  102974:	e1a00003 	mov	r0, r3
  102978:	e24bd004 	sub	sp, fp, #4
  10297c:	e8bd8800 	pop	{fp, pc}

00102980 <spi_engine_transfer>:
  102980:	e92d4800 	push	{fp, lr}
  102984:	e28db004 	add	fp, sp, #4
  102988:	e24dd010 	sub	sp, sp, #16
  10298c:	e50b0010 	str	r0, [fp, #-16]
  102990:	e1a03001 	mov	r3, r1
  102994:	e54b3011 	strb	r3, [fp, #-17]	; 0xffffffef
  102998:	e1a03002 	mov	r3, r2
  10299c:	e54b3012 	strb	r3, [fp, #-18]	; 0xffffffee
  1029a0:	e55b3012 	ldrb	r3, [fp, #-18]	; 0xffffffee
  1029a4:	e1a01003 	mov	r1, r3
  1029a8:	e51b0010 	ldr	r0, [fp, #-16]
  1029ac:	ebfffef2 	bl	10257c <spi_get_words_number>
  1029b0:	e1a03000 	mov	r3, r0
  1029b4:	e54b3005 	strb	r3, [fp, #-5]
  1029b8:	e51b3010 	ldr	r3, [fp, #-16]
  1029bc:	e5d32011 	ldrb	r2, [r3, #17]
  1029c0:	e55b3005 	ldrb	r3, [fp, #-5]
  1029c4:	e0823003 	add	r3, r2, r3
  1029c8:	e6ef2073 	uxtb	r2, r3
  1029cc:	e51b3010 	ldr	r3, [fp, #-16]
  1029d0:	e5c32011 	strb	r2, [r3, #17]
  1029d4:	e55b3011 	ldrb	r3, [fp, #-17]	; 0xffffffef
  1029d8:	e1a03403 	lsl	r3, r3, #8
  1029dc:	e2032c03 	and	r2, r3, #768	; 0x300
  1029e0:	e55b3005 	ldrb	r3, [fp, #-5]
  1029e4:	e2433001 	sub	r3, r3, #1
  1029e8:	e1823003 	orr	r3, r2, r3
  1029ec:	e1a01003 	mov	r1, r3
  1029f0:	e51b0010 	ldr	r0, [fp, #-16]
  1029f4:	ebffffc8 	bl	10291c <spi_engine_write_cmd_reg>
  1029f8:	e3a03000 	mov	r3, #0
  1029fc:	e1a00003 	mov	r0, r3
  102a00:	e24bd004 	sub	sp, fp, #4
  102a04:	e8bd8800 	pop	{fp, pc}

00102a08 <spi_engine_set_cs>:
  102a08:	e92d4800 	push	{fp, lr}
  102a0c:	e28db004 	add	fp, sp, #4
  102a10:	e24dd010 	sub	sp, sp, #16
  102a14:	e50b0010 	str	r0, [fp, #-16]
  102a18:	e1a03001 	mov	r3, r1
  102a1c:	e54b3011 	strb	r3, [fp, #-17]	; 0xffffffef
  102a20:	e51b3010 	ldr	r3, [fp, #-16]
  102a24:	e593300c 	ldr	r3, [r3, #12]
  102a28:	e50b300c 	str	r3, [fp, #-12]
  102a2c:	e3e03000 	mvn	r3, #0
  102a30:	e54b3005 	strb	r3, [fp, #-5]
  102a34:	e55b3011 	ldrb	r3, [fp, #-17]	; 0xffffffef
  102a38:	e2233001 	eor	r3, r3, #1
  102a3c:	e6ef3073 	uxtb	r3, r3
  102a40:	e3530000 	cmp	r3, #0
  102a44:	0a000009 	beq	102a70 <spi_engine_set_cs+0x68>
  102a48:	e51b3010 	ldr	r3, [fp, #-16]
  102a4c:	e5d33004 	ldrb	r3, [r3, #4]
  102a50:	e1a02003 	mov	r2, r3
  102a54:	e3a03001 	mov	r3, #1
  102a58:	e1a03213 	lsl	r3, r3, r2
  102a5c:	e6af2073 	sxtb	r2, r3
  102a60:	e15b30d5 	ldrsb	r3, [fp, #-5]
  102a64:	e0233002 	eor	r3, r3, r2
  102a68:	e6af3073 	sxtb	r3, r3
  102a6c:	e54b3005 	strb	r3, [fp, #-5]
  102a70:	e51b300c 	ldr	r3, [fp, #-12]
  102a74:	e5d33020 	ldrb	r3, [r3, #32]
  102a78:	e1a03403 	lsl	r3, r3, #8
  102a7c:	e2033c03 	and	r3, r3, #768	; 0x300
  102a80:	e3832a01 	orr	r2, r3, #4096	; 0x1000
  102a84:	e55b3005 	ldrb	r3, [fp, #-5]
  102a88:	e1823003 	orr	r3, r2, r3
  102a8c:	e1a01003 	mov	r1, r3
  102a90:	e51b000c 	ldr	r0, [fp, #-12]
  102a94:	ebffffa0 	bl	10291c <spi_engine_write_cmd_reg>
  102a98:	e320f000 	nop	{0}
  102a9c:	e24bd004 	sub	sp, fp, #4
  102aa0:	e8bd8800 	pop	{fp, pc}

00102aa4 <spi_gen_sleep_ns>:
  102aa4:	e92d4800 	push	{fp, lr}
  102aa8:	e28db004 	add	fp, sp, #4
  102aac:	e24dd010 	sub	sp, sp, #16
  102ab0:	e50b0010 	str	r0, [fp, #-16]
  102ab4:	e50b1014 	str	r1, [fp, #-20]	; 0xffffffec
  102ab8:	e51b3010 	ldr	r3, [fp, #-16]
  102abc:	e593300c 	ldr	r3, [r3, #12]
  102ac0:	e50b3008 	str	r3, [fp, #-8]
  102ac4:	e24b300c 	sub	r3, fp, #12
  102ac8:	e1a02003 	mov	r2, r3
  102acc:	e51b1014 	ldr	r1, [fp, #-20]	; 0xffffffec
  102ad0:	e51b0010 	ldr	r0, [fp, #-16]
  102ad4:	ebfffed6 	bl	102634 <spi_get_sleep_div>
  102ad8:	e51b300c 	ldr	r3, [fp, #-12]
  102adc:	e3833c31 	orr	r3, r3, #12544	; 0x3100
  102ae0:	e1a01003 	mov	r1, r3
  102ae4:	e51b0008 	ldr	r0, [fp, #-8]
  102ae8:	ebffff8b 	bl	10291c <spi_engine_write_cmd_reg>
  102aec:	e320f000 	nop	{0}
  102af0:	e24bd004 	sub	sp, fp, #4
  102af4:	e8bd8800 	pop	{fp, pc}

00102af8 <spi_engine_write_cmd>:
  102af8:	e92d4800 	push	{fp, lr}
  102afc:	e28db004 	add	fp, sp, #4
  102b00:	e24dd010 	sub	sp, sp, #16
  102b04:	e50b0010 	str	r0, [fp, #-16]
  102b08:	e50b1014 	str	r1, [fp, #-20]	; 0xffffffec
  102b0c:	e51b3010 	ldr	r3, [fp, #-16]
  102b10:	e593300c 	ldr	r3, [r3, #12]
  102b14:	e50b3008 	str	r3, [fp, #-8]
  102b18:	e51b3014 	ldr	r3, [fp, #-20]	; 0xffffffec
  102b1c:	e1a03623 	lsr	r3, r3, #12
  102b20:	e6ef3073 	uxtb	r3, r3
  102b24:	e203300f 	and	r3, r3, #15
  102b28:	e54b3009 	strb	r3, [fp, #-9]
  102b2c:	e51b3014 	ldr	r3, [fp, #-20]	; 0xffffffec
  102b30:	e1a03423 	lsr	r3, r3, #8
  102b34:	e6ef3073 	uxtb	r3, r3
  102b38:	e203300f 	and	r3, r3, #15
  102b3c:	e54b300a 	strb	r3, [fp, #-10]
  102b40:	e51b3014 	ldr	r3, [fp, #-20]	; 0xffffffec
  102b44:	e54b300b 	strb	r3, [fp, #-11]
  102b48:	e55b3009 	ldrb	r3, [fp, #-9]
  102b4c:	e3530003 	cmp	r3, #3
  102b50:	979ff103 	ldrls	pc, [pc, r3, lsl #2]
  102b54:	ea00002a 	b	102c04 <spi_engine_write_cmd+0x10c>
  102b58:	00102b68 	.word	0x00102b68
  102b5c:	00102b80 	.word	0x00102b80
  102b60:	00102bf4 	.word	0x00102bf4
  102b64:	00102bb8 	.word	0x00102bb8
  102b68:	e55b200b 	ldrb	r2, [fp, #-11]
  102b6c:	e55b300a 	ldrb	r3, [fp, #-10]
  102b70:	e1a01003 	mov	r1, r3
  102b74:	e51b0008 	ldr	r0, [fp, #-8]
  102b78:	ebffff80 	bl	102980 <spi_engine_transfer>
  102b7c:	ea000025 	b	102c18 <spi_engine_write_cmd+0x120>
  102b80:	e55b300b 	ldrb	r3, [fp, #-11]
  102b84:	e35300ff 	cmp	r3, #255	; 0xff
  102b88:	1a000003 	bne	102b9c <spi_engine_write_cmd+0xa4>
  102b8c:	e3a01001 	mov	r1, #1
  102b90:	e51b0010 	ldr	r0, [fp, #-16]
  102b94:	ebffff9b 	bl	102a08 <spi_engine_set_cs>
  102b98:	ea00001b 	b	102c0c <spi_engine_write_cmd+0x114>
  102b9c:	e55b300b 	ldrb	r3, [fp, #-11]
  102ba0:	e3530000 	cmp	r3, #0
  102ba4:	1a000018 	bne	102c0c <spi_engine_write_cmd+0x114>
  102ba8:	e3a01000 	mov	r1, #0
  102bac:	e51b0010 	ldr	r0, [fp, #-16]
  102bb0:	ebffff94 	bl	102a08 <spi_engine_set_cs>
  102bb4:	ea000014 	b	102c0c <spi_engine_write_cmd+0x114>
  102bb8:	e55b300a 	ldrb	r3, [fp, #-10]
  102bbc:	e3530000 	cmp	r3, #0
  102bc0:	1a000003 	bne	102bd4 <spi_engine_write_cmd+0xdc>
  102bc4:	e51b1014 	ldr	r1, [fp, #-20]	; 0xffffffec
  102bc8:	e51b0008 	ldr	r0, [fp, #-8]
  102bcc:	ebffff52 	bl	10291c <spi_engine_write_cmd_reg>
  102bd0:	ea00000f 	b	102c14 <spi_engine_write_cmd+0x11c>
  102bd4:	e55b300a 	ldrb	r3, [fp, #-10]
  102bd8:	e3530001 	cmp	r3, #1
  102bdc:	1a00000c 	bne	102c14 <spi_engine_write_cmd+0x11c>
  102be0:	e55b300b 	ldrb	r3, [fp, #-11]
  102be4:	e1a01003 	mov	r1, r3
  102be8:	e51b0010 	ldr	r0, [fp, #-16]
  102bec:	ebffffac 	bl	102aa4 <spi_gen_sleep_ns>
  102bf0:	ea000007 	b	102c14 <spi_engine_write_cmd+0x11c>
  102bf4:	e51b1014 	ldr	r1, [fp, #-20]	; 0xffffffec
  102bf8:	e51b0008 	ldr	r0, [fp, #-8]
  102bfc:	ebffff46 	bl	10291c <spi_engine_write_cmd_reg>
  102c00:	ea000004 	b	102c18 <spi_engine_write_cmd+0x120>
  102c04:	e3e03000 	mvn	r3, #0
  102c08:	ea000003 	b	102c1c <spi_engine_write_cmd+0x124>
  102c0c:	e320f000 	nop	{0}
  102c10:	ea000000 	b	102c18 <spi_engine_write_cmd+0x120>
  102c14:	e320f000 	nop	{0}
  102c18:	e3a03000 	mov	r3, #0
  102c1c:	e1a00003 	mov	r0, r3
  102c20:	e24bd004 	sub	sp, fp, #4
  102c24:	e8bd8800 	pop	{fp, pc}

00102c28 <spi_engine_compile_message>:
  102c28:	e92d4800 	push	{fp, lr}
  102c2c:	e28db004 	add	fp, sp, #4
  102c30:	e24dd010 	sub	sp, sp, #16
  102c34:	e50b0010 	str	r0, [fp, #-16]
  102c38:	e50b1014 	str	r1, [fp, #-20]	; 0xffffffec
  102c3c:	e51b3010 	ldr	r3, [fp, #-16]
  102c40:	e593300c 	ldr	r3, [r3, #12]
  102c44:	e50b3008 	str	r3, [fp, #-8]
  102c48:	e51b3014 	ldr	r3, [fp, #-20]	; 0xffffffec
  102c4c:	e283200c 	add	r2, r3, #12
  102c50:	e51b3008 	ldr	r3, [fp, #-8]
  102c54:	e5d33028 	ldrb	r3, [r3, #40]	; 0x28
  102c58:	e3833c22 	orr	r3, r3, #8704	; 0x2200
  102c5c:	e1a01003 	mov	r1, r3
  102c60:	e1a00002 	mov	r0, r2
  102c64:	ebfffecd 	bl	1027a0 <spi_engine_queue_append_cmd>
  102c68:	e51b3014 	ldr	r3, [fp, #-20]	; 0xffffffec
  102c6c:	e283200c 	add	r2, r3, #12
  102c70:	e51b3010 	ldr	r3, [fp, #-16]
  102c74:	e5d33005 	ldrb	r3, [r3, #5]
  102c78:	e3833c21 	orr	r3, r3, #8448	; 0x2100
  102c7c:	e1a01003 	mov	r1, r3
  102c80:	e1a00002 	mov	r0, r2
  102c84:	ebfffec5 	bl	1027a0 <spi_engine_queue_append_cmd>
  102c88:	e51b3014 	ldr	r3, [fp, #-20]	; 0xffffffec
  102c8c:	e283200c 	add	r2, r3, #12
  102c90:	e51b3008 	ldr	r3, [fp, #-8]
  102c94:	e5933024 	ldr	r3, [r3, #36]	; 0x24
  102c98:	e3833a02 	orr	r3, r3, #8192	; 0x2000
  102c9c:	e1a01003 	mov	r1, r3
  102ca0:	e1a00002 	mov	r0, r2
  102ca4:	ebfffebd 	bl	1027a0 <spi_engine_queue_append_cmd>
  102ca8:	e51b3014 	ldr	r3, [fp, #-20]	; 0xffffffec
  102cac:	e283200c 	add	r2, r3, #12
  102cb0:	e3043020 	movw	r3, #16416	; 0x4020
  102cb4:	e3403012 	movt	r3, #18
  102cb8:	e5d33000 	ldrb	r3, [r3]
  102cbc:	e3833a03 	orr	r3, r3, #12288	; 0x3000
  102cc0:	e1a01003 	mov	r1, r3
  102cc4:	e1a00002 	mov	r0, r2
  102cc8:	ebfffe98 	bl	102730 <spi_engine_queue_add_cmd>
  102ccc:	e3a03000 	mov	r3, #0
  102cd0:	e1a00003 	mov	r0, r3
  102cd4:	e24bd004 	sub	sp, fp, #4
  102cd8:	e8bd8800 	pop	{fp, pc}

00102cdc <spi_engine_transfer_message>:
  102cdc:	e92d4800 	push	{fp, lr}
  102ce0:	e28db004 	add	fp, sp, #4
  102ce4:	e24dd020 	sub	sp, sp, #32
  102ce8:	e50b0020 	str	r0, [fp, #-32]	; 0xffffffe0
  102cec:	e50b1024 	str	r1, [fp, #-36]	; 0xffffffdc
  102cf0:	e51b3020 	ldr	r3, [fp, #-32]	; 0xffffffe0
  102cf4:	e593300c 	ldr	r3, [r3, #12]
  102cf8:	e50b300c 	str	r3, [fp, #-12]
  102cfc:	e51b1024 	ldr	r1, [fp, #-36]	; 0xffffffdc
  102d00:	e51b0020 	ldr	r0, [fp, #-32]	; 0xffffffe0
  102d04:	ebffffc7 	bl	102c28 <spi_engine_compile_message>
  102d08:	e51b300c 	ldr	r3, [fp, #-12]
  102d0c:	e5d33010 	ldrb	r3, [r3, #16]
  102d10:	e2033003 	and	r3, r3, #3
  102d14:	e3530000 	cmp	r3, #0
  102d18:	13a03001 	movne	r3, #1
  102d1c:	03a03000 	moveq	r3, #0
  102d20:	e54b300d 	strb	r3, [fp, #-13]
  102d24:	ea000009 	b	102d50 <spi_engine_transfer_message+0x74>
  102d28:	e51b3024 	ldr	r3, [fp, #-36]	; 0xffffffdc
  102d2c:	e283300c 	add	r3, r3, #12
  102d30:	e24b2014 	sub	r2, fp, #20
  102d34:	e1a01002 	mov	r1, r2
  102d38:	e1a00003 	mov	r0, r3
  102d3c:	ebfffeac 	bl	1027f4 <spi_engine_queue_get_cmd>
  102d40:	e51b3014 	ldr	r3, [fp, #-20]	; 0xffffffec
  102d44:	e1a01003 	mov	r1, r3
  102d48:	e51b0020 	ldr	r0, [fp, #-32]	; 0xffffffe0
  102d4c:	ebffff69 	bl	102af8 <spi_engine_write_cmd>
  102d50:	e51b3024 	ldr	r3, [fp, #-36]	; 0xffffffdc
  102d54:	e593300c 	ldr	r3, [r3, #12]
  102d58:	e3530000 	cmp	r3, #0
  102d5c:	1afffff1 	bne	102d28 <spi_engine_transfer_message+0x4c>
  102d60:	e55b300d 	ldrb	r3, [fp, #-13]
  102d64:	e3530000 	cmp	r3, #0
  102d68:	0a000016 	beq	102dc8 <spi_engine_transfer_message+0xec>
  102d6c:	e3a03000 	mov	r3, #0
  102d70:	e50b3008 	str	r3, [fp, #-8]
  102d74:	ea00000c 	b	102dac <spi_engine_transfer_message+0xd0>
  102d78:	e51b3024 	ldr	r3, [fp, #-36]	; 0xffffffdc
  102d7c:	e5932000 	ldr	r2, [r3]
  102d80:	e51b3008 	ldr	r3, [fp, #-8]
  102d84:	e1a03103 	lsl	r3, r3, #2
  102d88:	e0823003 	add	r3, r2, r3
  102d8c:	e5933000 	ldr	r3, [r3]
  102d90:	e1a02003 	mov	r2, r3
  102d94:	e3a01f45 	mov	r1, #276	; 0x114
  102d98:	e51b000c 	ldr	r0, [fp, #-12]
  102d9c:	ebfffda5 	bl	102438 <spi_engine_write>
  102da0:	e51b3008 	ldr	r3, [fp, #-8]
  102da4:	e2833001 	add	r3, r3, #1
  102da8:	e50b3008 	str	r3, [fp, #-8]
  102dac:	e51b300c 	ldr	r3, [fp, #-12]
  102db0:	e5d33011 	ldrb	r3, [r3, #17]
  102db4:	e1a02003 	mov	r2, r3
  102db8:	e51b3008 	ldr	r3, [fp, #-8]
  102dbc:	e1520003 	cmp	r2, r3
  102dc0:	8affffec 	bhi	102d78 <spi_engine_transfer_message+0x9c>
  102dc4:	ea00003f 	b	102ec8 <spi_engine_transfer_message+0x1ec>
  102dc8:	e3a03000 	mov	r3, #0
  102dcc:	e50b3008 	str	r3, [fp, #-8]
  102dd0:	ea00000c 	b	102e08 <spi_engine_transfer_message+0x12c>
  102dd4:	e51b3024 	ldr	r3, [fp, #-36]	; 0xffffffdc
  102dd8:	e5932000 	ldr	r2, [r3]
  102ddc:	e51b3008 	ldr	r3, [fp, #-8]
  102de0:	e1a03103 	lsl	r3, r3, #2
  102de4:	e0823003 	add	r3, r2, r3
  102de8:	e5933000 	ldr	r3, [r3]
  102dec:	e1a02003 	mov	r2, r3
  102df0:	e3a010e4 	mov	r1, #228	; 0xe4
  102df4:	e51b000c 	ldr	r0, [fp, #-12]
  102df8:	ebfffd8e 	bl	102438 <spi_engine_write>
  102dfc:	e51b3008 	ldr	r3, [fp, #-8]
  102e00:	e2833001 	add	r3, r3, #1
  102e04:	e50b3008 	str	r3, [fp, #-8]
  102e08:	e51b3024 	ldr	r3, [fp, #-36]	; 0xffffffdc
  102e0c:	e5932008 	ldr	r2, [r3, #8]
  102e10:	e51b3008 	ldr	r3, [fp, #-8]
  102e14:	e1520003 	cmp	r2, r3
  102e18:	8affffed 	bhi	102dd4 <spi_engine_transfer_message+0xf8>
  102e1c:	e24b3018 	sub	r3, fp, #24
  102e20:	e1a02003 	mov	r2, r3
  102e24:	e3a010c0 	mov	r1, #192	; 0xc0
  102e28:	e51b000c 	ldr	r0, [fp, #-12]
  102e2c:	ebfffd91 	bl	102478 <spi_engine_read>
  102e30:	e3043020 	movw	r3, #16416	; 0x4020
  102e34:	e3403012 	movt	r3, #18
  102e38:	e5d33000 	ldrb	r3, [r3]
  102e3c:	e1a02003 	mov	r2, r3
  102e40:	e51b3018 	ldr	r3, [fp, #-24]	; 0xffffffe8
  102e44:	e1520003 	cmp	r2, r3
  102e48:	1afffff3 	bne	102e1c <spi_engine_transfer_message+0x140>
  102e4c:	e3043020 	movw	r3, #16416	; 0x4020
  102e50:	e3403012 	movt	r3, #18
  102e54:	e5d33000 	ldrb	r3, [r3]
  102e58:	e2833001 	add	r3, r3, #1
  102e5c:	e6ef2073 	uxtb	r2, r3
  102e60:	e3043020 	movw	r3, #16416	; 0x4020
  102e64:	e3403012 	movt	r3, #18
  102e68:	e5c32000 	strb	r2, [r3]
  102e6c:	e3a03000 	mov	r3, #0
  102e70:	e50b3008 	str	r3, [fp, #-8]
  102e74:	ea00000e 	b	102eb4 <spi_engine_transfer_message+0x1d8>
  102e78:	e24b3014 	sub	r3, fp, #20
  102e7c:	e1a02003 	mov	r2, r3
  102e80:	e3a010e8 	mov	r1, #232	; 0xe8
  102e84:	e51b000c 	ldr	r0, [fp, #-12]
  102e88:	ebfffd7a 	bl	102478 <spi_engine_read>
  102e8c:	e51b3024 	ldr	r3, [fp, #-36]	; 0xffffffdc
  102e90:	e5932004 	ldr	r2, [r3, #4]
  102e94:	e51b3008 	ldr	r3, [fp, #-8]
  102e98:	e1a03103 	lsl	r3, r3, #2
  102e9c:	e0823003 	add	r3, r2, r3
  102ea0:	e51b2014 	ldr	r2, [fp, #-20]	; 0xffffffec
  102ea4:	e5832000 	str	r2, [r3]
  102ea8:	e51b3008 	ldr	r3, [fp, #-8]
  102eac:	e2833001 	add	r3, r3, #1
  102eb0:	e50b3008 	str	r3, [fp, #-8]
  102eb4:	e51b3024 	ldr	r3, [fp, #-36]	; 0xffffffdc
  102eb8:	e5932008 	ldr	r2, [r3, #8]
  102ebc:	e51b3008 	ldr	r3, [fp, #-8]
  102ec0:	e1520003 	cmp	r2, r3
  102ec4:	8affffeb 	bhi	102e78 <spi_engine_transfer_message+0x19c>
  102ec8:	e3a03000 	mov	r3, #0
  102ecc:	e1a00003 	mov	r0, r3
  102ed0:	e24bd004 	sub	sp, fp, #4
  102ed4:	e8bd8800 	pop	{fp, pc}

00102ed8 <spi_engine_init>:
  102ed8:	e92d4800 	push	{fp, lr}
  102edc:	e28db004 	add	fp, sp, #4
  102ee0:	e24dd018 	sub	sp, sp, #24
  102ee4:	e50b0018 	str	r0, [fp, #-24]	; 0xffffffe8
  102ee8:	e50b101c 	str	r1, [fp, #-28]	; 0xffffffe4
  102eec:	e51b301c 	ldr	r3, [fp, #-28]	; 0xffffffe4
  102ef0:	e3530000 	cmp	r3, #0
  102ef4:	1a000001 	bne	102f00 <spi_engine_init+0x28>
  102ef8:	e3e03000 	mvn	r3, #0
  102efc:	ea000080 	b	103104 <spi_engine_init+0x22c>
  102f00:	e3a00010 	mov	r0, #16
  102f04:	eb005589 	bl	118530 <malloc>
  102f08:	e1a03000 	mov	r3, r0
  102f0c:	e1a02003 	mov	r2, r3
  102f10:	e51b3018 	ldr	r3, [fp, #-24]	; 0xffffffe8
  102f14:	e5832000 	str	r2, [r3]
  102f18:	e51b3018 	ldr	r3, [fp, #-24]	; 0xffffffe8
  102f1c:	e5933000 	ldr	r3, [r3]
  102f20:	e3530000 	cmp	r3, #0
  102f24:	1a000005 	bne	102f40 <spi_engine_init+0x68>
  102f28:	e51b3018 	ldr	r3, [fp, #-24]	; 0xffffffe8
  102f2c:	e5933000 	ldr	r3, [r3]
  102f30:	e1a00003 	mov	r0, r3
  102f34:	eb005583 	bl	118548 <free>
  102f38:	e3e03000 	mvn	r3, #0
  102f3c:	ea000070 	b	103104 <spi_engine_init+0x22c>
  102f40:	e3a0002c 	mov	r0, #44	; 0x2c
  102f44:	eb005579 	bl	118530 <malloc>
  102f48:	e1a03000 	mov	r3, r0
  102f4c:	e50b3008 	str	r3, [fp, #-8]
  102f50:	e51b3008 	ldr	r3, [fp, #-8]
  102f54:	e3530000 	cmp	r3, #0
  102f58:	1a000001 	bne	102f64 <spi_engine_init+0x8c>
  102f5c:	e3e03000 	mvn	r3, #0
  102f60:	ea000067 	b	103104 <spi_engine_init+0x22c>
  102f64:	e51b301c 	ldr	r3, [fp, #-28]	; 0xffffffe4
  102f68:	e593300c 	ldr	r3, [r3, #12]
  102f6c:	e50b300c 	str	r3, [fp, #-12]
  102f70:	e51b3018 	ldr	r3, [fp, #-24]	; 0xffffffe8
  102f74:	e5933000 	ldr	r3, [r3]
  102f78:	e51b201c 	ldr	r2, [fp, #-28]	; 0xffffffe4
  102f7c:	e5922000 	ldr	r2, [r2]
  102f80:	e5832000 	str	r2, [r3]
  102f84:	e51b3018 	ldr	r3, [fp, #-24]	; 0xffffffe8
  102f88:	e5933000 	ldr	r3, [r3]
  102f8c:	e51b201c 	ldr	r2, [fp, #-28]	; 0xffffffe4
  102f90:	e5d22004 	ldrb	r2, [r2, #4]
  102f94:	e5c32004 	strb	r2, [r3, #4]
  102f98:	e51b3018 	ldr	r3, [fp, #-24]	; 0xffffffe8
  102f9c:	e5933000 	ldr	r3, [r3]
  102fa0:	e51b201c 	ldr	r2, [fp, #-28]	; 0xffffffe4
  102fa4:	e5d22005 	ldrb	r2, [r2, #5]
  102fa8:	e5c32005 	strb	r2, [r3, #5]
  102fac:	e51b3018 	ldr	r3, [fp, #-24]	; 0xffffffe8
  102fb0:	e5933000 	ldr	r3, [r3]
  102fb4:	e51b2008 	ldr	r2, [fp, #-8]
  102fb8:	e583200c 	str	r2, [r3, #12]
  102fbc:	e51b3008 	ldr	r3, [fp, #-8]
  102fc0:	e3a02000 	mov	r2, #0
  102fc4:	e5c32010 	strb	r2, [r3, #16]
  102fc8:	e51b300c 	ldr	r3, [fp, #-12]
  102fcc:	e5932008 	ldr	r2, [r3, #8]
  102fd0:	e51b3008 	ldr	r3, [fp, #-8]
  102fd4:	e5832014 	str	r2, [r3, #20]
  102fd8:	e51b300c 	ldr	r3, [fp, #-12]
  102fdc:	e5d32004 	ldrb	r2, [r3, #4]
  102fe0:	e51b3008 	ldr	r3, [fp, #-8]
  102fe4:	e5c32004 	strb	r2, [r3, #4]
  102fe8:	e51b300c 	ldr	r3, [fp, #-12]
  102fec:	e593300c 	ldr	r3, [r3, #12]
  102ff0:	e6ef2073 	uxtb	r2, r3
  102ff4:	e51b3008 	ldr	r3, [fp, #-8]
  102ff8:	e5c32020 	strb	r2, [r3, #32]
  102ffc:	e51b300c 	ldr	r3, [fp, #-12]
  103000:	e5932000 	ldr	r2, [r3]
  103004:	e51b3008 	ldr	r3, [fp, #-8]
  103008:	e5832000 	str	r2, [r3]
  10300c:	e51b3008 	ldr	r3, [fp, #-8]
  103010:	e5932000 	ldr	r2, [r3]
  103014:	e51b301c 	ldr	r3, [fp, #-28]	; 0xffffffe4
  103018:	e5933000 	ldr	r3, [r3]
  10301c:	e1a03083 	lsl	r3, r3, #1
  103020:	e1a01003 	mov	r1, r3
  103024:	e1a00002 	mov	r0, r2
  103028:	eb0053a7 	bl	117ecc <__aeabi_uidiv>
  10302c:	e1a03000 	mov	r3, r0
  103030:	e2432001 	sub	r2, r3, #1
  103034:	e51b3008 	ldr	r3, [fp, #-8]
  103038:	e5832024 	str	r2, [r3, #36]	; 0x24
  10303c:	e3a02001 	mov	r2, #1
  103040:	e3a01040 	mov	r1, #64	; 0x40
  103044:	e51b0008 	ldr	r0, [fp, #-8]
  103048:	ebfffcfa 	bl	102438 <spi_engine_write>
  10304c:	e3a00ffa 	mov	r0, #1000	; 0x3e8
  103050:	ebfffb4d 	bl	101d8c <udelay>
  103054:	e3a02000 	mov	r2, #0
  103058:	e3a01040 	mov	r1, #64	; 0x40
  10305c:	e51b0008 	ldr	r0, [fp, #-8]
  103060:	ebfffcf4 	bl	102438 <spi_engine_write>
  103064:	e3a020ff 	mov	r2, #255	; 0xff
  103068:	e3a01084 	mov	r1, #132	; 0x84
  10306c:	e51b0008 	ldr	r0, [fp, #-8]
  103070:	ebfffcf0 	bl	102438 <spi_engine_write>
  103074:	e3a02000 	mov	r2, #0
  103078:	e3a01080 	mov	r1, #128	; 0x80
  10307c:	e51b0008 	ldr	r0, [fp, #-8]
  103080:	ebfffcec 	bl	102438 <spi_engine_write>
  103084:	e24b3010 	sub	r3, fp, #16
  103088:	e1a02003 	mov	r2, r3
  10308c:	e3a0100c 	mov	r1, #12
  103090:	e51b0008 	ldr	r0, [fp, #-8]
  103094:	ebfffcf7 	bl	102478 <spi_engine_read>
  103098:	e51b3010 	ldr	r3, [fp, #-16]
  10309c:	e6ef2073 	uxtb	r2, r3
  1030a0:	e51b3008 	ldr	r3, [fp, #-8]
  1030a4:	e5c32029 	strb	r2, [r3, #41]	; 0x29
  1030a8:	e51b3018 	ldr	r3, [fp, #-24]	; 0xffffffe8
  1030ac:	e5932000 	ldr	r2, [r3]
  1030b0:	e51b300c 	ldr	r3, [fp, #-12]
  1030b4:	e5d33010 	ldrb	r3, [r3, #16]
  1030b8:	e1a01003 	mov	r1, r3
  1030bc:	e1a00002 	mov	r0, r2
  1030c0:	ebfffcfc 	bl	1024b8 <spi_engine_set_transfer_width>
  1030c4:	e24b3014 	sub	r3, fp, #20
  1030c8:	e1a02003 	mov	r2, r3
  1030cc:	e3a01000 	mov	r1, #0
  1030d0:	e51b0008 	ldr	r0, [fp, #-8]
  1030d4:	ebfffce7 	bl	102478 <spi_engine_read>
  1030d8:	e51b3014 	ldr	r3, [fp, #-20]	; 0xffffffec
  1030dc:	e1a01823 	lsr	r1, r3, #16
  1030e0:	e51b3014 	ldr	r3, [fp, #-20]	; 0xffffffec
  1030e4:	e1a03423 	lsr	r3, r3, #8
  1030e8:	e6ef2073 	uxtb	r2, r3
  1030ec:	e51b3014 	ldr	r3, [fp, #-20]	; 0xffffffec
  1030f0:	e6ef3073 	uxtb	r3, r3
  1030f4:	e3010b40 	movw	r0, #6976	; 0x1b40
  1030f8:	e3400012 	movt	r0, #18
  1030fc:	eb00574c 	bl	118e34 <printf>
  103100:	e3a03000 	mov	r3, #0
  103104:	e1a00003 	mov	r0, r3
  103108:	e24bd004 	sub	sp, fp, #4
  10310c:	e8bd8800 	pop	{fp, pc}

00103110 <spi_engine_write_and_read>:
  103110:	e92d48f0 	push	{r4, r5, r6, r7, fp, lr}
  103114:	e28db014 	add	fp, sp, #20
  103118:	e24dd030 	sub	sp, sp, #48	; 0x30
  10311c:	e50b0038 	str	r0, [fp, #-56]	; 0xffffffc8
  103120:	e50b103c 	str	r1, [fp, #-60]	; 0xffffffc4
  103124:	e1a03002 	mov	r3, r2
  103128:	e14b33be 	strh	r3, [fp, #-62]	; 0xffffffc2
  10312c:	e51b3038 	ldr	r3, [fp, #-56]	; 0xffffffc8
  103130:	e593300c 	ldr	r3, [r3, #12]
  103134:	e50b301c 	str	r3, [fp, #-28]	; 0xffffffe4
  103138:	e51b301c 	ldr	r3, [fp, #-28]	; 0xffffffe4
  10313c:	e3a02000 	mov	r2, #0
  103140:	e5c32010 	strb	r2, [r3, #16]
  103144:	e3a02000 	mov	r2, #0
  103148:	e3a01c01 	mov	r1, #256	; 0x100
  10314c:	e51b001c 	ldr	r0, [fp, #-28]	; 0xffffffe4
  103150:	ebfffcb8 	bl	102438 <spi_engine_write>
  103154:	e15b33be 	ldrh	r3, [fp, #-62]	; 0xffffffc2
  103158:	e6ef3073 	uxtb	r3, r3
  10315c:	e1a01003 	mov	r1, r3
  103160:	e51b001c 	ldr	r0, [fp, #-28]	; 0xffffffe4
  103164:	ebfffd04 	bl	10257c <spi_get_words_number>
  103168:	e1a03000 	mov	r3, r0
  10316c:	e54b301d 	strb	r3, [fp, #-29]	; 0xffffffe3
  103170:	e3a00008 	mov	r0, #8
  103174:	eb0054ed 	bl	118530 <malloc>
  103178:	e1a03000 	mov	r3, r0
  10317c:	e50b3028 	str	r3, [fp, #-40]	; 0xffffffd8
  103180:	e51b3028 	ldr	r3, [fp, #-40]	; 0xffffffd8
  103184:	e3530000 	cmp	r3, #0
  103188:	1a000001 	bne	103194 <spi_engine_write_and_read+0x84>
  10318c:	e3e03000 	mvn	r3, #0
  103190:	ea000093 	b	1033e4 <spi_engine_write_and_read+0x2d4>
  103194:	e55b301d 	ldrb	r3, [fp, #-29]	; 0xffffffe3
  103198:	e3a01004 	mov	r1, #4
  10319c:	e1a00003 	mov	r0, r3
  1031a0:	eb0054b2 	bl	118470 <calloc>
  1031a4:	e1a03000 	mov	r3, r0
  1031a8:	e50b3034 	str	r3, [fp, #-52]	; 0xffffffcc
  1031ac:	e55b301d 	ldrb	r3, [fp, #-29]	; 0xffffffe3
  1031b0:	e3a01004 	mov	r1, #4
  1031b4:	e1a00003 	mov	r0, r3
  1031b8:	eb0054ac 	bl	118470 <calloc>
  1031bc:	e1a03000 	mov	r3, r0
  1031c0:	e50b3030 	str	r3, [fp, #-48]	; 0xffffffd0
  1031c4:	e55b301d 	ldrb	r3, [fp, #-29]	; 0xffffffe3
  1031c8:	e50b302c 	str	r3, [fp, #-44]	; 0xffffffd4
  1031cc:	e51b001c 	ldr	r0, [fp, #-28]	; 0xffffffe4
  1031d0:	ebfffd0a 	bl	102600 <spi_get_word_lenght>
  1031d4:	e1a03000 	mov	r3, r0
  1031d8:	e54b301e 	strb	r3, [fp, #-30]	; 0xffffffe2
  1031dc:	e51b3028 	ldr	r3, [fp, #-40]	; 0xffffffd8
  1031e0:	e3a02000 	mov	r2, #0
  1031e4:	e5832004 	str	r2, [r3, #4]
  1031e8:	e51b3028 	ldr	r3, [fp, #-40]	; 0xffffffd8
  1031ec:	e30123ff 	movw	r2, #5119	; 0x13ff
  1031f0:	e5832000 	str	r2, [r3]
  1031f4:	e24b3034 	sub	r3, fp, #52	; 0x34
  1031f8:	e283300c 	add	r3, r3, #12
  1031fc:	e3a01c13 	mov	r1, #4864	; 0x1300
  103200:	e1a00003 	mov	r0, r3
  103204:	ebfffd49 	bl	102730 <spi_engine_queue_add_cmd>
  103208:	e15b33be 	ldrh	r3, [fp, #-62]	; 0xffffffc2
  10320c:	e3833c03 	orr	r3, r3, #768	; 0x300
  103210:	e6ff3073 	uxth	r3, r3
  103214:	e1a02003 	mov	r2, r3
  103218:	e24b3034 	sub	r3, fp, #52	; 0x34
  10321c:	e283300c 	add	r3, r3, #12
  103220:	e1a01002 	mov	r1, r2
  103224:	e1a00003 	mov	r0, r3
  103228:	ebfffd40 	bl	102730 <spi_engine_queue_add_cmd>
  10322c:	e24b3034 	sub	r3, fp, #52	; 0x34
  103230:	e283300c 	add	r3, r3, #12
  103234:	e30113ff 	movw	r1, #5119	; 0x13ff
  103238:	e1a00003 	mov	r0, r3
  10323c:	ebfffd3b 	bl	102730 <spi_engine_queue_add_cmd>
  103240:	e3a03000 	mov	r3, #0
  103244:	e54b3015 	strb	r3, [fp, #-21]	; 0xffffffeb
  103248:	ea000027 	b	1032ec <spi_engine_write_and_read+0x1dc>
  10324c:	e51b4034 	ldr	r4, [fp, #-52]	; 0xffffffcc
  103250:	e55b3015 	ldrb	r3, [fp, #-21]	; 0xffffffeb
  103254:	e55b201e 	ldrb	r2, [fp, #-30]	; 0xffffffe2
  103258:	e1a01002 	mov	r1, r2
  10325c:	e1a00003 	mov	r0, r3
  103260:	eb005319 	bl	117ecc <__aeabi_uidiv>
  103264:	e1a03000 	mov	r3, r0
  103268:	e6ef1073 	uxtb	r1, r3
  10326c:	e1a03001 	mov	r3, r1
  103270:	e1a03103 	lsl	r3, r3, #2
  103274:	e0844003 	add	r4, r4, r3
  103278:	e51b2034 	ldr	r2, [fp, #-52]	; 0xffffffcc
  10327c:	e1a03001 	mov	r3, r1
  103280:	e1a03103 	lsl	r3, r3, #2
  103284:	e0823003 	add	r3, r2, r3
  103288:	e5935000 	ldr	r5, [r3]
  10328c:	e55b3015 	ldrb	r3, [fp, #-21]	; 0xffffffeb
  103290:	e51b203c 	ldr	r2, [fp, #-60]	; 0xffffffc4
  103294:	e0823003 	add	r3, r2, r3
  103298:	e5d33000 	ldrb	r3, [r3]
  10329c:	e1a06003 	mov	r6, r3
  1032a0:	e51b301c 	ldr	r3, [fp, #-28]	; 0xffffffe4
  1032a4:	e5d33028 	ldrb	r3, [r3, #40]	; 0x28
  1032a8:	e1a07003 	mov	r7, r3
  1032ac:	e55b3015 	ldrb	r3, [fp, #-21]	; 0xffffffeb
  1032b0:	e55b201e 	ldrb	r2, [fp, #-30]	; 0xffffffe2
  1032b4:	e1a01002 	mov	r1, r2
  1032b8:	e1a00003 	mov	r0, r3
  1032bc:	eb00537d 	bl	1180b8 <__aeabi_uidivmod>
  1032c0:	e1a03001 	mov	r3, r1
  1032c4:	e6ef3073 	uxtb	r3, r3
  1032c8:	e2833001 	add	r3, r3, #1
  1032cc:	e1a03183 	lsl	r3, r3, #3
  1032d0:	e0473003 	sub	r3, r7, r3
  1032d4:	e1a03316 	lsl	r3, r6, r3
  1032d8:	e1853003 	orr	r3, r5, r3
  1032dc:	e5843000 	str	r3, [r4]
  1032e0:	e55b3015 	ldrb	r3, [fp, #-21]	; 0xffffffeb
  1032e4:	e2833001 	add	r3, r3, #1
  1032e8:	e54b3015 	strb	r3, [fp, #-21]	; 0xffffffeb
  1032ec:	e55b3015 	ldrb	r3, [fp, #-21]	; 0xffffffeb
  1032f0:	e6ff3073 	uxth	r3, r3
  1032f4:	e15b23be 	ldrh	r2, [fp, #-62]	; 0xffffffc2
  1032f8:	e1520003 	cmp	r2, r3
  1032fc:	8affffd2 	bhi	10324c <spi_engine_write_and_read+0x13c>
  103300:	e24b3034 	sub	r3, fp, #52	; 0x34
  103304:	e1a01003 	mov	r1, r3
  103308:	e51b0038 	ldr	r0, [fp, #-56]	; 0xffffffc8
  10330c:	ebfffe72 	bl	102cdc <spi_engine_transfer_message>
  103310:	e50b0024 	str	r0, [fp, #-36]	; 0xffffffdc
  103314:	e3a03000 	mov	r3, #0
  103318:	e54b3015 	strb	r3, [fp, #-21]	; 0xffffffeb
  10331c:	ea000020 	b	1033a4 <spi_engine_write_and_read+0x294>
  103320:	e55b3015 	ldrb	r3, [fp, #-21]	; 0xffffffeb
  103324:	e51b203c 	ldr	r2, [fp, #-60]	; 0xffffffc4
  103328:	e0824003 	add	r4, r2, r3
  10332c:	e51b5030 	ldr	r5, [fp, #-48]	; 0xffffffd0
  103330:	e55b3015 	ldrb	r3, [fp, #-21]	; 0xffffffeb
  103334:	e55b201e 	ldrb	r2, [fp, #-30]	; 0xffffffe2
  103338:	e1a01002 	mov	r1, r2
  10333c:	e1a00003 	mov	r0, r3
  103340:	eb0052e1 	bl	117ecc <__aeabi_uidiv>
  103344:	e1a03000 	mov	r3, r0
  103348:	e6ef3073 	uxtb	r3, r3
  10334c:	e1a03103 	lsl	r3, r3, #2
  103350:	e0853003 	add	r3, r5, r3
  103354:	e5935000 	ldr	r5, [r3]
  103358:	e51b301c 	ldr	r3, [fp, #-28]	; 0xffffffe4
  10335c:	e5d33028 	ldrb	r3, [r3, #40]	; 0x28
  103360:	e1a06003 	mov	r6, r3
  103364:	e55b3015 	ldrb	r3, [fp, #-21]	; 0xffffffeb
  103368:	e55b201e 	ldrb	r2, [fp, #-30]	; 0xffffffe2
  10336c:	e1a01002 	mov	r1, r2
  103370:	e1a00003 	mov	r0, r3
  103374:	eb00534f 	bl	1180b8 <__aeabi_uidivmod>
  103378:	e1a03001 	mov	r3, r1
  10337c:	e6ef3073 	uxtb	r3, r3
  103380:	e2833001 	add	r3, r3, #1
  103384:	e1a03183 	lsl	r3, r3, #3
  103388:	e0463003 	sub	r3, r6, r3
  10338c:	e1a03335 	lsr	r3, r5, r3
  103390:	e6ef3073 	uxtb	r3, r3
  103394:	e5c43000 	strb	r3, [r4]
  103398:	e55b3015 	ldrb	r3, [fp, #-21]	; 0xffffffeb
  10339c:	e2833001 	add	r3, r3, #1
  1033a0:	e54b3015 	strb	r3, [fp, #-21]	; 0xffffffeb
  1033a4:	e55b3015 	ldrb	r3, [fp, #-21]	; 0xffffffeb
  1033a8:	e6ff3073 	uxth	r3, r3
  1033ac:	e15b23be 	ldrh	r2, [fp, #-62]	; 0xffffffc2
  1033b0:	e1520003 	cmp	r2, r3
  1033b4:	8affffd9 	bhi	103320 <spi_engine_write_and_read+0x210>
  1033b8:	e24b3034 	sub	r3, fp, #52	; 0x34
  1033bc:	e283300c 	add	r3, r3, #12
  1033c0:	e1a00003 	mov	r0, r3
  1033c4:	ebfffd33 	bl	102898 <spi_engine_queue_free>
  1033c8:	e51b3034 	ldr	r3, [fp, #-52]	; 0xffffffcc
  1033cc:	e1a00003 	mov	r0, r3
  1033d0:	eb00545c 	bl	118548 <free>
  1033d4:	e51b3030 	ldr	r3, [fp, #-48]	; 0xffffffd0
  1033d8:	e1a00003 	mov	r0, r3
  1033dc:	eb005459 	bl	118548 <free>
  1033e0:	e51b3024 	ldr	r3, [fp, #-36]	; 0xffffffdc
  1033e4:	e1a00003 	mov	r0, r3
  1033e8:	e24bd014 	sub	sp, fp, #20
  1033ec:	e8bd88f0 	pop	{r4, r5, r6, r7, fp, pc}

001033f0 <spi_engine_offload_init>:
  1033f0:	e92d4800 	push	{fp, lr}
  1033f4:	e28db004 	add	fp, sp, #4
  1033f8:	e24dd020 	sub	sp, sp, #32
  1033fc:	e50b0020 	str	r0, [fp, #-32]	; 0xffffffe0
  103400:	e50b1024 	str	r1, [fp, #-36]	; 0xffffffdc
  103404:	e51b3020 	ldr	r3, [fp, #-32]	; 0xffffffe0
  103408:	e593300c 	ldr	r3, [r3, #12]
  10340c:	e50b3008 	str	r3, [fp, #-8]
  103410:	e51b3024 	ldr	r3, [fp, #-36]	; 0xffffffdc
  103414:	e5d32008 	ldrb	r2, [r3, #8]
  103418:	e51b3008 	ldr	r3, [fp, #-8]
  10341c:	e5c32010 	strb	r2, [r3, #16]
  103420:	e51b3024 	ldr	r3, [fp, #-36]	; 0xffffffdc
  103424:	e5d33008 	ldrb	r3, [r3, #8]
  103428:	e2033001 	and	r3, r3, #1
  10342c:	e3530000 	cmp	r3, #0
  103430:	0a000015 	beq	10348c <spi_engine_offload_init+0x9c>
  103434:	e3013b74 	movw	r3, #7028	; 0x1b74
  103438:	e3403012 	movt	r3, #18
  10343c:	e50b3018 	str	r3, [fp, #-24]	; 0xffffffe8
  103440:	e51b3024 	ldr	r3, [fp, #-36]	; 0xffffffdc
  103444:	e5933004 	ldr	r3, [r3, #4]
  103448:	e50b3014 	str	r3, [fp, #-20]	; 0xffffffec
  10344c:	e3a03001 	mov	r3, #1
  103450:	e54b3010 	strb	r3, [fp, #-16]
  103454:	e3a03001 	mov	r3, #1
  103458:	e50b300c 	str	r3, [fp, #-12]
  10345c:	e51b3008 	ldr	r3, [fp, #-8]
  103460:	e2833008 	add	r3, r3, #8
  103464:	e24b2018 	sub	r2, fp, #24
  103468:	e1a01002 	mov	r1, r2
  10346c:	e1a00003 	mov	r0, r3
  103470:	eb00059a 	bl	104ae0 <axi_dmac_init>
  103474:	e51b3008 	ldr	r3, [fp, #-8]
  103478:	e5933008 	ldr	r3, [r3, #8]
  10347c:	e3530000 	cmp	r3, #0
  103480:	1a000001 	bne	10348c <spi_engine_offload_init+0x9c>
  103484:	e3e03000 	mvn	r3, #0
  103488:	ea00001b 	b	1034fc <spi_engine_offload_init+0x10c>
  10348c:	e51b3024 	ldr	r3, [fp, #-36]	; 0xffffffdc
  103490:	e5d33008 	ldrb	r3, [r3, #8]
  103494:	e2033002 	and	r3, r3, #2
  103498:	e3530000 	cmp	r3, #0
  10349c:	0a000015 	beq	1034f8 <spi_engine_offload_init+0x108>
  1034a0:	e3013b80 	movw	r3, #7040	; 0x1b80
  1034a4:	e3403012 	movt	r3, #18
  1034a8:	e50b3018 	str	r3, [fp, #-24]	; 0xffffffe8
  1034ac:	e51b3024 	ldr	r3, [fp, #-36]	; 0xffffffdc
  1034b0:	e5933000 	ldr	r3, [r3]
  1034b4:	e50b3014 	str	r3, [fp, #-20]	; 0xffffffec
  1034b8:	e3a03000 	mov	r3, #0
  1034bc:	e54b3010 	strb	r3, [fp, #-16]
  1034c0:	e3a03001 	mov	r3, #1
  1034c4:	e50b300c 	str	r3, [fp, #-12]
  1034c8:	e51b3008 	ldr	r3, [fp, #-8]
  1034cc:	e283300c 	add	r3, r3, #12
  1034d0:	e24b2018 	sub	r2, fp, #24
  1034d4:	e1a01002 	mov	r1, r2
  1034d8:	e1a00003 	mov	r0, r3
  1034dc:	eb00057f 	bl	104ae0 <axi_dmac_init>
  1034e0:	e51b3008 	ldr	r3, [fp, #-8]
  1034e4:	e593300c 	ldr	r3, [r3, #12]
  1034e8:	e3530000 	cmp	r3, #0
  1034ec:	1a000001 	bne	1034f8 <spi_engine_offload_init+0x108>
  1034f0:	e3e03000 	mvn	r3, #0
  1034f4:	ea000000 	b	1034fc <spi_engine_offload_init+0x10c>
  1034f8:	e3a03000 	mov	r3, #0
  1034fc:	e1a00003 	mov	r0, r3
  103500:	e24bd004 	sub	sp, fp, #4
  103504:	e8bd8800 	pop	{fp, pc}

00103508 <spi_engine_offload_transfer>:
  103508:	e24dd010 	sub	sp, sp, #16
  10350c:	e92d4800 	push	{fp, lr}
  103510:	e28db004 	add	fp, sp, #4
  103514:	e24dd028 	sub	sp, sp, #40	; 0x28
  103518:	e50b0028 	str	r0, [fp, #-40]	; 0xffffffd8
  10351c:	e28b0008 	add	r0, fp, #8
  103520:	e880000e 	stm	r0, {r1, r2, r3}
  103524:	e51b3028 	ldr	r3, [fp, #-40]	; 0xffffffd8
  103528:	e593300c 	ldr	r3, [r3, #12]
  10352c:	e50b3010 	str	r3, [fp, #-16]
  103530:	e51b3010 	ldr	r3, [fp, #-16]
  103534:	e5d33010 	ldrb	r3, [r3, #16]
  103538:	e2033003 	and	r3, r3, #3
  10353c:	e3530000 	cmp	r3, #0
  103540:	1a000001 	bne	10354c <spi_engine_offload_transfer+0x44>
  103544:	e3e03000 	mvn	r3, #0
  103548:	ea00007a 	b	103738 <spi_engine_offload_transfer+0x230>
  10354c:	e3a02001 	mov	r2, #1
  103550:	e3a01f42 	mov	r1, #264	; 0x108
  103554:	e51b0010 	ldr	r0, [fp, #-16]
  103558:	ebfffbb6 	bl	102438 <spi_engine_write>
  10355c:	e3a02000 	mov	r2, #0
  103560:	e3a01f42 	mov	r1, #264	; 0x108
  103564:	e51b0010 	ldr	r0, [fp, #-16]
  103568:	ebfffbb2 	bl	102438 <spi_engine_write>
  10356c:	e51b3010 	ldr	r3, [fp, #-16]
  103570:	e3a02000 	mov	r2, #0
  103574:	e5c32011 	strb	r2, [r3, #17]
  103578:	e51b3010 	ldr	r3, [fp, #-16]
  10357c:	e3a02000 	mov	r2, #0
  103580:	e5c32012 	strb	r2, [r3, #18]
  103584:	e3a00008 	mov	r0, #8
  103588:	eb0053e8 	bl	118530 <malloc>
  10358c:	e1a03000 	mov	r3, r0
  103590:	e50b3018 	str	r3, [fp, #-24]	; 0xffffffe8
  103594:	e51b3018 	ldr	r3, [fp, #-24]	; 0xffffffe8
  103598:	e3530000 	cmp	r3, #0
  10359c:	1a000001 	bne	1035a8 <spi_engine_offload_transfer+0xa0>
  1035a0:	e3e03000 	mvn	r3, #0
  1035a4:	ea000063 	b	103738 <spi_engine_offload_transfer+0x230>
  1035a8:	e59b3010 	ldr	r3, [fp, #16]
  1035ac:	e50b3024 	str	r3, [fp, #-36]	; 0xffffffdc
  1035b0:	e51b3018 	ldr	r3, [fp, #-24]	; 0xffffffe8
  1035b4:	e3a02000 	mov	r2, #0
  1035b8:	e5832004 	str	r2, [r3, #4]
  1035bc:	e51b3018 	ldr	r3, [fp, #-24]	; 0xffffffe8
  1035c0:	e59b2008 	ldr	r2, [fp, #8]
  1035c4:	e5922000 	ldr	r2, [r2]
  1035c8:	e5832000 	str	r2, [r3]
  1035cc:	e3a03001 	mov	r3, #1
  1035d0:	e50b3008 	str	r3, [fp, #-8]
  1035d4:	ea00000b 	b	103608 <spi_engine_offload_transfer+0x100>
  1035d8:	e59b2008 	ldr	r2, [fp, #8]
  1035dc:	e51b3008 	ldr	r3, [fp, #-8]
  1035e0:	e2831001 	add	r1, r3, #1
  1035e4:	e50b1008 	str	r1, [fp, #-8]
  1035e8:	e1a03103 	lsl	r3, r3, #2
  1035ec:	e0823003 	add	r3, r2, r3
  1035f0:	e5932000 	ldr	r2, [r3]
  1035f4:	e24b3024 	sub	r3, fp, #36	; 0x24
  1035f8:	e283300c 	add	r3, r3, #12
  1035fc:	e1a01002 	mov	r1, r2
  103600:	e1a00003 	mov	r0, r3
  103604:	ebfffc49 	bl	102730 <spi_engine_queue_add_cmd>
  103608:	e59b200c 	ldr	r2, [fp, #12]
  10360c:	e51b3008 	ldr	r3, [fp, #-8]
  103610:	e1520003 	cmp	r2, r3
  103614:	8affffef 	bhi	1035d8 <spi_engine_offload_transfer+0xd0>
  103618:	e24b3024 	sub	r3, fp, #36	; 0x24
  10361c:	e1a01003 	mov	r1, r3
  103620:	e51b0028 	ldr	r0, [fp, #-40]	; 0xffffffd8
  103624:	ebfffdac 	bl	102cdc <spi_engine_transfer_message>
  103628:	e51b0010 	ldr	r0, [fp, #-16]
  10362c:	ebfffbf3 	bl	102600 <spi_get_word_lenght>
  103630:	e1a03000 	mov	r3, r0
  103634:	e54b3011 	strb	r3, [fp, #-17]	; 0xffffffef
  103638:	e51b3010 	ldr	r3, [fp, #-16]
  10363c:	e5d33010 	ldrb	r3, [r3, #16]
  103640:	e2033001 	and	r3, r3, #1
  103644:	e3530000 	cmp	r3, #0
  103648:	0a00000b 	beq	10367c <spi_engine_offload_transfer+0x174>
  10364c:	e51b3010 	ldr	r3, [fp, #-16]
  103650:	e5930008 	ldr	r0, [r3, #8]
  103654:	e59b1014 	ldr	r1, [fp, #20]
  103658:	e55b3011 	ldrb	r3, [fp, #-17]	; 0xffffffef
  10365c:	e51b2010 	ldr	r2, [fp, #-16]
  103660:	e5d22011 	ldrb	r2, [r2, #17]
  103664:	e0030392 	mul	r3, r2, r3
  103668:	e1a02003 	mov	r2, r3
  10366c:	e59b301c 	ldr	r3, [fp, #28]
  103670:	e0030293 	mul	r3, r3, r2
  103674:	e1a02003 	mov	r2, r3
  103678:	eb000488 	bl	1048a0 <axi_dmac_transfer>
  10367c:	e51b3010 	ldr	r3, [fp, #-16]
  103680:	e5d33010 	ldrb	r3, [r3, #16]
  103684:	e2033002 	and	r3, r3, #2
  103688:	e3530000 	cmp	r3, #0
  10368c:	0a00000b 	beq	1036c0 <spi_engine_offload_transfer+0x1b8>
  103690:	e51b3010 	ldr	r3, [fp, #-16]
  103694:	e593000c 	ldr	r0, [r3, #12]
  103698:	e59b1018 	ldr	r1, [fp, #24]
  10369c:	e55b3011 	ldrb	r3, [fp, #-17]	; 0xffffffef
  1036a0:	e51b2010 	ldr	r2, [fp, #-16]
  1036a4:	e5d22011 	ldrb	r2, [r2, #17]
  1036a8:	e0030392 	mul	r3, r2, r3
  1036ac:	e1a02003 	mov	r2, r3
  1036b0:	e59b301c 	ldr	r3, [fp, #28]
  1036b4:	e0030293 	mul	r3, r3, r2
  1036b8:	e1a02003 	mov	r2, r3
  1036bc:	eb000477 	bl	1048a0 <axi_dmac_transfer>
  1036c0:	e3a00ffa 	mov	r0, #1000	; 0x3e8
  1036c4:	ebfff9b0 	bl	101d8c <udelay>
  1036c8:	e3a03000 	mov	r3, #0
  1036cc:	e50b300c 	str	r3, [fp, #-12]
  1036d0:	e3a03000 	mov	r3, #0
  1036d4:	e50b3008 	str	r3, [fp, #-8]
  1036d8:	ea000005 	b	1036f4 <spi_engine_offload_transfer+0x1ec>
  1036dc:	e51b300c 	ldr	r3, [fp, #-12]
  1036e0:	e2833001 	add	r3, r3, #1
  1036e4:	e50b300c 	str	r3, [fp, #-12]
  1036e8:	e51b3008 	ldr	r3, [fp, #-8]
  1036ec:	e2833001 	add	r3, r3, #1
  1036f0:	e50b3008 	str	r3, [fp, #-8]
  1036f4:	e51b3008 	ldr	r3, [fp, #-8]
  1036f8:	e302270f 	movw	r2, #9999	; 0x270f
  1036fc:	e1530002 	cmp	r3, r2
  103700:	9afffff5 	bls	1036dc <spi_engine_offload_transfer+0x1d4>
  103704:	e3a02001 	mov	r2, #1
  103708:	e3a01c01 	mov	r1, #256	; 0x100
  10370c:	e51b0010 	ldr	r0, [fp, #-16]
  103710:	ebfffb48 	bl	102438 <spi_engine_write>
  103714:	e51b3010 	ldr	r3, [fp, #-16]
  103718:	e593300c 	ldr	r3, [r3, #12]
  10371c:	e1a00003 	mov	r0, r3
  103720:	eb000513 	bl	104b74 <axi_wait>
  103724:	e24b3024 	sub	r3, fp, #36	; 0x24
  103728:	e283300c 	add	r3, r3, #12
  10372c:	e1a00003 	mov	r0, r3
  103730:	ebfffc58 	bl	102898 <spi_engine_queue_free>
  103734:	e3a03000 	mov	r3, #0
  103738:	e1a00003 	mov	r0, r3
  10373c:	e24bd004 	sub	sp, fp, #4
  103740:	e8bd4800 	pop	{fp, lr}
  103744:	e28dd010 	add	sp, sp, #16
  103748:	e12fff1e 	bx	lr

0010374c <spi_engine_remove>:
  10374c:	e92d4800 	push	{fp, lr}
  103750:	e28db004 	add	fp, sp, #4
  103754:	e24dd010 	sub	sp, sp, #16
  103758:	e50b0010 	str	r0, [fp, #-16]
  10375c:	e51b3010 	ldr	r3, [fp, #-16]
  103760:	e593300c 	ldr	r3, [r3, #12]
  103764:	e50b3008 	str	r3, [fp, #-8]
  103768:	e51b3008 	ldr	r3, [fp, #-8]
  10376c:	e5d33010 	ldrb	r3, [r3, #16]
  103770:	e2033001 	and	r3, r3, #1
  103774:	e3530000 	cmp	r3, #0
  103778:	0a000003 	beq	10378c <spi_engine_remove+0x40>
  10377c:	e51b3008 	ldr	r3, [fp, #-8]
  103780:	e5933008 	ldr	r3, [r3, #8]
  103784:	e1a00003 	mov	r0, r3
  103788:	eb000515 	bl	104be4 <axi_dmac_remove>
  10378c:	e51b3008 	ldr	r3, [fp, #-8]
  103790:	e5d33010 	ldrb	r3, [r3, #16]
  103794:	e2033002 	and	r3, r3, #2
  103798:	e3530000 	cmp	r3, #0
  10379c:	0a000003 	beq	1037b0 <spi_engine_remove+0x64>
  1037a0:	e51b3008 	ldr	r3, [fp, #-8]
  1037a4:	e593300c 	ldr	r3, [r3, #12]
  1037a8:	e1a00003 	mov	r0, r3
  1037ac:	eb00050c 	bl	104be4 <axi_dmac_remove>
  1037b0:	e51b3010 	ldr	r3, [fp, #-16]
  1037b4:	e593300c 	ldr	r3, [r3, #12]
  1037b8:	e1a00003 	mov	r0, r3
  1037bc:	eb005361 	bl	118548 <free>
  1037c0:	e51b0010 	ldr	r0, [fp, #-16]
  1037c4:	eb00535f 	bl	118548 <free>
  1037c8:	e3a03000 	mov	r3, #0
  1037cc:	e1a00003 	mov	r0, r3
  1037d0:	e24bd004 	sub	sp, fp, #4
  1037d4:	e8bd8800 	pop	{fp, pc}

001037d8 <axi_adc_read>:
  1037d8:	e92d4800 	push	{fp, lr}
  1037dc:	e28db004 	add	fp, sp, #4
  1037e0:	e24dd010 	sub	sp, sp, #16
  1037e4:	e50b0008 	str	r0, [fp, #-8]
  1037e8:	e50b100c 	str	r1, [fp, #-12]
  1037ec:	e50b2010 	str	r2, [fp, #-16]
  1037f0:	e51b3008 	ldr	r3, [fp, #-8]
  1037f4:	e5933004 	ldr	r3, [r3, #4]
  1037f8:	e51b2010 	ldr	r2, [fp, #-16]
  1037fc:	e51b100c 	ldr	r1, [fp, #-12]
  103800:	e1a00003 	mov	r0, r3
  103804:	eb000505 	bl	104c20 <axi_io_read>
  103808:	e3a03000 	mov	r3, #0
  10380c:	e1a00003 	mov	r0, r3
  103810:	e24bd004 	sub	sp, fp, #4
  103814:	e8bd8800 	pop	{fp, pc}

00103818 <axi_adc_write>:
  103818:	e92d4800 	push	{fp, lr}
  10381c:	e28db004 	add	fp, sp, #4
  103820:	e24dd010 	sub	sp, sp, #16
  103824:	e50b0008 	str	r0, [fp, #-8]
  103828:	e50b100c 	str	r1, [fp, #-12]
  10382c:	e50b2010 	str	r2, [fp, #-16]
  103830:	e51b3008 	ldr	r3, [fp, #-8]
  103834:	e5933004 	ldr	r3, [r3, #4]
  103838:	e51b2010 	ldr	r2, [fp, #-16]
  10383c:	e51b100c 	ldr	r1, [fp, #-12]
  103840:	e1a00003 	mov	r0, r3
  103844:	eb000506 	bl	104c64 <axi_io_write>
  103848:	e3a03000 	mov	r3, #0
  10384c:	e1a00003 	mov	r0, r3
  103850:	e24bd004 	sub	sp, fp, #4
  103854:	e8bd8800 	pop	{fp, pc}

00103858 <axi_adc_set_pnsel>:
  103858:	e92d4800 	push	{fp, lr}
  10385c:	e28db004 	add	fp, sp, #4
  103860:	e24dd018 	sub	sp, sp, #24
  103864:	e50b0010 	str	r0, [fp, #-16]
  103868:	e50b1014 	str	r1, [fp, #-20]	; 0xffffffec
  10386c:	e1a03002 	mov	r3, r2
  103870:	e54b3015 	strb	r3, [fp, #-21]	; 0xffffffeb
  103874:	e51b3014 	ldr	r3, [fp, #-20]	; 0xffffffec
  103878:	e1a03303 	lsl	r3, r3, #6
  10387c:	e2833e41 	add	r3, r3, #1040	; 0x410
  103880:	e2833008 	add	r3, r3, #8
  103884:	e24b2008 	sub	r2, fp, #8
  103888:	e1a01003 	mov	r1, r3
  10388c:	e51b0010 	ldr	r0, [fp, #-16]
  103890:	ebffffd0 	bl	1037d8 <axi_adc_read>
  103894:	e51b3008 	ldr	r3, [fp, #-8]
  103898:	e3c3380f 	bic	r3, r3, #983040	; 0xf0000
  10389c:	e50b3008 	str	r3, [fp, #-8]
  1038a0:	e55b3015 	ldrb	r3, [fp, #-21]	; 0xffffffeb
  1038a4:	e1a03803 	lsl	r3, r3, #16
  1038a8:	e203280f 	and	r2, r3, #983040	; 0xf0000
  1038ac:	e51b3008 	ldr	r3, [fp, #-8]
  1038b0:	e1823003 	orr	r3, r2, r3
  1038b4:	e50b3008 	str	r3, [fp, #-8]
  1038b8:	e51b3014 	ldr	r3, [fp, #-20]	; 0xffffffec
  1038bc:	e1a03303 	lsl	r3, r3, #6
  1038c0:	e2833e41 	add	r3, r3, #1040	; 0x410
  1038c4:	e2833008 	add	r3, r3, #8
  1038c8:	e51b2008 	ldr	r2, [fp, #-8]
  1038cc:	e1a01003 	mov	r1, r3
  1038d0:	e51b0010 	ldr	r0, [fp, #-16]
  1038d4:	ebffffcf 	bl	103818 <axi_adc_write>
  1038d8:	e3a03000 	mov	r3, #0
  1038dc:	e1a00003 	mov	r0, r3
  1038e0:	e24bd004 	sub	sp, fp, #4
  1038e4:	e8bd8800 	pop	{fp, pc}

001038e8 <axi_adc_pn_mon>:
  1038e8:	e92d4800 	push	{fp, lr}
  1038ec:	e28db004 	add	fp, sp, #4
  1038f0:	e24dd018 	sub	sp, sp, #24
  1038f4:	e50b0010 	str	r0, [fp, #-16]
  1038f8:	e1a03001 	mov	r3, r1
  1038fc:	e50b2018 	str	r2, [fp, #-24]	; 0xffffffe8
  103900:	e54b3011 	strb	r3, [fp, #-17]	; 0xffffffef
  103904:	e3a03000 	mov	r3, #0
  103908:	e54b3005 	strb	r3, [fp, #-5]
  10390c:	ea00001a 	b	10397c <axi_adc_pn_mon+0x94>
  103910:	e55b3005 	ldrb	r3, [fp, #-5]
  103914:	e2833010 	add	r3, r3, #16
  103918:	e1a03303 	lsl	r3, r3, #6
  10391c:	e1a01003 	mov	r1, r3
  103920:	e24b300c 	sub	r3, fp, #12
  103924:	e1a02003 	mov	r2, r3
  103928:	e51b0010 	ldr	r0, [fp, #-16]
  10392c:	ebffffa9 	bl	1037d8 <axi_adc_read>
  103930:	e51b300c 	ldr	r3, [fp, #-12]
  103934:	e3833001 	orr	r3, r3, #1
  103938:	e50b300c 	str	r3, [fp, #-12]
  10393c:	e55b3005 	ldrb	r3, [fp, #-5]
  103940:	e2833010 	add	r3, r3, #16
  103944:	e1a03303 	lsl	r3, r3, #6
  103948:	e1a01003 	mov	r1, r3
  10394c:	e51b300c 	ldr	r3, [fp, #-12]
  103950:	e1a02003 	mov	r2, r3
  103954:	e51b0010 	ldr	r0, [fp, #-16]
  103958:	ebffffae 	bl	103818 <axi_adc_write>
  10395c:	e55b3005 	ldrb	r3, [fp, #-5]
  103960:	e55b2011 	ldrb	r2, [fp, #-17]	; 0xffffffef
  103964:	e1a01003 	mov	r1, r3
  103968:	e51b0010 	ldr	r0, [fp, #-16]
  10396c:	ebffffb9 	bl	103858 <axi_adc_set_pnsel>
  103970:	e55b3005 	ldrb	r3, [fp, #-5]
  103974:	e2833001 	add	r3, r3, #1
  103978:	e54b3005 	strb	r3, [fp, #-5]
  10397c:	e51b3010 	ldr	r3, [fp, #-16]
  103980:	e5d33008 	ldrb	r3, [r3, #8]
  103984:	e55b2005 	ldrb	r2, [fp, #-5]
  103988:	e1520003 	cmp	r2, r3
  10398c:	3affffdf 	bcc	103910 <axi_adc_pn_mon+0x28>
  103990:	e3a00001 	mov	r0, #1
  103994:	ebfff90d 	bl	101dd0 <mdelay>
  103998:	e3a03000 	mov	r3, #0
  10399c:	e54b3005 	strb	r3, [fp, #-5]
  1039a0:	ea00000a 	b	1039d0 <axi_adc_pn_mon+0xe8>
  1039a4:	e55b3005 	ldrb	r3, [fp, #-5]
  1039a8:	e1a03303 	lsl	r3, r3, #6
  1039ac:	e2833b01 	add	r3, r3, #1024	; 0x400
  1039b0:	e2833004 	add	r3, r3, #4
  1039b4:	e3a020ff 	mov	r2, #255	; 0xff
  1039b8:	e1a01003 	mov	r1, r3
  1039bc:	e51b0010 	ldr	r0, [fp, #-16]
  1039c0:	ebffff94 	bl	103818 <axi_adc_write>
  1039c4:	e55b3005 	ldrb	r3, [fp, #-5]
  1039c8:	e2833001 	add	r3, r3, #1
  1039cc:	e54b3005 	strb	r3, [fp, #-5]
  1039d0:	e51b3010 	ldr	r3, [fp, #-16]
  1039d4:	e5d33008 	ldrb	r3, [r3, #8]
  1039d8:	e55b2005 	ldrb	r2, [fp, #-5]
  1039dc:	e1520003 	cmp	r2, r3
  1039e0:	3affffef 	bcc	1039a4 <axi_adc_pn_mon+0xbc>
  1039e4:	e51b0018 	ldr	r0, [fp, #-24]	; 0xffffffe8
  1039e8:	ebfff8f8 	bl	101dd0 <mdelay>
  1039ec:	e3a03000 	mov	r3, #0
  1039f0:	e54b3005 	strb	r3, [fp, #-5]
  1039f4:	ea000010 	b	103a3c <axi_adc_pn_mon+0x154>
  1039f8:	e55b3005 	ldrb	r3, [fp, #-5]
  1039fc:	e1a03303 	lsl	r3, r3, #6
  103a00:	e2833b01 	add	r3, r3, #1024	; 0x400
  103a04:	e2833004 	add	r3, r3, #4
  103a08:	e1a01003 	mov	r1, r3
  103a0c:	e24b300c 	sub	r3, fp, #12
  103a10:	e1a02003 	mov	r2, r3
  103a14:	e51b0010 	ldr	r0, [fp, #-16]
  103a18:	ebffff6e 	bl	1037d8 <axi_adc_read>
  103a1c:	e51b300c 	ldr	r3, [fp, #-12]
  103a20:	e3530000 	cmp	r3, #0
  103a24:	0a000001 	beq	103a30 <axi_adc_pn_mon+0x148>
  103a28:	e3e03000 	mvn	r3, #0
  103a2c:	ea000008 	b	103a54 <axi_adc_pn_mon+0x16c>
  103a30:	e55b3005 	ldrb	r3, [fp, #-5]
  103a34:	e2833001 	add	r3, r3, #1
  103a38:	e54b3005 	strb	r3, [fp, #-5]
  103a3c:	e51b3010 	ldr	r3, [fp, #-16]
  103a40:	e5d33008 	ldrb	r3, [r3, #8]
  103a44:	e55b2005 	ldrb	r2, [fp, #-5]
  103a48:	e1520003 	cmp	r2, r3
  103a4c:	3affffe9 	bcc	1039f8 <axi_adc_pn_mon+0x110>
  103a50:	e3a03000 	mov	r3, #0
  103a54:	e1a00003 	mov	r0, r3
  103a58:	e24bd004 	sub	sp, fp, #4
  103a5c:	e8bd8800 	pop	{fp, pc}

00103a60 <axi_adc_get_sampling_freq>:
  103a60:	e92d4800 	push	{fp, lr}
  103a64:	e28db004 	add	fp, sp, #4
  103a68:	e24dd018 	sub	sp, sp, #24
  103a6c:	e50b0010 	str	r0, [fp, #-16]
  103a70:	e50b1014 	str	r1, [fp, #-20]	; 0xffffffec
  103a74:	e50b2018 	str	r2, [fp, #-24]	; 0xffffffe8
  103a78:	e24b3008 	sub	r3, fp, #8
  103a7c:	e1a02003 	mov	r2, r3
  103a80:	e3a01054 	mov	r1, #84	; 0x54
  103a84:	e51b0010 	ldr	r0, [fp, #-16]
  103a88:	ebffff52 	bl	1037d8 <axi_adc_read>
  103a8c:	e24b300c 	sub	r3, fp, #12
  103a90:	e1a02003 	mov	r2, r3
  103a94:	e3a01058 	mov	r1, #88	; 0x58
  103a98:	e51b0010 	ldr	r0, [fp, #-16]
  103a9c:	ebffff4d 	bl	1037d8 <axi_adc_read>
  103aa0:	e51b3008 	ldr	r3, [fp, #-8]
  103aa4:	e51b200c 	ldr	r2, [fp, #-12]
  103aa8:	e0030392 	mul	r3, r2, r3
  103aac:	e1a02003 	mov	r2, r3
  103ab0:	e3a03000 	mov	r3, #0
  103ab4:	e51b1018 	ldr	r1, [fp, #-24]	; 0xffffffe8
  103ab8:	e1c120f0 	strd	r2, [r1]
  103abc:	e51b3018 	ldr	r3, [fp, #-24]	; 0xffffffe8
  103ac0:	e1c320d0 	ldrd	r2, [r3]
  103ac4:	e30f15e1 	movw	r1, #62945	; 0xf5e1
  103ac8:	e3401005 	movt	r1, #5
  103acc:	e0000391 	mul	r0, r1, r3
  103ad0:	e3a01000 	mov	r1, #0
  103ad4:	e0010291 	mul	r1, r1, r2
  103ad8:	e0800001 	add	r0, r0, r1
  103adc:	e30f15e1 	movw	r1, #62945	; 0xf5e1
  103ae0:	e3401005 	movt	r1, #5
  103ae4:	e0832192 	umull	r2, r3, r2, r1
  103ae8:	e0801003 	add	r1, r0, r3
  103aec:	e1a03001 	mov	r3, r1
  103af0:	e1a02422 	lsr	r2, r2, #8
  103af4:	e1822c03 	orr	r2, r2, r3, lsl #24
  103af8:	e1a03423 	lsr	r3, r3, #8
  103afc:	e51b1018 	ldr	r1, [fp, #-24]	; 0xffffffe8
  103b00:	e1c120f0 	strd	r2, [r1]
  103b04:	e3a03000 	mov	r3, #0
  103b08:	e1a00003 	mov	r0, r3
  103b0c:	e24bd004 	sub	sp, fp, #4
  103b10:	e8bd8800 	pop	{fp, pc}

00103b14 <axi_adc_idelay_set>:
  103b14:	e92d4800 	push	{fp, lr}
  103b18:	e28db004 	add	fp, sp, #4
  103b1c:	e24dd010 	sub	sp, sp, #16
  103b20:	e50b0008 	str	r0, [fp, #-8]
  103b24:	e50b100c 	str	r1, [fp, #-12]
  103b28:	e50b2010 	str	r2, [fp, #-16]
  103b2c:	e51b300c 	ldr	r3, [fp, #-12]
  103b30:	e2833c02 	add	r3, r3, #512	; 0x200
  103b34:	e1a03103 	lsl	r3, r3, #2
  103b38:	e51b2010 	ldr	r2, [fp, #-16]
  103b3c:	e1a01003 	mov	r1, r3
  103b40:	e51b0008 	ldr	r0, [fp, #-8]
  103b44:	ebffff33 	bl	103818 <axi_adc_write>
  103b48:	e320f000 	nop	{0}
  103b4c:	e24bd004 	sub	sp, fp, #4
  103b50:	e8bd8800 	pop	{fp, pc}

00103b54 <axi_adc_delay_set>:
  103b54:	e92d4800 	push	{fp, lr}
  103b58:	e28db004 	add	fp, sp, #4
  103b5c:	e24dd020 	sub	sp, sp, #32
  103b60:	e50b0018 	str	r0, [fp, #-24]	; 0xffffffe8
  103b64:	e50b101c 	str	r1, [fp, #-28]	; 0xffffffe4
  103b68:	e50b2020 	str	r2, [fp, #-32]	; 0xffffffe0
  103b6c:	e24b3010 	sub	r3, fp, #16
  103b70:	e1a02003 	mov	r2, r3
  103b74:	e3a01000 	mov	r1, #0
  103b78:	e51b0018 	ldr	r0, [fp, #-24]	; 0xffffffe8
  103b7c:	ebffff15 	bl	1037d8 <axi_adc_read>
  103b80:	e51b3010 	ldr	r3, [fp, #-16]
  103b84:	e1a03823 	lsr	r3, r3, #16
  103b88:	e50b3010 	str	r3, [fp, #-16]
  103b8c:	e51b3010 	ldr	r3, [fp, #-16]
  103b90:	e3530008 	cmp	r3, #8
  103b94:	8a000009 	bhi	103bc0 <axi_adc_delay_set+0x6c>
  103b98:	e51b3010 	ldr	r3, [fp, #-16]
  103b9c:	e1a01003 	mov	r1, r3
  103ba0:	e3010b8c 	movw	r0, #7052	; 0x1b8c
  103ba4:	e3400012 	movt	r0, #18
  103ba8:	eb0054a1 	bl	118e34 <printf>
  103bac:	e3010ba8 	movw	r0, #7080	; 0x1ba8
  103bb0:	e3400012 	movt	r0, #18
  103bb4:	eb00549e 	bl	118e34 <printf>
  103bb8:	e3e03000 	mvn	r3, #0
  103bbc:	ea00001f 	b	103c40 <axi_adc_delay_set+0xec>
  103bc0:	e3a03000 	mov	r3, #0
  103bc4:	e50b3008 	str	r3, [fp, #-8]
  103bc8:	ea000017 	b	103c2c <axi_adc_delay_set+0xd8>
  103bcc:	e51b2020 	ldr	r2, [fp, #-32]	; 0xffffffe0
  103bd0:	e51b1008 	ldr	r1, [fp, #-8]
  103bd4:	e51b0018 	ldr	r0, [fp, #-24]	; 0xffffffe8
  103bd8:	ebffffcd 	bl	103b14 <axi_adc_idelay_set>
  103bdc:	e51b3008 	ldr	r3, [fp, #-8]
  103be0:	e2833c02 	add	r3, r3, #512	; 0x200
  103be4:	e1a03103 	lsl	r3, r3, #2
  103be8:	e24b200c 	sub	r2, fp, #12
  103bec:	e1a01003 	mov	r1, r3
  103bf0:	e51b0018 	ldr	r0, [fp, #-24]	; 0xffffffe8
  103bf4:	ebfffef7 	bl	1037d8 <axi_adc_read>
  103bf8:	e51b200c 	ldr	r2, [fp, #-12]
  103bfc:	e51b3020 	ldr	r3, [fp, #-32]	; 0xffffffe0
  103c00:	e1520003 	cmp	r2, r3
  103c04:	0a000005 	beq	103c20 <axi_adc_delay_set+0xcc>
  103c08:	e51b200c 	ldr	r2, [fp, #-12]
  103c0c:	e51b3020 	ldr	r3, [fp, #-32]	; 0xffffffe0
  103c10:	e51b1008 	ldr	r1, [fp, #-8]
  103c14:	e3010be0 	movw	r0, #7136	; 0x1be0
  103c18:	e3400012 	movt	r0, #18
  103c1c:	eb005484 	bl	118e34 <printf>
  103c20:	e51b3008 	ldr	r3, [fp, #-8]
  103c24:	e2833001 	add	r3, r3, #1
  103c28:	e50b3008 	str	r3, [fp, #-8]
  103c2c:	e51b2008 	ldr	r2, [fp, #-8]
  103c30:	e51b301c 	ldr	r3, [fp, #-28]	; 0xffffffe4
  103c34:	e1520003 	cmp	r2, r3
  103c38:	3affffe3 	bcc	103bcc <axi_adc_delay_set+0x78>
  103c3c:	e3a03000 	mov	r3, #0
  103c40:	e1a00003 	mov	r0, r3
  103c44:	e24bd004 	sub	sp, fp, #4
  103c48:	e8bd8800 	pop	{fp, pc}

00103c4c <axi_adc_delay_calibrate>:
  103c4c:	e92d4800 	push	{fp, lr}
  103c50:	e28db004 	add	fp, sp, #4
  103c54:	e24dd060 	sub	sp, sp, #96	; 0x60
  103c58:	e50b0058 	str	r0, [fp, #-88]	; 0xffffffa8
  103c5c:	e50b105c 	str	r1, [fp, #-92]	; 0xffffffa4
  103c60:	e1a03002 	mov	r3, r2
  103c64:	e54b305d 	strb	r3, [fp, #-93]	; 0xffffffa3
  103c68:	e24b3030 	sub	r3, fp, #48	; 0x30
  103c6c:	e3a02020 	mov	r2, #32
  103c70:	e3a01000 	mov	r1, #0
  103c74:	e1a00003 	mov	r0, r3
  103c78:	eb005413 	bl	118ccc <memset>
  103c7c:	e24b303c 	sub	r3, fp, #60	; 0x3c
  103c80:	e3a02000 	mov	r2, #0
  103c84:	e5832000 	str	r2, [r3]
  103c88:	e5832004 	str	r2, [r3, #4]
  103c8c:	e1c320b8 	strh	r2, [r3, #8]
  103c90:	e24b3048 	sub	r3, fp, #72	; 0x48
  103c94:	e3a02000 	mov	r2, #0
  103c98:	e5832000 	str	r2, [r3]
  103c9c:	e5832004 	str	r2, [r3, #4]
  103ca0:	e1c320b8 	strh	r2, [r3, #8]
  103ca4:	e3a03000 	mov	r3, #0
  103ca8:	e14b30b6 	strh	r3, [fp, #-6]
  103cac:	e3a03020 	mov	r3, #32
  103cb0:	e14b30b8 	strh	r3, [fp, #-8]
  103cb4:	e3a03020 	mov	r3, #32
  103cb8:	e14b30ba 	strh	r3, [fp, #-10]
  103cbc:	e3a03000 	mov	r3, #0
  103cc0:	e54b300b 	strb	r3, [fp, #-11]
  103cc4:	e3a03000 	mov	r3, #0
  103cc8:	e54b300c 	strb	r3, [fp, #-12]
  103ccc:	e3a03000 	mov	r3, #0
  103cd0:	e54b300d 	strb	r3, [fp, #-13]
  103cd4:	e24b3050 	sub	r3, fp, #80	; 0x50
  103cd8:	e3a02000 	mov	r2, #0
  103cdc:	e5832000 	str	r2, [r3]
  103ce0:	e5c32004 	strb	r2, [r3, #4]
  103ce4:	e3a03000 	mov	r3, #0
  103ce8:	e54b300e 	strb	r3, [fp, #-14]
  103cec:	e3a03000 	mov	r3, #0
  103cf0:	e54b300f 	strb	r3, [fp, #-15]
  103cf4:	e3a03020 	mov	r3, #32
  103cf8:	e54b3010 	strb	r3, [fp, #-16]
  103cfc:	e3a03000 	mov	r3, #0
  103d00:	e14b30b6 	strh	r3, [fp, #-6]
  103d04:	ea000023 	b	103d98 <axi_adc_delay_calibrate+0x14c>
  103d08:	e15b30b6 	ldrh	r3, [fp, #-6]
  103d0c:	e1a02003 	mov	r2, r3
  103d10:	e51b105c 	ldr	r1, [fp, #-92]	; 0xffffffa4
  103d14:	e51b0058 	ldr	r0, [fp, #-88]	; 0xffffffa8
  103d18:	ebffff8d 	bl	103b54 <axi_adc_delay_set>
  103d1c:	e3a00014 	mov	r0, #20
  103d20:	ebfff82a 	bl	101dd0 <mdelay>
  103d24:	e55b305d 	ldrb	r3, [fp, #-93]	; 0xffffffa3
  103d28:	e3a02064 	mov	r2, #100	; 0x64
  103d2c:	e1a01003 	mov	r1, r3
  103d30:	e51b0058 	ldr	r0, [fp, #-88]	; 0xffffffa8
  103d34:	ebfffeeb 	bl	1038e8 <axi_adc_pn_mon>
  103d38:	e1a03000 	mov	r3, r0
  103d3c:	e3530000 	cmp	r3, #0
  103d40:	1a00000c 	bne	103d78 <axi_adc_delay_calibrate+0x12c>
  103d44:	e15b30b6 	ldrh	r3, [fp, #-6]
  103d48:	e24b2004 	sub	r2, fp, #4
  103d4c:	e0823003 	add	r3, r2, r3
  103d50:	e3a02000 	mov	r2, #0
  103d54:	e543202c 	strb	r2, [r3, #-44]	; 0xffffffd4
  103d58:	e15b30b8 	ldrh	r3, [fp, #-8]
  103d5c:	e3530020 	cmp	r3, #32
  103d60:	1a000001 	bne	103d6c <axi_adc_delay_calibrate+0x120>
  103d64:	e15b30b6 	ldrh	r3, [fp, #-6]
  103d68:	ea000000 	b	103d70 <axi_adc_delay_calibrate+0x124>
  103d6c:	e15b30b8 	ldrh	r3, [fp, #-8]
  103d70:	e14b30b8 	strh	r3, [fp, #-8]
  103d74:	ea000004 	b	103d8c <axi_adc_delay_calibrate+0x140>
  103d78:	e15b30b6 	ldrh	r3, [fp, #-6]
  103d7c:	e24b2004 	sub	r2, fp, #4
  103d80:	e0823003 	add	r3, r2, r3
  103d84:	e3a02001 	mov	r2, #1
  103d88:	e543202c 	strb	r2, [r3, #-44]	; 0xffffffd4
  103d8c:	e15b30b6 	ldrh	r3, [fp, #-6]
  103d90:	e2833001 	add	r3, r3, #1
  103d94:	e14b30b6 	strh	r3, [fp, #-6]
  103d98:	e15b30b6 	ldrh	r3, [fp, #-6]
  103d9c:	e353001f 	cmp	r3, #31
  103da0:	9affffd8 	bls	103d08 <axi_adc_delay_calibrate+0xbc>
  103da4:	e15b30b8 	ldrh	r3, [fp, #-8]
  103da8:	e353001f 	cmp	r3, #31
  103dac:	9a00000a 	bls	103ddc <axi_adc_delay_calibrate+0x190>
  103db0:	e3011c74 	movw	r1, #7284	; 0x1c74
  103db4:	e3401012 	movt	r1, #18
  103db8:	e3010c14 	movw	r0, #7188	; 0x1c14
  103dbc:	e3400012 	movt	r0, #18
  103dc0:	eb00541b 	bl	118e34 <printf>
  103dc4:	e3a02000 	mov	r2, #0
  103dc8:	e51b105c 	ldr	r1, [fp, #-92]	; 0xffffffa4
  103dcc:	e51b0058 	ldr	r0, [fp, #-88]	; 0xffffffa8
  103dd0:	ebffff5f 	bl	103b54 <axi_adc_delay_set>
  103dd4:	e3e03000 	mvn	r3, #0
  103dd8:	ea00008e 	b	104018 <axi_adc_delay_calibrate+0x3cc>
  103ddc:	e3a03020 	mov	r3, #32
  103de0:	e14b30b8 	strh	r3, [fp, #-8]
  103de4:	e3a03020 	mov	r3, #32
  103de8:	e14b30ba 	strh	r3, [fp, #-10]
  103dec:	e3a03000 	mov	r3, #0
  103df0:	e54b300f 	strb	r3, [fp, #-15]
  103df4:	ea00004e 	b	103f34 <axi_adc_delay_calibrate+0x2e8>
  103df8:	e55b300f 	ldrb	r3, [fp, #-15]
  103dfc:	e24b2004 	sub	r2, fp, #4
  103e00:	e0823003 	add	r3, r2, r3
  103e04:	e553302c 	ldrb	r3, [r3, #-44]	; 0xffffffd4
  103e08:	e3530000 	cmp	r3, #0
  103e0c:	1a000017 	bne	103e70 <axi_adc_delay_calibrate+0x224>
  103e10:	e15b30b8 	ldrh	r3, [fp, #-8]
  103e14:	e3530020 	cmp	r3, #32
  103e18:	1a000001 	bne	103e24 <axi_adc_delay_calibrate+0x1d8>
  103e1c:	e55b300f 	ldrb	r3, [fp, #-15]
  103e20:	e14b30b8 	strh	r3, [fp, #-8]
  103e24:	e15b30b8 	ldrh	r3, [fp, #-8]
  103e28:	e3530020 	cmp	r3, #32
  103e2c:	0a000006 	beq	103e4c <axi_adc_delay_calibrate+0x200>
  103e30:	e15b30ba 	ldrh	r3, [fp, #-10]
  103e34:	e3530020 	cmp	r3, #32
  103e38:	0a000003 	beq	103e4c <axi_adc_delay_calibrate+0x200>
  103e3c:	e3a03020 	mov	r3, #32
  103e40:	e14b30b8 	strh	r3, [fp, #-8]
  103e44:	e3a03020 	mov	r3, #32
  103e48:	e14b30ba 	strh	r3, [fp, #-10]
  103e4c:	e55b300b 	ldrb	r3, [fp, #-11]
  103e50:	e24b2004 	sub	r2, fp, #4
  103e54:	e0822003 	add	r2, r2, r3
  103e58:	e552204c 	ldrb	r2, [r2, #-76]	; 0xffffffb4
  103e5c:	e2822001 	add	r2, r2, #1
  103e60:	e6ef2072 	uxtb	r2, r2
  103e64:	e24b1004 	sub	r1, fp, #4
  103e68:	e0813003 	add	r3, r1, r3
  103e6c:	e543204c 	strb	r2, [r3, #-76]	; 0xffffffb4
  103e70:	e55b300f 	ldrb	r3, [fp, #-15]
  103e74:	e24b2004 	sub	r2, fp, #4
  103e78:	e0823003 	add	r3, r2, r3
  103e7c:	e553302c 	ldrb	r3, [r3, #-44]	; 0xffffffd4
  103e80:	e3530001 	cmp	r3, #1
  103e84:	0a000004 	beq	103e9c <axi_adc_delay_calibrate+0x250>
  103e88:	e55b200f 	ldrb	r2, [fp, #-15]
  103e8c:	e55b3010 	ldrb	r3, [fp, #-16]
  103e90:	e2433001 	sub	r3, r3, #1
  103e94:	e1520003 	cmp	r2, r3
  103e98:	1a000022 	bne	103f28 <axi_adc_delay_calibrate+0x2dc>
  103e9c:	e15b30ba 	ldrh	r3, [fp, #-10]
  103ea0:	e3530020 	cmp	r3, #32
  103ea4:	1a000001 	bne	103eb0 <axi_adc_delay_calibrate+0x264>
  103ea8:	e55b300f 	ldrb	r3, [fp, #-15]
  103eac:	e14b30ba 	strh	r3, [fp, #-10]
  103eb0:	e15b30b8 	ldrh	r3, [fp, #-8]
  103eb4:	e3530020 	cmp	r3, #32
  103eb8:	0a000017 	beq	103f1c <axi_adc_delay_calibrate+0x2d0>
  103ebc:	e15b30ba 	ldrh	r3, [fp, #-10]
  103ec0:	e3530020 	cmp	r3, #32
  103ec4:	0a000014 	beq	103f1c <axi_adc_delay_calibrate+0x2d0>
  103ec8:	e55b300b 	ldrb	r3, [fp, #-11]
  103ecc:	e1a03083 	lsl	r3, r3, #1
  103ed0:	e24b2004 	sub	r2, fp, #4
  103ed4:	e0823003 	add	r3, r2, r3
  103ed8:	e2433038 	sub	r3, r3, #56	; 0x38
  103edc:	e15b20b8 	ldrh	r2, [fp, #-8]
  103ee0:	e1c320b0 	strh	r2, [r3]
  103ee4:	e55b300b 	ldrb	r3, [fp, #-11]
  103ee8:	e1a03083 	lsl	r3, r3, #1
  103eec:	e24b2004 	sub	r2, fp, #4
  103ef0:	e0823003 	add	r3, r2, r3
  103ef4:	e2433044 	sub	r3, r3, #68	; 0x44
  103ef8:	e15b20ba 	ldrh	r2, [fp, #-10]
  103efc:	e1c320b0 	strh	r2, [r3]
  103f00:	e3a03020 	mov	r3, #32
  103f04:	e14b30b8 	strh	r3, [fp, #-8]
  103f08:	e3a03020 	mov	r3, #32
  103f0c:	e14b30ba 	strh	r3, [fp, #-10]
  103f10:	e55b300b 	ldrb	r3, [fp, #-11]
  103f14:	e2833001 	add	r3, r3, #1
  103f18:	e54b300b 	strb	r3, [fp, #-11]
  103f1c:	e55b300e 	ldrb	r3, [fp, #-14]
  103f20:	e2833001 	add	r3, r3, #1
  103f24:	e54b300e 	strb	r3, [fp, #-14]
  103f28:	e55b300f 	ldrb	r3, [fp, #-15]
  103f2c:	e2833001 	add	r3, r3, #1
  103f30:	e54b300f 	strb	r3, [fp, #-15]
  103f34:	e55b200f 	ldrb	r2, [fp, #-15]
  103f38:	e55b3010 	ldrb	r3, [fp, #-16]
  103f3c:	e1520003 	cmp	r2, r3
  103f40:	3affffac 	bcc	103df8 <axi_adc_delay_calibrate+0x1ac>
  103f44:	e3a03000 	mov	r3, #0
  103f48:	e54b300f 	strb	r3, [fp, #-15]
  103f4c:	ea000010 	b	103f94 <axi_adc_delay_calibrate+0x348>
  103f50:	e55b300f 	ldrb	r3, [fp, #-15]
  103f54:	e24b2004 	sub	r2, fp, #4
  103f58:	e0823003 	add	r3, r2, r3
  103f5c:	e553304c 	ldrb	r3, [r3, #-76]	; 0xffffffb4
  103f60:	e55b200d 	ldrb	r2, [fp, #-13]
  103f64:	e1520003 	cmp	r2, r3
  103f68:	2a000006 	bcs	103f88 <axi_adc_delay_calibrate+0x33c>
  103f6c:	e55b300f 	ldrb	r3, [fp, #-15]
  103f70:	e24b2004 	sub	r2, fp, #4
  103f74:	e0823003 	add	r3, r2, r3
  103f78:	e553304c 	ldrb	r3, [r3, #-76]	; 0xffffffb4
  103f7c:	e54b300d 	strb	r3, [fp, #-13]
  103f80:	e55b300f 	ldrb	r3, [fp, #-15]
  103f84:	e54b300c 	strb	r3, [fp, #-12]
  103f88:	e55b300f 	ldrb	r3, [fp, #-15]
  103f8c:	e2833001 	add	r3, r3, #1
  103f90:	e54b300f 	strb	r3, [fp, #-15]
  103f94:	e55b300f 	ldrb	r3, [fp, #-15]
  103f98:	e3530004 	cmp	r3, #4
  103f9c:	9affffeb 	bls	103f50 <axi_adc_delay_calibrate+0x304>
  103fa0:	e55b300c 	ldrb	r3, [fp, #-12]
  103fa4:	e1a03083 	lsl	r3, r3, #1
  103fa8:	e24b2004 	sub	r2, fp, #4
  103fac:	e0823003 	add	r3, r2, r3
  103fb0:	e2433038 	sub	r3, r3, #56	; 0x38
  103fb4:	e1d330b0 	ldrh	r3, [r3]
  103fb8:	e1a02003 	mov	r2, r3
  103fbc:	e55b300c 	ldrb	r3, [fp, #-12]
  103fc0:	e1a03083 	lsl	r3, r3, #1
  103fc4:	e24b1004 	sub	r1, fp, #4
  103fc8:	e0813003 	add	r3, r1, r3
  103fcc:	e2433044 	sub	r3, r3, #68	; 0x44
  103fd0:	e1d330b0 	ldrh	r3, [r3]
  103fd4:	e0823003 	add	r3, r2, r3
  103fd8:	e2433001 	sub	r3, r3, #1
  103fdc:	e1a02fa3 	lsr	r2, r3, #31
  103fe0:	e0823003 	add	r3, r2, r3
  103fe4:	e1a030c3 	asr	r3, r3, #1
  103fe8:	e14b30b6 	strh	r3, [fp, #-6]
  103fec:	e15b30b6 	ldrh	r3, [fp, #-6]
  103ff0:	e1a01003 	mov	r1, r3
  103ff4:	e3010c20 	movw	r0, #7200	; 0x1c20
  103ff8:	e3400012 	movt	r0, #18
  103ffc:	eb00538c 	bl	118e34 <printf>
  104000:	e15b30b6 	ldrh	r3, [fp, #-6]
  104004:	e1a02003 	mov	r2, r3
  104008:	e51b105c 	ldr	r1, [fp, #-92]	; 0xffffffa4
  10400c:	e51b0058 	ldr	r0, [fp, #-88]	; 0xffffffa8
  104010:	ebfffecf 	bl	103b54 <axi_adc_delay_set>
  104014:	e3a03000 	mov	r3, #0
  104018:	e1a00003 	mov	r0, r3
  10401c:	e24bd004 	sub	sp, fp, #4
  104020:	e8bd8800 	pop	{fp, pc}

00104024 <axi_adc_set_calib_phase_scale>:
  104024:	e92d4800 	push	{fp, lr}
  104028:	e28db004 	add	fp, sp, #4
  10402c:	e24dd028 	sub	sp, sp, #40	; 0x28
  104030:	e50b0020 	str	r0, [fp, #-32]	; 0xffffffe0
  104034:	e50b1024 	str	r1, [fp, #-36]	; 0xffffffdc
  104038:	e50b2028 	str	r2, [fp, #-40]	; 0xffffffd8
  10403c:	e50b302c 	str	r3, [fp, #-44]	; 0xffffffd4
  104040:	e51b302c 	ldr	r3, [fp, #-44]	; 0xffffffd4
  104044:	e3530000 	cmp	r3, #0
  104048:	0a00000a 	beq	104078 <axi_adc_set_calib_phase_scale+0x54>
  10404c:	e3530001 	cmp	r3, #1
  104050:	0a000002 	beq	104060 <axi_adc_set_calib_phase_scale+0x3c>
  104054:	e3730001 	cmn	r3, #1
  104058:	0a000003 	beq	10406c <axi_adc_set_calib_phase_scale+0x48>
  10405c:	ea000010 	b	1040a4 <axi_adc_set_calib_phase_scale+0x80>
  104060:	e3a03901 	mov	r3, #16384	; 0x4000
  104064:	e50b3008 	str	r3, [fp, #-8]
  104068:	ea000010 	b	1040b0 <axi_adc_set_calib_phase_scale+0x8c>
  10406c:	e3a03903 	mov	r3, #49152	; 0xc000
  104070:	e50b3008 	str	r3, [fp, #-8]
  104074:	ea00000d 	b	1040b0 <axi_adc_set_calib_phase_scale+0x8c>
  104078:	e3a03000 	mov	r3, #0
  10407c:	e50b3008 	str	r3, [fp, #-8]
  104080:	e59b3004 	ldr	r3, [fp, #4]
  104084:	e3530000 	cmp	r3, #0
  104088:	aa000007 	bge	1040ac <axi_adc_set_calib_phase_scale+0x88>
  10408c:	e3a03902 	mov	r3, #32768	; 0x8000
  104090:	e50b3008 	str	r3, [fp, #-8]
  104094:	e59b3004 	ldr	r3, [fp, #4]
  104098:	e2633000 	rsb	r3, r3, #0
  10409c:	e58b3004 	str	r3, [fp, #4]
  1040a0:	ea000001 	b	1040ac <axi_adc_set_calib_phase_scale+0x88>
  1040a4:	e3e03000 	mvn	r3, #0
  1040a8:	ea000040 	b	1041b0 <axi_adc_set_calib_phase_scale+0x18c>
  1040ac:	e320f000 	nop	{0}
  1040b0:	e59b3004 	ldr	r3, [fp, #4]
  1040b4:	ee803b90 	vdup.32	d16, r3
  1040b8:	f2e000b0 	vshr.s64	d16, d16, #32
  1040bc:	f2ce05b0 	vshl.s64	d16, d16, #14
  1040c0:	e30a2120 	movw	r2, #41248	; 0xa120
  1040c4:	e3402007 	movt	r2, #7
  1040c8:	e3a03000 	mov	r3, #0
  1040cc:	ec510b30 	vmov	r0, r1, d16
  1040d0:	e0900002 	adds	r0, r0, r2
  1040d4:	e0a11003 	adc	r1, r1, r3
  1040d8:	e1a02000 	mov	r2, r0
  1040dc:	e1a03001 	mov	r3, r1
  1040e0:	e14b21f4 	strd	r2, [fp, #-20]	; 0xffffffec
  1040e4:	e24b1014 	sub	r1, fp, #20
  1040e8:	e3042240 	movw	r2, #16960	; 0x4240
  1040ec:	e340200f 	movt	r2, #15
  1040f0:	e3a03000 	mov	r3, #0
  1040f4:	e1a00001 	mov	r0, r1
  1040f8:	ebfff856 	bl	102258 <do_div>
  1040fc:	e14b21d4 	ldrd	r2, [fp, #-20]	; 0xffffffec
  104100:	e51b3008 	ldr	r3, [fp, #-8]
  104104:	e1833002 	orr	r3, r3, r2
  104108:	e50b3008 	str	r3, [fp, #-8]
  10410c:	e51b3028 	ldr	r3, [fp, #-40]	; 0xffffffd8
  104110:	e1a03303 	lsl	r3, r3, #6
  104114:	e2833e41 	add	r3, r3, #1040	; 0x410
  104118:	e2833004 	add	r3, r3, #4
  10411c:	e24b2018 	sub	r2, fp, #24
  104120:	e1a01003 	mov	r1, r3
  104124:	e51b0020 	ldr	r0, [fp, #-32]	; 0xffffffe0
  104128:	ebfffdaa 	bl	1037d8 <axi_adc_read>
  10412c:	e51b2028 	ldr	r2, [fp, #-40]	; 0xffffffd8
  104130:	e51b3024 	ldr	r3, [fp, #-36]	; 0xffffffdc
  104134:	e0823003 	add	r3, r2, r3
  104138:	e2033001 	and	r3, r3, #1
  10413c:	e3530000 	cmp	r3, #0
  104140:	1a000008 	bne	104168 <axi_adc_set_calib_phase_scale+0x144>
  104144:	e51b3018 	ldr	r3, [fp, #-24]	; 0xffffffe8
  104148:	e6ff3073 	uxth	r3, r3
  10414c:	e50b3018 	str	r3, [fp, #-24]	; 0xffffffe8
  104150:	e51b3008 	ldr	r3, [fp, #-8]
  104154:	e1a02803 	lsl	r2, r3, #16
  104158:	e51b3018 	ldr	r3, [fp, #-24]	; 0xffffffe8
  10415c:	e1823003 	orr	r3, r2, r3
  104160:	e50b3018 	str	r3, [fp, #-24]	; 0xffffffe8
  104164:	ea000008 	b	10418c <axi_adc_set_calib_phase_scale+0x168>
  104168:	e51b3018 	ldr	r3, [fp, #-24]	; 0xffffffe8
  10416c:	e1a03823 	lsr	r3, r3, #16
  104170:	e1a03803 	lsl	r3, r3, #16
  104174:	e50b3018 	str	r3, [fp, #-24]	; 0xffffffe8
  104178:	e51b3008 	ldr	r3, [fp, #-8]
  10417c:	e6ff2073 	uxth	r2, r3
  104180:	e51b3018 	ldr	r3, [fp, #-24]	; 0xffffffe8
  104184:	e1823003 	orr	r3, r2, r3
  104188:	e50b3018 	str	r3, [fp, #-24]	; 0xffffffe8
  10418c:	e51b3028 	ldr	r3, [fp, #-40]	; 0xffffffd8
  104190:	e1a03303 	lsl	r3, r3, #6
  104194:	e2833e41 	add	r3, r3, #1040	; 0x410
  104198:	e2833004 	add	r3, r3, #4
  10419c:	e51b2018 	ldr	r2, [fp, #-24]	; 0xffffffe8
  1041a0:	e1a01003 	mov	r1, r3
  1041a4:	e51b0020 	ldr	r0, [fp, #-32]	; 0xffffffe0
  1041a8:	ebfffd9a 	bl	103818 <axi_adc_write>
  1041ac:	e3a03000 	mov	r3, #0
  1041b0:	e1a00003 	mov	r0, r3
  1041b4:	e24bd004 	sub	sp, fp, #4
  1041b8:	e8bd8800 	pop	{fp, pc}

001041bc <axi_adc_get_calib_phase_scale>:
  1041bc:	e92d4800 	push	{fp, lr}
  1041c0:	e28db004 	add	fp, sp, #4
  1041c4:	e24dd020 	sub	sp, sp, #32
  1041c8:	e50b0018 	str	r0, [fp, #-24]	; 0xffffffe8
  1041cc:	e50b101c 	str	r1, [fp, #-28]	; 0xffffffe4
  1041d0:	e50b2020 	str	r2, [fp, #-32]	; 0xffffffe0
  1041d4:	e50b3024 	str	r3, [fp, #-36]	; 0xffffffdc
  1041d8:	e51b3020 	ldr	r3, [fp, #-32]	; 0xffffffe0
  1041dc:	e1a03303 	lsl	r3, r3, #6
  1041e0:	e2833e41 	add	r3, r3, #1040	; 0x410
  1041e4:	e2833004 	add	r3, r3, #4
  1041e8:	e24b200c 	sub	r2, fp, #12
  1041ec:	e1a01003 	mov	r1, r3
  1041f0:	e51b0018 	ldr	r0, [fp, #-24]	; 0xffffffe8
  1041f4:	ebfffd77 	bl	1037d8 <axi_adc_read>
  1041f8:	e51b201c 	ldr	r2, [fp, #-28]	; 0xffffffe4
  1041fc:	e51b3020 	ldr	r3, [fp, #-32]	; 0xffffffe0
  104200:	e0823003 	add	r3, r2, r3
  104204:	e2033001 	and	r3, r3, #1
  104208:	e3530000 	cmp	r3, #0
  10420c:	1a000003 	bne	104220 <axi_adc_get_calib_phase_scale+0x64>
  104210:	e51b300c 	ldr	r3, [fp, #-12]
  104214:	e1a03823 	lsr	r3, r3, #16
  104218:	e50b300c 	str	r3, [fp, #-12]
  10421c:	ea000002 	b	10422c <axi_adc_get_calib_phase_scale+0x70>
  104220:	e51b300c 	ldr	r3, [fp, #-12]
  104224:	e6ff3073 	uxth	r3, r3
  104228:	e50b300c 	str	r3, [fp, #-12]
  10422c:	e51b300c 	ldr	r3, [fp, #-12]
  104230:	e2033902 	and	r3, r3, #32768	; 0x8000
  104234:	e3530000 	cmp	r3, #0
  104238:	0a000002 	beq	104248 <axi_adc_get_calib_phase_scale+0x8c>
  10423c:	e3e03000 	mvn	r3, #0
  104240:	e50b3008 	str	r3, [fp, #-8]
  104244:	ea000001 	b	104250 <axi_adc_get_calib_phase_scale+0x94>
  104248:	e3a03001 	mov	r3, #1
  10424c:	e50b3008 	str	r3, [fp, #-8]
  104250:	e51b300c 	ldr	r3, [fp, #-12]
  104254:	e2033901 	and	r3, r3, #16384	; 0x4000
  104258:	e3530000 	cmp	r3, #0
  10425c:	0a000003 	beq	104270 <axi_adc_get_calib_phase_scale+0xb4>
  104260:	e51b3024 	ldr	r3, [fp, #-36]	; 0xffffffdc
  104264:	e51b2008 	ldr	r2, [fp, #-8]
  104268:	e5832000 	str	r2, [r3]
  10426c:	ea000002 	b	10427c <axi_adc_get_calib_phase_scale+0xc0>
  104270:	e51b3024 	ldr	r3, [fp, #-36]	; 0xffffffdc
  104274:	e3a02000 	mov	r2, #0
  104278:	e5832000 	str	r2, [r3]
  10427c:	e51b300c 	ldr	r3, [fp, #-12]
  104280:	e3c33903 	bic	r3, r3, #49152	; 0xc000
  104284:	e50b300c 	str	r3, [fp, #-12]
  104288:	e51b300c 	ldr	r3, [fp, #-12]
  10428c:	e1a02003 	mov	r2, r3
  104290:	e3a03000 	mov	r3, #0
  104294:	ec432b30 	vmov	d16, r2, r3
  104298:	f2c505b0 	vshl.s64	d16, d16, #5
  10429c:	ec432b31 	vmov	d17, r2, r3
  1042a0:	f37008a1 	vsub.i64	d16, d16, d17
  1042a4:	f2c905b0 	vshl.s64	d16, d16, #9
  1042a8:	ec432b31 	vmov	d17, r2, r3
  1042ac:	f27008a1 	vadd.i64	d16, d16, d17
  1042b0:	f2c615b0 	vshl.s64	d17, d16, #6
  1042b4:	f37118a0 	vsub.i64	d17, d17, d16
  1042b8:	ec510b31 	vmov	r0, r1, d17
  1042bc:	e0900002 	adds	r0, r0, r2
  1042c0:	e0a11003 	adc	r1, r1, r3
  1042c4:	e1a02000 	mov	r2, r0
  1042c8:	e1a03001 	mov	r3, r1
  1042cc:	e2922a02 	adds	r2, r2, #8192	; 0x2000
  1042d0:	e2a33000 	adc	r3, r3, #0
  1042d4:	e14b21f4 	strd	r2, [fp, #-20]	; 0xffffffec
  1042d8:	e24b1014 	sub	r1, fp, #20
  1042dc:	e3a02901 	mov	r2, #16384	; 0x4000
  1042e0:	e3a03000 	mov	r3, #0
  1042e4:	e1a00001 	mov	r0, r1
  1042e8:	ebfff7da 	bl	102258 <do_div>
  1042ec:	e51b3024 	ldr	r3, [fp, #-36]	; 0xffffffdc
  1042f0:	e5933000 	ldr	r3, [r3]
  1042f4:	e3530000 	cmp	r3, #0
  1042f8:	1a00000a 	bne	104328 <axi_adc_get_calib_phase_scale+0x16c>
  1042fc:	e51b3008 	ldr	r3, [fp, #-8]
  104300:	e1a02003 	mov	r2, r3
  104304:	e1a03fc2 	asr	r3, r2, #31
  104308:	e1a01002 	mov	r1, r2
  10430c:	e14b21d4 	ldrd	r2, [fp, #-20]	; 0xffffffec
  104310:	e1a03002 	mov	r3, r2
  104314:	e0030193 	mul	r3, r3, r1
  104318:	e1a02003 	mov	r2, r3
  10431c:	e59b3004 	ldr	r3, [fp, #4]
  104320:	e5832000 	str	r2, [r3]
  104324:	ea000002 	b	104334 <axi_adc_get_calib_phase_scale+0x178>
  104328:	e14b21d4 	ldrd	r2, [fp, #-20]	; 0xffffffec
  10432c:	e59b3004 	ldr	r3, [fp, #4]
  104330:	e5832000 	str	r2, [r3]
  104334:	e3a03000 	mov	r3, #0
  104338:	e1a00003 	mov	r0, r3
  10433c:	e24bd004 	sub	sp, fp, #4
  104340:	e8bd8800 	pop	{fp, pc}

00104344 <axi_adc_set_calib_phase>:
  104344:	e92d4800 	push	{fp, lr}
  104348:	e28db004 	add	fp, sp, #4
  10434c:	e24dd018 	sub	sp, sp, #24
  104350:	e50b0008 	str	r0, [fp, #-8]
  104354:	e50b100c 	str	r1, [fp, #-12]
  104358:	e50b2010 	str	r2, [fp, #-16]
  10435c:	e50b3014 	str	r3, [fp, #-20]	; 0xffffffec
  104360:	e51b3014 	ldr	r3, [fp, #-20]	; 0xffffffec
  104364:	e58d3000 	str	r3, [sp]
  104368:	e51b3010 	ldr	r3, [fp, #-16]
  10436c:	e51b200c 	ldr	r2, [fp, #-12]
  104370:	e3a01001 	mov	r1, #1
  104374:	e51b0008 	ldr	r0, [fp, #-8]
  104378:	ebffff29 	bl	104024 <axi_adc_set_calib_phase_scale>
  10437c:	e1a03000 	mov	r3, r0
  104380:	e1a00003 	mov	r0, r3
  104384:	e24bd004 	sub	sp, fp, #4
  104388:	e8bd8800 	pop	{fp, pc}

0010438c <axi_adc_get_calib_phase>:
  10438c:	e92d4800 	push	{fp, lr}
  104390:	e28db004 	add	fp, sp, #4
  104394:	e24dd018 	sub	sp, sp, #24
  104398:	e50b0008 	str	r0, [fp, #-8]
  10439c:	e50b100c 	str	r1, [fp, #-12]
  1043a0:	e50b2010 	str	r2, [fp, #-16]
  1043a4:	e50b3014 	str	r3, [fp, #-20]	; 0xffffffec
  1043a8:	e51b3014 	ldr	r3, [fp, #-20]	; 0xffffffec
  1043ac:	e58d3000 	str	r3, [sp]
  1043b0:	e51b3010 	ldr	r3, [fp, #-16]
  1043b4:	e51b200c 	ldr	r2, [fp, #-12]
  1043b8:	e3a01001 	mov	r1, #1
  1043bc:	e51b0008 	ldr	r0, [fp, #-8]
  1043c0:	ebffff7d 	bl	1041bc <axi_adc_get_calib_phase_scale>
  1043c4:	e1a03000 	mov	r3, r0
  1043c8:	e1a00003 	mov	r0, r3
  1043cc:	e24bd004 	sub	sp, fp, #4
  1043d0:	e8bd8800 	pop	{fp, pc}

001043d4 <axi_adc_set_calib_scale>:
  1043d4:	e92d4800 	push	{fp, lr}
  1043d8:	e28db004 	add	fp, sp, #4
  1043dc:	e24dd018 	sub	sp, sp, #24
  1043e0:	e50b0008 	str	r0, [fp, #-8]
  1043e4:	e50b100c 	str	r1, [fp, #-12]
  1043e8:	e50b2010 	str	r2, [fp, #-16]
  1043ec:	e50b3014 	str	r3, [fp, #-20]	; 0xffffffec
  1043f0:	e51b3014 	ldr	r3, [fp, #-20]	; 0xffffffec
  1043f4:	e58d3000 	str	r3, [sp]
  1043f8:	e51b3010 	ldr	r3, [fp, #-16]
  1043fc:	e51b200c 	ldr	r2, [fp, #-12]
  104400:	e3a01000 	mov	r1, #0
  104404:	e51b0008 	ldr	r0, [fp, #-8]
  104408:	ebffff05 	bl	104024 <axi_adc_set_calib_phase_scale>
  10440c:	e1a03000 	mov	r3, r0
  104410:	e1a00003 	mov	r0, r3
  104414:	e24bd004 	sub	sp, fp, #4
  104418:	e8bd8800 	pop	{fp, pc}

0010441c <axi_adc_get_calib_scale>:
  10441c:	e92d4800 	push	{fp, lr}
  104420:	e28db004 	add	fp, sp, #4
  104424:	e24dd018 	sub	sp, sp, #24
  104428:	e50b0008 	str	r0, [fp, #-8]
  10442c:	e50b100c 	str	r1, [fp, #-12]
  104430:	e50b2010 	str	r2, [fp, #-16]
  104434:	e50b3014 	str	r3, [fp, #-20]	; 0xffffffec
  104438:	e51b3014 	ldr	r3, [fp, #-20]	; 0xffffffec
  10443c:	e58d3000 	str	r3, [sp]
  104440:	e51b3010 	ldr	r3, [fp, #-16]
  104444:	e51b200c 	ldr	r2, [fp, #-12]
  104448:	e3a01000 	mov	r1, #0
  10444c:	e51b0008 	ldr	r0, [fp, #-8]
  104450:	ebffff59 	bl	1041bc <axi_adc_get_calib_phase_scale>
  104454:	e1a03000 	mov	r3, r0
  104458:	e1a00003 	mov	r0, r3
  10445c:	e24bd004 	sub	sp, fp, #4
  104460:	e8bd8800 	pop	{fp, pc}

00104464 <axi_adc_set_calib_bias>:
  104464:	e92d4800 	push	{fp, lr}
  104468:	e28db004 	add	fp, sp, #4
  10446c:	e24dd018 	sub	sp, sp, #24
  104470:	e50b0010 	str	r0, [fp, #-16]
  104474:	e50b1014 	str	r1, [fp, #-20]	; 0xffffffec
  104478:	e50b2018 	str	r2, [fp, #-24]	; 0xffffffe8
  10447c:	e50b301c 	str	r3, [fp, #-28]	; 0xffffffe4
  104480:	e51b3014 	ldr	r3, [fp, #-20]	; 0xffffffec
  104484:	e1a03303 	lsl	r3, r3, #6
  104488:	e2833e41 	add	r3, r3, #1040	; 0x410
  10448c:	e24b2008 	sub	r2, fp, #8
  104490:	e1a01003 	mov	r1, r3
  104494:	e51b0010 	ldr	r0, [fp, #-16]
  104498:	ebfffcce 	bl	1037d8 <axi_adc_read>
  10449c:	e51b3008 	ldr	r3, [fp, #-8]
  1044a0:	e6ff3073 	uxth	r3, r3
  1044a4:	e50b3008 	str	r3, [fp, #-8]
  1044a8:	e51b3018 	ldr	r3, [fp, #-24]	; 0xffffffe8
  1044ac:	e6ff3073 	uxth	r3, r3
  1044b0:	e1a03803 	lsl	r3, r3, #16
  1044b4:	e1a02003 	mov	r2, r3
  1044b8:	e51b3008 	ldr	r3, [fp, #-8]
  1044bc:	e1823003 	orr	r3, r2, r3
  1044c0:	e50b3008 	str	r3, [fp, #-8]
  1044c4:	e51b3014 	ldr	r3, [fp, #-20]	; 0xffffffec
  1044c8:	e1a03303 	lsl	r3, r3, #6
  1044cc:	e2833e41 	add	r3, r3, #1040	; 0x410
  1044d0:	e51b2008 	ldr	r2, [fp, #-8]
  1044d4:	e1a01003 	mov	r1, r3
  1044d8:	e51b0010 	ldr	r0, [fp, #-16]
  1044dc:	ebfffccd 	bl	103818 <axi_adc_write>
  1044e0:	e3a03000 	mov	r3, #0
  1044e4:	e1a00003 	mov	r0, r3
  1044e8:	e24bd004 	sub	sp, fp, #4
  1044ec:	e8bd8800 	pop	{fp, pc}

001044f0 <axi_adc_get_calib_bias>:
  1044f0:	e92d4800 	push	{fp, lr}
  1044f4:	e28db004 	add	fp, sp, #4
  1044f8:	e24dd018 	sub	sp, sp, #24
  1044fc:	e50b0010 	str	r0, [fp, #-16]
  104500:	e50b1014 	str	r1, [fp, #-20]	; 0xffffffec
  104504:	e50b2018 	str	r2, [fp, #-24]	; 0xffffffe8
  104508:	e50b301c 	str	r3, [fp, #-28]	; 0xffffffe4
  10450c:	e51b3014 	ldr	r3, [fp, #-20]	; 0xffffffec
  104510:	e1a03303 	lsl	r3, r3, #6
  104514:	e2833e41 	add	r3, r3, #1040	; 0x410
  104518:	e24b2008 	sub	r2, fp, #8
  10451c:	e1a01003 	mov	r1, r3
  104520:	e51b0010 	ldr	r0, [fp, #-16]
  104524:	ebfffcab 	bl	1037d8 <axi_adc_read>
  104528:	e51b3008 	ldr	r3, [fp, #-8]
  10452c:	e1a03823 	lsr	r3, r3, #16
  104530:	e6ff3073 	uxth	r3, r3
  104534:	e1a02003 	mov	r2, r3
  104538:	e51b3018 	ldr	r3, [fp, #-24]	; 0xffffffe8
  10453c:	e5832000 	str	r2, [r3]
  104540:	e3a03000 	mov	r3, #0
  104544:	e1a00003 	mov	r0, r3
  104548:	e24bd004 	sub	sp, fp, #4
  10454c:	e8bd8800 	pop	{fp, pc}

00104550 <axi_adc_update_active_channels>:
  104550:	e92d4800 	push	{fp, lr}
  104554:	e28db004 	add	fp, sp, #4
  104558:	e24dd018 	sub	sp, sp, #24
  10455c:	e50b0018 	str	r0, [fp, #-24]	; 0xffffffe8
  104560:	e50b101c 	str	r1, [fp, #-28]	; 0xffffffe4
  104564:	e51b3018 	ldr	r3, [fp, #-24]	; 0xffffffe8
  104568:	e5932018 	ldr	r2, [r3, #24]
  10456c:	e51b301c 	ldr	r3, [fp, #-28]	; 0xffffffe4
  104570:	e1520003 	cmp	r2, r3
  104574:	1a000001 	bne	104580 <axi_adc_update_active_channels+0x30>
  104578:	e3a03000 	mov	r3, #0
  10457c:	ea00002e 	b	10463c <axi_adc_update_active_channels+0xec>
  104580:	e51b3018 	ldr	r3, [fp, #-24]	; 0xffffffe8
  104584:	e51b201c 	ldr	r2, [fp, #-28]	; 0xffffffe4
  104588:	e5832018 	str	r2, [r3, #24]
  10458c:	e3a03000 	mov	r3, #0
  104590:	e50b3008 	str	r3, [fp, #-8]
  104594:	ea000021 	b	104620 <axi_adc_update_active_channels+0xd0>
  104598:	e51b3008 	ldr	r3, [fp, #-8]
  10459c:	e2833010 	add	r3, r3, #16
  1045a0:	e1a03303 	lsl	r3, r3, #6
  1045a4:	e24b2010 	sub	r2, fp, #16
  1045a8:	e1a01003 	mov	r1, r3
  1045ac:	e51b0018 	ldr	r0, [fp, #-24]	; 0xffffffe8
  1045b0:	ebfffc88 	bl	1037d8 <axi_adc_read>
  1045b4:	e51b3010 	ldr	r3, [fp, #-16]
  1045b8:	e3c33001 	bic	r3, r3, #1
  1045bc:	e50b300c 	str	r3, [fp, #-12]
  1045c0:	e51b301c 	ldr	r3, [fp, #-28]	; 0xffffffe4
  1045c4:	e2033001 	and	r3, r3, #1
  1045c8:	e3530000 	cmp	r3, #0
  1045cc:	0a000002 	beq	1045dc <axi_adc_update_active_channels+0x8c>
  1045d0:	e51b3010 	ldr	r3, [fp, #-16]
  1045d4:	e3833001 	orr	r3, r3, #1
  1045d8:	e50b300c 	str	r3, [fp, #-12]
  1045dc:	e51b3010 	ldr	r3, [fp, #-16]
  1045e0:	e51b200c 	ldr	r2, [fp, #-12]
  1045e4:	e1520003 	cmp	r2, r3
  1045e8:	0a000006 	beq	104608 <axi_adc_update_active_channels+0xb8>
  1045ec:	e51b3008 	ldr	r3, [fp, #-8]
  1045f0:	e2833010 	add	r3, r3, #16
  1045f4:	e1a03303 	lsl	r3, r3, #6
  1045f8:	e51b200c 	ldr	r2, [fp, #-12]
  1045fc:	e1a01003 	mov	r1, r3
  104600:	e51b0018 	ldr	r0, [fp, #-24]	; 0xffffffe8
  104604:	ebfffc83 	bl	103818 <axi_adc_write>
  104608:	e51b301c 	ldr	r3, [fp, #-28]	; 0xffffffe4
  10460c:	e1a030a3 	lsr	r3, r3, #1
  104610:	e50b301c 	str	r3, [fp, #-28]	; 0xffffffe4
  104614:	e51b3008 	ldr	r3, [fp, #-8]
  104618:	e2833001 	add	r3, r3, #1
  10461c:	e50b3008 	str	r3, [fp, #-8]
  104620:	e51b3018 	ldr	r3, [fp, #-24]	; 0xffffffe8
  104624:	e5d33008 	ldrb	r3, [r3, #8]
  104628:	e1a02003 	mov	r2, r3
  10462c:	e51b3008 	ldr	r3, [fp, #-8]
  104630:	e1520003 	cmp	r2, r3
  104634:	8affffd7 	bhi	104598 <axi_adc_update_active_channels+0x48>
  104638:	e3a03000 	mov	r3, #0
  10463c:	e1a00003 	mov	r0, r3
  104640:	e24bd004 	sub	sp, fp, #4
  104644:	e8bd8800 	pop	{fp, pc}

00104648 <axi_adc_init>:
  104648:	e92d4800 	push	{fp, lr}
  10464c:	e28db004 	add	fp, sp, #4
  104650:	e24dd020 	sub	sp, sp, #32
  104654:	e50b0020 	str	r0, [fp, #-32]	; 0xffffffe0
  104658:	e50b1024 	str	r1, [fp, #-36]	; 0xffffffdc
  10465c:	e3a00020 	mov	r0, #32
  104660:	eb004fb2 	bl	118530 <malloc>
  104664:	e1a03000 	mov	r3, r0
  104668:	e50b300c 	str	r3, [fp, #-12]
  10466c:	e51b300c 	ldr	r3, [fp, #-12]
  104670:	e3530000 	cmp	r3, #0
  104674:	1a000001 	bne	104680 <axi_adc_init+0x38>
  104678:	e3e03000 	mvn	r3, #0
  10467c:	ea00005a 	b	1047ec <axi_adc_init+0x1a4>
  104680:	e51b3024 	ldr	r3, [fp, #-36]	; 0xffffffdc
  104684:	e5932000 	ldr	r2, [r3]
  104688:	e51b300c 	ldr	r3, [fp, #-12]
  10468c:	e5832000 	str	r2, [r3]
  104690:	e51b3024 	ldr	r3, [fp, #-36]	; 0xffffffdc
  104694:	e5932004 	ldr	r2, [r3, #4]
  104698:	e51b300c 	ldr	r3, [fp, #-12]
  10469c:	e5832004 	str	r2, [r3, #4]
  1046a0:	e51b3024 	ldr	r3, [fp, #-36]	; 0xffffffdc
  1046a4:	e5d32008 	ldrb	r2, [r3, #8]
  1046a8:	e51b300c 	ldr	r3, [fp, #-12]
  1046ac:	e5c32008 	strb	r2, [r3, #8]
  1046b0:	e3a02000 	mov	r2, #0
  1046b4:	e3a01040 	mov	r1, #64	; 0x40
  1046b8:	e51b000c 	ldr	r0, [fp, #-12]
  1046bc:	ebfffc55 	bl	103818 <axi_adc_write>
  1046c0:	e3a02003 	mov	r2, #3
  1046c4:	e3a01040 	mov	r1, #64	; 0x40
  1046c8:	e51b000c 	ldr	r0, [fp, #-12]
  1046cc:	ebfffc51 	bl	103818 <axi_adc_write>
  1046d0:	e3a03000 	mov	r3, #0
  1046d4:	e54b3005 	strb	r3, [fp, #-5]
  1046d8:	ea000009 	b	104704 <axi_adc_init+0xbc>
  1046dc:	e55b3005 	ldrb	r3, [fp, #-5]
  1046e0:	e2833010 	add	r3, r3, #16
  1046e4:	e1a03303 	lsl	r3, r3, #6
  1046e8:	e3a02051 	mov	r2, #81	; 0x51
  1046ec:	e1a01003 	mov	r1, r3
  1046f0:	e51b000c 	ldr	r0, [fp, #-12]
  1046f4:	ebfffc47 	bl	103818 <axi_adc_write>
  1046f8:	e55b3005 	ldrb	r3, [fp, #-5]
  1046fc:	e2833001 	add	r3, r3, #1
  104700:	e54b3005 	strb	r3, [fp, #-5]
  104704:	e51b300c 	ldr	r3, [fp, #-12]
  104708:	e5d33008 	ldrb	r3, [r3, #8]
  10470c:	e55b2005 	ldrb	r2, [fp, #-5]
  104710:	e1520003 	cmp	r2, r3
  104714:	3afffff0 	bcc	1046dc <axi_adc_init+0x94>
  104718:	e3a00064 	mov	r0, #100	; 0x64
  10471c:	ebfff5ab 	bl	101dd0 <mdelay>
  104720:	e24b3010 	sub	r3, fp, #16
  104724:	e1a02003 	mov	r2, r3
  104728:	e3a0105c 	mov	r1, #92	; 0x5c
  10472c:	e51b000c 	ldr	r0, [fp, #-12]
  104730:	ebfffc28 	bl	1037d8 <axi_adc_read>
  104734:	e24b3014 	sub	r3, fp, #20
  104738:	e1a02003 	mov	r2, r3
  10473c:	e3a01054 	mov	r1, #84	; 0x54
  104740:	e51b000c 	ldr	r0, [fp, #-12]
  104744:	ebfffc23 	bl	1037d8 <axi_adc_read>
  104748:	e24b3018 	sub	r3, fp, #24
  10474c:	e1a02003 	mov	r2, r3
  104750:	e3a01058 	mov	r1, #88	; 0x58
  104754:	e51b000c 	ldr	r0, [fp, #-12]
  104758:	ebfffc1e 	bl	1037d8 <axi_adc_read>
  10475c:	e51b3014 	ldr	r3, [fp, #-20]	; 0xffffffec
  104760:	e51b2018 	ldr	r2, [fp, #-24]	; 0xffffffe8
  104764:	e0030392 	mul	r3, r2, r3
  104768:	e1a02003 	mov	r2, r3
  10476c:	e3a03000 	mov	r3, #0
  104770:	e51b100c 	ldr	r1, [fp, #-12]
  104774:	e1c121f0 	strd	r2, [r1, #16]
  104778:	e51b300c 	ldr	r3, [fp, #-12]
  10477c:	e1c321d0 	ldrd	r2, [r3, #16]
  104780:	e30f15e1 	movw	r1, #62945	; 0xf5e1
  104784:	e3401005 	movt	r1, #5
  104788:	e0000391 	mul	r0, r1, r3
  10478c:	e3a01000 	mov	r1, #0
  104790:	e0010291 	mul	r1, r1, r2
  104794:	e0800001 	add	r0, r0, r1
  104798:	e30f15e1 	movw	r1, #62945	; 0xf5e1
  10479c:	e3401005 	movt	r1, #5
  1047a0:	e0832192 	umull	r2, r3, r2, r1
  1047a4:	e0801003 	add	r1, r0, r3
  1047a8:	e1a03001 	mov	r3, r1
  1047ac:	e1a02422 	lsr	r2, r2, #8
  1047b0:	e1822c03 	orr	r2, r2, r3, lsl #24
  1047b4:	e1a03423 	lsr	r3, r3, #8
  1047b8:	e51b100c 	ldr	r1, [fp, #-12]
  1047bc:	e1c121f0 	strd	r2, [r1, #16]
  1047c0:	e51b300c 	ldr	r3, [fp, #-12]
  1047c4:	e5931000 	ldr	r1, [r3]
  1047c8:	e51b300c 	ldr	r3, [fp, #-12]
  1047cc:	e1c321d0 	ldrd	r2, [r3, #16]
  1047d0:	e3010c4c 	movw	r0, #7244	; 0x1c4c
  1047d4:	e3400012 	movt	r0, #18
  1047d8:	eb005195 	bl	118e34 <printf>
  1047dc:	e51b3020 	ldr	r3, [fp, #-32]	; 0xffffffe0
  1047e0:	e51b200c 	ldr	r2, [fp, #-12]
  1047e4:	e5832000 	str	r2, [r3]
  1047e8:	e3a03000 	mov	r3, #0
  1047ec:	e1a00003 	mov	r0, r3
  1047f0:	e24bd004 	sub	sp, fp, #4
  1047f4:	e8bd8800 	pop	{fp, pc}

001047f8 <axi_adc_remove>:
  1047f8:	e92d4800 	push	{fp, lr}
  1047fc:	e28db004 	add	fp, sp, #4
  104800:	e24dd008 	sub	sp, sp, #8
  104804:	e50b0008 	str	r0, [fp, #-8]
  104808:	e51b0008 	ldr	r0, [fp, #-8]
  10480c:	eb004f4d 	bl	118548 <free>
  104810:	e3a03000 	mov	r3, #0
  104814:	e1a00003 	mov	r0, r3
  104818:	e24bd004 	sub	sp, fp, #4
  10481c:	e8bd8800 	pop	{fp, pc}

00104820 <axi_dmac_read>:
  104820:	e92d4800 	push	{fp, lr}
  104824:	e28db004 	add	fp, sp, #4
  104828:	e24dd010 	sub	sp, sp, #16
  10482c:	e50b0008 	str	r0, [fp, #-8]
  104830:	e50b100c 	str	r1, [fp, #-12]
  104834:	e50b2010 	str	r2, [fp, #-16]
  104838:	e51b3008 	ldr	r3, [fp, #-8]
  10483c:	e5933004 	ldr	r3, [r3, #4]
  104840:	e51b2010 	ldr	r2, [fp, #-16]
  104844:	e51b100c 	ldr	r1, [fp, #-12]
  104848:	e1a00003 	mov	r0, r3
  10484c:	eb0000f3 	bl	104c20 <axi_io_read>
  104850:	e3a03000 	mov	r3, #0
  104854:	e1a00003 	mov	r0, r3
  104858:	e24bd004 	sub	sp, fp, #4
  10485c:	e8bd8800 	pop	{fp, pc}

00104860 <axi_dmac_write>:
  104860:	e92d4800 	push	{fp, lr}
  104864:	e28db004 	add	fp, sp, #4
  104868:	e24dd010 	sub	sp, sp, #16
  10486c:	e50b0008 	str	r0, [fp, #-8]
  104870:	e50b100c 	str	r1, [fp, #-12]
  104874:	e50b2010 	str	r2, [fp, #-16]
  104878:	e51b3008 	ldr	r3, [fp, #-8]
  10487c:	e5933004 	ldr	r3, [r3, #4]
  104880:	e51b2010 	ldr	r2, [fp, #-16]
  104884:	e51b100c 	ldr	r1, [fp, #-12]
  104888:	e1a00003 	mov	r0, r3
  10488c:	eb0000f4 	bl	104c64 <axi_io_write>
  104890:	e3a03000 	mov	r3, #0
  104894:	e1a00003 	mov	r0, r3
  104898:	e24bd004 	sub	sp, fp, #4
  10489c:	e8bd8800 	pop	{fp, pc}

001048a0 <axi_dmac_transfer>:
  1048a0:	e92d4800 	push	{fp, lr}
  1048a4:	e28db004 	add	fp, sp, #4
  1048a8:	e24dd020 	sub	sp, sp, #32
  1048ac:	e50b0018 	str	r0, [fp, #-24]	; 0xffffffe8
  1048b0:	e50b101c 	str	r1, [fp, #-28]	; 0xffffffe4
  1048b4:	e50b2020 	str	r2, [fp, #-32]	; 0xffffffe0
  1048b8:	e3a03000 	mov	r3, #0
  1048bc:	e50b3010 	str	r3, [fp, #-16]
  1048c0:	e51b3020 	ldr	r3, [fp, #-32]	; 0xffffffe0
  1048c4:	e3530000 	cmp	r3, #0
  1048c8:	1a000001 	bne	1048d4 <axi_dmac_transfer+0x34>
  1048cc:	e3a03000 	mov	r3, #0
  1048d0:	ea00007f 	b	104ad4 <axi_dmac_transfer+0x234>
  1048d4:	e3a02000 	mov	r2, #0
  1048d8:	e3a01b01 	mov	r1, #1024	; 0x400
  1048dc:	e51b0018 	ldr	r0, [fp, #-24]	; 0xffffffe8
  1048e0:	ebffffde 	bl	104860 <axi_dmac_write>
  1048e4:	e3a02001 	mov	r2, #1
  1048e8:	e3a01b01 	mov	r1, #1024	; 0x400
  1048ec:	e51b0018 	ldr	r0, [fp, #-24]	; 0xffffffe8
  1048f0:	ebffffda 	bl	104860 <axi_dmac_write>
  1048f4:	e24b3010 	sub	r3, fp, #16
  1048f8:	e1a02003 	mov	r2, r3
  1048fc:	e3a01b01 	mov	r1, #1024	; 0x400
  104900:	e51b0018 	ldr	r0, [fp, #-24]	; 0xffffffe8
  104904:	ebffffc5 	bl	104820 <axi_dmac_read>
  104908:	e3a02000 	mov	r2, #0
  10490c:	e3a01080 	mov	r1, #128	; 0x80
  104910:	e51b0018 	ldr	r0, [fp, #-24]	; 0xffffffe8
  104914:	ebffffd1 	bl	104860 <axi_dmac_write>
  104918:	e24b300c 	sub	r3, fp, #12
  10491c:	e1a02003 	mov	r2, r3
  104920:	e3a01084 	mov	r1, #132	; 0x84
  104924:	e51b0018 	ldr	r0, [fp, #-24]	; 0xffffffe8
  104928:	ebffffbc 	bl	104820 <axi_dmac_read>
  10492c:	e24b3008 	sub	r3, fp, #8
  104930:	e1a02003 	mov	r2, r3
  104934:	e3001404 	movw	r1, #1028	; 0x404
  104938:	e51b0018 	ldr	r0, [fp, #-24]	; 0xffffffe8
  10493c:	ebffffb7 	bl	104820 <axi_dmac_read>
  104940:	e24b300c 	sub	r3, fp, #12
  104944:	e1a02003 	mov	r2, r3
  104948:	e3a01084 	mov	r1, #132	; 0x84
  10494c:	e51b0018 	ldr	r0, [fp, #-24]	; 0xffffffe8
  104950:	ebffffb2 	bl	104820 <axi_dmac_read>
  104954:	e51b300c 	ldr	r3, [fp, #-12]
  104958:	e1a02003 	mov	r2, r3
  10495c:	e3a01084 	mov	r1, #132	; 0x84
  104960:	e51b0018 	ldr	r0, [fp, #-24]	; 0xffffffe8
  104964:	ebffffbd 	bl	104860 <axi_dmac_write>
  104968:	e51b3018 	ldr	r3, [fp, #-24]	; 0xffffffe8
  10496c:	e5d33008 	ldrb	r3, [r3, #8]
  104970:	e3530000 	cmp	r3, #0
  104974:	0a000002 	beq	104984 <axi_dmac_transfer+0xe4>
  104978:	e3530001 	cmp	r3, #1
  10497c:	0a000009 	beq	1049a8 <axi_dmac_transfer+0x108>
  104980:	ea000011 	b	1049cc <axi_dmac_transfer+0x12c>
  104984:	e51b201c 	ldr	r2, [fp, #-28]	; 0xffffffe4
  104988:	e3a01e41 	mov	r1, #1040	; 0x410
  10498c:	e51b0018 	ldr	r0, [fp, #-24]	; 0xffffffe8
  104990:	ebffffb2 	bl	104860 <axi_dmac_write>
  104994:	e3a02000 	mov	r2, #0
  104998:	e3a01e42 	mov	r1, #1056	; 0x420
  10499c:	e51b0018 	ldr	r0, [fp, #-24]	; 0xffffffe8
  1049a0:	ebffffae 	bl	104860 <axi_dmac_write>
  1049a4:	ea00000a 	b	1049d4 <axi_dmac_transfer+0x134>
  1049a8:	e51b201c 	ldr	r2, [fp, #-28]	; 0xffffffe4
  1049ac:	e3001414 	movw	r1, #1044	; 0x414
  1049b0:	e51b0018 	ldr	r0, [fp, #-24]	; 0xffffffe8
  1049b4:	ebffffa9 	bl	104860 <axi_dmac_write>
  1049b8:	e3a02000 	mov	r2, #0
  1049bc:	e3001424 	movw	r1, #1060	; 0x424
  1049c0:	e51b0018 	ldr	r0, [fp, #-24]	; 0xffffffe8
  1049c4:	ebffffa5 	bl	104860 <axi_dmac_write>
  1049c8:	ea000001 	b	1049d4 <axi_dmac_transfer+0x134>
  1049cc:	e3e03000 	mvn	r3, #0
  1049d0:	ea00003f 	b	104ad4 <axi_dmac_transfer+0x234>
  1049d4:	e51b3020 	ldr	r3, [fp, #-32]	; 0xffffffe0
  1049d8:	e2433001 	sub	r3, r3, #1
  1049dc:	e1a02003 	mov	r2, r3
  1049e0:	e3001418 	movw	r1, #1048	; 0x418
  1049e4:	e51b0018 	ldr	r0, [fp, #-24]	; 0xffffffe8
  1049e8:	ebffff9c 	bl	104860 <axi_dmac_write>
  1049ec:	e3a02000 	mov	r2, #0
  1049f0:	e300141c 	movw	r1, #1052	; 0x41c
  1049f4:	e51b0018 	ldr	r0, [fp, #-24]	; 0xffffffe8
  1049f8:	ebffff98 	bl	104860 <axi_dmac_write>
  1049fc:	e51b3018 	ldr	r3, [fp, #-24]	; 0xffffffe8
  104a00:	e593300c 	ldr	r3, [r3, #12]
  104a04:	e1a02003 	mov	r2, r3
  104a08:	e300140c 	movw	r1, #1036	; 0x40c
  104a0c:	e51b0018 	ldr	r0, [fp, #-24]	; 0xffffffe8
  104a10:	ebffff92 	bl	104860 <axi_dmac_write>
  104a14:	e3a02001 	mov	r2, #1
  104a18:	e3001408 	movw	r1, #1032	; 0x408
  104a1c:	e51b0018 	ldr	r0, [fp, #-24]	; 0xffffffe8
  104a20:	ebffff8e 	bl	104860 <axi_dmac_write>
  104a24:	e51b3018 	ldr	r3, [fp, #-24]	; 0xffffffe8
  104a28:	e593300c 	ldr	r3, [r3, #12]
  104a2c:	e2033001 	and	r3, r3, #1
  104a30:	e3530000 	cmp	r3, #0
  104a34:	0a000001 	beq	104a40 <axi_dmac_transfer+0x1a0>
  104a38:	e3a03000 	mov	r3, #0
  104a3c:	ea000024 	b	104ad4 <axi_dmac_transfer+0x234>
  104a40:	e24b300c 	sub	r3, fp, #12
  104a44:	e1a02003 	mov	r2, r3
  104a48:	e3001408 	movw	r1, #1032	; 0x408
  104a4c:	e51b0018 	ldr	r0, [fp, #-24]	; 0xffffffe8
  104a50:	ebffff72 	bl	104820 <axi_dmac_read>
  104a54:	e51b300c 	ldr	r3, [fp, #-12]
  104a58:	e3530001 	cmp	r3, #1
  104a5c:	0afffff7 	beq	104a40 <axi_dmac_transfer+0x1a0>
  104a60:	e24b300c 	sub	r3, fp, #12
  104a64:	e1a02003 	mov	r2, r3
  104a68:	e3a01084 	mov	r1, #132	; 0x84
  104a6c:	e51b0018 	ldr	r0, [fp, #-24]	; 0xffffffe8
  104a70:	ebffff6a 	bl	104820 <axi_dmac_read>
  104a74:	e51b300c 	ldr	r3, [fp, #-12]
  104a78:	e3530003 	cmp	r3, #3
  104a7c:	1afffff7 	bne	104a60 <axi_dmac_transfer+0x1c0>
  104a80:	e51b300c 	ldr	r3, [fp, #-12]
  104a84:	e1a02003 	mov	r2, r3
  104a88:	e3a01084 	mov	r1, #132	; 0x84
  104a8c:	e51b0018 	ldr	r0, [fp, #-24]	; 0xffffffe8
  104a90:	ebffff72 	bl	104860 <axi_dmac_write>
  104a94:	e24b300c 	sub	r3, fp, #12
  104a98:	e1a02003 	mov	r2, r3
  104a9c:	e3001428 	movw	r1, #1064	; 0x428
  104aa0:	e51b0018 	ldr	r0, [fp, #-24]	; 0xffffffe8
  104aa4:	ebffff5d 	bl	104820 <axi_dmac_read>
  104aa8:	e51b3008 	ldr	r3, [fp, #-8]
  104aac:	e3a02001 	mov	r2, #1
  104ab0:	e1a02312 	lsl	r2, r2, r3
  104ab4:	e51b300c 	ldr	r3, [fp, #-12]
  104ab8:	e0022003 	and	r2, r2, r3
  104abc:	e51b3008 	ldr	r3, [fp, #-8]
  104ac0:	e3a01001 	mov	r1, #1
  104ac4:	e1a03311 	lsl	r3, r1, r3
  104ac8:	e1520003 	cmp	r2, r3
  104acc:	1afffff0 	bne	104a94 <axi_dmac_transfer+0x1f4>
  104ad0:	e3a03000 	mov	r3, #0
  104ad4:	e1a00003 	mov	r0, r3
  104ad8:	e24bd004 	sub	sp, fp, #4
  104adc:	e8bd8800 	pop	{fp, pc}

00104ae0 <axi_dmac_init>:
  104ae0:	e92d4800 	push	{fp, lr}
  104ae4:	e28db004 	add	fp, sp, #4
  104ae8:	e24dd010 	sub	sp, sp, #16
  104aec:	e50b0010 	str	r0, [fp, #-16]
  104af0:	e50b1014 	str	r1, [fp, #-20]	; 0xffffffec
  104af4:	e3a00010 	mov	r0, #16
  104af8:	eb004e8c 	bl	118530 <malloc>
  104afc:	e1a03000 	mov	r3, r0
  104b00:	e50b3008 	str	r3, [fp, #-8]
  104b04:	e51b3008 	ldr	r3, [fp, #-8]
  104b08:	e3530000 	cmp	r3, #0
  104b0c:	1a000001 	bne	104b18 <axi_dmac_init+0x38>
  104b10:	e3e03000 	mvn	r3, #0
  104b14:	ea000013 	b	104b68 <axi_dmac_init+0x88>
  104b18:	e51b3014 	ldr	r3, [fp, #-20]	; 0xffffffec
  104b1c:	e5932000 	ldr	r2, [r3]
  104b20:	e51b3008 	ldr	r3, [fp, #-8]
  104b24:	e5832000 	str	r2, [r3]
  104b28:	e51b3014 	ldr	r3, [fp, #-20]	; 0xffffffec
  104b2c:	e5932004 	ldr	r2, [r3, #4]
  104b30:	e51b3008 	ldr	r3, [fp, #-8]
  104b34:	e5832004 	str	r2, [r3, #4]
  104b38:	e51b3014 	ldr	r3, [fp, #-20]	; 0xffffffec
  104b3c:	e5d32008 	ldrb	r2, [r3, #8]
  104b40:	e51b3008 	ldr	r3, [fp, #-8]
  104b44:	e5c32008 	strb	r2, [r3, #8]
  104b48:	e51b3014 	ldr	r3, [fp, #-20]	; 0xffffffec
  104b4c:	e593200c 	ldr	r2, [r3, #12]
  104b50:	e51b3008 	ldr	r3, [fp, #-8]
  104b54:	e583200c 	str	r2, [r3, #12]
  104b58:	e51b3010 	ldr	r3, [fp, #-16]
  104b5c:	e51b2008 	ldr	r2, [fp, #-8]
  104b60:	e5832000 	str	r2, [r3]
  104b64:	e3a03000 	mov	r3, #0
  104b68:	e1a00003 	mov	r0, r3
  104b6c:	e24bd004 	sub	sp, fp, #4
  104b70:	e8bd8800 	pop	{fp, pc}

00104b74 <axi_wait>:
  104b74:	e92d4800 	push	{fp, lr}
  104b78:	e28db004 	add	fp, sp, #4
  104b7c:	e24dd010 	sub	sp, sp, #16
  104b80:	e50b0010 	str	r0, [fp, #-16]
  104b84:	e24b3008 	sub	r3, fp, #8
  104b88:	e1a02003 	mov	r2, r3
  104b8c:	e3001404 	movw	r1, #1028	; 0x404
  104b90:	e51b0010 	ldr	r0, [fp, #-16]
  104b94:	ebffff21 	bl	104820 <axi_dmac_read>
  104b98:	e24b300c 	sub	r3, fp, #12
  104b9c:	e1a02003 	mov	r2, r3
  104ba0:	e3001408 	movw	r1, #1032	; 0x408
  104ba4:	e51b0010 	ldr	r0, [fp, #-16]
  104ba8:	ebffff1c 	bl	104820 <axi_dmac_read>
  104bac:	e51b300c 	ldr	r3, [fp, #-12]
  104bb0:	e3530001 	cmp	r3, #1
  104bb4:	0afffff7 	beq	104b98 <axi_wait+0x24>
  104bb8:	e24b300c 	sub	r3, fp, #12
  104bbc:	e1a02003 	mov	r2, r3
  104bc0:	e3a01084 	mov	r1, #132	; 0x84
  104bc4:	e51b0010 	ldr	r0, [fp, #-16]
  104bc8:	ebffff14 	bl	104820 <axi_dmac_read>
  104bcc:	e51b300c 	ldr	r3, [fp, #-12]
  104bd0:	e3530003 	cmp	r3, #3
  104bd4:	1afffff7 	bne	104bb8 <axi_wait+0x44>
  104bd8:	e320f000 	nop	{0}
  104bdc:	e24bd004 	sub	sp, fp, #4
  104be0:	e8bd8800 	pop	{fp, pc}

00104be4 <axi_dmac_remove>:
  104be4:	e92d4800 	push	{fp, lr}
  104be8:	e28db004 	add	fp, sp, #4
  104bec:	e24dd008 	sub	sp, sp, #8
  104bf0:	e50b0008 	str	r0, [fp, #-8]
  104bf4:	e51b3008 	ldr	r3, [fp, #-8]
  104bf8:	e3530000 	cmp	r3, #0
  104bfc:	1a000001 	bne	104c08 <axi_dmac_remove+0x24>
  104c00:	e3e03000 	mvn	r3, #0
  104c04:	ea000002 	b	104c14 <axi_dmac_remove+0x30>
  104c08:	e51b0008 	ldr	r0, [fp, #-8]
  104c0c:	eb004e4d 	bl	118548 <free>
  104c10:	e3a03000 	mov	r3, #0
  104c14:	e1a00003 	mov	r0, r3
  104c18:	e24bd004 	sub	sp, fp, #4
  104c1c:	e8bd8800 	pop	{fp, pc}

00104c20 <axi_io_read>:
  104c20:	e52db004 	push	{fp}		; (str fp, [sp, #-4]!)
  104c24:	e28db000 	add	fp, sp, #0
  104c28:	e24dd014 	sub	sp, sp, #20
  104c2c:	e50b0008 	str	r0, [fp, #-8]
  104c30:	e50b100c 	str	r1, [fp, #-12]
  104c34:	e50b2010 	str	r2, [fp, #-16]
  104c38:	e51b2008 	ldr	r2, [fp, #-8]
  104c3c:	e51b300c 	ldr	r3, [fp, #-12]
  104c40:	e0823003 	add	r3, r2, r3
  104c44:	e5932000 	ldr	r2, [r3]
  104c48:	e51b3010 	ldr	r3, [fp, #-16]
  104c4c:	e5832000 	str	r2, [r3]
  104c50:	e3a03000 	mov	r3, #0
  104c54:	e1a00003 	mov	r0, r3
  104c58:	e24bd000 	sub	sp, fp, #0
  104c5c:	e49db004 	pop	{fp}		; (ldr fp, [sp], #4)
  104c60:	e12fff1e 	bx	lr

00104c64 <axi_io_write>:
  104c64:	e52db004 	push	{fp}		; (str fp, [sp, #-4]!)
  104c68:	e28db000 	add	fp, sp, #0
  104c6c:	e24dd014 	sub	sp, sp, #20
  104c70:	e50b0008 	str	r0, [fp, #-8]
  104c74:	e50b100c 	str	r1, [fp, #-12]
  104c78:	e50b2010 	str	r2, [fp, #-16]
  104c7c:	e51b2008 	ldr	r2, [fp, #-8]
  104c80:	e51b300c 	ldr	r3, [fp, #-12]
  104c84:	e0823003 	add	r3, r2, r3
  104c88:	e1a02003 	mov	r2, r3
  104c8c:	e51b3010 	ldr	r3, [fp, #-16]
  104c90:	e5823000 	str	r3, [r2]
  104c94:	e3a03000 	mov	r3, #0
  104c98:	e1a00003 	mov	r0, r3
  104c9c:	e24bd000 	sub	sp, fp, #0
  104ca0:	e49db004 	pop	{fp}		; (ldr fp, [sp], #4)
  104ca4:	e12fff1e 	bx	lr

00104ca8 <_close>:
  104ca8:	e52db004 	push	{fp}		; (str fp, [sp, #-4]!)
  104cac:	e28db000 	add	fp, sp, #0
  104cb0:	e24dd00c 	sub	sp, sp, #12
  104cb4:	e50b0008 	str	r0, [fp, #-8]
  104cb8:	e51b3008 	ldr	r3, [fp, #-8]
  104cbc:	e3530001 	cmp	r3, #1
  104cc0:	1a000001 	bne	104ccc <_close+0x24>
  104cc4:	e3a03000 	mov	r3, #0
  104cc8:	ea000000 	b	104cd0 <_close+0x28>
  104ccc:	e3e03000 	mvn	r3, #0
  104cd0:	e1a00003 	mov	r0, r3
  104cd4:	e24bd000 	sub	sp, fp, #0
  104cd8:	e49db004 	pop	{fp}		; (ldr fp, [sp], #4)
  104cdc:	e12fff1e 	bx	lr

00104ce0 <_fstat>:
  104ce0:	e52db004 	push	{fp}		; (str fp, [sp, #-4]!)
  104ce4:	e28db000 	add	fp, sp, #0
  104ce8:	e24dd00c 	sub	sp, sp, #12
  104cec:	e50b0008 	str	r0, [fp, #-8]
  104cf0:	e50b100c 	str	r1, [fp, #-12]
  104cf4:	e51b3008 	ldr	r3, [fp, #-8]
  104cf8:	e3530001 	cmp	r3, #1
  104cfc:	1a000001 	bne	104d08 <_fstat+0x28>
  104d00:	e3a03000 	mov	r3, #0
  104d04:	ea000000 	b	104d0c <_fstat+0x2c>
  104d08:	e3e03000 	mvn	r3, #0
  104d0c:	e1a00003 	mov	r0, r3
  104d10:	e24bd000 	sub	sp, fp, #0
  104d14:	e49db004 	pop	{fp}		; (ldr fp, [sp], #4)
  104d18:	e12fff1e 	bx	lr

00104d1c <_isatty>:
  104d1c:	e52db004 	push	{fp}		; (str fp, [sp, #-4]!)
  104d20:	e28db000 	add	fp, sp, #0
  104d24:	e24dd00c 	sub	sp, sp, #12
  104d28:	e50b0008 	str	r0, [fp, #-8]
  104d2c:	e51b3008 	ldr	r3, [fp, #-8]
  104d30:	e3530001 	cmp	r3, #1
  104d34:	1a000001 	bne	104d40 <_isatty+0x24>
  104d38:	e3a03001 	mov	r3, #1
  104d3c:	ea000000 	b	104d44 <_isatty+0x28>
  104d40:	e3e03000 	mvn	r3, #0
  104d44:	e1a00003 	mov	r0, r3
  104d48:	e24bd000 	sub	sp, fp, #0
  104d4c:	e49db004 	pop	{fp}		; (ldr fp, [sp], #4)
  104d50:	e12fff1e 	bx	lr

00104d54 <_lseek>:
  104d54:	e52db004 	push	{fp}		; (str fp, [sp, #-4]!)
  104d58:	e28db000 	add	fp, sp, #0
  104d5c:	e24dd014 	sub	sp, sp, #20
  104d60:	e50b0008 	str	r0, [fp, #-8]
  104d64:	e50b100c 	str	r1, [fp, #-12]
  104d68:	e50b2010 	str	r2, [fp, #-16]
  104d6c:	e51b3008 	ldr	r3, [fp, #-8]
  104d70:	e3530001 	cmp	r3, #1
  104d74:	1a000001 	bne	104d80 <_lseek+0x2c>
  104d78:	e3a03000 	mov	r3, #0
  104d7c:	ea000000 	b	104d84 <_lseek+0x30>
  104d80:	e3e03000 	mvn	r3, #0
  104d84:	e1a00003 	mov	r0, r3
  104d88:	e24bd000 	sub	sp, fp, #0
  104d8c:	e49db004 	pop	{fp}		; (ldr fp, [sp], #4)
  104d90:	e12fff1e 	bx	lr

00104d94 <_read>:
  104d94:	e52db004 	push	{fp}		; (str fp, [sp, #-4]!)
  104d98:	e28db000 	add	fp, sp, #0
  104d9c:	e24dd014 	sub	sp, sp, #20
  104da0:	e50b0008 	str	r0, [fp, #-8]
  104da4:	e50b100c 	str	r1, [fp, #-12]
  104da8:	e50b2010 	str	r2, [fp, #-16]
  104dac:	e3e03000 	mvn	r3, #0
  104db0:	e1a00003 	mov	r0, r3
  104db4:	e24bd000 	sub	sp, fp, #0
  104db8:	e49db004 	pop	{fp}		; (ldr fp, [sp], #4)
  104dbc:	e12fff1e 	bx	lr

00104dc0 <_write>:
  104dc0:	e52db004 	push	{fp}		; (str fp, [sp, #-4]!)
  104dc4:	e28db000 	add	fp, sp, #0
  104dc8:	e24dd01c 	sub	sp, sp, #28
  104dcc:	e50b0010 	str	r0, [fp, #-16]
  104dd0:	e50b1014 	str	r1, [fp, #-20]	; 0xffffffec
  104dd4:	e50b2018 	str	r2, [fp, #-24]	; 0xffffffe8
  104dd8:	e50b301c 	str	r3, [fp, #-28]	; 0xffffffe4
  104ddc:	e51b3010 	ldr	r3, [fp, #-16]
  104de0:	e3530001 	cmp	r3, #1
  104de4:	0a000001 	beq	104df0 <_write+0x30>
  104de8:	e3e03000 	mvn	r3, #0
  104dec:	ea000019 	b	104e58 <_write+0x98>
  104df0:	e3a03000 	mov	r3, #0
  104df4:	e50b3008 	str	r3, [fp, #-8]
  104df8:	ea000011 	b	104e44 <_write+0x84>
  104dfc:	e320f000 	nop	{0}
  104e00:	e3023014 	movw	r3, #8212	; 0x2014
  104e04:	e34f3fc0 	movt	r3, #65472	; 0xffc0
  104e08:	e5933000 	ldr	r3, [r3]
  104e0c:	e1a032a3 	lsr	r3, r3, #5
  104e10:	e2033001 	and	r3, r3, #1
  104e14:	e3530001 	cmp	r3, #1
  104e18:	1afffff8 	bne	104e00 <_write+0x40>
  104e1c:	e3a03a02 	mov	r3, #8192	; 0x2000
  104e20:	e34f3fc0 	movt	r3, #65472	; 0xffc0
  104e24:	e51b2008 	ldr	r2, [fp, #-8]
  104e28:	e51b1014 	ldr	r1, [fp, #-20]	; 0xffffffec
  104e2c:	e0812002 	add	r2, r1, r2
  104e30:	e5d22000 	ldrb	r2, [r2]
  104e34:	e5832000 	str	r2, [r3]
  104e38:	e51b3008 	ldr	r3, [fp, #-8]
  104e3c:	e2833001 	add	r3, r3, #1
  104e40:	e50b3008 	str	r3, [fp, #-8]
  104e44:	e51b2008 	ldr	r2, [fp, #-8]
  104e48:	e51b3018 	ldr	r3, [fp, #-24]	; 0xffffffe8
  104e4c:	e1520003 	cmp	r2, r3
  104e50:	3affffe9 	bcc	104dfc <_write+0x3c>
  104e54:	e51b3018 	ldr	r3, [fp, #-24]	; 0xffffffe8
  104e58:	e1a00003 	mov	r0, r3
  104e5c:	e24bd000 	sub	sp, fp, #0
  104e60:	e49db004 	pop	{fp}		; (ldr fp, [sp], #4)
  104e64:	e12fff1e 	bx	lr

00104e68 <enable_all_caches>:
  104e68:	e52de004 	push	{lr}		; (str lr, [sp, #-4]!)
  104e6c:	eb000005 	bl	104e88 <enable_MMU>
  104e70:	eb000050 	bl	104fb8 <initialize_L2C>
  104e74:	eb00009f 	bl	1050f8 <enable_L1_D_side_prefetch>
  104e78:	eb0000a2 	bl	105108 <enable_L2_prefetch_hint>
  104e7c:	eb0000b1 	bl	105148 <enable_SCU>
  104e80:	eb000065 	bl	10501c <enable_caches>
  104e84:	e49df004 	pop	{pc}		; (ldr pc, [sp], #4)

00104e88 <enable_MMU>:
  104e88:	e92d4eb0 	push	{r4, r5, r7, r9, sl, fp, lr}
  104e8c:	e59f0378 	ldr	r0, [pc, #888]	; 10520c <invalidate_and_flush+0x9c>
  104e90:	e3a01000 	mov	r1, #0
  104e94:	e5801100 	str	r1, [r0, #256]	; 0x100
  104e98:	ee110f10 	mrc	15, 0, r0, cr1, cr0, {0}
  104e9c:	e3c00a01 	bic	r0, r0, #4096	; 0x1000
  104ea0:	e3c00004 	bic	r0, r0, #4
  104ea4:	e3c00001 	bic	r0, r0, #1
  104ea8:	e3c00b02 	bic	r0, r0, #2048	; 0x800
  104eac:	ee010f10 	mcr	15, 0, r0, cr1, cr0, {0}
  104eb0:	e3a00000 	mov	r0, #0
  104eb4:	ee080f17 	mcr	15, 0, r0, cr8, cr7, {0}
  104eb8:	ee070fd5 	mcr	15, 0, r0, cr7, cr5, {6}
  104ebc:	ee300f30 	mrc	15, 1, r0, cr0, cr0, {1}
  104ec0:	e3100003 	tst	r0, #3
  104ec4:	e3a00000 	mov	r0, #0
  104ec8:	1e070f15 	mcrne	15, 0, r0, cr7, cr5, {0}
  104ecc:	ee300f30 	mrc	15, 1, r0, cr0, cr0, {1}
  104ed0:	e2103407 	ands	r3, r0, #117440512	; 0x7000000
  104ed4:	e1a03ba3 	lsr	r3, r3, #23
  104ed8:	0a00001a 	beq	104f48 <Finished>
  104edc:	e3a0a000 	mov	sl, #0

00104ee0 <Loop1>:
  104ee0:	e08a20aa 	add	r2, sl, sl, lsr #1
  104ee4:	e1a01230 	lsr	r1, r0, r2
  104ee8:	e2011007 	and	r1, r1, #7
  104eec:	e3510002 	cmp	r1, #2
  104ef0:	ba000011 	blt	104f3c <Skip>
  104ef4:	ee40af10 	mcr	15, 2, sl, cr0, cr0, {0}
  104ef8:	f57ff06f 	isb	sy
  104efc:	ee301f10 	mrc	15, 1, r1, cr0, cr0, {0}
  104f00:	e2012007 	and	r2, r1, #7
  104f04:	e2822004 	add	r2, r2, #4
  104f08:	e59f4300 	ldr	r4, [pc, #768]	; 105210 <invalidate_and_flush+0xa0>
  104f0c:	e01441a1 	ands	r4, r4, r1, lsr #3
  104f10:	e16f5f14 	clz	r5, r4
  104f14:	e59f72f8 	ldr	r7, [pc, #760]	; 105214 <invalidate_and_flush+0xa4>
  104f18:	e01776a1 	ands	r7, r7, r1, lsr #13

00104f1c <Loop2>:
  104f1c:	e1a09004 	mov	r9, r4

00104f20 <Loop3>:
  104f20:	e18ab519 	orr	fp, sl, r9, lsl r5
  104f24:	e18bb217 	orr	fp, fp, r7, lsl r2
  104f28:	ee07bf56 	mcr	15, 0, fp, cr7, cr6, {2}
  104f2c:	e2599001 	subs	r9, r9, #1
  104f30:	aafffffa 	bge	104f20 <Loop3>
  104f34:	e2577001 	subs	r7, r7, #1
  104f38:	aafffff7 	bge	104f1c <Loop2>

00104f3c <Skip>:
  104f3c:	e28aa002 	add	sl, sl, #2
  104f40:	e153000a 	cmp	r3, sl
  104f44:	caffffe5 	bgt	104ee0 <Loop1>

00104f48 <Finished>:
  104f48:	e3a00000 	mov	r0, #0
  104f4c:	ee070fd5 	mcr	15, 0, r0, cr7, cr5, {6}
  104f50:	e3a00000 	mov	r0, #0
  104f54:	ee020f50 	mcr	15, 0, r0, cr2, cr0, {2}
  104f58:	e59f02b8 	ldr	r0, [pc, #696]	; 105218 <invalidate_and_flush+0xa8>
  104f5c:	e3a01008 	mov	r1, #8
  104f60:	e3811040 	orr	r1, r1, #64	; 0x40
  104f64:	e1800001 	orr	r0, r0, r1
  104f68:	ee020f10 	mcr	15, 0, r0, cr2, cr0, {0}
  104f6c:	e59f02a4 	ldr	r0, [pc, #676]	; 105218 <invalidate_and_flush+0xa8>
  104f70:	e59f12a4 	ldr	r1, [pc, #676]	; 10521c <invalidate_and_flush+0xac>

00104f74 <init_ttb_1>:
  104f74:	e3510b02 	cmp	r1, #2048	; 0x800
  104f78:	459f22a0 	ldrmi	r2, [pc, #672]	; 105220 <invalidate_and_flush+0xb0>
  104f7c:	559f22a0 	ldrpl	r2, [pc, #672]	; 105224 <invalidate_and_flush+0xb4>
  104f80:	e1823a01 	orr	r3, r2, r1, lsl #20
  104f84:	e7803101 	str	r3, [r0, r1, lsl #2]
  104f88:	e2511001 	subs	r1, r1, #1
  104f8c:	5afffff8 	bpl	104f74 <init_ttb_1>
  104f90:	ee130f10 	mrc	15, 0, r0, cr3, cr0, {0}
  104f94:	e3e00000 	mvn	r0, #0
  104f98:	ee030f10 	mcr	15, 0, r0, cr3, cr0, {0}
  104f9c:	ee110f10 	mrc	15, 0, r0, cr1, cr0, {0}
  104fa0:	e3c00a01 	bic	r0, r0, #4096	; 0x1000
  104fa4:	e3c00004 	bic	r0, r0, #4
  104fa8:	e3c00002 	bic	r0, r0, #2
  104fac:	e3800001 	orr	r0, r0, #1
  104fb0:	ee010f10 	mcr	15, 0, r0, cr1, cr0, {0}
  104fb4:	e8bd8eb0 	pop	{r4, r5, r7, r9, sl, fp, pc}

00104fb8 <initialize_L2C>:
  104fb8:	e59f024c 	ldr	r0, [pc, #588]	; 10520c <invalidate_and_flush+0x9c>
  104fbc:	e3a01000 	mov	r1, #0
  104fc0:	e5801100 	str	r1, [r0, #256]	; 0x100
  104fc4:	e3a01806 	mov	r1, #393216	; 0x60000
  104fc8:	e3811202 	orr	r1, r1, #536870912	; 0x20000000
  104fcc:	e3811201 	orr	r1, r1, #268435456	; 0x10000000
  104fd0:	e5801104 	str	r1, [r0, #260]	; 0x104
  104fd4:	e3a01000 	mov	r1, #0
  104fd8:	e5801108 	str	r1, [r0, #264]	; 0x108
  104fdc:	e3a01000 	mov	r1, #0
  104fe0:	e580110c 	str	r1, [r0, #268]	; 0x10c
  104fe4:	e3a010ff 	mov	r1, #255	; 0xff
  104fe8:	e580177c 	str	r1, [r0, #1916]	; 0x77c

00104fec <poll_invalidate>:
  104fec:	e590177c 	ldr	r1, [r0, #1916]	; 0x77c
  104ff0:	e3110001 	tst	r1, #1
  104ff4:	1afffffc 	bne	104fec <poll_invalidate>
  104ff8:	e3a01007 	mov	r1, #7
  104ffc:	e5801200 	str	r1, [r0, #512]	; 0x200
  105000:	e3a01008 	mov	r1, #8
  105004:	e5801204 	str	r1, [r0, #516]	; 0x204
  105008:	e3a0100c 	mov	r1, #12
  10500c:	e5801208 	str	r1, [r0, #520]	; 0x208
  105010:	e3a01000 	mov	r1, #0
  105014:	e5801100 	str	r1, [r0, #256]	; 0x100
  105018:	e12fff1e 	bx	lr

0010501c <enable_caches>:
  10501c:	ee110f10 	mrc	15, 0, r0, cr1, cr0, {0}
  105020:	e3800a01 	orr	r0, r0, #4096	; 0x1000
  105024:	e3800004 	orr	r0, r0, #4
  105028:	e3800b02 	orr	r0, r0, #2048	; 0x800
  10502c:	ee010f10 	mcr	15, 0, r0, cr1, cr0, {0}
  105030:	e59f01d4 	ldr	r0, [pc, #468]	; 10520c <invalidate_and_flush+0x9c>
  105034:	e3a01001 	mov	r1, #1
  105038:	e5801100 	str	r1, [r0, #256]	; 0x100
  10503c:	e12fff1e 	bx	lr

00105040 <enable_L1_D>:
  105040:	ee110f10 	mrc	15, 0, r0, cr1, cr0, {0}
  105044:	e3800004 	orr	r0, r0, #4
  105048:	ee010f10 	mcr	15, 0, r0, cr1, cr0, {0}
  10504c:	e12fff1e 	bx	lr

00105050 <enable_L1_I>:
  105050:	ee110f10 	mrc	15, 0, r0, cr1, cr0, {0}
  105054:	e3800a01 	orr	r0, r0, #4096	; 0x1000
  105058:	ee010f10 	mcr	15, 0, r0, cr1, cr0, {0}
  10505c:	e12fff1e 	bx	lr

00105060 <enable_branch_prediction>:
  105060:	ee110f10 	mrc	15, 0, r0, cr1, cr0, {0}
  105064:	e3800b02 	orr	r0, r0, #2048	; 0x800
  105068:	ee010f10 	mcr	15, 0, r0, cr1, cr0, {0}
  10506c:	e12fff1e 	bx	lr

00105070 <enable_L2>:
  105070:	e59f0194 	ldr	r0, [pc, #404]	; 10520c <invalidate_and_flush+0x9c>
  105074:	e3a01001 	mov	r1, #1
  105078:	e5801100 	str	r1, [r0, #256]	; 0x100
  10507c:	e12fff1e 	bx	lr

00105080 <enable_store_buffer_device_limitation>:
  105080:	e59f0184 	ldr	r0, [pc, #388]	; 10520c <invalidate_and_flush+0x9c>
  105084:	e3a01000 	mov	r1, #0
  105088:	e5801100 	str	r1, [r0, #256]	; 0x100
  10508c:	e5901104 	ldr	r1, [r0, #260]	; 0x104
  105090:	e3811b02 	orr	r1, r1, #2048	; 0x800
  105094:	e5801104 	str	r1, [r0, #260]	; 0x104
  105098:	e3a01001 	mov	r1, #1
  10509c:	e5801100 	str	r1, [r0, #256]	; 0x100
  1050a0:	e12fff1e 	bx	lr

001050a4 <enable_early_BRESP>:
  1050a4:	e59f0160 	ldr	r0, [pc, #352]	; 10520c <invalidate_and_flush+0x9c>
  1050a8:	e3a01000 	mov	r1, #0
  1050ac:	e5801100 	str	r1, [r0, #256]	; 0x100
  1050b0:	e5901104 	ldr	r1, [r0, #260]	; 0x104
  1050b4:	e3811101 	orr	r1, r1, #1073741824	; 0x40000000
  1050b8:	e5801104 	str	r1, [r0, #260]	; 0x104
  1050bc:	e3a01001 	mov	r1, #1
  1050c0:	e5801100 	str	r1, [r0, #256]	; 0x100
  1050c4:	e12fff1e 	bx	lr

001050c8 <enable_write_full_line_zeros>:
  1050c8:	e59f013c 	ldr	r0, [pc, #316]	; 10520c <invalidate_and_flush+0x9c>
  1050cc:	e3a01000 	mov	r1, #0
  1050d0:	e5801100 	str	r1, [r0, #256]	; 0x100
  1050d4:	e5901104 	ldr	r1, [r0, #260]	; 0x104
  1050d8:	e3811101 	orr	r1, r1, #1073741824	; 0x40000000
  1050dc:	e5801104 	str	r1, [r0, #260]	; 0x104
  1050e0:	e3a01001 	mov	r1, #1
  1050e4:	e5801100 	str	r1, [r0, #256]	; 0x100
  1050e8:	ee110f30 	mrc	15, 0, r0, cr1, cr0, {1}
  1050ec:	e3800008 	orr	r0, r0, #8
  1050f0:	ee010f30 	mcr	15, 0, r0, cr1, cr0, {1}
  1050f4:	e12fff1e 	bx	lr

001050f8 <enable_L1_D_side_prefetch>:
  1050f8:	ee110f30 	mrc	15, 0, r0, cr1, cr0, {1}
  1050fc:	e3800004 	orr	r0, r0, #4
  105100:	ee010f30 	mcr	15, 0, r0, cr1, cr0, {1}
  105104:	e12fff1e 	bx	lr

00105108 <enable_L2_prefetch_hint>:
  105108:	ee110f30 	mrc	15, 0, r0, cr1, cr0, {1}
  10510c:	e3800002 	orr	r0, r0, #2
  105110:	ee010f30 	mcr	15, 0, r0, cr1, cr0, {1}
  105114:	e12fff1e 	bx	lr

00105118 <enable_exclusive_caching>:
  105118:	e59f00ec 	ldr	r0, [pc, #236]	; 10520c <invalidate_and_flush+0x9c>
  10511c:	e3a01000 	mov	r1, #0
  105120:	e5801100 	str	r1, [r0, #256]	; 0x100
  105124:	e5901104 	ldr	r1, [r0, #260]	; 0x104
  105128:	e3811a01 	orr	r1, r1, #4096	; 0x1000
  10512c:	e5801104 	str	r1, [r0, #260]	; 0x104
  105130:	e3a01001 	mov	r1, #1
  105134:	e5801100 	str	r1, [r0, #256]	; 0x100
  105138:	ee110f30 	mrc	15, 0, r0, cr1, cr0, {1}
  10513c:	e3800080 	orr	r0, r0, #128	; 0x80
  105140:	ee010f30 	mcr	15, 0, r0, cr1, cr0, {1}
  105144:	e12fff1e 	bx	lr

00105148 <enable_SCU>:
  105148:	ee9f0f10 	mrc	15, 4, r0, cr15, cr0, {0}
  10514c:	e5901000 	ldr	r1, [r0]
  105150:	e3811001 	orr	r1, r1, #1
  105154:	e5801000 	str	r1, [r0]
  105158:	e12fff1e 	bx	lr

0010515c <enable_L2_speculative_linefill>:
  10515c:	ee9f0f10 	mrc	15, 4, r0, cr15, cr0, {0}
  105160:	e5901000 	ldr	r1, [r0]
  105164:	e3811008 	orr	r1, r1, #8
  105168:	e5801000 	str	r1, [r0]
  10516c:	e12fff1e 	bx	lr

00105170 <invalidate_and_flush>:
  105170:	e92d4eb0 	push	{r4, r5, r7, r9, sl, fp, lr}
  105174:	e3a00000 	mov	r0, #0
  105178:	ee070fd5 	mcr	15, 0, r0, cr7, cr5, {6}
  10517c:	ee300f30 	mrc	15, 1, r0, cr0, cr0, {1}
  105180:	e3a00000 	mov	r0, #0
  105184:	ee070f15 	mcr	15, 0, r0, cr7, cr5, {0}
  105188:	ee300f30 	mrc	15, 1, r0, cr0, cr0, {1}
  10518c:	e2103407 	ands	r3, r0, #117440512	; 0x7000000
  105190:	e1a03ba3 	lsr	r3, r3, #23
  105194:	0a00001a 	beq	105204 <invalidate_and_flush+0x94>
  105198:	e3a0a000 	mov	sl, #0
  10519c:	e08a20aa 	add	r2, sl, sl, lsr #1
  1051a0:	e1a01230 	lsr	r1, r0, r2
  1051a4:	e2011007 	and	r1, r1, #7
  1051a8:	e3510002 	cmp	r1, #2
  1051ac:	ba000011 	blt	1051f8 <invalidate_and_flush+0x88>
  1051b0:	ee40af10 	mcr	15, 2, sl, cr0, cr0, {0}
  1051b4:	f57ff06f 	isb	sy
  1051b8:	ee301f10 	mrc	15, 1, r1, cr0, cr0, {0}
  1051bc:	e2012007 	and	r2, r1, #7
  1051c0:	e2822004 	add	r2, r2, #4
  1051c4:	e59f4044 	ldr	r4, [pc, #68]	; 105210 <invalidate_and_flush+0xa0>
  1051c8:	e01441a1 	ands	r4, r4, r1, lsr #3
  1051cc:	e16f5f14 	clz	r5, r4
  1051d0:	e59f703c 	ldr	r7, [pc, #60]	; 105214 <invalidate_and_flush+0xa4>
  1051d4:	e01776a1 	ands	r7, r7, r1, lsr #13
  1051d8:	e1a09004 	mov	r9, r4
  1051dc:	e18ab519 	orr	fp, sl, r9, lsl r5
  1051e0:	e18bb217 	orr	fp, fp, r7, lsl r2
  1051e4:	ee07bf56 	mcr	15, 0, fp, cr7, cr6, {2}
  1051e8:	e2599001 	subs	r9, r9, #1
  1051ec:	aafffffa 	bge	1051dc <invalidate_and_flush+0x6c>
  1051f0:	e2577001 	subs	r7, r7, #1
  1051f4:	aafffff7 	bge	1051d8 <invalidate_and_flush+0x68>
  1051f8:	e28aa002 	add	sl, sl, #2
  1051fc:	e153000a 	cmp	r3, sl
  105200:	caffffe5 	bgt	10519c <invalidate_and_flush+0x2c>
  105204:	f57ff04f 	dsb	sy
  105208:	e8bd8eb0 	pop	{r4, r5, r7, r9, sl, fp, pc}
  10520c:	fffef000 	.word	0xfffef000
  105210:	000003ff 	.word	0x000003ff
  105214:	00007fff 	.word	0x00007fff
  105218:	00128000 	.word	0x00128000
  10521c:	00000fff 	.word	0x00000fff
  105220:	00017c0e 	.word	0x00017c0e
  105224:	00002c02 	.word	0x00002c02

00105228 <construct_standard_st_to_mm_descriptor>:
  105228:	e52db004 	push	{fp}		; (str fp, [sp, #-4]!)
  10522c:	e28db000 	add	fp, sp, #0
  105230:	e24dd014 	sub	sp, sp, #20
  105234:	e50b0008 	str	r0, [fp, #-8]
  105238:	e50b100c 	str	r1, [fp, #-12]
  10523c:	e50b2010 	str	r2, [fp, #-16]
  105240:	e50b3014 	str	r3, [fp, #-20]	; 0xffffffec
  105244:	e51b3008 	ldr	r3, [fp, #-8]
  105248:	e3a02000 	mov	r2, #0
  10524c:	e5832000 	str	r2, [r3]
  105250:	e51b3008 	ldr	r3, [fp, #-8]
  105254:	e51b200c 	ldr	r2, [fp, #-12]
  105258:	e5832004 	str	r2, [r3, #4]
  10525c:	e51b3008 	ldr	r3, [fp, #-8]
  105260:	e51b2010 	ldr	r2, [fp, #-16]
  105264:	e5832008 	str	r2, [r3, #8]
  105268:	e51b3014 	ldr	r3, [fp, #-20]	; 0xffffffec
  10526c:	e3832102 	orr	r2, r3, #-2147483648	; 0x80000000
  105270:	e51b3008 	ldr	r3, [fp, #-8]
  105274:	e583200c 	str	r2, [r3, #12]
  105278:	e3a03000 	mov	r3, #0
  10527c:	e1a00003 	mov	r0, r3
  105280:	e24bd000 	sub	sp, fp, #0
  105284:	e49db004 	pop	{fp}		; (ldr fp, [sp], #4)
  105288:	e12fff1e 	bx	lr

0010528c <construct_standard_mm_to_st_descriptor>:
  10528c:	e52db004 	push	{fp}		; (str fp, [sp, #-4]!)
  105290:	e28db000 	add	fp, sp, #0
  105294:	e24dd014 	sub	sp, sp, #20
  105298:	e50b0008 	str	r0, [fp, #-8]
  10529c:	e50b100c 	str	r1, [fp, #-12]
  1052a0:	e50b2010 	str	r2, [fp, #-16]
  1052a4:	e50b3014 	str	r3, [fp, #-20]	; 0xffffffec
  1052a8:	e51b3008 	ldr	r3, [fp, #-8]
  1052ac:	e51b200c 	ldr	r2, [fp, #-12]
  1052b0:	e5832000 	str	r2, [r3]
  1052b4:	e51b3008 	ldr	r3, [fp, #-8]
  1052b8:	e3a02000 	mov	r2, #0
  1052bc:	e5832004 	str	r2, [r3, #4]
  1052c0:	e51b3008 	ldr	r3, [fp, #-8]
  1052c4:	e51b2010 	ldr	r2, [fp, #-16]
  1052c8:	e5832008 	str	r2, [r3, #8]
  1052cc:	e51b3014 	ldr	r3, [fp, #-20]	; 0xffffffec
  1052d0:	e3832102 	orr	r2, r3, #-2147483648	; 0x80000000
  1052d4:	e51b3008 	ldr	r3, [fp, #-8]
  1052d8:	e583200c 	str	r2, [r3, #12]
  1052dc:	e3a03000 	mov	r3, #0
  1052e0:	e1a00003 	mov	r0, r3
  1052e4:	e24bd000 	sub	sp, fp, #0
  1052e8:	e49db004 	pop	{fp}		; (ldr fp, [sp], #4)
  1052ec:	e12fff1e 	bx	lr

001052f0 <construct_standard_mm_to_mm_descriptor>:
  1052f0:	e52db004 	push	{fp}		; (str fp, [sp, #-4]!)
  1052f4:	e28db000 	add	fp, sp, #0
  1052f8:	e24dd014 	sub	sp, sp, #20
  1052fc:	e50b0008 	str	r0, [fp, #-8]
  105300:	e50b100c 	str	r1, [fp, #-12]
  105304:	e50b2010 	str	r2, [fp, #-16]
  105308:	e50b3014 	str	r3, [fp, #-20]	; 0xffffffec
  10530c:	e51b3008 	ldr	r3, [fp, #-8]
  105310:	e51b200c 	ldr	r2, [fp, #-12]
  105314:	e5832000 	str	r2, [r3]
  105318:	e51b3008 	ldr	r3, [fp, #-8]
  10531c:	e51b2010 	ldr	r2, [fp, #-16]
  105320:	e5832004 	str	r2, [r3, #4]
  105324:	e51b3008 	ldr	r3, [fp, #-8]
  105328:	e51b2014 	ldr	r2, [fp, #-20]	; 0xffffffec
  10532c:	e5832008 	str	r2, [r3, #8]
  105330:	e59b3004 	ldr	r3, [fp, #4]
  105334:	e3832102 	orr	r2, r3, #-2147483648	; 0x80000000
  105338:	e51b3008 	ldr	r3, [fp, #-8]
  10533c:	e583200c 	str	r2, [r3, #12]
  105340:	e3a03000 	mov	r3, #0
  105344:	e1a00003 	mov	r0, r3
  105348:	e24bd000 	sub	sp, fp, #0
  10534c:	e49db004 	pop	{fp}		; (ldr fp, [sp], #4)
  105350:	e12fff1e 	bx	lr

00105354 <construct_extended_st_to_mm_descriptor>:
  105354:	e52db004 	push	{fp}		; (str fp, [sp, #-4]!)
  105358:	e28db000 	add	fp, sp, #0
  10535c:	e24dd014 	sub	sp, sp, #20
  105360:	e50b0008 	str	r0, [fp, #-8]
  105364:	e50b100c 	str	r1, [fp, #-12]
  105368:	e50b2010 	str	r2, [fp, #-16]
  10536c:	e50b3014 	str	r3, [fp, #-20]	; 0xffffffec
  105370:	e51b3008 	ldr	r3, [fp, #-8]
  105374:	e3a02000 	mov	r2, #0
  105378:	e5832000 	str	r2, [r3]
  10537c:	e51b3008 	ldr	r3, [fp, #-8]
  105380:	e51b200c 	ldr	r2, [fp, #-12]
  105384:	e5832004 	str	r2, [r3, #4]
  105388:	e51b3008 	ldr	r3, [fp, #-8]
  10538c:	e51b2010 	ldr	r2, [fp, #-16]
  105390:	e5832008 	str	r2, [r3, #8]
  105394:	e51b3008 	ldr	r3, [fp, #-8]
  105398:	e1db20b4 	ldrh	r2, [fp, #4]
  10539c:	e1c320bc 	strh	r2, [r3, #12]
  1053a0:	e51b3008 	ldr	r3, [fp, #-8]
  1053a4:	e3a02000 	mov	r2, #0
  1053a8:	e5c3200e 	strb	r2, [r3, #14]
  1053ac:	e51b3008 	ldr	r3, [fp, #-8]
  1053b0:	e5db2008 	ldrb	r2, [fp, #8]
  1053b4:	e5c3200f 	strb	r2, [r3, #15]
  1053b8:	e51b3008 	ldr	r3, [fp, #-8]
  1053bc:	e3a02000 	mov	r2, #0
  1053c0:	e1c321b0 	strh	r2, [r3, #16]
  1053c4:	e51b3008 	ldr	r3, [fp, #-8]
  1053c8:	e1db20bc 	ldrh	r2, [fp, #12]
  1053cc:	e1c321b2 	strh	r2, [r3, #18]
  1053d0:	e51b3008 	ldr	r3, [fp, #-8]
  1053d4:	e3a02000 	mov	r2, #0
  1053d8:	e5832014 	str	r2, [r3, #20]
  1053dc:	e51b3008 	ldr	r3, [fp, #-8]
  1053e0:	e3a02000 	mov	r2, #0
  1053e4:	e5832018 	str	r2, [r3, #24]
  1053e8:	e51b3014 	ldr	r3, [fp, #-20]	; 0xffffffec
  1053ec:	e3832102 	orr	r2, r3, #-2147483648	; 0x80000000
  1053f0:	e51b3008 	ldr	r3, [fp, #-8]
  1053f4:	e583201c 	str	r2, [r3, #28]
  1053f8:	e3a03000 	mov	r3, #0
  1053fc:	e1a00003 	mov	r0, r3
  105400:	e24bd000 	sub	sp, fp, #0
  105404:	e49db004 	pop	{fp}		; (ldr fp, [sp], #4)
  105408:	e12fff1e 	bx	lr

0010540c <construct_extended_st_to_mm_descriptor_64>:
  10540c:	e52db004 	push	{fp}		; (str fp, [sp, #-4]!)
  105410:	e28db000 	add	fp, sp, #0
  105414:	e24dd014 	sub	sp, sp, #20
  105418:	e50b0008 	str	r0, [fp, #-8]
  10541c:	e50b100c 	str	r1, [fp, #-12]
  105420:	e50b2010 	str	r2, [fp, #-16]
  105424:	e50b3014 	str	r3, [fp, #-20]	; 0xffffffec
  105428:	e51b3008 	ldr	r3, [fp, #-8]
  10542c:	e3a02000 	mov	r2, #0
  105430:	e5832000 	str	r2, [r3]
  105434:	e51b3008 	ldr	r3, [fp, #-8]
  105438:	e51b200c 	ldr	r2, [fp, #-12]
  10543c:	e5832004 	str	r2, [r3, #4]
  105440:	e51b3008 	ldr	r3, [fp, #-8]
  105444:	e51b2014 	ldr	r2, [fp, #-20]	; 0xffffffec
  105448:	e5832008 	str	r2, [r3, #8]
  10544c:	e51b3008 	ldr	r3, [fp, #-8]
  105450:	e1db20b8 	ldrh	r2, [fp, #8]
  105454:	e1c320bc 	strh	r2, [r3, #12]
  105458:	e51b3008 	ldr	r3, [fp, #-8]
  10545c:	e3a02000 	mov	r2, #0
  105460:	e5c3200e 	strb	r2, [r3, #14]
  105464:	e51b3008 	ldr	r3, [fp, #-8]
  105468:	e5db200c 	ldrb	r2, [fp, #12]
  10546c:	e5c3200f 	strb	r2, [r3, #15]
  105470:	e51b3008 	ldr	r3, [fp, #-8]
  105474:	e3a02000 	mov	r2, #0
  105478:	e1c321b0 	strh	r2, [r3, #16]
  10547c:	e51b3008 	ldr	r3, [fp, #-8]
  105480:	e1db21b0 	ldrh	r2, [fp, #16]
  105484:	e1c321b2 	strh	r2, [r3, #18]
  105488:	e51b3008 	ldr	r3, [fp, #-8]
  10548c:	e3a02000 	mov	r2, #0
  105490:	e5832014 	str	r2, [r3, #20]
  105494:	e51b3008 	ldr	r3, [fp, #-8]
  105498:	e51b2010 	ldr	r2, [fp, #-16]
  10549c:	e5832018 	str	r2, [r3, #24]
  1054a0:	e59b3004 	ldr	r3, [fp, #4]
  1054a4:	e3832102 	orr	r2, r3, #-2147483648	; 0x80000000
  1054a8:	e51b3008 	ldr	r3, [fp, #-8]
  1054ac:	e583201c 	str	r2, [r3, #28]
  1054b0:	e3a03000 	mov	r3, #0
  1054b4:	e1a00003 	mov	r0, r3
  1054b8:	e24bd000 	sub	sp, fp, #0
  1054bc:	e49db004 	pop	{fp}		; (ldr fp, [sp], #4)
  1054c0:	e12fff1e 	bx	lr

001054c4 <construct_extended_mm_to_st_descriptor>:
  1054c4:	e52db004 	push	{fp}		; (str fp, [sp, #-4]!)
  1054c8:	e28db000 	add	fp, sp, #0
  1054cc:	e24dd014 	sub	sp, sp, #20
  1054d0:	e50b0008 	str	r0, [fp, #-8]
  1054d4:	e50b100c 	str	r1, [fp, #-12]
  1054d8:	e50b2010 	str	r2, [fp, #-16]
  1054dc:	e50b3014 	str	r3, [fp, #-20]	; 0xffffffec
  1054e0:	e51b3008 	ldr	r3, [fp, #-8]
  1054e4:	e51b200c 	ldr	r2, [fp, #-12]
  1054e8:	e5832000 	str	r2, [r3]
  1054ec:	e51b3008 	ldr	r3, [fp, #-8]
  1054f0:	e3a02000 	mov	r2, #0
  1054f4:	e5832004 	str	r2, [r3, #4]
  1054f8:	e51b3008 	ldr	r3, [fp, #-8]
  1054fc:	e51b2010 	ldr	r2, [fp, #-16]
  105500:	e5832008 	str	r2, [r3, #8]
  105504:	e51b3008 	ldr	r3, [fp, #-8]
  105508:	e1db20b4 	ldrh	r2, [fp, #4]
  10550c:	e1c320bc 	strh	r2, [r3, #12]
  105510:	e51b3008 	ldr	r3, [fp, #-8]
  105514:	e5db2008 	ldrb	r2, [fp, #8]
  105518:	e5c3200e 	strb	r2, [r3, #14]
  10551c:	e51b3008 	ldr	r3, [fp, #-8]
  105520:	e3a02000 	mov	r2, #0
  105524:	e5c3200f 	strb	r2, [r3, #15]
  105528:	e51b3008 	ldr	r3, [fp, #-8]
  10552c:	e1db20bc 	ldrh	r2, [fp, #12]
  105530:	e1c321b0 	strh	r2, [r3, #16]
  105534:	e51b3008 	ldr	r3, [fp, #-8]
  105538:	e3a02000 	mov	r2, #0
  10553c:	e1c321b2 	strh	r2, [r3, #18]
  105540:	e51b3008 	ldr	r3, [fp, #-8]
  105544:	e3a02000 	mov	r2, #0
  105548:	e5832014 	str	r2, [r3, #20]
  10554c:	e51b3008 	ldr	r3, [fp, #-8]
  105550:	e3a02000 	mov	r2, #0
  105554:	e5832018 	str	r2, [r3, #24]
  105558:	e51b3014 	ldr	r3, [fp, #-20]	; 0xffffffec
  10555c:	e3832102 	orr	r2, r3, #-2147483648	; 0x80000000
  105560:	e51b3008 	ldr	r3, [fp, #-8]
  105564:	e583201c 	str	r2, [r3, #28]
  105568:	e3a03000 	mov	r3, #0
  10556c:	e1a00003 	mov	r0, r3
  105570:	e24bd000 	sub	sp, fp, #0
  105574:	e49db004 	pop	{fp}		; (ldr fp, [sp], #4)
  105578:	e12fff1e 	bx	lr

0010557c <construct_extended_mm_to_st_descriptor_64>:
  10557c:	e52db004 	push	{fp}		; (str fp, [sp, #-4]!)
  105580:	e28db000 	add	fp, sp, #0
  105584:	e24dd014 	sub	sp, sp, #20
  105588:	e50b0008 	str	r0, [fp, #-8]
  10558c:	e50b100c 	str	r1, [fp, #-12]
  105590:	e50b2010 	str	r2, [fp, #-16]
  105594:	e50b3014 	str	r3, [fp, #-20]	; 0xffffffec
  105598:	e51b3008 	ldr	r3, [fp, #-8]
  10559c:	e51b200c 	ldr	r2, [fp, #-12]
  1055a0:	e5832000 	str	r2, [r3]
  1055a4:	e51b3008 	ldr	r3, [fp, #-8]
  1055a8:	e3a02000 	mov	r2, #0
  1055ac:	e5832004 	str	r2, [r3, #4]
  1055b0:	e51b3008 	ldr	r3, [fp, #-8]
  1055b4:	e51b2014 	ldr	r2, [fp, #-20]	; 0xffffffec
  1055b8:	e5832008 	str	r2, [r3, #8]
  1055bc:	e51b3008 	ldr	r3, [fp, #-8]
  1055c0:	e1db20b8 	ldrh	r2, [fp, #8]
  1055c4:	e1c320bc 	strh	r2, [r3, #12]
  1055c8:	e51b3008 	ldr	r3, [fp, #-8]
  1055cc:	e5db200c 	ldrb	r2, [fp, #12]
  1055d0:	e5c3200e 	strb	r2, [r3, #14]
  1055d4:	e51b3008 	ldr	r3, [fp, #-8]
  1055d8:	e3a02000 	mov	r2, #0
  1055dc:	e5c3200f 	strb	r2, [r3, #15]
  1055e0:	e51b3008 	ldr	r3, [fp, #-8]
  1055e4:	e1db21b0 	ldrh	r2, [fp, #16]
  1055e8:	e1c321b0 	strh	r2, [r3, #16]
  1055ec:	e51b3008 	ldr	r3, [fp, #-8]
  1055f0:	e3a02000 	mov	r2, #0
  1055f4:	e1c321b2 	strh	r2, [r3, #18]
  1055f8:	e51b3008 	ldr	r3, [fp, #-8]
  1055fc:	e51b2010 	ldr	r2, [fp, #-16]
  105600:	e5832014 	str	r2, [r3, #20]
  105604:	e51b3008 	ldr	r3, [fp, #-8]
  105608:	e3a02000 	mov	r2, #0
  10560c:	e5832018 	str	r2, [r3, #24]
  105610:	e59b3004 	ldr	r3, [fp, #4]
  105614:	e3832102 	orr	r2, r3, #-2147483648	; 0x80000000
  105618:	e51b3008 	ldr	r3, [fp, #-8]
  10561c:	e583201c 	str	r2, [r3, #28]
  105620:	e3a03000 	mov	r3, #0
  105624:	e1a00003 	mov	r0, r3
  105628:	e24bd000 	sub	sp, fp, #0
  10562c:	e49db004 	pop	{fp}		; (ldr fp, [sp], #4)
  105630:	e12fff1e 	bx	lr

00105634 <construct_extended_mm_to_mm_descriptor>:
  105634:	e52db004 	push	{fp}		; (str fp, [sp, #-4]!)
  105638:	e28db000 	add	fp, sp, #0
  10563c:	e24dd014 	sub	sp, sp, #20
  105640:	e50b0008 	str	r0, [fp, #-8]
  105644:	e50b100c 	str	r1, [fp, #-12]
  105648:	e50b2010 	str	r2, [fp, #-16]
  10564c:	e50b3014 	str	r3, [fp, #-20]	; 0xffffffec
  105650:	e51b3008 	ldr	r3, [fp, #-8]
  105654:	e51b200c 	ldr	r2, [fp, #-12]
  105658:	e5832000 	str	r2, [r3]
  10565c:	e51b3008 	ldr	r3, [fp, #-8]
  105660:	e51b2010 	ldr	r2, [fp, #-16]
  105664:	e5832004 	str	r2, [r3, #4]
  105668:	e51b3008 	ldr	r3, [fp, #-8]
  10566c:	e51b2014 	ldr	r2, [fp, #-20]	; 0xffffffec
  105670:	e5832008 	str	r2, [r3, #8]
  105674:	e51b3008 	ldr	r3, [fp, #-8]
  105678:	e1db20b8 	ldrh	r2, [fp, #8]
  10567c:	e1c320bc 	strh	r2, [r3, #12]
  105680:	e51b3008 	ldr	r3, [fp, #-8]
  105684:	e5db200c 	ldrb	r2, [fp, #12]
  105688:	e5c3200e 	strb	r2, [r3, #14]
  10568c:	e51b3008 	ldr	r3, [fp, #-8]
  105690:	e5db2010 	ldrb	r2, [fp, #16]
  105694:	e5c3200f 	strb	r2, [r3, #15]
  105698:	e51b3008 	ldr	r3, [fp, #-8]
  10569c:	e1db21b4 	ldrh	r2, [fp, #20]
  1056a0:	e1c321b0 	strh	r2, [r3, #16]
  1056a4:	e51b3008 	ldr	r3, [fp, #-8]
  1056a8:	e1db21b8 	ldrh	r2, [fp, #24]
  1056ac:	e1c321b2 	strh	r2, [r3, #18]
  1056b0:	e51b3008 	ldr	r3, [fp, #-8]
  1056b4:	e3a02000 	mov	r2, #0
  1056b8:	e5832014 	str	r2, [r3, #20]
  1056bc:	e51b3008 	ldr	r3, [fp, #-8]
  1056c0:	e3a02000 	mov	r2, #0
  1056c4:	e5832018 	str	r2, [r3, #24]
  1056c8:	e59b3004 	ldr	r3, [fp, #4]
  1056cc:	e3832102 	orr	r2, r3, #-2147483648	; 0x80000000
  1056d0:	e51b3008 	ldr	r3, [fp, #-8]
  1056d4:	e583201c 	str	r2, [r3, #28]
  1056d8:	e3a03000 	mov	r3, #0
  1056dc:	e1a00003 	mov	r0, r3
  1056e0:	e24bd000 	sub	sp, fp, #0
  1056e4:	e49db004 	pop	{fp}		; (ldr fp, [sp], #4)
  1056e8:	e12fff1e 	bx	lr

001056ec <construct_extended_mm_to_mm_descriptor_64>:
  1056ec:	e52db004 	push	{fp}		; (str fp, [sp, #-4]!)
  1056f0:	e28db000 	add	fp, sp, #0
  1056f4:	e24dd014 	sub	sp, sp, #20
  1056f8:	e50b0008 	str	r0, [fp, #-8]
  1056fc:	e50b100c 	str	r1, [fp, #-12]
  105700:	e50b2010 	str	r2, [fp, #-16]
  105704:	e50b3014 	str	r3, [fp, #-20]	; 0xffffffec
  105708:	e51b3008 	ldr	r3, [fp, #-8]
  10570c:	e51b200c 	ldr	r2, [fp, #-12]
  105710:	e5832000 	str	r2, [r3]
  105714:	e51b3008 	ldr	r3, [fp, #-8]
  105718:	e51b2014 	ldr	r2, [fp, #-20]	; 0xffffffec
  10571c:	e5832004 	str	r2, [r3, #4]
  105720:	e51b3008 	ldr	r3, [fp, #-8]
  105724:	e59b2008 	ldr	r2, [fp, #8]
  105728:	e5832008 	str	r2, [r3, #8]
  10572c:	e51b3008 	ldr	r3, [fp, #-8]
  105730:	e1db21b0 	ldrh	r2, [fp, #16]
  105734:	e1c320bc 	strh	r2, [r3, #12]
  105738:	e51b3008 	ldr	r3, [fp, #-8]
  10573c:	e5db2014 	ldrb	r2, [fp, #20]
  105740:	e5c3200e 	strb	r2, [r3, #14]
  105744:	e51b3008 	ldr	r3, [fp, #-8]
  105748:	e5db2018 	ldrb	r2, [fp, #24]
  10574c:	e5c3200f 	strb	r2, [r3, #15]
  105750:	e51b3008 	ldr	r3, [fp, #-8]
  105754:	e1db21bc 	ldrh	r2, [fp, #28]
  105758:	e1c321b0 	strh	r2, [r3, #16]
  10575c:	e51b3008 	ldr	r3, [fp, #-8]
  105760:	e1db22b0 	ldrh	r2, [fp, #32]
  105764:	e1c321b2 	strh	r2, [r3, #18]
  105768:	e51b3008 	ldr	r3, [fp, #-8]
  10576c:	e51b2010 	ldr	r2, [fp, #-16]
  105770:	e5832014 	str	r2, [r3, #20]
  105774:	e51b3008 	ldr	r3, [fp, #-8]
  105778:	e59b2004 	ldr	r2, [fp, #4]
  10577c:	e5832018 	str	r2, [r3, #24]
  105780:	e59b300c 	ldr	r3, [fp, #12]
  105784:	e3832102 	orr	r2, r3, #-2147483648	; 0x80000000
  105788:	e51b3008 	ldr	r3, [fp, #-8]
  10578c:	e583201c 	str	r2, [r3, #28]
  105790:	e3a03000 	mov	r3, #0
  105794:	e1a00003 	mov	r0, r3
  105798:	e24bd000 	sub	sp, fp, #0
  10579c:	e49db004 	pop	{fp}		; (ldr fp, [sp], #4)
  1057a0:	e12fff1e 	bx	lr

001057a4 <write_standard_descriptor>:
  1057a4:	e52db004 	push	{fp}		; (str fp, [sp, #-4]!)
  1057a8:	e28db000 	add	fp, sp, #0
  1057ac:	e24dd014 	sub	sp, sp, #20
  1057b0:	e50b0008 	str	r0, [fp, #-8]
  1057b4:	e50b100c 	str	r1, [fp, #-12]
  1057b8:	e50b2010 	str	r2, [fp, #-16]
  1057bc:	e51b3008 	ldr	r3, [fp, #-8]
  1057c0:	e5933000 	ldr	r3, [r3]
  1057c4:	e2033004 	and	r3, r3, #4
  1057c8:	e3530000 	cmp	r3, #0
  1057cc:	0a000001 	beq	1057d8 <write_standard_descriptor+0x34>
  1057d0:	e3e0301b 	mvn	r3, #27
  1057d4:	ea000016 	b	105834 <write_standard_descriptor+0x90>
  1057d8:	e51b300c 	ldr	r3, [fp, #-12]
  1057dc:	e51b2010 	ldr	r2, [fp, #-16]
  1057e0:	e5922000 	ldr	r2, [r2]
  1057e4:	e5832000 	str	r2, [r3]
  1057e8:	e51b300c 	ldr	r3, [fp, #-12]
  1057ec:	e2833004 	add	r3, r3, #4
  1057f0:	e1a02003 	mov	r2, r3
  1057f4:	e51b3010 	ldr	r3, [fp, #-16]
  1057f8:	e5933004 	ldr	r3, [r3, #4]
  1057fc:	e5823000 	str	r3, [r2]
  105800:	e51b300c 	ldr	r3, [fp, #-12]
  105804:	e2833008 	add	r3, r3, #8
  105808:	e1a02003 	mov	r2, r3
  10580c:	e51b3010 	ldr	r3, [fp, #-16]
  105810:	e5933008 	ldr	r3, [r3, #8]
  105814:	e5823000 	str	r3, [r2]
  105818:	e51b300c 	ldr	r3, [fp, #-12]
  10581c:	e283300c 	add	r3, r3, #12
  105820:	e1a02003 	mov	r2, r3
  105824:	e51b3010 	ldr	r3, [fp, #-16]
  105828:	e593300c 	ldr	r3, [r3, #12]
  10582c:	e5823000 	str	r3, [r2]
  105830:	e3a03000 	mov	r3, #0
  105834:	e1a00003 	mov	r0, r3
  105838:	e24bd000 	sub	sp, fp, #0
  10583c:	e49db004 	pop	{fp}		; (ldr fp, [sp], #4)
  105840:	e12fff1e 	bx	lr

00105844 <write_extended_descriptor>:
  105844:	e52db004 	push	{fp}		; (str fp, [sp, #-4]!)
  105848:	e28db000 	add	fp, sp, #0
  10584c:	e24dd014 	sub	sp, sp, #20
  105850:	e50b0008 	str	r0, [fp, #-8]
  105854:	e50b100c 	str	r1, [fp, #-12]
  105858:	e50b2010 	str	r2, [fp, #-16]
  10585c:	e51b3008 	ldr	r3, [fp, #-8]
  105860:	e5933000 	ldr	r3, [r3]
  105864:	e2033004 	and	r3, r3, #4
  105868:	e3530000 	cmp	r3, #0
  10586c:	0a000001 	beq	105878 <write_extended_descriptor+0x34>
  105870:	e3e0301b 	mvn	r3, #27
  105874:	ea000040 	b	10597c <write_extended_descriptor+0x138>
  105878:	e51b300c 	ldr	r3, [fp, #-12]
  10587c:	e51b2010 	ldr	r2, [fp, #-16]
  105880:	e5922000 	ldr	r2, [r2]
  105884:	e5832000 	str	r2, [r3]
  105888:	e51b300c 	ldr	r3, [fp, #-12]
  10588c:	e2833004 	add	r3, r3, #4
  105890:	e1a02003 	mov	r2, r3
  105894:	e51b3010 	ldr	r3, [fp, #-16]
  105898:	e5933004 	ldr	r3, [r3, #4]
  10589c:	e5823000 	str	r3, [r2]
  1058a0:	e51b300c 	ldr	r3, [fp, #-12]
  1058a4:	e2833008 	add	r3, r3, #8
  1058a8:	e1a02003 	mov	r2, r3
  1058ac:	e51b3010 	ldr	r3, [fp, #-16]
  1058b0:	e5933008 	ldr	r3, [r3, #8]
  1058b4:	e5823000 	str	r3, [r2]
  1058b8:	e51b300c 	ldr	r3, [fp, #-12]
  1058bc:	e283300c 	add	r3, r3, #12
  1058c0:	e1a02003 	mov	r2, r3
  1058c4:	e51b3010 	ldr	r3, [fp, #-16]
  1058c8:	e1d330bc 	ldrh	r3, [r3, #12]
  1058cc:	e1c230b0 	strh	r3, [r2]
  1058d0:	e51b300c 	ldr	r3, [fp, #-12]
  1058d4:	e283300e 	add	r3, r3, #14
  1058d8:	e1a02003 	mov	r2, r3
  1058dc:	e51b3010 	ldr	r3, [fp, #-16]
  1058e0:	e5d3300e 	ldrb	r3, [r3, #14]
  1058e4:	e5c23000 	strb	r3, [r2]
  1058e8:	e51b300c 	ldr	r3, [fp, #-12]
  1058ec:	e283300f 	add	r3, r3, #15
  1058f0:	e1a02003 	mov	r2, r3
  1058f4:	e51b3010 	ldr	r3, [fp, #-16]
  1058f8:	e5d3300f 	ldrb	r3, [r3, #15]
  1058fc:	e5c23000 	strb	r3, [r2]
  105900:	e51b300c 	ldr	r3, [fp, #-12]
  105904:	e2833010 	add	r3, r3, #16
  105908:	e1a02003 	mov	r2, r3
  10590c:	e51b3010 	ldr	r3, [fp, #-16]
  105910:	e1d331b0 	ldrh	r3, [r3, #16]
  105914:	e1c230b0 	strh	r3, [r2]
  105918:	e51b300c 	ldr	r3, [fp, #-12]
  10591c:	e2833012 	add	r3, r3, #18
  105920:	e1a02003 	mov	r2, r3
  105924:	e51b3010 	ldr	r3, [fp, #-16]
  105928:	e1d331b2 	ldrh	r3, [r3, #18]
  10592c:	e1c230b0 	strh	r3, [r2]
  105930:	e51b300c 	ldr	r3, [fp, #-12]
  105934:	e2833014 	add	r3, r3, #20
  105938:	e1a02003 	mov	r2, r3
  10593c:	e51b3010 	ldr	r3, [fp, #-16]
  105940:	e5933014 	ldr	r3, [r3, #20]
  105944:	e5823000 	str	r3, [r2]
  105948:	e51b300c 	ldr	r3, [fp, #-12]
  10594c:	e2833018 	add	r3, r3, #24
  105950:	e1a02003 	mov	r2, r3
  105954:	e51b3010 	ldr	r3, [fp, #-16]
  105958:	e5933018 	ldr	r3, [r3, #24]
  10595c:	e5823000 	str	r3, [r2]
  105960:	e51b300c 	ldr	r3, [fp, #-12]
  105964:	e283301c 	add	r3, r3, #28
  105968:	e1a02003 	mov	r2, r3
  10596c:	e51b3010 	ldr	r3, [fp, #-16]
  105970:	e593301c 	ldr	r3, [r3, #28]
  105974:	e5823000 	str	r3, [r2]
  105978:	e3a03000 	mov	r3, #0
  10597c:	e1a00003 	mov	r0, r3
  105980:	e24bd000 	sub	sp, fp, #0
  105984:	e49db004 	pop	{fp}		; (ldr fp, [sp], #4)
  105988:	e12fff1e 	bx	lr

0010598c <read_mm_response>:
  10598c:	e52db004 	push	{fp}		; (str fp, [sp, #-4]!)
  105990:	e28db000 	add	fp, sp, #0
  105994:	e24dd01c 	sub	sp, sp, #28
  105998:	e50b0010 	str	r0, [fp, #-16]
  10599c:	e50b1014 	str	r1, [fp, #-20]	; 0xffffffec
  1059a0:	e50b2018 	str	r2, [fp, #-24]	; 0xffffffe8
  1059a4:	e51b3010 	ldr	r3, [fp, #-16]
  1059a8:	e5933000 	ldr	r3, [r3]
  1059ac:	e2033008 	and	r3, r3, #8
  1059b0:	e3530000 	cmp	r3, #0
  1059b4:	0a000001 	beq	1059c0 <read_mm_response+0x34>
  1059b8:	e3e0303c 	mvn	r3, #60	; 0x3c
  1059bc:	ea000013 	b	105a10 <read_mm_response+0x84>
  1059c0:	e51b3014 	ldr	r3, [fp, #-20]	; 0xffffffec
  1059c4:	e5932000 	ldr	r2, [r3]
  1059c8:	e51b3018 	ldr	r3, [fp, #-24]	; 0xffffffe8
  1059cc:	e5832000 	str	r2, [r3]
  1059d0:	e51b3014 	ldr	r3, [fp, #-20]	; 0xffffffec
  1059d4:	e2833004 	add	r3, r3, #4
  1059d8:	e5933000 	ldr	r3, [r3]
  1059dc:	e50b3008 	str	r3, [fp, #-8]
  1059e0:	e51b3008 	ldr	r3, [fp, #-8]
  1059e4:	e6ef2073 	uxtb	r2, r3
  1059e8:	e51b3018 	ldr	r3, [fp, #-24]	; 0xffffffe8
  1059ec:	e5c32004 	strb	r2, [r3, #4]
  1059f0:	e51b3008 	ldr	r3, [fp, #-8]
  1059f4:	e1a03423 	lsr	r3, r3, #8
  1059f8:	e6ef3073 	uxtb	r3, r3
  1059fc:	e2033001 	and	r3, r3, #1
  105a00:	e6ef2073 	uxtb	r2, r3
  105a04:	e51b3018 	ldr	r3, [fp, #-24]	; 0xffffffe8
  105a08:	e5c32005 	strb	r2, [r3, #5]
  105a0c:	e3a03000 	mov	r3, #0
  105a10:	e1a00003 	mov	r0, r3
  105a14:	e24bd000 	sub	sp, fp, #0
  105a18:	e49db004 	pop	{fp}		; (ldr fp, [sp], #4)
  105a1c:	e12fff1e 	bx	lr

00105a20 <read_csr_status>:
  105a20:	e52db004 	push	{fp}		; (str fp, [sp, #-4]!)
  105a24:	e28db000 	add	fp, sp, #0
  105a28:	e24dd00c 	sub	sp, sp, #12
  105a2c:	e50b0008 	str	r0, [fp, #-8]
  105a30:	e51b3008 	ldr	r3, [fp, #-8]
  105a34:	e5933000 	ldr	r3, [r3]
  105a38:	e1a00003 	mov	r0, r3
  105a3c:	e24bd000 	sub	sp, fp, #0
  105a40:	e49db004 	pop	{fp}		; (ldr fp, [sp], #4)
  105a44:	e12fff1e 	bx	lr

00105a48 <read_csr_control>:
  105a48:	e52db004 	push	{fp}		; (str fp, [sp, #-4]!)
  105a4c:	e28db000 	add	fp, sp, #0
  105a50:	e24dd00c 	sub	sp, sp, #12
  105a54:	e50b0008 	str	r0, [fp, #-8]
  105a58:	e51b3008 	ldr	r3, [fp, #-8]
  105a5c:	e2833004 	add	r3, r3, #4
  105a60:	e5933000 	ldr	r3, [r3]
  105a64:	e1a00003 	mov	r0, r3
  105a68:	e24bd000 	sub	sp, fp, #0
  105a6c:	e49db004 	pop	{fp}		; (ldr fp, [sp], #4)
  105a70:	e12fff1e 	bx	lr

00105a74 <read_csr_read_descriptor_buffer_fill_level>:
  105a74:	e52db004 	push	{fp}		; (str fp, [sp, #-4]!)
  105a78:	e28db000 	add	fp, sp, #0
  105a7c:	e24dd00c 	sub	sp, sp, #12
  105a80:	e50b0008 	str	r0, [fp, #-8]
  105a84:	e51b3008 	ldr	r3, [fp, #-8]
  105a88:	e2833008 	add	r3, r3, #8
  105a8c:	e5933000 	ldr	r3, [r3]
  105a90:	e6ff3073 	uxth	r3, r3
  105a94:	e1a00003 	mov	r0, r3
  105a98:	e24bd000 	sub	sp, fp, #0
  105a9c:	e49db004 	pop	{fp}		; (ldr fp, [sp], #4)
  105aa0:	e12fff1e 	bx	lr

00105aa4 <read_csr_write_descriptor_buffer_fill_level>:
  105aa4:	e52db004 	push	{fp}		; (str fp, [sp, #-4]!)
  105aa8:	e28db000 	add	fp, sp, #0
  105aac:	e24dd00c 	sub	sp, sp, #12
  105ab0:	e50b0008 	str	r0, [fp, #-8]
  105ab4:	e51b3008 	ldr	r3, [fp, #-8]
  105ab8:	e2833008 	add	r3, r3, #8
  105abc:	e5933000 	ldr	r3, [r3]
  105ac0:	e1a03823 	lsr	r3, r3, #16
  105ac4:	e6ff3073 	uxth	r3, r3
  105ac8:	e1a00003 	mov	r0, r3
  105acc:	e24bd000 	sub	sp, fp, #0
  105ad0:	e49db004 	pop	{fp}		; (ldr fp, [sp], #4)
  105ad4:	e12fff1e 	bx	lr

00105ad8 <read_csr_response_buffer_fill_level>:
  105ad8:	e52db004 	push	{fp}		; (str fp, [sp, #-4]!)
  105adc:	e28db000 	add	fp, sp, #0
  105ae0:	e24dd00c 	sub	sp, sp, #12
  105ae4:	e50b0008 	str	r0, [fp, #-8]
  105ae8:	e51b3008 	ldr	r3, [fp, #-8]
  105aec:	e283300c 	add	r3, r3, #12
  105af0:	e5933000 	ldr	r3, [r3]
  105af4:	e6ff3073 	uxth	r3, r3
  105af8:	e1a00003 	mov	r0, r3
  105afc:	e24bd000 	sub	sp, fp, #0
  105b00:	e49db004 	pop	{fp}		; (ldr fp, [sp], #4)
  105b04:	e12fff1e 	bx	lr

00105b08 <read_csr_read_sequence_number>:
  105b08:	e52db004 	push	{fp}		; (str fp, [sp, #-4]!)
  105b0c:	e28db000 	add	fp, sp, #0
  105b10:	e24dd00c 	sub	sp, sp, #12
  105b14:	e50b0008 	str	r0, [fp, #-8]
  105b18:	e51b3008 	ldr	r3, [fp, #-8]
  105b1c:	e2833010 	add	r3, r3, #16
  105b20:	e5933000 	ldr	r3, [r3]
  105b24:	e6ff3073 	uxth	r3, r3
  105b28:	e1a00003 	mov	r0, r3
  105b2c:	e24bd000 	sub	sp, fp, #0
  105b30:	e49db004 	pop	{fp}		; (ldr fp, [sp], #4)
  105b34:	e12fff1e 	bx	lr

00105b38 <read_csr_write_sequence_number>:
  105b38:	e52db004 	push	{fp}		; (str fp, [sp, #-4]!)
  105b3c:	e28db000 	add	fp, sp, #0
  105b40:	e24dd00c 	sub	sp, sp, #12
  105b44:	e50b0008 	str	r0, [fp, #-8]
  105b48:	e51b3008 	ldr	r3, [fp, #-8]
  105b4c:	e2833010 	add	r3, r3, #16
  105b50:	e5933000 	ldr	r3, [r3]
  105b54:	e1a03823 	lsr	r3, r3, #16
  105b58:	e6ff3073 	uxth	r3, r3
  105b5c:	e1a00003 	mov	r0, r3
  105b60:	e24bd000 	sub	sp, fp, #0
  105b64:	e49db004 	pop	{fp}		; (ldr fp, [sp], #4)
  105b68:	e12fff1e 	bx	lr

00105b6c <read_busy>:
  105b6c:	e52db004 	push	{fp}		; (str fp, [sp, #-4]!)
  105b70:	e28db000 	add	fp, sp, #0
  105b74:	e24dd00c 	sub	sp, sp, #12
  105b78:	e50b0008 	str	r0, [fp, #-8]
  105b7c:	e51b3008 	ldr	r3, [fp, #-8]
  105b80:	e5933000 	ldr	r3, [r3]
  105b84:	e2033001 	and	r3, r3, #1
  105b88:	e3530000 	cmp	r3, #0
  105b8c:	13a03001 	movne	r3, #1
  105b90:	03a03000 	moveq	r3, #0
  105b94:	e6ef3073 	uxtb	r3, r3
  105b98:	e1a00003 	mov	r0, r3
  105b9c:	e24bd000 	sub	sp, fp, #0
  105ba0:	e49db004 	pop	{fp}		; (ldr fp, [sp], #4)
  105ba4:	e12fff1e 	bx	lr

00105ba8 <read_descriptor_buffer_empty>:
  105ba8:	e52db004 	push	{fp}		; (str fp, [sp, #-4]!)
  105bac:	e28db000 	add	fp, sp, #0
  105bb0:	e24dd00c 	sub	sp, sp, #12
  105bb4:	e50b0008 	str	r0, [fp, #-8]
  105bb8:	e51b3008 	ldr	r3, [fp, #-8]
  105bbc:	e5933000 	ldr	r3, [r3]
  105bc0:	e2033002 	and	r3, r3, #2
  105bc4:	e3530000 	cmp	r3, #0
  105bc8:	13a03001 	movne	r3, #1
  105bcc:	03a03000 	moveq	r3, #0
  105bd0:	e6ef3073 	uxtb	r3, r3
  105bd4:	e1a00003 	mov	r0, r3
  105bd8:	e24bd000 	sub	sp, fp, #0
  105bdc:	e49db004 	pop	{fp}		; (ldr fp, [sp], #4)
  105be0:	e12fff1e 	bx	lr

00105be4 <read_descriptor_buffer_full>:
  105be4:	e52db004 	push	{fp}		; (str fp, [sp, #-4]!)
  105be8:	e28db000 	add	fp, sp, #0
  105bec:	e24dd00c 	sub	sp, sp, #12
  105bf0:	e50b0008 	str	r0, [fp, #-8]
  105bf4:	e51b3008 	ldr	r3, [fp, #-8]
  105bf8:	e5933000 	ldr	r3, [r3]
  105bfc:	e2033004 	and	r3, r3, #4
  105c00:	e3530000 	cmp	r3, #0
  105c04:	13a03001 	movne	r3, #1
  105c08:	03a03000 	moveq	r3, #0
  105c0c:	e6ef3073 	uxtb	r3, r3
  105c10:	e1a00003 	mov	r0, r3
  105c14:	e24bd000 	sub	sp, fp, #0
  105c18:	e49db004 	pop	{fp}		; (ldr fp, [sp], #4)
  105c1c:	e12fff1e 	bx	lr

00105c20 <read_response_buffer_empty>:
  105c20:	e52db004 	push	{fp}		; (str fp, [sp, #-4]!)
  105c24:	e28db000 	add	fp, sp, #0
  105c28:	e24dd00c 	sub	sp, sp, #12
  105c2c:	e50b0008 	str	r0, [fp, #-8]
  105c30:	e51b3008 	ldr	r3, [fp, #-8]
  105c34:	e5933000 	ldr	r3, [r3]
  105c38:	e2033008 	and	r3, r3, #8
  105c3c:	e3530000 	cmp	r3, #0
  105c40:	13a03001 	movne	r3, #1
  105c44:	03a03000 	moveq	r3, #0
  105c48:	e6ef3073 	uxtb	r3, r3
  105c4c:	e1a00003 	mov	r0, r3
  105c50:	e24bd000 	sub	sp, fp, #0
  105c54:	e49db004 	pop	{fp}		; (ldr fp, [sp], #4)
  105c58:	e12fff1e 	bx	lr

00105c5c <read_response_buffer_full>:
  105c5c:	e52db004 	push	{fp}		; (str fp, [sp, #-4]!)
  105c60:	e28db000 	add	fp, sp, #0
  105c64:	e24dd00c 	sub	sp, sp, #12
  105c68:	e50b0008 	str	r0, [fp, #-8]
  105c6c:	e51b3008 	ldr	r3, [fp, #-8]
  105c70:	e5933000 	ldr	r3, [r3]
  105c74:	e2033010 	and	r3, r3, #16
  105c78:	e3530000 	cmp	r3, #0
  105c7c:	13a03001 	movne	r3, #1
  105c80:	03a03000 	moveq	r3, #0
  105c84:	e6ef3073 	uxtb	r3, r3
  105c88:	e1a00003 	mov	r0, r3
  105c8c:	e24bd000 	sub	sp, fp, #0
  105c90:	e49db004 	pop	{fp}		; (ldr fp, [sp], #4)
  105c94:	e12fff1e 	bx	lr

00105c98 <read_stopped>:
  105c98:	e52db004 	push	{fp}		; (str fp, [sp, #-4]!)
  105c9c:	e28db000 	add	fp, sp, #0
  105ca0:	e24dd00c 	sub	sp, sp, #12
  105ca4:	e50b0008 	str	r0, [fp, #-8]
  105ca8:	e51b3008 	ldr	r3, [fp, #-8]
  105cac:	e5933000 	ldr	r3, [r3]
  105cb0:	e2033020 	and	r3, r3, #32
  105cb4:	e3530000 	cmp	r3, #0
  105cb8:	13a03001 	movne	r3, #1
  105cbc:	03a03000 	moveq	r3, #0
  105cc0:	e6ef3073 	uxtb	r3, r3
  105cc4:	e1a00003 	mov	r0, r3
  105cc8:	e24bd000 	sub	sp, fp, #0
  105ccc:	e49db004 	pop	{fp}		; (ldr fp, [sp], #4)
  105cd0:	e12fff1e 	bx	lr

00105cd4 <read_resetting>:
  105cd4:	e52db004 	push	{fp}		; (str fp, [sp, #-4]!)
  105cd8:	e28db000 	add	fp, sp, #0
  105cdc:	e24dd00c 	sub	sp, sp, #12
  105ce0:	e50b0008 	str	r0, [fp, #-8]
  105ce4:	e51b3008 	ldr	r3, [fp, #-8]
  105ce8:	e5933000 	ldr	r3, [r3]
  105cec:	e2033040 	and	r3, r3, #64	; 0x40
  105cf0:	e3530000 	cmp	r3, #0
  105cf4:	13a03001 	movne	r3, #1
  105cf8:	03a03000 	moveq	r3, #0
  105cfc:	e6ef3073 	uxtb	r3, r3
  105d00:	e1a00003 	mov	r0, r3
  105d04:	e24bd000 	sub	sp, fp, #0
  105d08:	e49db004 	pop	{fp}		; (ldr fp, [sp], #4)
  105d0c:	e12fff1e 	bx	lr

00105d10 <read_stopped_on_error>:
  105d10:	e52db004 	push	{fp}		; (str fp, [sp, #-4]!)
  105d14:	e28db000 	add	fp, sp, #0
  105d18:	e24dd00c 	sub	sp, sp, #12
  105d1c:	e50b0008 	str	r0, [fp, #-8]
  105d20:	e51b3008 	ldr	r3, [fp, #-8]
  105d24:	e5933000 	ldr	r3, [r3]
  105d28:	e2033080 	and	r3, r3, #128	; 0x80
  105d2c:	e3530000 	cmp	r3, #0
  105d30:	13a03001 	movne	r3, #1
  105d34:	03a03000 	moveq	r3, #0
  105d38:	e6ef3073 	uxtb	r3, r3
  105d3c:	e1a00003 	mov	r0, r3
  105d40:	e24bd000 	sub	sp, fp, #0
  105d44:	e49db004 	pop	{fp}		; (ldr fp, [sp], #4)
  105d48:	e12fff1e 	bx	lr

00105d4c <read_stopped_on_early_termination>:
  105d4c:	e52db004 	push	{fp}		; (str fp, [sp, #-4]!)
  105d50:	e28db000 	add	fp, sp, #0
  105d54:	e24dd00c 	sub	sp, sp, #12
  105d58:	e50b0008 	str	r0, [fp, #-8]
  105d5c:	e51b3008 	ldr	r3, [fp, #-8]
  105d60:	e5933000 	ldr	r3, [r3]
  105d64:	e2033c01 	and	r3, r3, #256	; 0x100
  105d68:	e3530000 	cmp	r3, #0
  105d6c:	13a03001 	movne	r3, #1
  105d70:	03a03000 	moveq	r3, #0
  105d74:	e6ef3073 	uxtb	r3, r3
  105d78:	e1a00003 	mov	r0, r3
  105d7c:	e24bd000 	sub	sp, fp, #0
  105d80:	e49db004 	pop	{fp}		; (ldr fp, [sp], #4)
  105d84:	e12fff1e 	bx	lr

00105d88 <read_irq>:
  105d88:	e52db004 	push	{fp}		; (str fp, [sp, #-4]!)
  105d8c:	e28db000 	add	fp, sp, #0
  105d90:	e24dd00c 	sub	sp, sp, #12
  105d94:	e50b0008 	str	r0, [fp, #-8]
  105d98:	e51b3008 	ldr	r3, [fp, #-8]
  105d9c:	e5933000 	ldr	r3, [r3]
  105da0:	e2033c02 	and	r3, r3, #512	; 0x200
  105da4:	e3530000 	cmp	r3, #0
  105da8:	13a03001 	movne	r3, #1
  105dac:	03a03000 	moveq	r3, #0
  105db0:	e6ef3073 	uxtb	r3, r3
  105db4:	e1a00003 	mov	r0, r3
  105db8:	e24bd000 	sub	sp, fp, #0
  105dbc:	e49db004 	pop	{fp}		; (ldr fp, [sp], #4)
  105dc0:	e12fff1e 	bx	lr

00105dc4 <clear_irq>:
  105dc4:	e52db004 	push	{fp}		; (str fp, [sp, #-4]!)
  105dc8:	e28db000 	add	fp, sp, #0
  105dcc:	e24dd00c 	sub	sp, sp, #12
  105dd0:	e50b0008 	str	r0, [fp, #-8]
  105dd4:	e51b3008 	ldr	r3, [fp, #-8]
  105dd8:	e3a02c02 	mov	r2, #512	; 0x200
  105ddc:	e5832000 	str	r2, [r3]
  105de0:	e320f000 	nop	{0}
  105de4:	e24bd000 	sub	sp, fp, #0
  105de8:	e49db004 	pop	{fp}		; (ldr fp, [sp], #4)
  105dec:	e12fff1e 	bx	lr

00105df0 <stop_dispatcher>:
  105df0:	e52db004 	push	{fp}		; (str fp, [sp, #-4]!)
  105df4:	e28db000 	add	fp, sp, #0
  105df8:	e24dd014 	sub	sp, sp, #20
  105dfc:	e50b0010 	str	r0, [fp, #-16]
  105e00:	e51b3010 	ldr	r3, [fp, #-16]
  105e04:	e2833004 	add	r3, r3, #4
  105e08:	e5933000 	ldr	r3, [r3]
  105e0c:	e3833001 	orr	r3, r3, #1
  105e10:	e50b3008 	str	r3, [fp, #-8]
  105e14:	e51b3010 	ldr	r3, [fp, #-16]
  105e18:	e2833004 	add	r3, r3, #4
  105e1c:	e1a02003 	mov	r2, r3
  105e20:	e51b3008 	ldr	r3, [fp, #-8]
  105e24:	e5823000 	str	r3, [r2]
  105e28:	e320f000 	nop	{0}
  105e2c:	e24bd000 	sub	sp, fp, #0
  105e30:	e49db004 	pop	{fp}		; (ldr fp, [sp], #4)
  105e34:	e12fff1e 	bx	lr

00105e38 <start_dispatcher>:
  105e38:	e52db004 	push	{fp}		; (str fp, [sp, #-4]!)
  105e3c:	e28db000 	add	fp, sp, #0
  105e40:	e24dd014 	sub	sp, sp, #20
  105e44:	e50b0010 	str	r0, [fp, #-16]
  105e48:	e51b3010 	ldr	r3, [fp, #-16]
  105e4c:	e2833004 	add	r3, r3, #4
  105e50:	e5933000 	ldr	r3, [r3]
  105e54:	e3c33001 	bic	r3, r3, #1
  105e58:	e50b3008 	str	r3, [fp, #-8]
  105e5c:	e51b3010 	ldr	r3, [fp, #-16]
  105e60:	e2833004 	add	r3, r3, #4
  105e64:	e1a02003 	mov	r2, r3
  105e68:	e51b3008 	ldr	r3, [fp, #-8]
  105e6c:	e5823000 	str	r3, [r2]
  105e70:	e320f000 	nop	{0}
  105e74:	e24bd000 	sub	sp, fp, #0
  105e78:	e49db004 	pop	{fp}		; (ldr fp, [sp], #4)
  105e7c:	e12fff1e 	bx	lr

00105e80 <reset_dispatcher>:
  105e80:	e52db004 	push	{fp}		; (str fp, [sp, #-4]!)
  105e84:	e28db000 	add	fp, sp, #0
  105e88:	e24dd00c 	sub	sp, sp, #12
  105e8c:	e50b0008 	str	r0, [fp, #-8]
  105e90:	e51b3008 	ldr	r3, [fp, #-8]
  105e94:	e2833004 	add	r3, r3, #4
  105e98:	e1a02003 	mov	r2, r3
  105e9c:	e3a03002 	mov	r3, #2
  105ea0:	e5823000 	str	r3, [r2]
  105ea4:	e320f000 	nop	{0}
  105ea8:	e24bd000 	sub	sp, fp, #0
  105eac:	e49db004 	pop	{fp}		; (ldr fp, [sp], #4)
  105eb0:	e12fff1e 	bx	lr

00105eb4 <enable_stop_on_error>:
  105eb4:	e52db004 	push	{fp}		; (str fp, [sp, #-4]!)
  105eb8:	e28db000 	add	fp, sp, #0
  105ebc:	e24dd014 	sub	sp, sp, #20
  105ec0:	e50b0010 	str	r0, [fp, #-16]
  105ec4:	e51b3010 	ldr	r3, [fp, #-16]
  105ec8:	e2833004 	add	r3, r3, #4
  105ecc:	e5933000 	ldr	r3, [r3]
  105ed0:	e3833004 	orr	r3, r3, #4
  105ed4:	e50b3008 	str	r3, [fp, #-8]
  105ed8:	e51b3010 	ldr	r3, [fp, #-16]
  105edc:	e2833004 	add	r3, r3, #4
  105ee0:	e1a02003 	mov	r2, r3
  105ee4:	e51b3008 	ldr	r3, [fp, #-8]
  105ee8:	e5823000 	str	r3, [r2]
  105eec:	e320f000 	nop	{0}
  105ef0:	e24bd000 	sub	sp, fp, #0
  105ef4:	e49db004 	pop	{fp}		; (ldr fp, [sp], #4)
  105ef8:	e12fff1e 	bx	lr

00105efc <disable_stop_on_error>:
  105efc:	e52db004 	push	{fp}		; (str fp, [sp, #-4]!)
  105f00:	e28db000 	add	fp, sp, #0
  105f04:	e24dd014 	sub	sp, sp, #20
  105f08:	e50b0010 	str	r0, [fp, #-16]
  105f0c:	e51b3010 	ldr	r3, [fp, #-16]
  105f10:	e2833004 	add	r3, r3, #4
  105f14:	e5933000 	ldr	r3, [r3]
  105f18:	e3c33004 	bic	r3, r3, #4
  105f1c:	e50b3008 	str	r3, [fp, #-8]
  105f20:	e51b3010 	ldr	r3, [fp, #-16]
  105f24:	e2833004 	add	r3, r3, #4
  105f28:	e1a02003 	mov	r2, r3
  105f2c:	e51b3008 	ldr	r3, [fp, #-8]
  105f30:	e5823000 	str	r3, [r2]
  105f34:	e320f000 	nop	{0}
  105f38:	e24bd000 	sub	sp, fp, #0
  105f3c:	e49db004 	pop	{fp}		; (ldr fp, [sp], #4)
  105f40:	e12fff1e 	bx	lr

00105f44 <enable_stop_on_early_termination>:
  105f44:	e52db004 	push	{fp}		; (str fp, [sp, #-4]!)
  105f48:	e28db000 	add	fp, sp, #0
  105f4c:	e24dd014 	sub	sp, sp, #20
  105f50:	e50b0010 	str	r0, [fp, #-16]
  105f54:	e51b3010 	ldr	r3, [fp, #-16]
  105f58:	e2833004 	add	r3, r3, #4
  105f5c:	e5933000 	ldr	r3, [r3]
  105f60:	e3833008 	orr	r3, r3, #8
  105f64:	e50b3008 	str	r3, [fp, #-8]
  105f68:	e51b3010 	ldr	r3, [fp, #-16]
  105f6c:	e2833004 	add	r3, r3, #4
  105f70:	e1a02003 	mov	r2, r3
  105f74:	e51b3008 	ldr	r3, [fp, #-8]
  105f78:	e5823000 	str	r3, [r2]
  105f7c:	e320f000 	nop	{0}
  105f80:	e24bd000 	sub	sp, fp, #0
  105f84:	e49db004 	pop	{fp}		; (ldr fp, [sp], #4)
  105f88:	e12fff1e 	bx	lr

00105f8c <disable_stop_on_early_termination>:
  105f8c:	e52db004 	push	{fp}		; (str fp, [sp, #-4]!)
  105f90:	e28db000 	add	fp, sp, #0
  105f94:	e24dd014 	sub	sp, sp, #20
  105f98:	e50b0010 	str	r0, [fp, #-16]
  105f9c:	e51b3010 	ldr	r3, [fp, #-16]
  105fa0:	e2833004 	add	r3, r3, #4
  105fa4:	e5933000 	ldr	r3, [r3]
  105fa8:	e3c33008 	bic	r3, r3, #8
  105fac:	e50b3008 	str	r3, [fp, #-8]
  105fb0:	e51b3010 	ldr	r3, [fp, #-16]
  105fb4:	e2833004 	add	r3, r3, #4
  105fb8:	e1a02003 	mov	r2, r3
  105fbc:	e51b3008 	ldr	r3, [fp, #-8]
  105fc0:	e5823000 	str	r3, [r2]
  105fc4:	e320f000 	nop	{0}
  105fc8:	e24bd000 	sub	sp, fp, #0
  105fcc:	e49db004 	pop	{fp}		; (ldr fp, [sp], #4)
  105fd0:	e12fff1e 	bx	lr

00105fd4 <enable_global_interrupt_mask>:
  105fd4:	e52db004 	push	{fp}		; (str fp, [sp, #-4]!)
  105fd8:	e28db000 	add	fp, sp, #0
  105fdc:	e24dd014 	sub	sp, sp, #20
  105fe0:	e50b0010 	str	r0, [fp, #-16]
  105fe4:	e51b3010 	ldr	r3, [fp, #-16]
  105fe8:	e2833004 	add	r3, r3, #4
  105fec:	e5933000 	ldr	r3, [r3]
  105ff0:	e3833010 	orr	r3, r3, #16
  105ff4:	e50b3008 	str	r3, [fp, #-8]
  105ff8:	e51b3010 	ldr	r3, [fp, #-16]
  105ffc:	e2833004 	add	r3, r3, #4
  106000:	e1a02003 	mov	r2, r3
  106004:	e51b3008 	ldr	r3, [fp, #-8]
  106008:	e5823000 	str	r3, [r2]
  10600c:	e320f000 	nop	{0}
  106010:	e24bd000 	sub	sp, fp, #0
  106014:	e49db004 	pop	{fp}		; (ldr fp, [sp], #4)
  106018:	e12fff1e 	bx	lr

0010601c <disable_global_interrupt_mask>:
  10601c:	e52db004 	push	{fp}		; (str fp, [sp, #-4]!)
  106020:	e28db000 	add	fp, sp, #0
  106024:	e24dd014 	sub	sp, sp, #20
  106028:	e50b0010 	str	r0, [fp, #-16]
  10602c:	e51b3010 	ldr	r3, [fp, #-16]
  106030:	e2833004 	add	r3, r3, #4
  106034:	e5933000 	ldr	r3, [r3]
  106038:	e3c33010 	bic	r3, r3, #16
  10603c:	e50b3008 	str	r3, [fp, #-8]
  106040:	e51b3010 	ldr	r3, [fp, #-16]
  106044:	e2833004 	add	r3, r3, #4
  106048:	e1a02003 	mov	r2, r3
