
src/hwlib.axf:     file format elf32-littlearm


Disassembly of section .text:

00100040 <__cs3_interrupt_vector>:
  100040:	18 f0 9f e5 18 f0 9f e5 18 f0 9f e5 18 f0 9f e5     ................
  100050:	18 f0 9f e5 18 f0 9f e5 18 f0 9f e5 18 f0 9f e5     ................
  100060:	80 00 10 00 54 cd 11 00 58 cd 11 00 5c cd 11 00     ....T...X...\...
  100070:	60 cd 11 00 50 cd 11 00 64 cd 11 00 68 cd 11 00     `...P...d...h...

00100080 <__cs3_reset>:
  100080:	ea000022 	b	100110 <_start>

00100084 <__cs3_start_c>:
  100084:	e3008002 	movw	r8, #2
  100088:	e92d4080 	push	{r7, lr}
  10008c:	e3408000 	movt	r8, #0
  100090:	e3580000 	cmp	r8, #0
  100094:	0a00001c 	beq	10010c <__cs3_start_c+0x88>
  100098:	e30decec 	movw	lr, #56556	; 0xdcec
  10009c:	e2488001 	sub	r8, r8, #1
  1000a0:	e3a04000 	mov	r4, #0
  1000a4:	e3a05000 	mov	r5, #0
  1000a8:	e340e011 	movt	lr, #17
  1000ac:	e99e1005 	ldmib	lr, {r0, r2, ip}
  1000b0:	e1500002 	cmp	r0, r2
  1000b4:	0082200c 	addeq	r2, r2, ip
  1000b8:	0a000007 	beq	1000dc <__cs3_start_c+0x58>
  1000bc:	e35c0000 	cmp	ip, #0
  1000c0:	0a000005 	beq	1000dc <__cs3_start_c+0x58>
  1000c4:	e1a03000 	mov	r3, r0
  1000c8:	e0c360d8 	ldrd	r6, [r3], #8
  1000cc:	e0431000 	sub	r1, r3, r0
  1000d0:	e0c260f8 	strd	r6, [r2], #8
  1000d4:	e151000c 	cmp	r1, ip
  1000d8:	1afffffa 	bne	1000c8 <__cs3_start_c+0x44>
  1000dc:	e59e0010 	ldr	r0, [lr, #16]
  1000e0:	e3500000 	cmp	r0, #0
  1000e4:	11a03002 	movne	r3, r2
  1000e8:	0a000003 	beq	1000fc <__cs3_start_c+0x78>
  1000ec:	e0c340f8 	strd	r4, [r3], #8
  1000f0:	e0431002 	sub	r1, r3, r2
  1000f4:	e1500001 	cmp	r0, r1
  1000f8:	1afffffb 	bne	1000ec <__cs3_start_c+0x68>
  1000fc:	e2488001 	sub	r8, r8, #1
  100100:	e28ee014 	add	lr, lr, #20
  100104:	e3780001 	cmn	r8, #1
  100108:	1affffe7 	bne	1000ac <__cs3_start_c+0x28>
  10010c:	eb0072c2 	bl	11cc1c <__cs3_premain>

00100110 <_start>:
  100110:	e51fd000 	ldr	sp, [pc, #-0]	; 100118 <_start+0x8>
  100114:	eaffffda 	b	100084 <__cs3_start_c>
  100118:	01100040 	.word	0x01100040

0010011c <deregister_tm_clones>:
  10011c:	e59f3024 	ldr	r3, [pc, #36]	; 100148 <deregister_tm_clones+0x2c>
  100120:	e3080aa0 	movw	r0, #35488	; 0x8aa0
  100124:	e3400012 	movt	r0, #18
  100128:	e0433000 	sub	r3, r3, r0
  10012c:	e3530006 	cmp	r3, #6
  100130:	912fff1e 	bxls	lr
  100134:	e3003000 	movw	r3, #0
  100138:	e3403000 	movt	r3, #0
  10013c:	e3530000 	cmp	r3, #0
  100140:	012fff1e 	bxeq	lr
  100144:	e12fff13 	bx	r3
  100148:	00128aa3 	.word	0x00128aa3

0010014c <register_tm_clones>:
  10014c:	e3083aa0 	movw	r3, #35488	; 0x8aa0
  100150:	e3080aa0 	movw	r0, #35488	; 0x8aa0
  100154:	e3403012 	movt	r3, #18
  100158:	e3400012 	movt	r0, #18
  10015c:	e0431000 	sub	r1, r3, r0
  100160:	e1a01141 	asr	r1, r1, #2
  100164:	e0811fa1 	add	r1, r1, r1, lsr #31
  100168:	e1b010c1 	asrs	r1, r1, #1
  10016c:	012fff1e 	bxeq	lr
  100170:	e3003000 	movw	r3, #0
  100174:	e3403000 	movt	r3, #0
  100178:	e3530000 	cmp	r3, #0
  10017c:	012fff1e 	bxeq	lr
  100180:	e12fff13 	bx	r3

00100184 <__do_global_dtors_aux>:
  100184:	e92d4010 	push	{r4, lr}
  100188:	e3084aa0 	movw	r4, #35488	; 0x8aa0
  10018c:	e3404012 	movt	r4, #18
  100190:	e5d43000 	ldrb	r3, [r4]
  100194:	e3530000 	cmp	r3, #0
  100198:	18bd8010 	popne	{r4, pc}
  10019c:	ebffffde 	bl	10011c <deregister_tm_clones>
  1001a0:	e3003000 	movw	r3, #0
  1001a4:	e3403000 	movt	r3, #0
  1001a8:	e3530000 	cmp	r3, #0
  1001ac:	0a000002 	beq	1001bc <__do_global_dtors_aux+0x38>
  1001b0:	e30c0df0 	movw	r0, #52720	; 0xcdf0
  1001b4:	e3400011 	movt	r0, #17
  1001b8:	e320f000 	nop	{0}
  1001bc:	e3a03001 	mov	r3, #1
  1001c0:	e5c43000 	strb	r3, [r4]
  1001c4:	e8bd8010 	pop	{r4, pc}

001001c8 <frame_dummy>:
  1001c8:	e3003000 	movw	r3, #0
  1001cc:	e92d4010 	push	{r4, lr}
  1001d0:	e3403000 	movt	r3, #0
  1001d4:	e3530000 	cmp	r3, #0
  1001d8:	0a000004 	beq	1001f0 <frame_dummy+0x28>
  1001dc:	e3081aa4 	movw	r1, #35492	; 0x8aa4
  1001e0:	e30c0df0 	movw	r0, #52720	; 0xcdf0
  1001e4:	e3401012 	movt	r1, #18
  1001e8:	e3400011 	movt	r0, #17
  1001ec:	e320f000 	nop	{0}
  1001f0:	e3000000 	movw	r0, #0
  1001f4:	e3400012 	movt	r0, #18
  1001f8:	e5903000 	ldr	r3, [r0]
  1001fc:	e3530000 	cmp	r3, #0
  100200:	1a000001 	bne	10020c <frame_dummy+0x44>
  100204:	e8bd4010 	pop	{r4, lr}
  100208:	eaffffcf 	b	10014c <register_tm_clones>
  10020c:	e3003000 	movw	r3, #0
  100210:	e3403000 	movt	r3, #0
  100214:	e3530000 	cmp	r3, #0
  100218:	0afffff9 	beq	100204 <frame_dummy+0x3c>
  10021c:	e12fff33 	blx	r3
  100220:	eafffff7 	b	100204 <frame_dummy+0x3c>
  100224:	00000000 	andeq	r0, r0, r0

00100228 <ad7768_evb_clear_status>:
  100228:	e92d4800 	push	{fp, lr}
  10022c:	e28db004 	add	fp, sp, #4
  100230:	e24dd020 	sub	sp, sp, #32
  100234:	e50b0020 	str	r0, [fp, #-32]	; 0xffffffe0
  100238:	e3a03000 	mov	r3, #0
  10023c:	e50b3018 	str	r3, [fp, #-24]	; 0xffffffe8
  100240:	e30d3358 	movw	r3, #54104	; 0xd358
  100244:	e3403011 	movt	r3, #17
  100248:	e50b3014 	str	r3, [fp, #-20]	; 0xffffffec
  10024c:	e51b3020 	ldr	r3, [fp, #-32]	; 0xffffffe0
  100250:	e50b3010 	str	r3, [fp, #-16]
  100254:	e3a03000 	mov	r3, #0
  100258:	e54b3005 	strb	r3, [fp, #-5]
  10025c:	ea000018 	b	1002c4 <ad7768_evb_clear_status+0x9c>
  100260:	e55b3005 	ldrb	r3, [fp, #-5]
  100264:	e50b3018 	str	r3, [fp, #-24]	; 0xffffffe8
  100268:	e24b2018 	sub	r2, fp, #24
  10026c:	e24b301c 	sub	r3, fp, #28
  100270:	e1a01002 	mov	r1, r2
  100274:	e1a00003 	mov	r0, r3
  100278:	eb0007ee 	bl	102238 <gpio_get>
  10027c:	e50b000c 	str	r0, [fp, #-12]
  100280:	e51b300c 	ldr	r3, [fp, #-12]
  100284:	e3530000 	cmp	r3, #0
  100288:	1a000011 	bne	1002d4 <ad7768_evb_clear_status+0xac>
  10028c:	e51b301c 	ldr	r3, [fp, #-28]	; 0xffffffe4
  100290:	e3a01001 	mov	r1, #1
  100294:	e1a00003 	mov	r0, r3
  100298:	eb00084d 	bl	1023d4 <gpio_direction_output>
  10029c:	e51b301c 	ldr	r3, [fp, #-28]	; 0xffffffe4
  1002a0:	e1a00003 	mov	r0, r3
  1002a4:	eb000826 	bl	102344 <gpio_remove>
  1002a8:	e50b000c 	str	r0, [fp, #-12]
  1002ac:	e51b300c 	ldr	r3, [fp, #-12]
  1002b0:	e3530000 	cmp	r3, #0
  1002b4:	1a000008 	bne	1002dc <ad7768_evb_clear_status+0xb4>
  1002b8:	e55b3005 	ldrb	r3, [fp, #-5]
  1002bc:	e2833001 	add	r3, r3, #1
  1002c0:	e54b3005 	strb	r3, [fp, #-5]
  1002c4:	e55b3005 	ldrb	r3, [fp, #-5]
  1002c8:	e353001f 	cmp	r3, #31
  1002cc:	9affffe3 	bls	100260 <ad7768_evb_clear_status+0x38>
  1002d0:	ea000002 	b	1002e0 <ad7768_evb_clear_status+0xb8>
  1002d4:	e320f000 	nop	{0}
  1002d8:	ea000000 	b	1002e0 <ad7768_evb_clear_status+0xb8>
  1002dc:	e320f000 	nop	{0}
  1002e0:	e24bd004 	sub	sp, fp, #4
  1002e4:	e8bd8800 	pop	{fp, pc}

001002e8 <ad7768_evb_verify_status>:
  1002e8:	e92d4800 	push	{fp, lr}
  1002ec:	e28db004 	add	fp, sp, #4
  1002f0:	e24dd028 	sub	sp, sp, #40	; 0x28
  1002f4:	e50b0028 	str	r0, [fp, #-40]	; 0xffffffd8
  1002f8:	e3a03000 	mov	r3, #0
  1002fc:	e54b300d 	strb	r3, [fp, #-13]
  100300:	e3a03000 	mov	r3, #0
  100304:	e54b3006 	strb	r3, [fp, #-6]
  100308:	e3a03000 	mov	r3, #0
  10030c:	e50b301c 	str	r3, [fp, #-28]	; 0xffffffe4
  100310:	e30d3358 	movw	r3, #54104	; 0xd358
  100314:	e3403011 	movt	r3, #17
  100318:	e50b3018 	str	r3, [fp, #-24]	; 0xffffffe8
  10031c:	e51b3028 	ldr	r3, [fp, #-40]	; 0xffffffd8
  100320:	e50b3014 	str	r3, [fp, #-20]	; 0xffffffec
  100324:	e3a03000 	mov	r3, #0
  100328:	e54b3005 	strb	r3, [fp, #-5]
  10032c:	ea000024 	b	1003c4 <ad7768_evb_verify_status+0xdc>
  100330:	e55b3005 	ldrb	r3, [fp, #-5]
  100334:	e50b301c 	str	r3, [fp, #-28]	; 0xffffffe4
  100338:	e24b201c 	sub	r2, fp, #28
  10033c:	e24b3020 	sub	r3, fp, #32
  100340:	e1a01002 	mov	r1, r2
  100344:	e1a00003 	mov	r0, r3
  100348:	eb0007ba 	bl	102238 <gpio_get>
  10034c:	e50b000c 	str	r0, [fp, #-12]
  100350:	e51b300c 	ldr	r3, [fp, #-12]
  100354:	e3530000 	cmp	r3, #0
  100358:	0a000001 	beq	100364 <ad7768_evb_verify_status+0x7c>
  10035c:	e3a030ff 	mov	r3, #255	; 0xff
  100360:	ea00001b 	b	1003d4 <ad7768_evb_verify_status+0xec>
  100364:	e51b3020 	ldr	r3, [fp, #-32]	; 0xffffffe0
  100368:	e1a00003 	mov	r0, r3
  10036c:	eb000806 	bl	10238c <gpio_direction_input>
  100370:	e51b3020 	ldr	r3, [fp, #-32]	; 0xffffffe0
  100374:	e24b200d 	sub	r2, fp, #13
  100378:	e1a01002 	mov	r1, r2
  10037c:	e1a00003 	mov	r0, r3
  100380:	eb000853 	bl	1024d4 <gpio_get_value>
  100384:	e51b3020 	ldr	r3, [fp, #-32]	; 0xffffffe0
  100388:	e1a00003 	mov	r0, r3
  10038c:	eb0007ec 	bl	102344 <gpio_remove>
  100390:	e50b000c 	str	r0, [fp, #-12]
  100394:	e51b300c 	ldr	r3, [fp, #-12]
  100398:	e3530000 	cmp	r3, #0
  10039c:	0a000001 	beq	1003a8 <ad7768_evb_verify_status+0xc0>
  1003a0:	e3a030ff 	mov	r3, #255	; 0xff
  1003a4:	ea00000a 	b	1003d4 <ad7768_evb_verify_status+0xec>
  1003a8:	e55b200d 	ldrb	r2, [fp, #-13]
  1003ac:	e55b3006 	ldrb	r3, [fp, #-6]
  1003b0:	e0823003 	add	r3, r2, r3
  1003b4:	e54b3006 	strb	r3, [fp, #-6]
  1003b8:	e55b3005 	ldrb	r3, [fp, #-5]
  1003bc:	e2833001 	add	r3, r3, #1
  1003c0:	e54b3005 	strb	r3, [fp, #-5]
  1003c4:	e55b3005 	ldrb	r3, [fp, #-5]
  1003c8:	e353001f 	cmp	r3, #31
  1003cc:	9affffd7 	bls	100330 <ad7768_evb_verify_status+0x48>
  1003d0:	e55b3006 	ldrb	r3, [fp, #-6]
  1003d4:	e1a00003 	mov	r0, r3
  1003d8:	e24bd004 	sub	sp, fp, #4
  1003dc:	e8bd8800 	pop	{fp, pc}

001003e0 <ad7768_if_gpio_setup>:
  1003e0:	e92d4800 	push	{fp, lr}
  1003e4:	e28db004 	add	fp, sp, #4
  1003e8:	e24dd028 	sub	sp, sp, #40	; 0x28
  1003ec:	e50b0028 	str	r0, [fp, #-40]	; 0xffffffd8
  1003f0:	e1a03001 	mov	r3, r1
  1003f4:	e54b3029 	strb	r3, [fp, #-41]	; 0xffffffd7
  1003f8:	e3a03000 	mov	r3, #0
  1003fc:	e54b3014 	strb	r3, [fp, #-20]	; 0xffffffec
  100400:	e3a03000 	mov	r3, #0
  100404:	e50b3010 	str	r3, [fp, #-16]
  100408:	e3a03020 	mov	r3, #32
  10040c:	e34f3f22 	movt	r3, #65314	; 0xff22
  100410:	e50b300c 	str	r3, [fp, #-12]
  100414:	e51b3028 	ldr	r3, [fp, #-40]	; 0xffffffd8
  100418:	e50b3020 	str	r3, [fp, #-32]	; 0xffffffe0
  10041c:	e30d3358 	movw	r3, #54104	; 0xd358
  100420:	e3403011 	movt	r3, #17
  100424:	e50b301c 	str	r3, [fp, #-28]	; 0xffffffe4
  100428:	e24b3014 	sub	r3, fp, #20
  10042c:	e50b3018 	str	r3, [fp, #-24]	; 0xffffffe8
  100430:	e24b2020 	sub	r2, fp, #32
  100434:	e24b3024 	sub	r3, fp, #36	; 0x24
  100438:	e1a01002 	mov	r1, r2
  10043c:	e1a00003 	mov	r0, r3
  100440:	eb00077c 	bl	102238 <gpio_get>
  100444:	e50b0008 	str	r0, [fp, #-8]
  100448:	e51b3008 	ldr	r3, [fp, #-8]
  10044c:	e3530000 	cmp	r3, #0
  100450:	0a000001 	beq	10045c <ad7768_if_gpio_setup+0x7c>
  100454:	e3e03000 	mvn	r3, #0
  100458:	ea00000e 	b	100498 <ad7768_if_gpio_setup+0xb8>
  10045c:	e51b3024 	ldr	r3, [fp, #-36]	; 0xffffffdc
  100460:	e55b2029 	ldrb	r2, [fp, #-41]	; 0xffffffd7
  100464:	e1a01002 	mov	r1, r2
  100468:	e1a00003 	mov	r0, r3
  10046c:	eb0007d8 	bl	1023d4 <gpio_direction_output>
  100470:	e50b0008 	str	r0, [fp, #-8]
  100474:	e51b3008 	ldr	r3, [fp, #-8]
  100478:	e3530000 	cmp	r3, #0
  10047c:	0a000001 	beq	100488 <ad7768_if_gpio_setup+0xa8>
  100480:	e3e03000 	mvn	r3, #0
  100484:	ea000003 	b	100498 <ad7768_if_gpio_setup+0xb8>
  100488:	e51b3024 	ldr	r3, [fp, #-36]	; 0xffffffdc
  10048c:	e1a00003 	mov	r0, r3
  100490:	eb0007ab 	bl	102344 <gpio_remove>
  100494:	e1a03000 	mov	r3, r0
  100498:	e1a00003 	mov	r0, r3
  10049c:	e24bd004 	sub	sp, fp, #4
  1004a0:	e8bd8800 	pop	{fp, pc}

001004a4 <main>:
  1004a4:	e92d4810 	push	{r4, fp, lr}
  1004a8:	e28db008 	add	fp, sp, #8
  1004ac:	e24ddf4b 	sub	sp, sp, #300	; 0x12c
  1004b0:	e50b00e0 	str	r0, [fp, #-224]	; 0xffffff20
  1004b4:	e50b10e4 	str	r1, [fp, #-228]	; 0xffffff1c
  1004b8:	e30c0e00 	movw	r0, #52736	; 0xce00
  1004bc:	e3400011 	movt	r0, #17
  1004c0:	eb005002 	bl	1144d0 <puts>
  1004c4:	e30c3ef4 	movw	r3, #52980	; 0xcef4
  1004c8:	e3403011 	movt	r3, #17
  1004cc:	e24bc058 	sub	ip, fp, #88	; 0x58
  1004d0:	e893000f 	ldm	r3, {r0, r1, r2, r3}
  1004d4:	e88c000f 	stm	ip, {r0, r1, r2, r3}
  1004d8:	e3a03018 	mov	r3, #24
  1004dc:	e50b3020 	str	r3, [fp, #-32]	; 0xffffffe0
  1004e0:	e3a03b01 	mov	r3, #1024	; 0x400
  1004e4:	e50b3024 	str	r3, [fp, #-36]	; 0xffffffdc
  1004e8:	e3e03000 	mvn	r3, #0
  1004ec:	e54b3025 	strb	r3, [fp, #-37]	; 0xffffffdb
  1004f0:	e3a03000 	mov	r3, #0
  1004f4:	e54b3064 	strb	r3, [fp, #-100]	; 0xffffff9c
  1004f8:	e3a03060 	mov	r3, #96	; 0x60
  1004fc:	e34f3f22 	movt	r3, #65314	; 0xff22
  100500:	e50b3060 	str	r3, [fp, #-96]	; 0xffffffa0
  100504:	e3a03000 	mov	r3, #0
  100508:	e54b3070 	strb	r3, [fp, #-112]	; 0xffffff90
  10050c:	e3a03000 	mov	r3, #0
  100510:	e50b306c 	str	r3, [fp, #-108]	; 0xffffff94
  100514:	e3a03050 	mov	r3, #80	; 0x50
  100518:	e34f3f22 	movt	r3, #65314	; 0xff22
  10051c:	e50b3068 	str	r3, [fp, #-104]	; 0xffffff98
  100520:	e24b30cc 	sub	r3, fp, #204	; 0xcc
  100524:	e3a0205c 	mov	r2, #92	; 0x5c
  100528:	e3a01000 	mov	r1, #0
  10052c:	e1a00003 	mov	r0, r3
  100530:	eb004f3e 	bl	114230 <memset>
  100534:	e3043240 	movw	r3, #16960	; 0x4240
  100538:	e340300f 	movt	r3, #15
  10053c:	e50b30c8 	str	r3, [fp, #-200]	; 0xffffff38
  100540:	e30d3378 	movw	r3, #54136	; 0xd378
  100544:	e3403011 	movt	r3, #17
  100548:	e50b30c0 	str	r3, [fp, #-192]	; 0xffffff40
  10054c:	e24b3064 	sub	r3, fp, #100	; 0x64
  100550:	e50b30bc 	str	r3, [fp, #-188]	; 0xffffff44
  100554:	e3a0305e 	mov	r3, #94	; 0x5e
  100558:	e50b30b8 	str	r3, [fp, #-184]	; 0xffffff48
  10055c:	e30d3358 	movw	r3, #54104	; 0xd358
  100560:	e3403011 	movt	r3, #17
  100564:	e50b30b4 	str	r3, [fp, #-180]	; 0xffffff4c
  100568:	e24b3070 	sub	r3, fp, #112	; 0x70
  10056c:	e50b30b0 	str	r3, [fp, #-176]	; 0xffffff50
  100570:	e3a03001 	mov	r3, #1
  100574:	e54b30ac 	strb	r3, [fp, #-172]	; 0xffffff54
  100578:	e3a03066 	mov	r3, #102	; 0x66
  10057c:	e50b30a8 	str	r3, [fp, #-168]	; 0xffffff58
  100580:	e30d3358 	movw	r3, #54104	; 0xd358
  100584:	e3403011 	movt	r3, #17
  100588:	e50b30a4 	str	r3, [fp, #-164]	; 0xffffff5c
  10058c:	e24b3070 	sub	r3, fp, #112	; 0x70
  100590:	e50b30a0 	str	r3, [fp, #-160]	; 0xffffff60
  100594:	e3a03067 	mov	r3, #103	; 0x67
  100598:	e50b309c 	str	r3, [fp, #-156]	; 0xffffff64
  10059c:	e30d3358 	movw	r3, #54104	; 0xd358
  1005a0:	e3403011 	movt	r3, #17
  1005a4:	e50b3098 	str	r3, [fp, #-152]	; 0xffffff68
  1005a8:	e24b3070 	sub	r3, fp, #112	; 0x70
  1005ac:	e50b3094 	str	r3, [fp, #-148]	; 0xffffff6c
  1005b0:	e3a03068 	mov	r3, #104	; 0x68
  1005b4:	e50b3090 	str	r3, [fp, #-144]	; 0xffffff70
  1005b8:	e30d3358 	movw	r3, #54104	; 0xd358
  1005bc:	e3403011 	movt	r3, #17
  1005c0:	e50b308c 	str	r3, [fp, #-140]	; 0xffffff74
  1005c4:	e24b3070 	sub	r3, fp, #112	; 0x70
  1005c8:	e50b3088 	str	r3, [fp, #-136]	; 0xffffff78
  1005cc:	e3a03069 	mov	r3, #105	; 0x69
  1005d0:	e50b3084 	str	r3, [fp, #-132]	; 0xffffff7c
  1005d4:	e30d3358 	movw	r3, #54104	; 0xd358
  1005d8:	e3403011 	movt	r3, #17
  1005dc:	e50b3080 	str	r3, [fp, #-128]	; 0xffffff80
  1005e0:	e24b3070 	sub	r3, fp, #112	; 0x70
  1005e4:	e50b307c 	str	r3, [fp, #-124]	; 0xffffff84
  1005e8:	e3a03001 	mov	r3, #1
  1005ec:	e54b3078 	strb	r3, [fp, #-120]	; 0xffffff88
  1005f0:	e3a03003 	mov	r3, #3
  1005f4:	e54b3076 	strb	r3, [fp, #-118]	; 0xffffff8a
  1005f8:	e3a03003 	mov	r3, #3
  1005fc:	e54b3075 	strb	r3, [fp, #-117]	; 0xffffff8b
  100600:	e3a03003 	mov	r3, #3
  100604:	e54b3074 	strb	r3, [fp, #-116]	; 0xffffff8c
  100608:	e30c3e28 	movw	r3, #52776	; 0xce28
  10060c:	e3403011 	movt	r3, #17
  100610:	e50b30dc 	str	r3, [fp, #-220]	; 0xffffff24
  100614:	e3a03000 	mov	r3, #0
  100618:	e34f3f24 	movt	r3, #65316	; 0xff24
  10061c:	e50b30d8 	str	r3, [fp, #-216]	; 0xffffff28
  100620:	e55b3025 	ldrb	r3, [fp, #-37]	; 0xffffffdb
  100624:	e54b30d4 	strb	r3, [fp, #-212]	; 0xffffff2c
  100628:	e3a03000 	mov	r3, #0
  10062c:	e50b302c 	str	r3, [fp, #-44]	; 0xffffffd4
  100630:	e3a03000 	mov	r3, #0
  100634:	e50b3030 	str	r3, [fp, #-48]	; 0xffffffd0
  100638:	e3a03000 	mov	r3, #0
  10063c:	e50b3014 	str	r3, [fp, #-20]	; 0xffffffec
  100640:	e3a03000 	mov	r3, #0
  100644:	e50b3018 	str	r3, [fp, #-24]	; 0xffffffe8
  100648:	e3a03000 	mov	r3, #0
  10064c:	e50b301c 	str	r3, [fp, #-28]	; 0xffffffe4
  100650:	e3a01000 	mov	r1, #0
  100654:	e3a0005a 	mov	r0, #90	; 0x5a
  100658:	ebffff60 	bl	1003e0 <ad7768_if_gpio_setup>
  10065c:	e50b0034 	str	r0, [fp, #-52]	; 0xffffffcc
  100660:	e51b3034 	ldr	r3, [fp, #-52]	; 0xffffffcc
  100664:	e3530000 	cmp	r3, #0
  100668:	0a000001 	beq	100674 <main+0x1d0>
  10066c:	e51b3034 	ldr	r3, [fp, #-52]	; 0xffffffcc
  100670:	ea0000dc 	b	1009e8 <main+0x544>
  100674:	e3a01000 	mov	r1, #0
  100678:	e3a00059 	mov	r0, #89	; 0x59
  10067c:	ebffff57 	bl	1003e0 <ad7768_if_gpio_setup>
  100680:	e50b0034 	str	r0, [fp, #-52]	; 0xffffffcc
  100684:	e51b3034 	ldr	r3, [fp, #-52]	; 0xffffffcc
  100688:	e3530000 	cmp	r3, #0
  10068c:	0a000001 	beq	100698 <main+0x1f4>
  100690:	e51b3034 	ldr	r3, [fp, #-52]	; 0xffffffcc
  100694:	ea0000d3 	b	1009e8 <main+0x544>
  100698:	e3a01000 	mov	r1, #0
  10069c:	e3a00058 	mov	r0, #88	; 0x58
  1006a0:	ebffff4e 	bl	1003e0 <ad7768_if_gpio_setup>
  1006a4:	e50b0034 	str	r0, [fp, #-52]	; 0xffffffcc
  1006a8:	e51b3034 	ldr	r3, [fp, #-52]	; 0xffffffcc
  1006ac:	e3530000 	cmp	r3, #0
  1006b0:	0a000001 	beq	1006bc <main+0x218>
  1006b4:	e51b3034 	ldr	r3, [fp, #-52]	; 0xffffffcc
  1006b8:	ea0000ca 	b	1009e8 <main+0x544>
  1006bc:	e3a01000 	mov	r1, #0
  1006c0:	e3a00057 	mov	r0, #87	; 0x57
  1006c4:	ebffff45 	bl	1003e0 <ad7768_if_gpio_setup>
  1006c8:	e50b0034 	str	r0, [fp, #-52]	; 0xffffffcc
  1006cc:	e51b3034 	ldr	r3, [fp, #-52]	; 0xffffffcc
  1006d0:	e3530000 	cmp	r3, #0
  1006d4:	0a000001 	beq	1006e0 <main+0x23c>
  1006d8:	e51b3034 	ldr	r3, [fp, #-52]	; 0xffffffcc
  1006dc:	ea0000c1 	b	1009e8 <main+0x544>
  1006e0:	e3a01000 	mov	r1, #0
  1006e4:	e3a00056 	mov	r0, #86	; 0x56
  1006e8:	ebffff3c 	bl	1003e0 <ad7768_if_gpio_setup>
  1006ec:	e50b0034 	str	r0, [fp, #-52]	; 0xffffffcc
  1006f0:	e51b3034 	ldr	r3, [fp, #-52]	; 0xffffffcc
  1006f4:	e3530000 	cmp	r3, #0
  1006f8:	0a000001 	beq	100704 <main+0x260>
  1006fc:	e51b3034 	ldr	r3, [fp, #-52]	; 0xffffffcc
  100700:	ea0000b8 	b	1009e8 <main+0x544>
  100704:	e24b403c 	sub	r4, fp, #60	; 0x3c
  100708:	e1a0000d 	mov	r0, sp
  10070c:	e24b30c0 	sub	r3, fp, #192	; 0xc0
  100710:	e3a02050 	mov	r2, #80	; 0x50
  100714:	e1a01003 	mov	r1, r3
  100718:	eb004e7f 	bl	11411c <memcpy>
  10071c:	e24b30cc 	sub	r3, fp, #204	; 0xcc
  100720:	e893000e 	ldm	r3, {r1, r2, r3}
  100724:	e1a00004 	mov	r0, r4
  100728:	eb000477 	bl	10190c <ad7768_setup>
  10072c:	e24b20dc 	sub	r2, fp, #220	; 0xdc
  100730:	e24b30d0 	sub	r3, fp, #208	; 0xd0
  100734:	e1a01002 	mov	r1, r2
  100738:	e1a00003 	mov	r0, r3
  10073c:	eb000d14 	bl	103b94 <axi_adc_init>
  100740:	e50b0034 	str	r0, [fp, #-52]	; 0xffffffcc
  100744:	e51b3034 	ldr	r3, [fp, #-52]	; 0xffffffcc
  100748:	e3530000 	cmp	r3, #0
  10074c:	0a000001 	beq	100758 <main+0x2b4>
  100750:	e3e03000 	mvn	r3, #0
  100754:	ea0000a3 	b	1009e8 <main+0x544>
  100758:	e3a03000 	mov	r3, #0
  10075c:	e54b3048 	strb	r3, [fp, #-72]	; 0xffffffb8
  100760:	e3a03000 	mov	r3, #0
  100764:	e50b3044 	str	r3, [fp, #-68]	; 0xffffffbc
  100768:	e24b3048 	sub	r3, fp, #72	; 0x48
  10076c:	e1a00003 	mov	r0, r3
  100770:	ebfffeac 	bl	100228 <ad7768_evb_clear_status>
  100774:	e24b3048 	sub	r3, fp, #72	; 0x48
  100778:	e1a00003 	mov	r0, r3
  10077c:	ebfffed9 	bl	1002e8 <ad7768_evb_verify_status>
  100780:	e1a03000 	mov	r3, r0
  100784:	e3530000 	cmp	r3, #0
  100788:	0a000003 	beq	10079c <main+0x2f8>
  10078c:	e30c0e38 	movw	r0, #52792	; 0xce38
  100790:	e3400011 	movt	r0, #17
  100794:	eb004f4d 	bl	1144d0 <puts>
  100798:	ea000002 	b	1007a8 <main+0x304>
  10079c:	e30c0e4c 	movw	r0, #52812	; 0xce4c
  1007a0:	e3400011 	movt	r0, #17
  1007a4:	eb004f49 	bl	1144d0 <puts>
  1007a8:	e24b2058 	sub	r2, fp, #88	; 0x58
  1007ac:	e24b305c 	sub	r3, fp, #92	; 0x5c
  1007b0:	e1a01002 	mov	r1, r2
  1007b4:	e1a00003 	mov	r0, r3
  1007b8:	eb00062c 	bl	102070 <axi_dmac_init>
  1007bc:	e50b0034 	str	r0, [fp, #-52]	; 0xffffffcc
  1007c0:	e51b3034 	ldr	r3, [fp, #-52]	; 0xffffffcc
  1007c4:	e3530000 	cmp	r3, #0
  1007c8:	0a000001 	beq	1007d4 <main+0x330>
  1007cc:	e3e03000 	mvn	r3, #0
  1007d0:	ea000084 	b	1009e8 <main+0x544>
  1007d4:	e3a03000 	mov	r3, #0
  1007d8:	e50b301c 	str	r3, [fp, #-28]	; 0xffffffe4
  1007dc:	ea00000b 	b	100810 <main+0x36c>
  1007e0:	e55b2025 	ldrb	r2, [fp, #-37]	; 0xffffffdb
  1007e4:	e51b301c 	ldr	r3, [fp, #-28]	; 0xffffffe4
  1007e8:	e1a03352 	asr	r3, r2, r3
  1007ec:	e2033001 	and	r3, r3, #1
  1007f0:	e3530000 	cmp	r3, #0
  1007f4:	0a000002 	beq	100804 <main+0x360>
  1007f8:	e51b3014 	ldr	r3, [fp, #-20]	; 0xffffffec
  1007fc:	e2833001 	add	r3, r3, #1
  100800:	e50b3014 	str	r3, [fp, #-20]	; 0xffffffec
  100804:	e51b301c 	ldr	r3, [fp, #-28]	; 0xffffffe4
  100808:	e2833001 	add	r3, r3, #1
  10080c:	e50b301c 	str	r3, [fp, #-28]	; 0xffffffe4
  100810:	e51b301c 	ldr	r3, [fp, #-28]	; 0xffffffe4
  100814:	e3530007 	cmp	r3, #7
  100818:	dafffff0 	ble	1007e0 <main+0x33c>
  10081c:	e51b3014 	ldr	r3, [fp, #-20]	; 0xffffffec
  100820:	e51b2024 	ldr	r2, [fp, #-36]	; 0xffffffdc
  100824:	e0030392 	mul	r3, r2, r3
  100828:	e51b2020 	ldr	r2, [fp, #-32]	; 0xffffffe0
  10082c:	e2822008 	add	r2, r2, #8
  100830:	e1a021a2 	lsr	r2, r2, #3
  100834:	e0030392 	mul	r3, r2, r3
  100838:	e50b3038 	str	r3, [fp, #-56]	; 0xffffffc8
  10083c:	e30c0e5c 	movw	r0, #52828	; 0xce5c
  100840:	e3400011 	movt	r0, #17
  100844:	eb004f21 	bl	1144d0 <puts>
  100848:	e51b305c 	ldr	r3, [fp, #-92]	; 0xffffffa4
  10084c:	e51b2038 	ldr	r2, [fp, #-56]	; 0xffffffc8
  100850:	e3a01000 	mov	r1, #0
  100854:	e3471810 	movt	r1, #30736	; 0x7810
  100858:	e1a00003 	mov	r0, r3
  10085c:	eb00056e 	bl	101e1c <axi_dmac_transfer>
  100860:	e50b0034 	str	r0, [fp, #-52]	; 0xffffffcc
  100864:	e51b3034 	ldr	r3, [fp, #-52]	; 0xffffffcc
  100868:	e3530000 	cmp	r3, #0
  10086c:	0a000001 	beq	100878 <main+0x3d4>
  100870:	e3e03000 	mvn	r3, #0
  100874:	ea00005b 	b	1009e8 <main+0x544>
  100878:	e30c0e70 	movw	r0, #52848	; 0xce70
  10087c:	e3400011 	movt	r0, #17
  100880:	eb004f12 	bl	1144d0 <puts>
  100884:	e24b3048 	sub	r3, fp, #72	; 0x48
  100888:	e1a00003 	mov	r0, r3
  10088c:	ebfffe95 	bl	1002e8 <ad7768_evb_verify_status>
  100890:	e1a03000 	mov	r3, r0
  100894:	e3530000 	cmp	r3, #0
  100898:	0a000003 	beq	1008ac <main+0x408>
  10089c:	e30c0e38 	movw	r0, #52792	; 0xce38
  1008a0:	e3400011 	movt	r0, #17
  1008a4:	eb004f09 	bl	1144d0 <puts>
  1008a8:	ea000002 	b	1008b8 <main+0x414>
  1008ac:	e30c0e4c 	movw	r0, #52812	; 0xce4c
  1008b0:	e3400011 	movt	r0, #17
  1008b4:	eb004f05 	bl	1144d0 <puts>
  1008b8:	e51b3024 	ldr	r3, [fp, #-36]	; 0xffffffdc
  1008bc:	e1a03283 	lsl	r3, r3, #5
  1008c0:	e1a01003 	mov	r1, r3
  1008c4:	e3a00000 	mov	r0, #0
  1008c8:	e3470810 	movt	r0, #30736	; 0x7810
  1008cc:	eb004402 	bl	1118dc <alt_cache_system_invalidate>
  1008d0:	e30c0e80 	movw	r0, #52864	; 0xce80
  1008d4:	e3400011 	movt	r0, #17
  1008d8:	eb004eae 	bl	114398 <printf>
  1008dc:	e30c0ec4 	movw	r0, #52932	; 0xcec4
  1008e0:	e3400011 	movt	r0, #17
  1008e4:	eb004eab 	bl	114398 <printf>
  1008e8:	e3a03000 	mov	r3, #0
  1008ec:	e50b3010 	str	r3, [fp, #-16]
  1008f0:	ea000032 	b	1009c0 <main+0x51c>
  1008f4:	e55b2025 	ldrb	r2, [fp, #-37]	; 0xffffffdb
  1008f8:	e51b3018 	ldr	r3, [fp, #-24]	; 0xffffffe8
  1008fc:	e2831001 	add	r1, r3, #1
  100900:	e50b1018 	str	r1, [fp, #-24]	; 0xffffffe8
  100904:	e1a03352 	asr	r3, r2, r3
  100908:	e2033001 	and	r3, r3, #1
  10090c:	e3530000 	cmp	r3, #0
  100910:	0a000013 	beq	100964 <main+0x4c0>
  100914:	e51b3010 	ldr	r3, [fp, #-16]
  100918:	e283341e 	add	r3, r3, #503316480	; 0x1e000000
  10091c:	e2833701 	add	r3, r3, #262144	; 0x40000
  100920:	e1a03103 	lsl	r3, r3, #2
  100924:	e50b302c 	str	r3, [fp, #-44]	; 0xffffffd4
  100928:	e51b302c 	ldr	r3, [fp, #-44]	; 0xffffffd4
  10092c:	e5933000 	ldr	r3, [r3]
  100930:	e7f63053 	ubfx	r3, r3, #0, #23
  100934:	e50b3030 	str	r3, [fp, #-48]	; 0xffffffd0
  100938:	e51b3030 	ldr	r3, [fp, #-48]	; 0xffffffd0
  10093c:	ee073a90 	vmov	s15, r3
  100940:	eef87ae7 	vcvt.f32.s32	s15, s15
  100944:	eef70ae7 	vcvt.f64.f32	d16, s15
  100948:	eddf1b2a 	vldr	d17, [pc, #168]	; 1009f8 <main+0x554>
  10094c:	ee600ba1 	vmul.f64	d16, d16, d17
  100950:	ec532b30 	vmov	r2, r3, d16
  100954:	e30c0ec8 	movw	r0, #52936	; 0xcec8
  100958:	e3400011 	movt	r0, #17
  10095c:	eb004e8d 	bl	114398 <printf>
  100960:	ea000005 	b	10097c <main+0x4d8>
  100964:	e30c0ed0 	movw	r0, #52944	; 0xced0
  100968:	e3400011 	movt	r0, #17
  10096c:	eb004e89 	bl	114398 <printf>
  100970:	e51b3018 	ldr	r3, [fp, #-24]	; 0xffffffe8
  100974:	e3530007 	cmp	r3, #7
  100978:	daffffdd 	ble	1008f4 <main+0x450>
  10097c:	e51b3018 	ldr	r3, [fp, #-24]	; 0xffffffe8
  100980:	e3530008 	cmp	r3, #8
  100984:	1a00000a 	bne	1009b4 <main+0x510>
  100988:	e3a03000 	mov	r3, #0
  10098c:	e50b3018 	str	r3, [fp, #-24]	; 0xffffffe8
  100990:	e15b32d5 	ldrsb	r3, [fp, #-37]	; 0xffffffdb
  100994:	e3530000 	cmp	r3, #0
  100998:	ba000002 	blt	1009a8 <main+0x504>
  10099c:	e51b3010 	ldr	r3, [fp, #-16]
  1009a0:	e2433001 	sub	r3, r3, #1
  1009a4:	e50b3010 	str	r3, [fp, #-16]
  1009a8:	e30c0ec4 	movw	r0, #52932	; 0xcec4
  1009ac:	e3400011 	movt	r0, #17
  1009b0:	eb004e78 	bl	114398 <printf>
  1009b4:	e51b3010 	ldr	r3, [fp, #-16]
  1009b8:	e2833001 	add	r3, r3, #1
  1009bc:	e50b3010 	str	r3, [fp, #-16]
  1009c0:	e51b3014 	ldr	r3, [fp, #-20]	; 0xffffffec
  1009c4:	e51b2024 	ldr	r2, [fp, #-36]	; 0xffffffdc
  1009c8:	e0020392 	mul	r2, r2, r3
  1009cc:	e51b3010 	ldr	r3, [fp, #-16]
  1009d0:	e1520003 	cmp	r2, r3
  1009d4:	8affffe5 	bhi	100970 <main+0x4cc>
  1009d8:	e30c0edc 	movw	r0, #52956	; 0xcedc
  1009dc:	e3400011 	movt	r0, #17
  1009e0:	eb004eba 	bl	1144d0 <puts>
  1009e4:	e3a03000 	mov	r3, #0
  1009e8:	e1a00003 	mov	r0, r3
  1009ec:	e24bd008 	sub	sp, fp, #8
  1009f0:	e8bd8810 	pop	{r4, fp, pc}
  1009f4:	e320f000 	nop	{0}
  1009f8:	59450486 	.word	0x59450486
  1009fc:	3ea05fe3 	.word	0x3ea05fe3

00100a00 <cache_fun>:
  100a00:	e92d4800 	push	{fp, lr}
  100a04:	e28db004 	add	fp, sp, #4
  100a08:	e3a00009 	mov	r0, #9
  100a0c:	eb000001 	bl	100a18 <cache_configuration>
  100a10:	e320f000 	nop	{0}
  100a14:	e8bd8800 	pop	{fp, pc}

00100a18 <cache_configuration>:
  100a18:	e92d4800 	push	{fp, lr}
  100a1c:	e28db004 	add	fp, sp, #4
  100a20:	e24dd008 	sub	sp, sp, #8
  100a24:	e50b0008 	str	r0, [fp, #-8]
  100a28:	e51b3008 	ldr	r3, [fp, #-8]
  100a2c:	e3530000 	cmp	r3, #0
  100a30:	ca000003 	bgt	100a44 <cache_configuration+0x2c>
  100a34:	e30c0f04 	movw	r0, #52996	; 0xcf04
  100a38:	e3400011 	movt	r0, #17
  100a3c:	eb004e55 	bl	114398 <printf>
  100a40:	ea0000a2 	b	100cd0 <cache_configuration+0x2b8>
  100a44:	e51b3008 	ldr	r3, [fp, #-8]
  100a48:	e3530001 	cmp	r3, #1
  100a4c:	ca000004 	bgt	100a64 <cache_configuration+0x4c>
  100a50:	e30c0f20 	movw	r0, #53024	; 0xcf20
  100a54:	e3400011 	movt	r0, #17
  100a58:	eb004e4e 	bl	114398 <printf>
  100a5c:	eb000e5b 	bl	1043d0 <enable_MMU>
  100a60:	ea00009a 	b	100cd0 <cache_configuration+0x2b8>
  100a64:	e51b3008 	ldr	r3, [fp, #-8]
  100a68:	e3530002 	cmp	r3, #2
  100a6c:	ca000005 	bgt	100a88 <cache_configuration+0x70>
  100a70:	e30c0f40 	movw	r0, #53056	; 0xcf40
  100a74:	e3400011 	movt	r0, #17
  100a78:	eb004e46 	bl	114398 <printf>
  100a7c:	eb000e53 	bl	1043d0 <enable_MMU>
  100a80:	eb000e9e 	bl	104500 <initialize_L2C>
  100a84:	ea000091 	b	100cd0 <cache_configuration+0x2b8>
  100a88:	e51b3008 	ldr	r3, [fp, #-8]
  100a8c:	e3530003 	cmp	r3, #3
  100a90:	ca000006 	bgt	100ab0 <cache_configuration+0x98>
  100a94:	e30c0f6c 	movw	r0, #53100	; 0xcf6c
  100a98:	e3400011 	movt	r0, #17
  100a9c:	eb004e3d 	bl	114398 <printf>
  100aa0:	eb000e4a 	bl	1043d0 <enable_MMU>
  100aa4:	eb000e95 	bl	104500 <initialize_L2C>
  100aa8:	eb000ef8 	bl	104690 <enable_SCU>
  100aac:	ea000087 	b	100cd0 <cache_configuration+0x2b8>
  100ab0:	e51b3008 	ldr	r3, [fp, #-8]
  100ab4:	e3530004 	cmp	r3, #4
  100ab8:	ca000007 	bgt	100adc <cache_configuration+0xc4>
  100abc:	e30c0fa0 	movw	r0, #53152	; 0xcfa0
  100ac0:	e3400011 	movt	r0, #17
  100ac4:	eb004e33 	bl	114398 <printf>
  100ac8:	eb000e40 	bl	1043d0 <enable_MMU>
  100acc:	eb000e8b 	bl	104500 <initialize_L2C>
  100ad0:	eb000eee 	bl	104690 <enable_SCU>
  100ad4:	eb000eaf 	bl	104598 <enable_L1_I>
  100ad8:	ea00007c 	b	100cd0 <cache_configuration+0x2b8>
  100adc:	e51b3008 	ldr	r3, [fp, #-8]
  100ae0:	e3530005 	cmp	r3, #5
  100ae4:	ca000008 	bgt	100b0c <cache_configuration+0xf4>
  100ae8:	e30c0fb8 	movw	r0, #53176	; 0xcfb8
  100aec:	e3400011 	movt	r0, #17
  100af0:	eb004e28 	bl	114398 <printf>
  100af4:	eb000e35 	bl	1043d0 <enable_MMU>
  100af8:	eb000e80 	bl	104500 <initialize_L2C>
  100afc:	eb000ee3 	bl	104690 <enable_SCU>
  100b00:	eb000ea4 	bl	104598 <enable_L1_I>
  100b04:	eb000ea7 	bl	1045a8 <enable_branch_prediction>
  100b08:	ea000070 	b	100cd0 <cache_configuration+0x2b8>
  100b0c:	e51b3008 	ldr	r3, [fp, #-8]
  100b10:	e3530006 	cmp	r3, #6
  100b14:	ca000009 	bgt	100b40 <cache_configuration+0x128>
  100b18:	e30c0fe8 	movw	r0, #53224	; 0xcfe8
  100b1c:	e3400011 	movt	r0, #17
  100b20:	eb004e1c 	bl	114398 <printf>
  100b24:	eb000e29 	bl	1043d0 <enable_MMU>
  100b28:	eb000e74 	bl	104500 <initialize_L2C>
  100b2c:	eb000ed7 	bl	104690 <enable_SCU>
  100b30:	eb000e94 	bl	104588 <enable_L1_D>
  100b34:	eb000e97 	bl	104598 <enable_L1_I>
  100b38:	eb000e9a 	bl	1045a8 <enable_branch_prediction>
  100b3c:	ea000063 	b	100cd0 <cache_configuration+0x2b8>
  100b40:	e51b3008 	ldr	r3, [fp, #-8]
  100b44:	e3530007 	cmp	r3, #7
  100b48:	ca00000a 	bgt	100b78 <cache_configuration+0x160>
  100b4c:	e30d001c 	movw	r0, #53276	; 0xd01c
  100b50:	e3400011 	movt	r0, #17
  100b54:	eb004e0f 	bl	114398 <printf>
  100b58:	eb000e1c 	bl	1043d0 <enable_MMU>
  100b5c:	eb000e67 	bl	104500 <initialize_L2C>
  100b60:	eb000eb6 	bl	104640 <enable_L1_D_side_prefetch>
  100b64:	eb000ec9 	bl	104690 <enable_SCU>
  100b68:	eb000e86 	bl	104588 <enable_L1_D>
  100b6c:	eb000e89 	bl	104598 <enable_L1_I>
  100b70:	eb000e8c 	bl	1045a8 <enable_branch_prediction>
  100b74:	ea000055 	b	100cd0 <cache_configuration+0x2b8>
  100b78:	e51b3008 	ldr	r3, [fp, #-8]
  100b7c:	e3530008 	cmp	r3, #8
  100b80:	ca000008 	bgt	100ba8 <cache_configuration+0x190>
  100b84:	e30d0068 	movw	r0, #53352	; 0xd068
  100b88:	e3400011 	movt	r0, #17
  100b8c:	eb004e01 	bl	114398 <printf>
  100b90:	eb000e0e 	bl	1043d0 <enable_MMU>
  100b94:	eb000e59 	bl	104500 <initialize_L2C>
  100b98:	eb000ea8 	bl	104640 <enable_L1_D_side_prefetch>
  100b9c:	eb000ebb 	bl	104690 <enable_SCU>
  100ba0:	eb000e6f 	bl	104564 <enable_caches>
  100ba4:	ea000049 	b	100cd0 <cache_configuration+0x2b8>
  100ba8:	e51b3008 	ldr	r3, [fp, #-8]
  100bac:	e3530009 	cmp	r3, #9
  100bb0:	ca000009 	bgt	100bdc <cache_configuration+0x1c4>
  100bb4:	e30d00b4 	movw	r0, #53428	; 0xd0b4
  100bb8:	e3400011 	movt	r0, #17
  100bbc:	eb004df5 	bl	114398 <printf>
  100bc0:	eb000e02 	bl	1043d0 <enable_MMU>
  100bc4:	eb000e4d 	bl	104500 <initialize_L2C>
  100bc8:	eb000e9c 	bl	104640 <enable_L1_D_side_prefetch>
  100bcc:	eb000e9f 	bl	104650 <enable_L2_prefetch_hint>
  100bd0:	eb000eae 	bl	104690 <enable_SCU>
  100bd4:	eb000e62 	bl	104564 <enable_caches>
  100bd8:	ea00003c 	b	100cd0 <cache_configuration+0x2b8>
  100bdc:	e51b3008 	ldr	r3, [fp, #-8]
  100be0:	e353000a 	cmp	r3, #10
  100be4:	ca00000a 	bgt	100c14 <cache_configuration+0x1fc>
  100be8:	e30d00e8 	movw	r0, #53480	; 0xd0e8
  100bec:	e3400011 	movt	r0, #17
  100bf0:	eb004de8 	bl	114398 <printf>
  100bf4:	eb000df5 	bl	1043d0 <enable_MMU>
  100bf8:	eb000e40 	bl	104500 <initialize_L2C>
  100bfc:	eb000e8f 	bl	104640 <enable_L1_D_side_prefetch>
  100c00:	eb000e92 	bl	104650 <enable_L2_prefetch_hint>
  100c04:	eb000ea1 	bl	104690 <enable_SCU>
  100c08:	eb000e80 	bl	104610 <enable_write_full_line_zeros>
  100c0c:	eb000e54 	bl	104564 <enable_caches>
  100c10:	ea00002e 	b	100cd0 <cache_configuration+0x2b8>
  100c14:	e51b3008 	ldr	r3, [fp, #-8]
  100c18:	e353000b 	cmp	r3, #11
  100c1c:	ca00000b 	bgt	100c50 <cache_configuration+0x238>
  100c20:	e30d0124 	movw	r0, #53540	; 0xd124
  100c24:	e3400011 	movt	r0, #17
  100c28:	eb004dda 	bl	114398 <printf>
  100c2c:	eb000de7 	bl	1043d0 <enable_MMU>
  100c30:	eb000e32 	bl	104500 <initialize_L2C>
  100c34:	eb000e81 	bl	104640 <enable_L1_D_side_prefetch>
  100c38:	eb000e84 	bl	104650 <enable_L2_prefetch_hint>
  100c3c:	eb000e93 	bl	104690 <enable_SCU>
  100c40:	eb000e97 	bl	1046a4 <enable_L2_speculative_linefill>
  100c44:	eb000e71 	bl	104610 <enable_write_full_line_zeros>
  100c48:	eb000e45 	bl	104564 <enable_caches>
  100c4c:	ea00001f 	b	100cd0 <cache_configuration+0x2b8>
  100c50:	e51b3008 	ldr	r3, [fp, #-8]
  100c54:	e353000c 	cmp	r3, #12
  100c58:	ca00000c 	bgt	100c90 <cache_configuration+0x278>
  100c5c:	e30d0170 	movw	r0, #53616	; 0xd170
  100c60:	e3400011 	movt	r0, #17
  100c64:	eb004dcb 	bl	114398 <printf>
  100c68:	eb000dd8 	bl	1043d0 <enable_MMU>
  100c6c:	eb000e23 	bl	104500 <initialize_L2C>
  100c70:	eb000e72 	bl	104640 <enable_L1_D_side_prefetch>
  100c74:	eb000e75 	bl	104650 <enable_L2_prefetch_hint>
  100c78:	eb000e84 	bl	104690 <enable_SCU>
  100c7c:	eb000e88 	bl	1046a4 <enable_L2_speculative_linefill>
  100c80:	eb000e62 	bl	104610 <enable_write_full_line_zeros>
  100c84:	eb000e58 	bl	1045ec <enable_early_BRESP>
  100c88:	eb000e35 	bl	104564 <enable_caches>
  100c8c:	ea00000f 	b	100cd0 <cache_configuration+0x2b8>
  100c90:	e51b3008 	ldr	r3, [fp, #-8]
  100c94:	e353000d 	cmp	r3, #13
  100c98:	ca00000c 	bgt	100cd0 <cache_configuration+0x2b8>
  100c9c:	e30d01b0 	movw	r0, #53680	; 0xd1b0
  100ca0:	e3400011 	movt	r0, #17
  100ca4:	eb004dbb 	bl	114398 <printf>
  100ca8:	eb000dc8 	bl	1043d0 <enable_MMU>
  100cac:	eb000e13 	bl	104500 <initialize_L2C>
  100cb0:	eb000e62 	bl	104640 <enable_L1_D_side_prefetch>
  100cb4:	eb000e65 	bl	104650 <enable_L2_prefetch_hint>
  100cb8:	eb000e74 	bl	104690 <enable_SCU>
  100cbc:	eb000e78 	bl	1046a4 <enable_L2_speculative_linefill>
  100cc0:	eb000e52 	bl	104610 <enable_write_full_line_zeros>
  100cc4:	eb000e48 	bl	1045ec <enable_early_BRESP>
  100cc8:	eb000e3e 	bl	1045c8 <enable_store_buffer_device_limitation>
  100ccc:	eb000e24 	bl	104564 <enable_caches>
  100cd0:	e320f000 	nop	{0}
  100cd4:	e24bd004 	sub	sp, fp, #4
  100cd8:	e8bd8800 	pop	{fp, pc}

00100cdc <ad7768_spi_read>:
  100cdc:	e92d4800 	push	{fp, lr}
  100ce0:	e28db004 	add	fp, sp, #4
  100ce4:	e24dd018 	sub	sp, sp, #24
  100ce8:	e50b0010 	str	r0, [fp, #-16]
  100cec:	e1a03001 	mov	r3, r1
  100cf0:	e50b2018 	str	r2, [fp, #-24]	; 0xffffffe8
  100cf4:	e54b3011 	strb	r3, [fp, #-17]	; 0xffffffef
  100cf8:	e55b3011 	ldrb	r3, [fp, #-17]	; 0xffffffef
  100cfc:	e1e03c83 	mvn	r3, r3, lsl #25
  100d00:	e1e03ca3 	mvn	r3, r3, lsr #25
  100d04:	e6ef3073 	uxtb	r3, r3
  100d08:	e6ff3073 	uxth	r3, r3
  100d0c:	e1a03403 	lsl	r3, r3, #8
  100d10:	e6ff3073 	uxth	r3, r3
  100d14:	e14b30bc 	strh	r3, [fp, #-12]
  100d18:	e3a03000 	mov	r3, #0
  100d1c:	e14b30ba 	strh	r3, [fp, #-10]
  100d20:	e51b3010 	ldr	r3, [fp, #-16]
  100d24:	e5933000 	ldr	r3, [r3]
  100d28:	e24b100c 	sub	r1, fp, #12
  100d2c:	e3a02002 	mov	r2, #2
  100d30:	e1a00003 	mov	r0, r3
  100d34:	eb000406 	bl	101d54 <spi_write_and_read>
  100d38:	e50b0008 	str	r0, [fp, #-8]
  100d3c:	e55b3011 	ldrb	r3, [fp, #-17]	; 0xffffffef
  100d40:	e1e03c83 	mvn	r3, r3, lsl #25
  100d44:	e1e03ca3 	mvn	r3, r3, lsr #25
  100d48:	e6ef3073 	uxtb	r3, r3
  100d4c:	e6ff3073 	uxth	r3, r3
  100d50:	e1a03403 	lsl	r3, r3, #8
  100d54:	e6ff3073 	uxth	r3, r3
  100d58:	e14b30bc 	strh	r3, [fp, #-12]
  100d5c:	e3a03000 	mov	r3, #0
  100d60:	e14b30ba 	strh	r3, [fp, #-10]
  100d64:	e51b3010 	ldr	r3, [fp, #-16]
  100d68:	e5933000 	ldr	r3, [r3]
  100d6c:	e24b100c 	sub	r1, fp, #12
  100d70:	e3a02002 	mov	r2, #2
  100d74:	e1a00003 	mov	r0, r3
  100d78:	eb0003f5 	bl	101d54 <spi_write_and_read>
  100d7c:	e1a02000 	mov	r2, r0
  100d80:	e51b3008 	ldr	r3, [fp, #-8]
  100d84:	e1833002 	orr	r3, r3, r2
  100d88:	e50b3008 	str	r3, [fp, #-8]
  100d8c:	e15b30bc 	ldrh	r3, [fp, #-12]
  100d90:	e6ef2073 	uxtb	r2, r3
  100d94:	e51b3018 	ldr	r3, [fp, #-24]	; 0xffffffe8
  100d98:	e5c32000 	strb	r2, [r3]
  100d9c:	e51b3008 	ldr	r3, [fp, #-8]
  100da0:	e1a00003 	mov	r0, r3
  100da4:	e24bd004 	sub	sp, fp, #4
  100da8:	e8bd8800 	pop	{fp, pc}

00100dac <ad7768_spi_write>:
  100dac:	e92d4800 	push	{fp, lr}
  100db0:	e28db004 	add	fp, sp, #4
  100db4:	e24dd010 	sub	sp, sp, #16
  100db8:	e50b0010 	str	r0, [fp, #-16]
  100dbc:	e1a03001 	mov	r3, r1
  100dc0:	e54b3011 	strb	r3, [fp, #-17]	; 0xffffffef
  100dc4:	e1a03002 	mov	r3, r2
  100dc8:	e54b3012 	strb	r3, [fp, #-18]	; 0xffffffee
  100dcc:	e55b3011 	ldrb	r3, [fp, #-17]	; 0xffffffef
  100dd0:	e1a03403 	lsl	r3, r3, #8
  100dd4:	e6ff3073 	uxth	r3, r3
  100dd8:	e2033c7f 	and	r3, r3, #32512	; 0x7f00
  100ddc:	e6ff3073 	uxth	r3, r3
  100de0:	e14b30bc 	strh	r3, [fp, #-12]
  100de4:	e15b20bc 	ldrh	r2, [fp, #-12]
  100de8:	e55b3012 	ldrb	r3, [fp, #-18]	; 0xffffffee
  100dec:	e6ff3073 	uxth	r3, r3
  100df0:	e1823003 	orr	r3, r2, r3
  100df4:	e6ff3073 	uxth	r3, r3
  100df8:	e14b30bc 	strh	r3, [fp, #-12]
  100dfc:	e51b3010 	ldr	r3, [fp, #-16]
  100e00:	e5933000 	ldr	r3, [r3]
  100e04:	e24b100c 	sub	r1, fp, #12
  100e08:	e3a02001 	mov	r2, #1
  100e0c:	e1a00003 	mov	r0, r3
  100e10:	eb0003cf 	bl	101d54 <spi_write_and_read>
  100e14:	e50b0008 	str	r0, [fp, #-8]
  100e18:	e51b3008 	ldr	r3, [fp, #-8]
  100e1c:	e1a00003 	mov	r0, r3
  100e20:	e24bd004 	sub	sp, fp, #4
  100e24:	e8bd8800 	pop	{fp, pc}

00100e28 <ad7768_spi_read_mask>:
  100e28:	e92d4800 	push	{fp, lr}
  100e2c:	e28db004 	add	fp, sp, #4
  100e30:	e24dd018 	sub	sp, sp, #24
  100e34:	e50b0010 	str	r0, [fp, #-16]
  100e38:	e50b3018 	str	r3, [fp, #-24]	; 0xffffffe8
  100e3c:	e1a03001 	mov	r3, r1
  100e40:	e54b3011 	strb	r3, [fp, #-17]	; 0xffffffef
  100e44:	e1a03002 	mov	r3, r2
  100e48:	e54b3012 	strb	r3, [fp, #-18]	; 0xffffffee
  100e4c:	e24b2009 	sub	r2, fp, #9
  100e50:	e55b3011 	ldrb	r3, [fp, #-17]	; 0xffffffef
  100e54:	e1a01003 	mov	r1, r3
  100e58:	e51b0010 	ldr	r0, [fp, #-16]
  100e5c:	ebffff9e 	bl	100cdc <ad7768_spi_read>
  100e60:	e50b0008 	str	r0, [fp, #-8]
  100e64:	e55b2009 	ldrb	r2, [fp, #-9]
  100e68:	e55b3012 	ldrb	r3, [fp, #-18]	; 0xffffffee
  100e6c:	e0033002 	and	r3, r3, r2
  100e70:	e6ef2073 	uxtb	r2, r3
  100e74:	e51b3018 	ldr	r3, [fp, #-24]	; 0xffffffe8
  100e78:	e5c32000 	strb	r2, [r3]
  100e7c:	e51b3008 	ldr	r3, [fp, #-8]
  100e80:	e1a00003 	mov	r0, r3
  100e84:	e24bd004 	sub	sp, fp, #4
  100e88:	e8bd8800 	pop	{fp, pc}

00100e8c <ad7768_spi_write_mask>:
  100e8c:	e92d4800 	push	{fp, lr}
  100e90:	e28db004 	add	fp, sp, #4
  100e94:	e24dd010 	sub	sp, sp, #16
  100e98:	e50b0010 	str	r0, [fp, #-16]
  100e9c:	e1a00001 	mov	r0, r1
  100ea0:	e1a01002 	mov	r1, r2
  100ea4:	e1a02003 	mov	r2, r3
  100ea8:	e1a03000 	mov	r3, r0
  100eac:	e54b3011 	strb	r3, [fp, #-17]	; 0xffffffef
  100eb0:	e1a03001 	mov	r3, r1
  100eb4:	e54b3012 	strb	r3, [fp, #-18]	; 0xffffffee
  100eb8:	e1a03002 	mov	r3, r2
  100ebc:	e54b3013 	strb	r3, [fp, #-19]	; 0xffffffed
  100ec0:	e24b2009 	sub	r2, fp, #9
  100ec4:	e55b3011 	ldrb	r3, [fp, #-17]	; 0xffffffef
  100ec8:	e1a01003 	mov	r1, r3
  100ecc:	e51b0010 	ldr	r0, [fp, #-16]
  100ed0:	ebffff81 	bl	100cdc <ad7768_spi_read>
  100ed4:	e50b0008 	str	r0, [fp, #-8]
  100ed8:	e15b31d2 	ldrsb	r3, [fp, #-18]	; 0xffffffee
  100edc:	e1e03003 	mvn	r3, r3
  100ee0:	e6af2073 	sxtb	r2, r3
  100ee4:	e55b3009 	ldrb	r3, [fp, #-9]
  100ee8:	e6af3073 	sxtb	r3, r3
  100eec:	e0033002 	and	r3, r3, r2
  100ef0:	e6af3073 	sxtb	r3, r3
  100ef4:	e6ef3073 	uxtb	r3, r3
  100ef8:	e54b3009 	strb	r3, [fp, #-9]
  100efc:	e55b2009 	ldrb	r2, [fp, #-9]
  100f00:	e55b3013 	ldrb	r3, [fp, #-19]	; 0xffffffed
  100f04:	e1823003 	orr	r3, r2, r3
  100f08:	e6ef3073 	uxtb	r3, r3
  100f0c:	e54b3009 	strb	r3, [fp, #-9]
  100f10:	e55b2009 	ldrb	r2, [fp, #-9]
  100f14:	e55b3011 	ldrb	r3, [fp, #-17]	; 0xffffffef
  100f18:	e1a01003 	mov	r1, r3
  100f1c:	e51b0010 	ldr	r0, [fp, #-16]
  100f20:	ebffffa1 	bl	100dac <ad7768_spi_write>
  100f24:	e1a02000 	mov	r2, r0
  100f28:	e51b3008 	ldr	r3, [fp, #-8]
  100f2c:	e1833002 	orr	r3, r3, r2
  100f30:	e50b3008 	str	r3, [fp, #-8]
  100f34:	e51b3008 	ldr	r3, [fp, #-8]
  100f38:	e1a00003 	mov	r0, r3
  100f3c:	e24bd004 	sub	sp, fp, #4
  100f40:	e8bd8800 	pop	{fp, pc}

00100f44 <ad7768_set_sleep_mode>:
  100f44:	e92d4800 	push	{fp, lr}
  100f48:	e28db004 	add	fp, sp, #4
  100f4c:	e24dd008 	sub	sp, sp, #8
  100f50:	e50b0008 	str	r0, [fp, #-8]
  100f54:	e1a03001 	mov	r3, r1
  100f58:	e54b3009 	strb	r3, [fp, #-9]
  100f5c:	e55b3009 	ldrb	r3, [fp, #-9]
  100f60:	e3530000 	cmp	r3, #0
  100f64:	0a000001 	beq	100f70 <ad7768_set_sleep_mode+0x2c>
  100f68:	e3a03080 	mov	r3, #128	; 0x80
  100f6c:	ea000000 	b	100f74 <ad7768_set_sleep_mode+0x30>
  100f70:	e3a03000 	mov	r3, #0
  100f74:	e3a02080 	mov	r2, #128	; 0x80
  100f78:	e3a01004 	mov	r1, #4
  100f7c:	e51b0008 	ldr	r0, [fp, #-8]
  100f80:	ebffffc1 	bl	100e8c <ad7768_spi_write_mask>
  100f84:	e51b3008 	ldr	r3, [fp, #-8]
  100f88:	e55b2009 	ldrb	r2, [fp, #-9]
  100f8c:	e5c3201e 	strb	r2, [r3, #30]
  100f90:	e3a03000 	mov	r3, #0
  100f94:	e1a00003 	mov	r0, r3
  100f98:	e24bd004 	sub	sp, fp, #4
  100f9c:	e8bd8800 	pop	{fp, pc}

00100fa0 <ad7768_get_sleep_mode>:
  100fa0:	e52db004 	push	{fp}		; (str fp, [sp, #-4]!)
  100fa4:	e28db000 	add	fp, sp, #0
  100fa8:	e24dd00c 	sub	sp, sp, #12
  100fac:	e50b0008 	str	r0, [fp, #-8]
  100fb0:	e50b100c 	str	r1, [fp, #-12]
  100fb4:	e51b3008 	ldr	r3, [fp, #-8]
  100fb8:	e5d3201e 	ldrb	r2, [r3, #30]
  100fbc:	e51b300c 	ldr	r3, [fp, #-12]
  100fc0:	e5c32000 	strb	r2, [r3]
  100fc4:	e3a03000 	mov	r3, #0
  100fc8:	e1a00003 	mov	r0, r3
  100fcc:	e24bd000 	sub	sp, fp, #0
  100fd0:	e49db004 	pop	{fp}		; (ldr fp, [sp], #4)
  100fd4:	e12fff1e 	bx	lr

00100fd8 <ad7768_set_mode_pins>:
  100fd8:	e92d4800 	push	{fp, lr}
  100fdc:	e28db004 	add	fp, sp, #4
  100fe0:	e24dd010 	sub	sp, sp, #16
  100fe4:	e50b0010 	str	r0, [fp, #-16]
  100fe8:	e1a03001 	mov	r3, r1
  100fec:	e54b3011 	strb	r3, [fp, #-17]	; 0xffffffef
  100ff0:	e51b3010 	ldr	r3, [fp, #-16]
  100ff4:	e593300c 	ldr	r3, [r3, #12]
  100ff8:	e3530000 	cmp	r3, #0
  100ffc:	0a00003f 	beq	101100 <ad7768_set_mode_pins+0x128>
  101000:	e51b3010 	ldr	r3, [fp, #-16]
  101004:	e5933010 	ldr	r3, [r3, #16]
  101008:	e3530000 	cmp	r3, #0
  10100c:	0a00003b 	beq	101100 <ad7768_set_mode_pins+0x128>
  101010:	e51b3010 	ldr	r3, [fp, #-16]
  101014:	e5933014 	ldr	r3, [r3, #20]
  101018:	e3530000 	cmp	r3, #0
  10101c:	0a000037 	beq	101100 <ad7768_set_mode_pins+0x128>
  101020:	e51b3010 	ldr	r3, [fp, #-16]
  101024:	e5933018 	ldr	r3, [r3, #24]
  101028:	e3530000 	cmp	r3, #0
  10102c:	0a000033 	beq	101100 <ad7768_set_mode_pins+0x128>
  101030:	e51b3010 	ldr	r3, [fp, #-16]
  101034:	e593200c 	ldr	r2, [r3, #12]
  101038:	e55b3011 	ldrb	r3, [fp, #-17]	; 0xffffffef
  10103c:	e2033001 	and	r3, r3, #1
  101040:	e6ef3073 	uxtb	r3, r3
  101044:	e1a01003 	mov	r1, r3
  101048:	e1a00002 	mov	r0, r2
  10104c:	eb00050a 	bl	10247c <gpio_set_value>
  101050:	e50b0008 	str	r0, [fp, #-8]
  101054:	e51b3010 	ldr	r3, [fp, #-16]
  101058:	e5932010 	ldr	r2, [r3, #16]
  10105c:	e55b3011 	ldrb	r3, [fp, #-17]	; 0xffffffef
  101060:	e1a030c3 	asr	r3, r3, #1
  101064:	e6ef3073 	uxtb	r3, r3
  101068:	e2033001 	and	r3, r3, #1
  10106c:	e6ef3073 	uxtb	r3, r3
  101070:	e1a01003 	mov	r1, r3
  101074:	e1a00002 	mov	r0, r2
  101078:	eb0004ff 	bl	10247c <gpio_set_value>
  10107c:	e1a02000 	mov	r2, r0
  101080:	e51b3008 	ldr	r3, [fp, #-8]
  101084:	e1833002 	orr	r3, r3, r2
  101088:	e50b3008 	str	r3, [fp, #-8]
  10108c:	e51b3010 	ldr	r3, [fp, #-16]
  101090:	e5932014 	ldr	r2, [r3, #20]
  101094:	e55b3011 	ldrb	r3, [fp, #-17]	; 0xffffffef
  101098:	e1a03143 	asr	r3, r3, #2
  10109c:	e6ef3073 	uxtb	r3, r3
  1010a0:	e2033001 	and	r3, r3, #1
  1010a4:	e6ef3073 	uxtb	r3, r3
  1010a8:	e1a01003 	mov	r1, r3
  1010ac:	e1a00002 	mov	r0, r2
  1010b0:	eb0004f1 	bl	10247c <gpio_set_value>
  1010b4:	e1a02000 	mov	r2, r0
  1010b8:	e51b3008 	ldr	r3, [fp, #-8]
  1010bc:	e1833002 	orr	r3, r3, r2
  1010c0:	e50b3008 	str	r3, [fp, #-8]
  1010c4:	e51b3010 	ldr	r3, [fp, #-16]
  1010c8:	e5932018 	ldr	r2, [r3, #24]
  1010cc:	e55b3011 	ldrb	r3, [fp, #-17]	; 0xffffffef
  1010d0:	e1a031c3 	asr	r3, r3, #3
  1010d4:	e6ef3073 	uxtb	r3, r3
  1010d8:	e2033001 	and	r3, r3, #1
  1010dc:	e6ef3073 	uxtb	r3, r3
  1010e0:	e1a01003 	mov	r1, r3
  1010e4:	e1a00002 	mov	r0, r2
  1010e8:	eb0004e3 	bl	10247c <gpio_set_value>
  1010ec:	e1a02000 	mov	r2, r0
  1010f0:	e51b3008 	ldr	r3, [fp, #-8]
  1010f4:	e1833002 	orr	r3, r3, r2
  1010f8:	e50b3008 	str	r3, [fp, #-8]
  1010fc:	ea000004 	b	101114 <ad7768_set_mode_pins+0x13c>
  101100:	e30d0224 	movw	r0, #53796	; 0xd224
  101104:	e3400011 	movt	r0, #17
  101108:	eb004ca2 	bl	114398 <printf>
  10110c:	e3e03000 	mvn	r3, #0
  101110:	e50b3008 	str	r3, [fp, #-8]
  101114:	e51b3008 	ldr	r3, [fp, #-8]
  101118:	e1a00003 	mov	r0, r3
  10111c:	e24bd004 	sub	sp, fp, #4
  101120:	e8bd8800 	pop	{fp, pc}

00101124 <ad7768_set_power_mode>:
  101124:	e92d4800 	push	{fp, lr}
  101128:	e28db004 	add	fp, sp, #4
  10112c:	e24dd010 	sub	sp, sp, #16
  101130:	e50b0010 	str	r0, [fp, #-16]
  101134:	e1a03001 	mov	r3, r1
  101138:	e54b3011 	strb	r3, [fp, #-17]	; 0xffffffef
  10113c:	e51b3010 	ldr	r3, [fp, #-16]
  101140:	e5d3301d 	ldrb	r3, [r3, #29]
  101144:	e3530001 	cmp	r3, #1
  101148:	1a00000c 	bne	101180 <ad7768_set_power_mode+0x5c>
  10114c:	e55b3011 	ldrb	r3, [fp, #-17]	; 0xffffffef
  101150:	e1a03203 	lsl	r3, r3, #4
  101154:	e6ef3073 	uxtb	r3, r3
  101158:	e2033030 	and	r3, r3, #48	; 0x30
  10115c:	e6ef3073 	uxtb	r3, r3
  101160:	e3a02030 	mov	r2, #48	; 0x30
  101164:	e3a01004 	mov	r1, #4
  101168:	e51b0010 	ldr	r0, [fp, #-16]
  10116c:	ebffff46 	bl	100e8c <ad7768_spi_write_mask>
  101170:	e51b3010 	ldr	r3, [fp, #-16]
  101174:	e55b2011 	ldrb	r2, [fp, #-17]	; 0xffffffef
  101178:	e5c3201f 	strb	r2, [r3, #31]
  10117c:	ea00002a 	b	10122c <ad7768_set_power_mode+0x108>
  101180:	e51b3010 	ldr	r3, [fp, #-16]
  101184:	e5d33022 	ldrb	r3, [r3, #34]	; 0x22
  101188:	e3530000 	cmp	r3, #0
  10118c:	1a00000b 	bne	1011c0 <ad7768_set_power_mode+0x9c>
  101190:	e55b2011 	ldrb	r2, [fp, #-17]	; 0xffffffef
  101194:	e51b3010 	ldr	r3, [fp, #-16]
  101198:	e5d33021 	ldrb	r3, [r3, #33]	; 0x21
  10119c:	e1a01003 	mov	r1, r3
  1011a0:	e30d320c 	movw	r3, #53772	; 0xd20c
  1011a4:	e3403011 	movt	r3, #17
  1011a8:	e1a02102 	lsl	r2, r2, #2
  1011ac:	e0833002 	add	r3, r3, r2
  1011b0:	e0833001 	add	r3, r3, r1
  1011b4:	e5d33000 	ldrb	r3, [r3]
  1011b8:	e54b3005 	strb	r3, [fp, #-5]
  1011bc:	ea00000a 	b	1011ec <ad7768_set_power_mode+0xc8>
  1011c0:	e55b2011 	ldrb	r2, [fp, #-17]	; 0xffffffef
  1011c4:	e51b3010 	ldr	r3, [fp, #-16]
  1011c8:	e5d33021 	ldrb	r3, [r3, #33]	; 0x21
  1011cc:	e1a01003 	mov	r1, r3
  1011d0:	e30d3218 	movw	r3, #53784	; 0xd218
  1011d4:	e3403011 	movt	r3, #17
  1011d8:	e1a02102 	lsl	r2, r2, #2
  1011dc:	e0833002 	add	r3, r3, r2
  1011e0:	e0833001 	add	r3, r3, r1
  1011e4:	e5d33000 	ldrb	r3, [r3]
  1011e8:	e54b3005 	strb	r3, [fp, #-5]
  1011ec:	e55b3005 	ldrb	r3, [fp, #-5]
  1011f0:	e35300ff 	cmp	r3, #255	; 0xff
  1011f4:	0a000007 	beq	101218 <ad7768_set_power_mode+0xf4>
  1011f8:	e51b3010 	ldr	r3, [fp, #-16]
  1011fc:	e55b2011 	ldrb	r2, [fp, #-17]	; 0xffffffef
  101200:	e5c3201f 	strb	r2, [r3, #31]
  101204:	e55b3005 	ldrb	r3, [fp, #-5]
  101208:	e1a01003 	mov	r1, r3
  10120c:	e51b0010 	ldr	r0, [fp, #-16]
  101210:	ebffff70 	bl	100fd8 <ad7768_set_mode_pins>
  101214:	ea000004 	b	10122c <ad7768_set_power_mode+0x108>
  101218:	e30d0240 	movw	r0, #53824	; 0xd240
  10121c:	e3400011 	movt	r0, #17
  101220:	eb004c5c 	bl	114398 <printf>
  101224:	e3e03000 	mvn	r3, #0
  101228:	ea000000 	b	101230 <ad7768_set_power_mode+0x10c>
  10122c:	e3a03000 	mov	r3, #0
  101230:	e1a00003 	mov	r0, r3
  101234:	e24bd004 	sub	sp, fp, #4
  101238:	e8bd8800 	pop	{fp, pc}

0010123c <ad7768_get_power_mode>:
  10123c:	e52db004 	push	{fp}		; (str fp, [sp, #-4]!)
  101240:	e28db000 	add	fp, sp, #0
  101244:	e24dd00c 	sub	sp, sp, #12
  101248:	e50b0008 	str	r0, [fp, #-8]
  10124c:	e50b100c 	str	r1, [fp, #-12]
  101250:	e51b3008 	ldr	r3, [fp, #-8]
  101254:	e5d3201f 	ldrb	r2, [r3, #31]
  101258:	e51b300c 	ldr	r3, [fp, #-12]
  10125c:	e5c32000 	strb	r2, [r3]
  101260:	e3a03000 	mov	r3, #0
  101264:	e1a00003 	mov	r0, r3
  101268:	e24bd000 	sub	sp, fp, #0
  10126c:	e49db004 	pop	{fp}		; (ldr fp, [sp], #4)
  101270:	e12fff1e 	bx	lr

00101274 <ad7768_set_mclk_div>:
  101274:	e92d4800 	push	{fp, lr}
  101278:	e28db004 	add	fp, sp, #4
  10127c:	e24dd008 	sub	sp, sp, #8
  101280:	e50b0008 	str	r0, [fp, #-8]
  101284:	e1a03001 	mov	r3, r1
  101288:	e54b3009 	strb	r3, [fp, #-9]
  10128c:	e55b3009 	ldrb	r3, [fp, #-9]
  101290:	e2033003 	and	r3, r3, #3
  101294:	e6ef3073 	uxtb	r3, r3
  101298:	e3a02003 	mov	r2, #3
  10129c:	e3a01004 	mov	r1, #4
  1012a0:	e51b0008 	ldr	r0, [fp, #-8]
  1012a4:	ebfffef8 	bl	100e8c <ad7768_spi_write_mask>
  1012a8:	e51b3008 	ldr	r3, [fp, #-8]
  1012ac:	e55b2009 	ldrb	r2, [fp, #-9]
  1012b0:	e5c32020 	strb	r2, [r3, #32]
  1012b4:	e3a03000 	mov	r3, #0
  1012b8:	e1a00003 	mov	r0, r3
  1012bc:	e24bd004 	sub	sp, fp, #4
  1012c0:	e8bd8800 	pop	{fp, pc}

001012c4 <ad7768_get_mclk_div>:
  1012c4:	e52db004 	push	{fp}		; (str fp, [sp, #-4]!)
  1012c8:	e28db000 	add	fp, sp, #0
  1012cc:	e24dd00c 	sub	sp, sp, #12
  1012d0:	e50b0008 	str	r0, [fp, #-8]
  1012d4:	e50b100c 	str	r1, [fp, #-12]
  1012d8:	e51b3008 	ldr	r3, [fp, #-8]
  1012dc:	e5d32020 	ldrb	r2, [r3, #32]
  1012e0:	e51b300c 	ldr	r3, [fp, #-12]
  1012e4:	e5c32000 	strb	r2, [r3]
  1012e8:	e3a03000 	mov	r3, #0
  1012ec:	e1a00003 	mov	r0, r3
  1012f0:	e24bd000 	sub	sp, fp, #0
  1012f4:	e49db004 	pop	{fp}		; (ldr fp, [sp], #4)
  1012f8:	e12fff1e 	bx	lr

001012fc <ad7768_set_dclk_div>:
  1012fc:	e92d4800 	push	{fp, lr}
  101300:	e28db004 	add	fp, sp, #4
  101304:	e24dd010 	sub	sp, sp, #16
  101308:	e50b0010 	str	r0, [fp, #-16]
  10130c:	e1a03001 	mov	r3, r1
  101310:	e54b3011 	strb	r3, [fp, #-17]	; 0xffffffef
  101314:	e51b3010 	ldr	r3, [fp, #-16]
  101318:	e5d3301d 	ldrb	r3, [r3, #29]
  10131c:	e3530001 	cmp	r3, #1
  101320:	1a00000a 	bne	101350 <ad7768_set_dclk_div+0x54>
  101324:	e55b3011 	ldrb	r3, [fp, #-17]	; 0xffffffef
  101328:	e2033003 	and	r3, r3, #3
  10132c:	e6ef3073 	uxtb	r3, r3
  101330:	e3a02003 	mov	r2, #3
  101334:	e3a01007 	mov	r1, #7
  101338:	e51b0010 	ldr	r0, [fp, #-16]
  10133c:	ebfffed2 	bl	100e8c <ad7768_spi_write_mask>
  101340:	e51b3010 	ldr	r3, [fp, #-16]
  101344:	e55b2011 	ldrb	r2, [fp, #-17]	; 0xffffffef
  101348:	e5c32021 	strb	r2, [r3, #33]	; 0x21
  10134c:	ea00002a 	b	1013fc <ad7768_set_dclk_div+0x100>
  101350:	e51b3010 	ldr	r3, [fp, #-16]
  101354:	e5d33022 	ldrb	r3, [r3, #34]	; 0x22
  101358:	e3530000 	cmp	r3, #0
  10135c:	1a00000b 	bne	101390 <ad7768_set_dclk_div+0x94>
  101360:	e51b3010 	ldr	r3, [fp, #-16]
  101364:	e5d3301f 	ldrb	r3, [r3, #31]
  101368:	e1a01003 	mov	r1, r3
  10136c:	e55b2011 	ldrb	r2, [fp, #-17]	; 0xffffffef
  101370:	e30d320c 	movw	r3, #53772	; 0xd20c
  101374:	e3403011 	movt	r3, #17
  101378:	e1a01101 	lsl	r1, r1, #2
  10137c:	e0833001 	add	r3, r3, r1
  101380:	e0833002 	add	r3, r3, r2
  101384:	e5d33000 	ldrb	r3, [r3]
  101388:	e54b3005 	strb	r3, [fp, #-5]
  10138c:	ea00000a 	b	1013bc <ad7768_set_dclk_div+0xc0>
  101390:	e51b3010 	ldr	r3, [fp, #-16]
  101394:	e5d3301f 	ldrb	r3, [r3, #31]
  101398:	e1a01003 	mov	r1, r3
  10139c:	e55b2011 	ldrb	r2, [fp, #-17]	; 0xffffffef
  1013a0:	e30d3218 	movw	r3, #53784	; 0xd218
  1013a4:	e3403011 	movt	r3, #17
  1013a8:	e1a01101 	lsl	r1, r1, #2
  1013ac:	e0833001 	add	r3, r3, r1
  1013b0:	e0833002 	add	r3, r3, r2
  1013b4:	e5d33000 	ldrb	r3, [r3]
  1013b8:	e54b3005 	strb	r3, [fp, #-5]
  1013bc:	e55b3005 	ldrb	r3, [fp, #-5]
  1013c0:	e35300ff 	cmp	r3, #255	; 0xff
  1013c4:	0a000007 	beq	1013e8 <ad7768_set_dclk_div+0xec>
  1013c8:	e51b3010 	ldr	r3, [fp, #-16]
  1013cc:	e55b2011 	ldrb	r2, [fp, #-17]	; 0xffffffef
  1013d0:	e5c32021 	strb	r2, [r3, #33]	; 0x21
  1013d4:	e55b3005 	ldrb	r3, [fp, #-5]
  1013d8:	e1a01003 	mov	r1, r3
  1013dc:	e51b0010 	ldr	r0, [fp, #-16]
  1013e0:	ebfffefc 	bl	100fd8 <ad7768_set_mode_pins>
  1013e4:	ea000004 	b	1013fc <ad7768_set_dclk_div+0x100>
  1013e8:	e30d0274 	movw	r0, #53876	; 0xd274
  1013ec:	e3400011 	movt	r0, #17
  1013f0:	eb004be8 	bl	114398 <printf>
  1013f4:	e3e03000 	mvn	r3, #0
  1013f8:	ea000000 	b	101400 <ad7768_set_dclk_div+0x104>
  1013fc:	e3a03000 	mov	r3, #0
  101400:	e1a00003 	mov	r0, r3
  101404:	e24bd004 	sub	sp, fp, #4
  101408:	e8bd8800 	pop	{fp, pc}

0010140c <ad7768_get_dclk_div>:
  10140c:	e52db004 	push	{fp}		; (str fp, [sp, #-4]!)
  101410:	e28db000 	add	fp, sp, #0
  101414:	e24dd00c 	sub	sp, sp, #12
  101418:	e50b0008 	str	r0, [fp, #-8]
  10141c:	e50b100c 	str	r1, [fp, #-12]
  101420:	e51b3008 	ldr	r3, [fp, #-8]
  101424:	e5d32021 	ldrb	r2, [r3, #33]	; 0x21
  101428:	e51b300c 	ldr	r3, [fp, #-12]
  10142c:	e5c32000 	strb	r2, [r3]
  101430:	e3a03000 	mov	r3, #0
  101434:	e1a00003 	mov	r0, r3
  101438:	e24bd000 	sub	sp, fp, #0
  10143c:	e49db004 	pop	{fp}		; (ldr fp, [sp], #4)
  101440:	e12fff1e 	bx	lr

00101444 <ad7768_set_conv_op>:
  101444:	e92d4800 	push	{fp, lr}
  101448:	e28db004 	add	fp, sp, #4
  10144c:	e24dd010 	sub	sp, sp, #16
  101450:	e50b0010 	str	r0, [fp, #-16]
  101454:	e1a03001 	mov	r3, r1
  101458:	e54b3011 	strb	r3, [fp, #-17]	; 0xffffffef
  10145c:	e51b3010 	ldr	r3, [fp, #-16]
  101460:	e5d3301d 	ldrb	r3, [r3, #29]
  101464:	e3530001 	cmp	r3, #1
  101468:	1a00000d 	bne	1014a4 <ad7768_set_conv_op+0x60>
  10146c:	e55b3011 	ldrb	r3, [fp, #-17]	; 0xffffffef
  101470:	e3530000 	cmp	r3, #0
  101474:	0a000001 	beq	101480 <ad7768_set_conv_op+0x3c>
  101478:	e3a03010 	mov	r3, #16
  10147c:	ea000000 	b	101484 <ad7768_set_conv_op+0x40>
  101480:	e3a03000 	mov	r3, #0
  101484:	e3a02010 	mov	r2, #16
  101488:	e3a01006 	mov	r1, #6
  10148c:	e51b0010 	ldr	r0, [fp, #-16]
  101490:	ebfffe7d 	bl	100e8c <ad7768_spi_write_mask>
  101494:	e51b3010 	ldr	r3, [fp, #-16]
  101498:	e55b2011 	ldrb	r2, [fp, #-17]	; 0xffffffef
  10149c:	e5c32022 	strb	r2, [r3, #34]	; 0x22
  1014a0:	ea00002d 	b	10155c <ad7768_set_conv_op+0x118>
  1014a4:	e55b3011 	ldrb	r3, [fp, #-17]	; 0xffffffef
  1014a8:	e3530000 	cmp	r3, #0
  1014ac:	1a00000d 	bne	1014e8 <ad7768_set_conv_op+0xa4>
  1014b0:	e51b3010 	ldr	r3, [fp, #-16]
  1014b4:	e5d3301f 	ldrb	r3, [r3, #31]
  1014b8:	e1a02003 	mov	r2, r3
  1014bc:	e51b3010 	ldr	r3, [fp, #-16]
  1014c0:	e5d33021 	ldrb	r3, [r3, #33]	; 0x21
  1014c4:	e1a01003 	mov	r1, r3
  1014c8:	e30d320c 	movw	r3, #53772	; 0xd20c
  1014cc:	e3403011 	movt	r3, #17
  1014d0:	e1a02102 	lsl	r2, r2, #2
  1014d4:	e0833002 	add	r3, r3, r2
  1014d8:	e0833001 	add	r3, r3, r1
  1014dc:	e5d33000 	ldrb	r3, [r3]
  1014e0:	e54b3005 	strb	r3, [fp, #-5]
  1014e4:	ea00000c 	b	10151c <ad7768_set_conv_op+0xd8>
  1014e8:	e51b3010 	ldr	r3, [fp, #-16]
  1014ec:	e5d3301f 	ldrb	r3, [r3, #31]
  1014f0:	e1a02003 	mov	r2, r3
  1014f4:	e51b3010 	ldr	r3, [fp, #-16]
  1014f8:	e5d33021 	ldrb	r3, [r3, #33]	; 0x21
  1014fc:	e1a01003 	mov	r1, r3
  101500:	e30d3218 	movw	r3, #53784	; 0xd218
  101504:	e3403011 	movt	r3, #17
  101508:	e1a02102 	lsl	r2, r2, #2
  10150c:	e0833002 	add	r3, r3, r2
  101510:	e0833001 	add	r3, r3, r1
  101514:	e5d33000 	ldrb	r3, [r3]
  101518:	e54b3005 	strb	r3, [fp, #-5]
  10151c:	e55b3005 	ldrb	r3, [fp, #-5]
  101520:	e35300ff 	cmp	r3, #255	; 0xff
  101524:	0a000007 	beq	101548 <ad7768_set_conv_op+0x104>
  101528:	e51b3010 	ldr	r3, [fp, #-16]
  10152c:	e55b2011 	ldrb	r2, [fp, #-17]	; 0xffffffef
  101530:	e5c32022 	strb	r2, [r3, #34]	; 0x22
  101534:	e55b3005 	ldrb	r3, [fp, #-5]
  101538:	e1a01003 	mov	r1, r3
  10153c:	e51b0010 	ldr	r0, [fp, #-16]
  101540:	ebfffea4 	bl	100fd8 <ad7768_set_mode_pins>
  101544:	ea000004 	b	10155c <ad7768_set_conv_op+0x118>
  101548:	e30d02a4 	movw	r0, #53924	; 0xd2a4
  10154c:	e3400011 	movt	r0, #17
  101550:	eb004b90 	bl	114398 <printf>
  101554:	e3e03000 	mvn	r3, #0
  101558:	ea000000 	b	101560 <ad7768_set_conv_op+0x11c>
  10155c:	e3a03000 	mov	r3, #0
  101560:	e1a00003 	mov	r0, r3
  101564:	e24bd004 	sub	sp, fp, #4
  101568:	e8bd8800 	pop	{fp, pc}

0010156c <ad7768_get_conv_op>:
  10156c:	e52db004 	push	{fp}		; (str fp, [sp, #-4]!)
  101570:	e28db000 	add	fp, sp, #0
  101574:	e24dd00c 	sub	sp, sp, #12
  101578:	e50b0008 	str	r0, [fp, #-8]
  10157c:	e50b100c 	str	r1, [fp, #-12]
  101580:	e51b3008 	ldr	r3, [fp, #-8]
  101584:	e5d32022 	ldrb	r2, [r3, #34]	; 0x22
  101588:	e51b300c 	ldr	r3, [fp, #-12]
  10158c:	e5c32000 	strb	r2, [r3]
  101590:	e3a03000 	mov	r3, #0
  101594:	e1a00003 	mov	r0, r3
  101598:	e24bd000 	sub	sp, fp, #0
  10159c:	e49db004 	pop	{fp}		; (ldr fp, [sp], #4)
  1015a0:	e12fff1e 	bx	lr

001015a4 <ad7768_set_crc_sel>:
  1015a4:	e92d4800 	push	{fp, lr}
  1015a8:	e28db004 	add	fp, sp, #4
  1015ac:	e24dd008 	sub	sp, sp, #8
  1015b0:	e50b0008 	str	r0, [fp, #-8]
  1015b4:	e1a03001 	mov	r3, r1
  1015b8:	e54b3009 	strb	r3, [fp, #-9]
  1015bc:	e55b3009 	ldrb	r3, [fp, #-9]
  1015c0:	e1a03103 	lsl	r3, r3, #2
  1015c4:	e6ef3073 	uxtb	r3, r3
  1015c8:	e203300c 	and	r3, r3, #12
  1015cc:	e6ef3073 	uxtb	r3, r3
  1015d0:	e3a0200c 	mov	r2, #12
  1015d4:	e3a01007 	mov	r1, #7
  1015d8:	e51b0008 	ldr	r0, [fp, #-8]
  1015dc:	ebfffe2a 	bl	100e8c <ad7768_spi_write_mask>
  1015e0:	e51b3008 	ldr	r3, [fp, #-8]
  1015e4:	e55b2009 	ldrb	r2, [fp, #-9]
  1015e8:	e5c32023 	strb	r2, [r3, #35]	; 0x23
  1015ec:	e3a03000 	mov	r3, #0
  1015f0:	e1a00003 	mov	r0, r3
  1015f4:	e24bd004 	sub	sp, fp, #4
  1015f8:	e8bd8800 	pop	{fp, pc}

001015fc <ad7768_get_crc_sel>:
  1015fc:	e52db004 	push	{fp}		; (str fp, [sp, #-4]!)
  101600:	e28db000 	add	fp, sp, #0
  101604:	e24dd00c 	sub	sp, sp, #12
  101608:	e50b0008 	str	r0, [fp, #-8]
  10160c:	e50b100c 	str	r1, [fp, #-12]
  101610:	e51b3008 	ldr	r3, [fp, #-8]
  101614:	e5d32023 	ldrb	r2, [r3, #35]	; 0x23
  101618:	e51b300c 	ldr	r3, [fp, #-12]
  10161c:	e5c32000 	strb	r2, [r3]
  101620:	e3a03000 	mov	r3, #0
  101624:	e1a00003 	mov	r0, r3
  101628:	e24bd000 	sub	sp, fp, #0
  10162c:	e49db004 	pop	{fp}		; (ldr fp, [sp], #4)
  101630:	e12fff1e 	bx	lr

00101634 <ad7768_set_ch_state>:
  101634:	e92d4800 	push	{fp, lr}
  101638:	e28db004 	add	fp, sp, #4
  10163c:	e24dd008 	sub	sp, sp, #8
  101640:	e50b0008 	str	r0, [fp, #-8]
  101644:	e1a03001 	mov	r3, r1
  101648:	e54b3009 	strb	r3, [fp, #-9]
  10164c:	e1a03002 	mov	r3, r2
  101650:	e54b300a 	strb	r3, [fp, #-10]
  101654:	e55b3009 	ldrb	r3, [fp, #-9]
  101658:	e3a02001 	mov	r2, #1
  10165c:	e1a03312 	lsl	r3, r2, r3
  101660:	e6ef1073 	uxtb	r1, r3
  101664:	e55b300a 	ldrb	r3, [fp, #-10]
  101668:	e3530000 	cmp	r3, #0
  10166c:	0a000004 	beq	101684 <ad7768_set_ch_state+0x50>
  101670:	e55b3009 	ldrb	r3, [fp, #-9]
  101674:	e3a02001 	mov	r2, #1
  101678:	e1a03312 	lsl	r3, r2, r3
  10167c:	e6ef3073 	uxtb	r3, r3
  101680:	ea000000 	b	101688 <ad7768_set_ch_state+0x54>
  101684:	e3a03000 	mov	r3, #0
  101688:	e1a02001 	mov	r2, r1
  10168c:	e3a01000 	mov	r1, #0
  101690:	e51b0008 	ldr	r0, [fp, #-8]
  101694:	ebfffdfc 	bl	100e8c <ad7768_spi_write_mask>
  101698:	e55b3009 	ldrb	r3, [fp, #-9]
  10169c:	e51b2008 	ldr	r2, [fp, #-8]
  1016a0:	e0823003 	add	r3, r2, r3
  1016a4:	e55b200a 	ldrb	r2, [fp, #-10]
  1016a8:	e5c32024 	strb	r2, [r3, #36]	; 0x24
  1016ac:	e3a03000 	mov	r3, #0
  1016b0:	e1a00003 	mov	r0, r3
  1016b4:	e24bd004 	sub	sp, fp, #4
  1016b8:	e8bd8800 	pop	{fp, pc}

001016bc <ad7768_get_ch_state>:
  1016bc:	e52db004 	push	{fp}		; (str fp, [sp, #-4]!)
  1016c0:	e28db000 	add	fp, sp, #0
  1016c4:	e24dd014 	sub	sp, sp, #20
  1016c8:	e50b0008 	str	r0, [fp, #-8]
  1016cc:	e1a03001 	mov	r3, r1
  1016d0:	e50b2010 	str	r2, [fp, #-16]
  1016d4:	e54b3009 	strb	r3, [fp, #-9]
  1016d8:	e55b3009 	ldrb	r3, [fp, #-9]
  1016dc:	e51b2008 	ldr	r2, [fp, #-8]
  1016e0:	e0823003 	add	r3, r2, r3
  1016e4:	e5d32024 	ldrb	r2, [r3, #36]	; 0x24
  1016e8:	e51b3010 	ldr	r3, [fp, #-16]
  1016ec:	e5c32000 	strb	r2, [r3]
  1016f0:	e3a03000 	mov	r3, #0
  1016f4:	e1a00003 	mov	r0, r3
  1016f8:	e24bd000 	sub	sp, fp, #0
  1016fc:	e49db004 	pop	{fp}		; (ldr fp, [sp], #4)
  101700:	e12fff1e 	bx	lr

00101704 <ad7768_set_mode_config>:
  101704:	e92d4800 	push	{fp, lr}
  101708:	e28db004 	add	fp, sp, #4
  10170c:	e24dd010 	sub	sp, sp, #16
  101710:	e50b0010 	str	r0, [fp, #-16]
  101714:	e1a00001 	mov	r0, r1
  101718:	e1a01002 	mov	r1, r2
  10171c:	e1a02003 	mov	r2, r3
  101720:	e1a03000 	mov	r3, r0
  101724:	e54b3011 	strb	r3, [fp, #-17]	; 0xffffffef
  101728:	e1a03001 	mov	r3, r1
  10172c:	e54b3012 	strb	r3, [fp, #-18]	; 0xffffffee
  101730:	e1a03002 	mov	r3, r2
  101734:	e54b3013 	strb	r3, [fp, #-19]	; 0xffffffed
  101738:	e55b3012 	ldrb	r3, [fp, #-18]	; 0xffffffee
  10173c:	e3530001 	cmp	r3, #1
  101740:	1a000001 	bne	10174c <ad7768_set_mode_config+0x48>
  101744:	e3a02008 	mov	r2, #8
  101748:	ea000000 	b	101750 <ad7768_set_mode_config+0x4c>
  10174c:	e3a02000 	mov	r2, #0
  101750:	e15b31d3 	ldrsb	r3, [fp, #-19]	; 0xffffffed
  101754:	e2033007 	and	r3, r3, #7
  101758:	e6af3073 	sxtb	r3, r3
  10175c:	e1823003 	orr	r3, r2, r3
  101760:	e6af3073 	sxtb	r3, r3
  101764:	e54b3005 	strb	r3, [fp, #-5]
  101768:	e55b3011 	ldrb	r3, [fp, #-17]	; 0xffffffef
  10176c:	e3530000 	cmp	r3, #0
  101770:	1a000005 	bne	10178c <ad7768_set_mode_config+0x88>
  101774:	e55b3005 	ldrb	r3, [fp, #-5]
  101778:	e1a02003 	mov	r2, r3
  10177c:	e3a01001 	mov	r1, #1
  101780:	e51b0010 	ldr	r0, [fp, #-16]
  101784:	ebfffd88 	bl	100dac <ad7768_spi_write>
  101788:	ea000004 	b	1017a0 <ad7768_set_mode_config+0x9c>
  10178c:	e55b3005 	ldrb	r3, [fp, #-5]
  101790:	e1a02003 	mov	r2, r3
  101794:	e3a01002 	mov	r1, #2
  101798:	e51b0010 	ldr	r0, [fp, #-16]
  10179c:	ebfffd82 	bl	100dac <ad7768_spi_write>
  1017a0:	e55b3011 	ldrb	r3, [fp, #-17]	; 0xffffffef
  1017a4:	e51b2010 	ldr	r2, [fp, #-16]
  1017a8:	e0823003 	add	r3, r2, r3
  1017ac:	e55b2012 	ldrb	r2, [fp, #-18]	; 0xffffffee
  1017b0:	e5c32034 	strb	r2, [r3, #52]	; 0x34
  1017b4:	e55b3011 	ldrb	r3, [fp, #-17]	; 0xffffffef
  1017b8:	e51b2010 	ldr	r2, [fp, #-16]
  1017bc:	e0823003 	add	r3, r2, r3
  1017c0:	e55b2013 	ldrb	r2, [fp, #-19]	; 0xffffffed
  1017c4:	e5c32036 	strb	r2, [r3, #54]	; 0x36
  1017c8:	e3a03000 	mov	r3, #0
  1017cc:	e1a00003 	mov	r0, r3
  1017d0:	e24bd004 	sub	sp, fp, #4
  1017d4:	e8bd8800 	pop	{fp, pc}

001017d8 <ad7768_get_mode_config>:
  1017d8:	e52db004 	push	{fp}		; (str fp, [sp, #-4]!)
  1017dc:	e28db000 	add	fp, sp, #0
  1017e0:	e24dd014 	sub	sp, sp, #20
  1017e4:	e50b0008 	str	r0, [fp, #-8]
  1017e8:	e50b2010 	str	r2, [fp, #-16]
  1017ec:	e50b3014 	str	r3, [fp, #-20]	; 0xffffffec
  1017f0:	e1a03001 	mov	r3, r1
  1017f4:	e54b3009 	strb	r3, [fp, #-9]
  1017f8:	e55b3009 	ldrb	r3, [fp, #-9]
  1017fc:	e51b2008 	ldr	r2, [fp, #-8]
  101800:	e0823003 	add	r3, r2, r3
  101804:	e5d32034 	ldrb	r2, [r3, #52]	; 0x34
  101808:	e51b3010 	ldr	r3, [fp, #-16]
  10180c:	e5c32000 	strb	r2, [r3]
  101810:	e55b3009 	ldrb	r3, [fp, #-9]
  101814:	e51b2008 	ldr	r2, [fp, #-8]
  101818:	e0823003 	add	r3, r2, r3
  10181c:	e5d32036 	ldrb	r2, [r3, #54]	; 0x36
  101820:	e51b3014 	ldr	r3, [fp, #-20]	; 0xffffffec
  101824:	e5c32000 	strb	r2, [r3]
  101828:	e3a03000 	mov	r3, #0
  10182c:	e1a00003 	mov	r0, r3
  101830:	e24bd000 	sub	sp, fp, #0
  101834:	e49db004 	pop	{fp}		; (ldr fp, [sp], #4)
  101838:	e12fff1e 	bx	lr

0010183c <ad7768_set_ch_mode>:
  10183c:	e92d4800 	push	{fp, lr}
  101840:	e28db004 	add	fp, sp, #4
  101844:	e24dd008 	sub	sp, sp, #8
  101848:	e50b0008 	str	r0, [fp, #-8]
  10184c:	e1a03001 	mov	r3, r1
  101850:	e54b3009 	strb	r3, [fp, #-9]
  101854:	e1a03002 	mov	r3, r2
  101858:	e54b300a 	strb	r3, [fp, #-10]
  10185c:	e55b3009 	ldrb	r3, [fp, #-9]
  101860:	e3a02001 	mov	r2, #1
  101864:	e1a03312 	lsl	r3, r2, r3
  101868:	e6ef1073 	uxtb	r1, r3
  10186c:	e55b300a 	ldrb	r3, [fp, #-10]
  101870:	e3530000 	cmp	r3, #0
  101874:	0a000004 	beq	10188c <ad7768_set_ch_mode+0x50>
  101878:	e55b3009 	ldrb	r3, [fp, #-9]
  10187c:	e3a02001 	mov	r2, #1
  101880:	e1a03312 	lsl	r3, r2, r3
  101884:	e6ef3073 	uxtb	r3, r3
  101888:	ea000000 	b	101890 <ad7768_set_ch_mode+0x54>
  10188c:	e3a03000 	mov	r3, #0
  101890:	e1a02001 	mov	r2, r1
  101894:	e3a01003 	mov	r1, #3
  101898:	e51b0008 	ldr	r0, [fp, #-8]
  10189c:	ebfffd7a 	bl	100e8c <ad7768_spi_write_mask>
  1018a0:	e55b3009 	ldrb	r3, [fp, #-9]
  1018a4:	e51b2008 	ldr	r2, [fp, #-8]
  1018a8:	e0823003 	add	r3, r2, r3
  1018ac:	e55b200a 	ldrb	r2, [fp, #-10]
  1018b0:	e5c3202c 	strb	r2, [r3, #44]	; 0x2c
  1018b4:	e3a03000 	mov	r3, #0
  1018b8:	e1a00003 	mov	r0, r3
  1018bc:	e24bd004 	sub	sp, fp, #4
  1018c0:	e8bd8800 	pop	{fp, pc}

001018c4 <ad7768_get_ch_mode>:
  1018c4:	e52db004 	push	{fp}		; (str fp, [sp, #-4]!)
  1018c8:	e28db000 	add	fp, sp, #0
  1018cc:	e24dd014 	sub	sp, sp, #20
  1018d0:	e50b0008 	str	r0, [fp, #-8]
  1018d4:	e1a03001 	mov	r3, r1
  1018d8:	e50b2010 	str	r2, [fp, #-16]
  1018dc:	e54b3009 	strb	r3, [fp, #-9]
  1018e0:	e55b3009 	ldrb	r3, [fp, #-9]
  1018e4:	e51b2008 	ldr	r2, [fp, #-8]
  1018e8:	e0823003 	add	r3, r2, r3
  1018ec:	e5d3202c 	ldrb	r2, [r3, #44]	; 0x2c
  1018f0:	e51b3010 	ldr	r3, [fp, #-16]
  1018f4:	e5c32000 	strb	r2, [r3]
  1018f8:	e3a03000 	mov	r3, #0
  1018fc:	e1a00003 	mov	r0, r3
  101900:	e24bd000 	sub	sp, fp, #0
  101904:	e49db004 	pop	{fp}		; (ldr fp, [sp], #4)
  101908:	e12fff1e 	bx	lr

0010190c <ad7768_setup>:
  10190c:	e24dd010 	sub	sp, sp, #16
  101910:	e92d4800 	push	{fp, lr}
  101914:	e28db004 	add	fp, sp, #4
  101918:	e24dd010 	sub	sp, sp, #16
  10191c:	e50b0010 	str	r0, [fp, #-16]
  101920:	e28b0008 	add	r0, fp, #8
  101924:	e880000e 	stm	r0, {r1, r2, r3}
  101928:	e3a00038 	mov	r0, #56	; 0x38
  10192c:	eb004813 	bl	113980 <malloc>
  101930:	e1a03000 	mov	r3, r0
  101934:	e50b300c 	str	r3, [fp, #-12]
  101938:	e51b300c 	ldr	r3, [fp, #-12]
  10193c:	e3530000 	cmp	r3, #0
  101940:	1a000001 	bne	10194c <ad7768_setup+0x40>
  101944:	e3e03000 	mvn	r3, #0
  101948:	ea0000d1 	b	101c94 <ad7768_setup+0x388>
  10194c:	e51b300c 	ldr	r3, [fp, #-12]
  101950:	e28b2008 	add	r2, fp, #8
  101954:	e1a01002 	mov	r1, r2
  101958:	e1a00003 	mov	r0, r3
  10195c:	eb0000d1 	bl	101ca8 <spi_init>
  101960:	e50b0008 	str	r0, [fp, #-8]
  101964:	e5db205c 	ldrb	r2, [fp, #92]	; 0x5c
  101968:	e51b300c 	ldr	r3, [fp, #-12]
  10196c:	e5c3201c 	strb	r2, [r3, #28]
  101970:	e51b300c 	ldr	r3, [fp, #-12]
  101974:	e5d3301c 	ldrb	r3, [r3, #28]
  101978:	e3530000 	cmp	r3, #0
  10197c:	13a03001 	movne	r3, #1
  101980:	03a03000 	moveq	r3, #0
  101984:	e6ef3073 	uxtb	r3, r3
  101988:	e1a02003 	mov	r2, r3
  10198c:	e51b300c 	ldr	r3, [fp, #-12]
  101990:	e5c3201d 	strb	r2, [r3, #29]
  101994:	e51b300c 	ldr	r3, [fp, #-12]
  101998:	e2832004 	add	r2, r3, #4
  10199c:	e28b3008 	add	r3, fp, #8
  1019a0:	e2833014 	add	r3, r3, #20
  1019a4:	e1a01003 	mov	r1, r3
  1019a8:	e1a00002 	mov	r0, r2
  1019ac:	eb000221 	bl	102238 <gpio_get>
  1019b0:	e1a02000 	mov	r2, r0
  1019b4:	e51b3008 	ldr	r3, [fp, #-8]
  1019b8:	e1833002 	orr	r3, r3, r2
  1019bc:	e50b3008 	str	r3, [fp, #-8]
  1019c0:	e5db2028 	ldrb	r2, [fp, #40]	; 0x28
  1019c4:	e51b300c 	ldr	r3, [fp, #-12]
  1019c8:	e5c32008 	strb	r2, [r3, #8]
  1019cc:	e51b300c 	ldr	r3, [fp, #-12]
  1019d0:	e283200c 	add	r2, r3, #12
  1019d4:	e28b3008 	add	r3, fp, #8
  1019d8:	e2833024 	add	r3, r3, #36	; 0x24
  1019dc:	e1a01003 	mov	r1, r3
  1019e0:	e1a00002 	mov	r0, r2
  1019e4:	eb000213 	bl	102238 <gpio_get>
  1019e8:	e1a02000 	mov	r2, r0
  1019ec:	e51b3008 	ldr	r3, [fp, #-8]
  1019f0:	e1833002 	orr	r3, r3, r2
  1019f4:	e50b3008 	str	r3, [fp, #-8]
  1019f8:	e51b300c 	ldr	r3, [fp, #-12]
  1019fc:	e2832010 	add	r2, r3, #16
  101a00:	e28b3008 	add	r3, fp, #8
  101a04:	e2833030 	add	r3, r3, #48	; 0x30
  101a08:	e1a01003 	mov	r1, r3
  101a0c:	e1a00002 	mov	r0, r2
  101a10:	eb000208 	bl	102238 <gpio_get>
  101a14:	e1a02000 	mov	r2, r0
  101a18:	e51b3008 	ldr	r3, [fp, #-8]
  101a1c:	e1833002 	orr	r3, r3, r2
  101a20:	e50b3008 	str	r3, [fp, #-8]
  101a24:	e51b300c 	ldr	r3, [fp, #-12]
  101a28:	e2832014 	add	r2, r3, #20
  101a2c:	e28b3008 	add	r3, fp, #8
  101a30:	e283303c 	add	r3, r3, #60	; 0x3c
  101a34:	e1a01003 	mov	r1, r3
  101a38:	e1a00002 	mov	r0, r2
  101a3c:	eb0001fd 	bl	102238 <gpio_get>
  101a40:	e1a02000 	mov	r2, r0
  101a44:	e51b3008 	ldr	r3, [fp, #-8]
  101a48:	e1833002 	orr	r3, r3, r2
  101a4c:	e50b3008 	str	r3, [fp, #-8]
  101a50:	e51b300c 	ldr	r3, [fp, #-12]
  101a54:	e2832018 	add	r2, r3, #24
  101a58:	e28b3008 	add	r3, fp, #8
  101a5c:	e2833048 	add	r3, r3, #72	; 0x48
  101a60:	e1a01003 	mov	r1, r3
  101a64:	e1a00002 	mov	r0, r2
  101a68:	eb0001f2 	bl	102238 <gpio_get>
  101a6c:	e1a02000 	mov	r2, r0
  101a70:	e51b3008 	ldr	r3, [fp, #-8]
  101a74:	e1833002 	orr	r3, r3, r2
  101a78:	e50b3008 	str	r3, [fp, #-8]
  101a7c:	e51b300c 	ldr	r3, [fp, #-12]
  101a80:	e5933004 	ldr	r3, [r3, #4]
  101a84:	e3530000 	cmp	r3, #0
  101a88:	0a00000a 	beq	101ab8 <ad7768_setup+0x1ac>
  101a8c:	e51b300c 	ldr	r3, [fp, #-12]
  101a90:	e5932004 	ldr	r2, [r3, #4]
  101a94:	e51b300c 	ldr	r3, [fp, #-12]
  101a98:	e5d33008 	ldrb	r3, [r3, #8]
  101a9c:	e1a01003 	mov	r1, r3
  101aa0:	e1a00002 	mov	r0, r2
  101aa4:	eb00024a 	bl	1023d4 <gpio_direction_output>
  101aa8:	e1a02000 	mov	r2, r0
  101aac:	e51b3008 	ldr	r3, [fp, #-8]
  101ab0:	e1833002 	orr	r3, r3, r2
  101ab4:	e50b3008 	str	r3, [fp, #-8]
  101ab8:	e51b300c 	ldr	r3, [fp, #-12]
  101abc:	e593300c 	ldr	r3, [r3, #12]
  101ac0:	e3530000 	cmp	r3, #0
  101ac4:	0a000008 	beq	101aec <ad7768_setup+0x1e0>
  101ac8:	e51b300c 	ldr	r3, [fp, #-12]
  101acc:	e593300c 	ldr	r3, [r3, #12]
  101ad0:	e3a01000 	mov	r1, #0
  101ad4:	e1a00003 	mov	r0, r3
  101ad8:	eb00023d 	bl	1023d4 <gpio_direction_output>
  101adc:	e1a02000 	mov	r2, r0
  101ae0:	e51b3008 	ldr	r3, [fp, #-8]
  101ae4:	e1833002 	orr	r3, r3, r2
  101ae8:	e50b3008 	str	r3, [fp, #-8]
  101aec:	e51b300c 	ldr	r3, [fp, #-12]
  101af0:	e5933010 	ldr	r3, [r3, #16]
  101af4:	e3530000 	cmp	r3, #0
  101af8:	0a000008 	beq	101b20 <ad7768_setup+0x214>
  101afc:	e51b300c 	ldr	r3, [fp, #-12]
  101b00:	e5933010 	ldr	r3, [r3, #16]
  101b04:	e3a01000 	mov	r1, #0
  101b08:	e1a00003 	mov	r0, r3
  101b0c:	eb000230 	bl	1023d4 <gpio_direction_output>
  101b10:	e1a02000 	mov	r2, r0
  101b14:	e51b3008 	ldr	r3, [fp, #-8]
  101b18:	e1833002 	orr	r3, r3, r2
  101b1c:	e50b3008 	str	r3, [fp, #-8]
  101b20:	e51b300c 	ldr	r3, [fp, #-12]
  101b24:	e5933014 	ldr	r3, [r3, #20]
  101b28:	e3530000 	cmp	r3, #0
  101b2c:	0a000008 	beq	101b54 <ad7768_setup+0x248>
  101b30:	e51b300c 	ldr	r3, [fp, #-12]
  101b34:	e5933014 	ldr	r3, [r3, #20]
  101b38:	e3a01000 	mov	r1, #0
  101b3c:	e1a00003 	mov	r0, r3
  101b40:	eb000223 	bl	1023d4 <gpio_direction_output>
  101b44:	e1a02000 	mov	r2, r0
  101b48:	e51b3008 	ldr	r3, [fp, #-8]
  101b4c:	e1833002 	orr	r3, r3, r2
  101b50:	e50b3008 	str	r3, [fp, #-8]
  101b54:	e51b300c 	ldr	r3, [fp, #-12]
  101b58:	e5933018 	ldr	r3, [r3, #24]
  101b5c:	e3530000 	cmp	r3, #0
  101b60:	0a000008 	beq	101b88 <ad7768_setup+0x27c>
  101b64:	e51b300c 	ldr	r3, [fp, #-12]
  101b68:	e5933018 	ldr	r3, [r3, #24]
  101b6c:	e3a01000 	mov	r1, #0
  101b70:	e1a00003 	mov	r0, r3
  101b74:	eb000216 	bl	1023d4 <gpio_direction_output>
  101b78:	e1a02000 	mov	r2, r0
  101b7c:	e51b3008 	ldr	r3, [fp, #-8]
  101b80:	e1833002 	orr	r3, r3, r2
  101b84:	e50b3008 	str	r3, [fp, #-8]
  101b88:	e5db205d 	ldrb	r2, [fp, #93]	; 0x5d
  101b8c:	e51b300c 	ldr	r3, [fp, #-12]
  101b90:	e5c3201e 	strb	r2, [r3, #30]
  101b94:	e5db205f 	ldrb	r2, [fp, #95]	; 0x5f
  101b98:	e51b300c 	ldr	r3, [fp, #-12]
  101b9c:	e5c32020 	strb	r2, [r3, #32]
  101ba0:	e5db2062 	ldrb	r2, [fp, #98]	; 0x62
  101ba4:	e51b300c 	ldr	r3, [fp, #-12]
  101ba8:	e5c32023 	strb	r2, [r3, #35]	; 0x23
  101bac:	e51b300c 	ldr	r3, [fp, #-12]
  101bb0:	e5d3301d 	ldrb	r3, [r3, #29]
  101bb4:	e3530001 	cmp	r3, #1
  101bb8:	1a00000e 	bne	101bf8 <ad7768_setup+0x2ec>
  101bbc:	e51b300c 	ldr	r3, [fp, #-12]
  101bc0:	e5d3301e 	ldrb	r3, [r3, #30]
  101bc4:	e1a01003 	mov	r1, r3
  101bc8:	e51b000c 	ldr	r0, [fp, #-12]
  101bcc:	ebfffcdc 	bl	100f44 <ad7768_set_sleep_mode>
  101bd0:	e51b300c 	ldr	r3, [fp, #-12]
  101bd4:	e5d33020 	ldrb	r3, [r3, #32]
  101bd8:	e1a01003 	mov	r1, r3
  101bdc:	e51b000c 	ldr	r0, [fp, #-12]
  101be0:	ebfffda3 	bl	101274 <ad7768_set_mclk_div>
  101be4:	e51b300c 	ldr	r3, [fp, #-12]
  101be8:	e5d33023 	ldrb	r3, [r3, #35]	; 0x23
  101bec:	e1a01003 	mov	r1, r3
  101bf0:	e51b000c 	ldr	r0, [fp, #-12]
  101bf4:	ebfffe6a 	bl	1015a4 <ad7768_set_crc_sel>
  101bf8:	e5db205e 	ldrb	r2, [fp, #94]	; 0x5e
  101bfc:	e51b300c 	ldr	r3, [fp, #-12]
  101c00:	e5c3201f 	strb	r2, [r3, #31]
  101c04:	e5db2060 	ldrb	r2, [fp, #96]	; 0x60
  101c08:	e51b300c 	ldr	r3, [fp, #-12]
  101c0c:	e5c32021 	strb	r2, [r3, #33]	; 0x21
  101c10:	e5db2061 	ldrb	r2, [fp, #97]	; 0x61
  101c14:	e51b300c 	ldr	r3, [fp, #-12]
  101c18:	e5c32022 	strb	r2, [r3, #34]	; 0x22
  101c1c:	e51b300c 	ldr	r3, [fp, #-12]
  101c20:	e5d3301f 	ldrb	r3, [r3, #31]
  101c24:	e1a01003 	mov	r1, r3
  101c28:	e51b000c 	ldr	r0, [fp, #-12]
  101c2c:	ebfffd3c 	bl	101124 <ad7768_set_power_mode>
  101c30:	e51b300c 	ldr	r3, [fp, #-12]
  101c34:	e5d33021 	ldrb	r3, [r3, #33]	; 0x21
  101c38:	e1a01003 	mov	r1, r3
  101c3c:	e51b000c 	ldr	r0, [fp, #-12]
  101c40:	ebfffdad 	bl	1012fc <ad7768_set_dclk_div>
  101c44:	e51b300c 	ldr	r3, [fp, #-12]
  101c48:	e5d33022 	ldrb	r3, [r3, #34]	; 0x22
  101c4c:	e1a01003 	mov	r1, r3
  101c50:	e51b000c 	ldr	r0, [fp, #-12]
  101c54:	ebfffdfa 	bl	101444 <ad7768_set_conv_op>
  101c58:	e3a03000 	mov	r3, #0
  101c5c:	e3a02001 	mov	r2, #1
  101c60:	e3a01000 	mov	r1, #0
  101c64:	e51b000c 	ldr	r0, [fp, #-12]
  101c68:	ebfffea5 	bl	101704 <ad7768_set_mode_config>
  101c6c:	e51b3010 	ldr	r3, [fp, #-16]
  101c70:	e51b200c 	ldr	r2, [fp, #-12]
  101c74:	e5832000 	str	r2, [r3]
  101c78:	e51b3008 	ldr	r3, [fp, #-8]
  101c7c:	e3530000 	cmp	r3, #0
  101c80:	1a000002 	bne	101c90 <ad7768_setup+0x384>
  101c84:	e30d02e0 	movw	r0, #53984	; 0xd2e0
  101c88:	e3400011 	movt	r0, #17
  101c8c:	eb004a0f 	bl	1144d0 <puts>
  101c90:	e51b3008 	ldr	r3, [fp, #-8]
  101c94:	e1a00003 	mov	r0, r3
  101c98:	e24bd004 	sub	sp, fp, #4
  101c9c:	e8bd4800 	pop	{fp, lr}
  101ca0:	e28dd010 	add	sp, sp, #16
  101ca4:	e12fff1e 	bx	lr

00101ca8 <spi_init>:
  101ca8:	e92d4800 	push	{fp, lr}
  101cac:	e28db004 	add	fp, sp, #4
  101cb0:	e24dd008 	sub	sp, sp, #8
  101cb4:	e50b0008 	str	r0, [fp, #-8]
  101cb8:	e50b100c 	str	r1, [fp, #-12]
  101cbc:	e51b300c 	ldr	r3, [fp, #-12]
  101cc0:	e3530000 	cmp	r3, #0
  101cc4:	1a000001 	bne	101cd0 <spi_init+0x28>
  101cc8:	e3e03000 	mvn	r3, #0
  101ccc:	ea000010 	b	101d14 <spi_init+0x6c>
  101cd0:	e51b300c 	ldr	r3, [fp, #-12]
  101cd4:	e593300c 	ldr	r3, [r3, #12]
  101cd8:	e5933000 	ldr	r3, [r3]
  101cdc:	e51b100c 	ldr	r1, [fp, #-12]
  101ce0:	e51b0008 	ldr	r0, [fp, #-8]
  101ce4:	e12fff33 	blx	r3
  101ce8:	e1a03000 	mov	r3, r0
  101cec:	e3530000 	cmp	r3, #0
  101cf0:	0a000001 	beq	101cfc <spi_init+0x54>
  101cf4:	e3e03000 	mvn	r3, #0
  101cf8:	ea000005 	b	101d14 <spi_init+0x6c>
  101cfc:	e51b3008 	ldr	r3, [fp, #-8]
  101d00:	e5933000 	ldr	r3, [r3]
  101d04:	e51b200c 	ldr	r2, [fp, #-12]
  101d08:	e592200c 	ldr	r2, [r2, #12]
  101d0c:	e583200c 	str	r2, [r3, #12]
  101d10:	e3a03000 	mov	r3, #0
  101d14:	e1a00003 	mov	r0, r3
  101d18:	e24bd004 	sub	sp, fp, #4
  101d1c:	e8bd8800 	pop	{fp, pc}

00101d20 <spi_remove>:
  101d20:	e92d4800 	push	{fp, lr}
  101d24:	e28db004 	add	fp, sp, #4
  101d28:	e24dd008 	sub	sp, sp, #8
  101d2c:	e50b0008 	str	r0, [fp, #-8]
  101d30:	e51b3008 	ldr	r3, [fp, #-8]
  101d34:	e593300c 	ldr	r3, [r3, #12]
  101d38:	e593300c 	ldr	r3, [r3, #12]
  101d3c:	e51b0008 	ldr	r0, [fp, #-8]
  101d40:	e12fff33 	blx	r3
  101d44:	e1a03000 	mov	r3, r0
  101d48:	e1a00003 	mov	r0, r3
  101d4c:	e24bd004 	sub	sp, fp, #4
  101d50:	e8bd8800 	pop	{fp, pc}

00101d54 <spi_write_and_read>:
  101d54:	e92d4800 	push	{fp, lr}
  101d58:	e28db004 	add	fp, sp, #4
  101d5c:	e24dd010 	sub	sp, sp, #16
  101d60:	e50b0008 	str	r0, [fp, #-8]
  101d64:	e50b100c 	str	r1, [fp, #-12]
  101d68:	e1a03002 	mov	r3, r2
  101d6c:	e14b30be 	strh	r3, [fp, #-14]
  101d70:	e51b3008 	ldr	r3, [fp, #-8]
  101d74:	e593300c 	ldr	r3, [r3, #12]
  101d78:	e5933004 	ldr	r3, [r3, #4]
  101d7c:	e15b20be 	ldrh	r2, [fp, #-14]
  101d80:	e51b100c 	ldr	r1, [fp, #-12]
  101d84:	e51b0008 	ldr	r0, [fp, #-8]
  101d88:	e12fff33 	blx	r3
  101d8c:	e1a03000 	mov	r3, r0
  101d90:	e1a00003 	mov	r0, r3
  101d94:	e24bd004 	sub	sp, fp, #4
  101d98:	e8bd8800 	pop	{fp, pc}

00101d9c <axi_dmac_read>:
  101d9c:	e92d4800 	push	{fp, lr}
  101da0:	e28db004 	add	fp, sp, #4
  101da4:	e24dd010 	sub	sp, sp, #16
  101da8:	e50b0008 	str	r0, [fp, #-8]
  101dac:	e50b100c 	str	r1, [fp, #-12]
  101db0:	e50b2010 	str	r2, [fp, #-16]
  101db4:	e51b3008 	ldr	r3, [fp, #-8]
  101db8:	e5933004 	ldr	r3, [r3, #4]
  101dbc:	e51b2010 	ldr	r2, [fp, #-16]
  101dc0:	e51b100c 	ldr	r1, [fp, #-12]
  101dc4:	e1a00003 	mov	r0, r3
  101dc8:	eb0000f8 	bl	1021b0 <axi_io_read>
  101dcc:	e3a03000 	mov	r3, #0
  101dd0:	e1a00003 	mov	r0, r3
  101dd4:	e24bd004 	sub	sp, fp, #4
  101dd8:	e8bd8800 	pop	{fp, pc}

00101ddc <axi_dmac_write>:
  101ddc:	e92d4800 	push	{fp, lr}
  101de0:	e28db004 	add	fp, sp, #4
  101de4:	e24dd010 	sub	sp, sp, #16
  101de8:	e50b0008 	str	r0, [fp, #-8]
  101dec:	e50b100c 	str	r1, [fp, #-12]
  101df0:	e50b2010 	str	r2, [fp, #-16]
  101df4:	e51b3008 	ldr	r3, [fp, #-8]
  101df8:	e5933004 	ldr	r3, [r3, #4]
  101dfc:	e51b2010 	ldr	r2, [fp, #-16]
  101e00:	e51b100c 	ldr	r1, [fp, #-12]
  101e04:	e1a00003 	mov	r0, r3
  101e08:	eb0000f9 	bl	1021f4 <axi_io_write>
  101e0c:	e3a03000 	mov	r3, #0
  101e10:	e1a00003 	mov	r0, r3
  101e14:	e24bd004 	sub	sp, fp, #4
  101e18:	e8bd8800 	pop	{fp, pc}

00101e1c <axi_dmac_transfer>:
  101e1c:	e92d4800 	push	{fp, lr}
  101e20:	e28db004 	add	fp, sp, #4
  101e24:	e24dd020 	sub	sp, sp, #32
  101e28:	e50b0018 	str	r0, [fp, #-24]	; 0xffffffe8
  101e2c:	e50b101c 	str	r1, [fp, #-28]	; 0xffffffe4
  101e30:	e50b2020 	str	r2, [fp, #-32]	; 0xffffffe0
  101e34:	e3a03000 	mov	r3, #0
  101e38:	e50b3010 	str	r3, [fp, #-16]
  101e3c:	e51b3020 	ldr	r3, [fp, #-32]	; 0xffffffe0
  101e40:	e3530000 	cmp	r3, #0
  101e44:	1a000001 	bne	101e50 <axi_dmac_transfer+0x34>
  101e48:	e3a03000 	mov	r3, #0
  101e4c:	ea000084 	b	102064 <axi_dmac_transfer+0x248>
  101e50:	e3a02000 	mov	r2, #0
  101e54:	e3a01b01 	mov	r1, #1024	; 0x400
  101e58:	e51b0018 	ldr	r0, [fp, #-24]	; 0xffffffe8
  101e5c:	ebffffde 	bl	101ddc <axi_dmac_write>
  101e60:	e3a02001 	mov	r2, #1
  101e64:	e3a01b01 	mov	r1, #1024	; 0x400
  101e68:	e51b0018 	ldr	r0, [fp, #-24]	; 0xffffffe8
  101e6c:	ebffffda 	bl	101ddc <axi_dmac_write>
  101e70:	e24b3010 	sub	r3, fp, #16
  101e74:	e1a02003 	mov	r2, r3
  101e78:	e3a01b01 	mov	r1, #1024	; 0x400
  101e7c:	e51b0018 	ldr	r0, [fp, #-24]	; 0xffffffe8
  101e80:	ebffffc5 	bl	101d9c <axi_dmac_read>
  101e84:	e3a02000 	mov	r2, #0
  101e88:	e3a01080 	mov	r1, #128	; 0x80
  101e8c:	e51b0018 	ldr	r0, [fp, #-24]	; 0xffffffe8
  101e90:	ebffffd1 	bl	101ddc <axi_dmac_write>
  101e94:	e24b300c 	sub	r3, fp, #12
  101e98:	e1a02003 	mov	r2, r3
  101e9c:	e3a01084 	mov	r1, #132	; 0x84
  101ea0:	e51b0018 	ldr	r0, [fp, #-24]	; 0xffffffe8
  101ea4:	ebffffbc 	bl	101d9c <axi_dmac_read>
  101ea8:	e24b3008 	sub	r3, fp, #8
  101eac:	e1a02003 	mov	r2, r3
  101eb0:	e3001404 	movw	r1, #1028	; 0x404
  101eb4:	e51b0018 	ldr	r0, [fp, #-24]	; 0xffffffe8
  101eb8:	ebffffb7 	bl	101d9c <axi_dmac_read>
  101ebc:	e24b300c 	sub	r3, fp, #12
  101ec0:	e1a02003 	mov	r2, r3
  101ec4:	e3a01084 	mov	r1, #132	; 0x84
  101ec8:	e51b0018 	ldr	r0, [fp, #-24]	; 0xffffffe8
  101ecc:	ebffffb2 	bl	101d9c <axi_dmac_read>
  101ed0:	e51b300c 	ldr	r3, [fp, #-12]
  101ed4:	e1a02003 	mov	r2, r3
  101ed8:	e3a01084 	mov	r1, #132	; 0x84
  101edc:	e51b0018 	ldr	r0, [fp, #-24]	; 0xffffffe8
  101ee0:	ebffffbd 	bl	101ddc <axi_dmac_write>
  101ee4:	e51b3018 	ldr	r3, [fp, #-24]	; 0xffffffe8
  101ee8:	e5d33008 	ldrb	r3, [r3, #8]
  101eec:	e3530000 	cmp	r3, #0
  101ef0:	0a000002 	beq	101f00 <axi_dmac_transfer+0xe4>
  101ef4:	e3530001 	cmp	r3, #1
  101ef8:	0a00000e 	beq	101f38 <axi_dmac_transfer+0x11c>
  101efc:	ea000016 	b	101f5c <axi_dmac_transfer+0x140>
  101f00:	e51b201c 	ldr	r2, [fp, #-28]	; 0xffffffe4
  101f04:	e3a01e41 	mov	r1, #1040	; 0x410
  101f08:	e51b0018 	ldr	r0, [fp, #-24]	; 0xffffffe8
  101f0c:	ebffffb2 	bl	101ddc <axi_dmac_write>
  101f10:	e51b201c 	ldr	r2, [fp, #-28]	; 0xffffffe4
  101f14:	e3a01e41 	mov	r1, #1040	; 0x410
  101f18:	e30d0304 	movw	r0, #54020	; 0xd304
  101f1c:	e3400011 	movt	r0, #17
  101f20:	eb00491c 	bl	114398 <printf>
  101f24:	e3a02000 	mov	r2, #0
  101f28:	e3a01e42 	mov	r1, #1056	; 0x420
  101f2c:	e51b0018 	ldr	r0, [fp, #-24]	; 0xffffffe8
  101f30:	ebffffa9 	bl	101ddc <axi_dmac_write>
  101f34:	ea00000a 	b	101f64 <axi_dmac_transfer+0x148>
  101f38:	e51b201c 	ldr	r2, [fp, #-28]	; 0xffffffe4
  101f3c:	e3001414 	movw	r1, #1044	; 0x414
  101f40:	e51b0018 	ldr	r0, [fp, #-24]	; 0xffffffe8
  101f44:	ebffffa4 	bl	101ddc <axi_dmac_write>
  101f48:	e3a02000 	mov	r2, #0
  101f4c:	e3001424 	movw	r1, #1060	; 0x424
  101f50:	e51b0018 	ldr	r0, [fp, #-24]	; 0xffffffe8
  101f54:	ebffffa0 	bl	101ddc <axi_dmac_write>
  101f58:	ea000001 	b	101f64 <axi_dmac_transfer+0x148>
  101f5c:	e3e03000 	mvn	r3, #0
  101f60:	ea00003f 	b	102064 <axi_dmac_transfer+0x248>
  101f64:	e51b3020 	ldr	r3, [fp, #-32]	; 0xffffffe0
  101f68:	e2433001 	sub	r3, r3, #1
  101f6c:	e1a02003 	mov	r2, r3
  101f70:	e3001418 	movw	r1, #1048	; 0x418
  101f74:	e51b0018 	ldr	r0, [fp, #-24]	; 0xffffffe8
  101f78:	ebffff97 	bl	101ddc <axi_dmac_write>
  101f7c:	e3a02000 	mov	r2, #0
  101f80:	e300141c 	movw	r1, #1052	; 0x41c
  101f84:	e51b0018 	ldr	r0, [fp, #-24]	; 0xffffffe8
  101f88:	ebffff93 	bl	101ddc <axi_dmac_write>
  101f8c:	e51b3018 	ldr	r3, [fp, #-24]	; 0xffffffe8
  101f90:	e593300c 	ldr	r3, [r3, #12]
  101f94:	e1a02003 	mov	r2, r3
  101f98:	e300140c 	movw	r1, #1036	; 0x40c
  101f9c:	e51b0018 	ldr	r0, [fp, #-24]	; 0xffffffe8
  101fa0:	ebffff8d 	bl	101ddc <axi_dmac_write>
  101fa4:	e3a02001 	mov	r2, #1
  101fa8:	e3001408 	movw	r1, #1032	; 0x408
  101fac:	e51b0018 	ldr	r0, [fp, #-24]	; 0xffffffe8
  101fb0:	ebffff89 	bl	101ddc <axi_dmac_write>
  101fb4:	e51b3018 	ldr	r3, [fp, #-24]	; 0xffffffe8
  101fb8:	e593300c 	ldr	r3, [r3, #12]
  101fbc:	e2033001 	and	r3, r3, #1
  101fc0:	e3530000 	cmp	r3, #0
  101fc4:	0a000001 	beq	101fd0 <axi_dmac_transfer+0x1b4>
  101fc8:	e3a03000 	mov	r3, #0
  101fcc:	ea000024 	b	102064 <axi_dmac_transfer+0x248>
  101fd0:	e24b300c 	sub	r3, fp, #12
  101fd4:	e1a02003 	mov	r2, r3
  101fd8:	e3001408 	movw	r1, #1032	; 0x408
  101fdc:	e51b0018 	ldr	r0, [fp, #-24]	; 0xffffffe8
  101fe0:	ebffff6d 	bl	101d9c <axi_dmac_read>
  101fe4:	e51b300c 	ldr	r3, [fp, #-12]
  101fe8:	e3530001 	cmp	r3, #1
  101fec:	0afffff7 	beq	101fd0 <axi_dmac_transfer+0x1b4>
  101ff0:	e24b300c 	sub	r3, fp, #12
  101ff4:	e1a02003 	mov	r2, r3
  101ff8:	e3a01084 	mov	r1, #132	; 0x84
  101ffc:	e51b0018 	ldr	r0, [fp, #-24]	; 0xffffffe8
  102000:	ebffff65 	bl	101d9c <axi_dmac_read>
  102004:	e51b300c 	ldr	r3, [fp, #-12]
  102008:	e3530003 	cmp	r3, #3
  10200c:	1afffff7 	bne	101ff0 <axi_dmac_transfer+0x1d4>
  102010:	e51b300c 	ldr	r3, [fp, #-12]
  102014:	e1a02003 	mov	r2, r3
  102018:	e3a01084 	mov	r1, #132	; 0x84
  10201c:	e51b0018 	ldr	r0, [fp, #-24]	; 0xffffffe8
  102020:	ebffff6d 	bl	101ddc <axi_dmac_write>
  102024:	e24b300c 	sub	r3, fp, #12
  102028:	e1a02003 	mov	r2, r3
  10202c:	e3001428 	movw	r1, #1064	; 0x428
  102030:	e51b0018 	ldr	r0, [fp, #-24]	; 0xffffffe8
  102034:	ebffff58 	bl	101d9c <axi_dmac_read>
  102038:	e51b3008 	ldr	r3, [fp, #-8]
  10203c:	e3a02001 	mov	r2, #1
  102040:	e1a02312 	lsl	r2, r2, r3
  102044:	e51b300c 	ldr	r3, [fp, #-12]
  102048:	e0022003 	and	r2, r2, r3
  10204c:	e51b3008 	ldr	r3, [fp, #-8]
  102050:	e3a01001 	mov	r1, #1
  102054:	e1a03311 	lsl	r3, r1, r3
  102058:	e1520003 	cmp	r2, r3
  10205c:	1afffff0 	bne	102024 <axi_dmac_transfer+0x208>
  102060:	e3a03000 	mov	r3, #0
  102064:	e1a00003 	mov	r0, r3
  102068:	e24bd004 	sub	sp, fp, #4
  10206c:	e8bd8800 	pop	{fp, pc}

00102070 <axi_dmac_init>:
  102070:	e92d4800 	push	{fp, lr}
  102074:	e28db004 	add	fp, sp, #4
  102078:	e24dd010 	sub	sp, sp, #16
  10207c:	e50b0010 	str	r0, [fp, #-16]
  102080:	e50b1014 	str	r1, [fp, #-20]	; 0xffffffec
  102084:	e3a00010 	mov	r0, #16
  102088:	eb00463c 	bl	113980 <malloc>
  10208c:	e1a03000 	mov	r3, r0
  102090:	e50b3008 	str	r3, [fp, #-8]
  102094:	e51b3008 	ldr	r3, [fp, #-8]
  102098:	e3530000 	cmp	r3, #0
  10209c:	1a000001 	bne	1020a8 <axi_dmac_init+0x38>
  1020a0:	e3e03000 	mvn	r3, #0
  1020a4:	ea000013 	b	1020f8 <axi_dmac_init+0x88>
  1020a8:	e51b3014 	ldr	r3, [fp, #-20]	; 0xffffffec
  1020ac:	e5932000 	ldr	r2, [r3]
  1020b0:	e51b3008 	ldr	r3, [fp, #-8]
  1020b4:	e5832000 	str	r2, [r3]
  1020b8:	e51b3014 	ldr	r3, [fp, #-20]	; 0xffffffec
  1020bc:	e5932004 	ldr	r2, [r3, #4]
  1020c0:	e51b3008 	ldr	r3, [fp, #-8]
  1020c4:	e5832004 	str	r2, [r3, #4]
  1020c8:	e51b3014 	ldr	r3, [fp, #-20]	; 0xffffffec
  1020cc:	e5d32008 	ldrb	r2, [r3, #8]
  1020d0:	e51b3008 	ldr	r3, [fp, #-8]
  1020d4:	e5c32008 	strb	r2, [r3, #8]
  1020d8:	e51b3014 	ldr	r3, [fp, #-20]	; 0xffffffec
  1020dc:	e593200c 	ldr	r2, [r3, #12]
  1020e0:	e51b3008 	ldr	r3, [fp, #-8]
  1020e4:	e583200c 	str	r2, [r3, #12]
  1020e8:	e51b3010 	ldr	r3, [fp, #-16]
  1020ec:	e51b2008 	ldr	r2, [fp, #-8]
  1020f0:	e5832000 	str	r2, [r3]
  1020f4:	e3a03000 	mov	r3, #0
  1020f8:	e1a00003 	mov	r0, r3
  1020fc:	e24bd004 	sub	sp, fp, #4
  102100:	e8bd8800 	pop	{fp, pc}

00102104 <axi_wait>:
  102104:	e92d4800 	push	{fp, lr}
  102108:	e28db004 	add	fp, sp, #4
  10210c:	e24dd010 	sub	sp, sp, #16
  102110:	e50b0010 	str	r0, [fp, #-16]
  102114:	e24b3008 	sub	r3, fp, #8
  102118:	e1a02003 	mov	r2, r3
  10211c:	e3001404 	movw	r1, #1028	; 0x404
  102120:	e51b0010 	ldr	r0, [fp, #-16]
  102124:	ebffff1c 	bl	101d9c <axi_dmac_read>
  102128:	e24b300c 	sub	r3, fp, #12
  10212c:	e1a02003 	mov	r2, r3
  102130:	e3001408 	movw	r1, #1032	; 0x408
  102134:	e51b0010 	ldr	r0, [fp, #-16]
  102138:	ebffff17 	bl	101d9c <axi_dmac_read>
  10213c:	e51b300c 	ldr	r3, [fp, #-12]
  102140:	e3530001 	cmp	r3, #1
  102144:	0afffff7 	beq	102128 <axi_wait+0x24>
  102148:	e24b300c 	sub	r3, fp, #12
  10214c:	e1a02003 	mov	r2, r3
  102150:	e3a01084 	mov	r1, #132	; 0x84
  102154:	e51b0010 	ldr	r0, [fp, #-16]
  102158:	ebffff0f 	bl	101d9c <axi_dmac_read>
  10215c:	e51b300c 	ldr	r3, [fp, #-12]
  102160:	e3530003 	cmp	r3, #3
  102164:	1afffff7 	bne	102148 <axi_wait+0x44>
  102168:	e320f000 	nop	{0}
  10216c:	e24bd004 	sub	sp, fp, #4
  102170:	e8bd8800 	pop	{fp, pc}

00102174 <axi_dmac_remove>:
  102174:	e92d4800 	push	{fp, lr}
  102178:	e28db004 	add	fp, sp, #4
  10217c:	e24dd008 	sub	sp, sp, #8
  102180:	e50b0008 	str	r0, [fp, #-8]
  102184:	e51b3008 	ldr	r3, [fp, #-8]
  102188:	e3530000 	cmp	r3, #0
  10218c:	1a000001 	bne	102198 <axi_dmac_remove+0x24>
  102190:	e3e03000 	mvn	r3, #0
  102194:	ea000002 	b	1021a4 <axi_dmac_remove+0x30>
  102198:	e51b0008 	ldr	r0, [fp, #-8]
  10219c:	eb0045fd 	bl	113998 <free>
  1021a0:	e3a03000 	mov	r3, #0
  1021a4:	e1a00003 	mov	r0, r3
  1021a8:	e24bd004 	sub	sp, fp, #4
  1021ac:	e8bd8800 	pop	{fp, pc}

001021b0 <axi_io_read>:
  1021b0:	e52db004 	push	{fp}		; (str fp, [sp, #-4]!)
  1021b4:	e28db000 	add	fp, sp, #0
  1021b8:	e24dd014 	sub	sp, sp, #20
  1021bc:	e50b0008 	str	r0, [fp, #-8]
  1021c0:	e50b100c 	str	r1, [fp, #-12]
  1021c4:	e50b2010 	str	r2, [fp, #-16]
  1021c8:	e51b2008 	ldr	r2, [fp, #-8]
  1021cc:	e51b300c 	ldr	r3, [fp, #-12]
  1021d0:	e0823003 	add	r3, r2, r3
  1021d4:	e5932000 	ldr	r2, [r3]
  1021d8:	e51b3010 	ldr	r3, [fp, #-16]
  1021dc:	e5832000 	str	r2, [r3]
  1021e0:	e3a03000 	mov	r3, #0
  1021e4:	e1a00003 	mov	r0, r3
  1021e8:	e24bd000 	sub	sp, fp, #0
  1021ec:	e49db004 	pop	{fp}		; (ldr fp, [sp], #4)
  1021f0:	e12fff1e 	bx	lr

001021f4 <axi_io_write>:
  1021f4:	e52db004 	push	{fp}		; (str fp, [sp, #-4]!)
  1021f8:	e28db000 	add	fp, sp, #0
  1021fc:	e24dd014 	sub	sp, sp, #20
  102200:	e50b0008 	str	r0, [fp, #-8]
  102204:	e50b100c 	str	r1, [fp, #-12]
  102208:	e50b2010 	str	r2, [fp, #-16]
  10220c:	e51b2008 	ldr	r2, [fp, #-8]
  102210:	e51b300c 	ldr	r3, [fp, #-12]
  102214:	e0823003 	add	r3, r2, r3
  102218:	e1a02003 	mov	r2, r3
  10221c:	e51b3010 	ldr	r3, [fp, #-16]
  102220:	e5823000 	str	r3, [r2]
  102224:	e3a03000 	mov	r3, #0
  102228:	e1a00003 	mov	r0, r3
  10222c:	e24bd000 	sub	sp, fp, #0
  102230:	e49db004 	pop	{fp}		; (ldr fp, [sp], #4)
  102234:	e12fff1e 	bx	lr

00102238 <gpio_get>:
  102238:	e92d4800 	push	{fp, lr}
  10223c:	e28db004 	add	fp, sp, #4
  102240:	e24dd008 	sub	sp, sp, #8
  102244:	e50b0008 	str	r0, [fp, #-8]
  102248:	e50b100c 	str	r1, [fp, #-12]
  10224c:	e51b300c 	ldr	r3, [fp, #-12]
  102250:	e3530000 	cmp	r3, #0
  102254:	1a000001 	bne	102260 <gpio_get+0x28>
  102258:	e3e03000 	mvn	r3, #0
  10225c:	ea000010 	b	1022a4 <gpio_get+0x6c>
  102260:	e51b300c 	ldr	r3, [fp, #-12]
  102264:	e5933004 	ldr	r3, [r3, #4]
  102268:	e5933000 	ldr	r3, [r3]
  10226c:	e51b100c 	ldr	r1, [fp, #-12]
  102270:	e51b0008 	ldr	r0, [fp, #-8]
  102274:	e12fff33 	blx	r3
  102278:	e1a03000 	mov	r3, r0
  10227c:	e3530000 	cmp	r3, #0
  102280:	0a000001 	beq	10228c <gpio_get+0x54>
  102284:	e3e03000 	mvn	r3, #0
  102288:	ea000005 	b	1022a4 <gpio_get+0x6c>
  10228c:	e51b3008 	ldr	r3, [fp, #-8]
  102290:	e5933000 	ldr	r3, [r3]
  102294:	e51b200c 	ldr	r2, [fp, #-12]
  102298:	e5922004 	ldr	r2, [r2, #4]
  10229c:	e5832004 	str	r2, [r3, #4]
  1022a0:	e3a03000 	mov	r3, #0
  1022a4:	e1a00003 	mov	r0, r3
  1022a8:	e24bd004 	sub	sp, fp, #4
  1022ac:	e8bd8800 	pop	{fp, pc}

001022b0 <gpio_get_optional>:
  1022b0:	e92d4800 	push	{fp, lr}
  1022b4:	e28db004 	add	fp, sp, #4
  1022b8:	e24dd008 	sub	sp, sp, #8
  1022bc:	e50b0008 	str	r0, [fp, #-8]
  1022c0:	e50b100c 	str	r1, [fp, #-12]
  1022c4:	e51b300c 	ldr	r3, [fp, #-12]
  1022c8:	e3530000 	cmp	r3, #0
  1022cc:	0a000003 	beq	1022e0 <gpio_get_optional+0x30>
  1022d0:	e51b300c 	ldr	r3, [fp, #-12]
  1022d4:	e5933000 	ldr	r3, [r3]
  1022d8:	e3730001 	cmn	r3, #1
  1022dc:	1a000004 	bne	1022f4 <gpio_get_optional+0x44>
  1022e0:	e51b3008 	ldr	r3, [fp, #-8]
  1022e4:	e3a02000 	mov	r2, #0
  1022e8:	e5832000 	str	r2, [r3]
  1022ec:	e3a03000 	mov	r3, #0
  1022f0:	ea000010 	b	102338 <gpio_get_optional+0x88>
  1022f4:	e51b300c 	ldr	r3, [fp, #-12]
  1022f8:	e5933004 	ldr	r3, [r3, #4]
  1022fc:	e5933004 	ldr	r3, [r3, #4]
  102300:	e51b100c 	ldr	r1, [fp, #-12]
  102304:	e51b0008 	ldr	r0, [fp, #-8]
  102308:	e12fff33 	blx	r3
  10230c:	e1a03000 	mov	r3, r0
  102310:	e3530000 	cmp	r3, #0
  102314:	0a000001 	beq	102320 <gpio_get_optional+0x70>
  102318:	e3e03000 	mvn	r3, #0
  10231c:	ea000005 	b	102338 <gpio_get_optional+0x88>
  102320:	e51b3008 	ldr	r3, [fp, #-8]
  102324:	e5933000 	ldr	r3, [r3]
  102328:	e51b200c 	ldr	r2, [fp, #-12]
  10232c:	e5922004 	ldr	r2, [r2, #4]
  102330:	e5832004 	str	r2, [r3, #4]
  102334:	e3a03000 	mov	r3, #0
  102338:	e1a00003 	mov	r0, r3
  10233c:	e24bd004 	sub	sp, fp, #4
  102340:	e8bd8800 	pop	{fp, pc}

00102344 <gpio_remove>:
  102344:	e92d4800 	push	{fp, lr}
  102348:	e28db004 	add	fp, sp, #4
  10234c:	e24dd008 	sub	sp, sp, #8
  102350:	e50b0008 	str	r0, [fp, #-8]
  102354:	e51b3008 	ldr	r3, [fp, #-8]
  102358:	e3530000 	cmp	r3, #0
  10235c:	0a000006 	beq	10237c <gpio_remove+0x38>
  102360:	e51b3008 	ldr	r3, [fp, #-8]
  102364:	e5933004 	ldr	r3, [r3, #4]
  102368:	e5933008 	ldr	r3, [r3, #8]
  10236c:	e51b0008 	ldr	r0, [fp, #-8]
  102370:	e12fff33 	blx	r3
  102374:	e1a03000 	mov	r3, r0
  102378:	ea000000 	b	102380 <gpio_remove+0x3c>
  10237c:	e3a03000 	mov	r3, #0
  102380:	e1a00003 	mov	r0, r3
  102384:	e24bd004 	sub	sp, fp, #4
  102388:	e8bd8800 	pop	{fp, pc}

0010238c <gpio_direction_input>:
  10238c:	e92d4800 	push	{fp, lr}
  102390:	e28db004 	add	fp, sp, #4
  102394:	e24dd008 	sub	sp, sp, #8
  102398:	e50b0008 	str	r0, [fp, #-8]
  10239c:	e51b3008 	ldr	r3, [fp, #-8]
  1023a0:	e3530000 	cmp	r3, #0
  1023a4:	0a000006 	beq	1023c4 <gpio_direction_input+0x38>
  1023a8:	e51b3008 	ldr	r3, [fp, #-8]
  1023ac:	e5933004 	ldr	r3, [r3, #4]
  1023b0:	e593300c 	ldr	r3, [r3, #12]
  1023b4:	e51b0008 	ldr	r0, [fp, #-8]
  1023b8:	e12fff33 	blx	r3
  1023bc:	e1a03000 	mov	r3, r0
  1023c0:	ea000000 	b	1023c8 <gpio_direction_input+0x3c>
  1023c4:	e3a03000 	mov	r3, #0
  1023c8:	e1a00003 	mov	r0, r3
  1023cc:	e24bd004 	sub	sp, fp, #4
  1023d0:	e8bd8800 	pop	{fp, pc}

001023d4 <gpio_direction_output>:
  1023d4:	e92d4800 	push	{fp, lr}
  1023d8:	e28db004 	add	fp, sp, #4
  1023dc:	e24dd008 	sub	sp, sp, #8
  1023e0:	e50b0008 	str	r0, [fp, #-8]
  1023e4:	e1a03001 	mov	r3, r1
  1023e8:	e54b3009 	strb	r3, [fp, #-9]
  1023ec:	e51b3008 	ldr	r3, [fp, #-8]
  1023f0:	e3530000 	cmp	r3, #0
  1023f4:	0a000008 	beq	10241c <gpio_direction_output+0x48>
  1023f8:	e51b3008 	ldr	r3, [fp, #-8]
  1023fc:	e5933004 	ldr	r3, [r3, #4]
  102400:	e5933010 	ldr	r3, [r3, #16]
  102404:	e55b2009 	ldrb	r2, [fp, #-9]
  102408:	e1a01002 	mov	r1, r2
  10240c:	e51b0008 	ldr	r0, [fp, #-8]
  102410:	e12fff33 	blx	r3
  102414:	e1a03000 	mov	r3, r0
  102418:	ea000000 	b	102420 <gpio_direction_output+0x4c>
  10241c:	e3a03000 	mov	r3, #0
  102420:	e1a00003 	mov	r0, r3
  102424:	e24bd004 	sub	sp, fp, #4
  102428:	e8bd8800 	pop	{fp, pc}

0010242c <gpio_get_direction>:
  10242c:	e92d4800 	push	{fp, lr}
  102430:	e28db004 	add	fp, sp, #4
  102434:	e24dd008 	sub	sp, sp, #8
  102438:	e50b0008 	str	r0, [fp, #-8]
  10243c:	e50b100c 	str	r1, [fp, #-12]
  102440:	e51b3008 	ldr	r3, [fp, #-8]
  102444:	e3530000 	cmp	r3, #0
  102448:	0a000007 	beq	10246c <gpio_get_direction+0x40>
  10244c:	e51b3008 	ldr	r3, [fp, #-8]
  102450:	e5933004 	ldr	r3, [r3, #4]
  102454:	e5933014 	ldr	r3, [r3, #20]
  102458:	e51b100c 	ldr	r1, [fp, #-12]
  10245c:	e51b0008 	ldr	r0, [fp, #-8]
  102460:	e12fff33 	blx	r3
  102464:	e1a03000 	mov	r3, r0
  102468:	ea000000 	b	102470 <gpio_get_direction+0x44>
  10246c:	e3a03000 	mov	r3, #0
  102470:	e1a00003 	mov	r0, r3
  102474:	e24bd004 	sub	sp, fp, #4
  102478:	e8bd8800 	pop	{fp, pc}

0010247c <gpio_set_value>:
  10247c:	e92d4800 	push	{fp, lr}
  102480:	e28db004 	add	fp, sp, #4
  102484:	e24dd008 	sub	sp, sp, #8
  102488:	e50b0008 	str	r0, [fp, #-8]
  10248c:	e1a03001 	mov	r3, r1
  102490:	e54b3009 	strb	r3, [fp, #-9]
  102494:	e51b3008 	ldr	r3, [fp, #-8]
  102498:	e3530000 	cmp	r3, #0
  10249c:	0a000008 	beq	1024c4 <gpio_set_value+0x48>
  1024a0:	e51b3008 	ldr	r3, [fp, #-8]
  1024a4:	e5933004 	ldr	r3, [r3, #4]
  1024a8:	e5933018 	ldr	r3, [r3, #24]
  1024ac:	e55b2009 	ldrb	r2, [fp, #-9]
  1024b0:	e1a01002 	mov	r1, r2
  1024b4:	e51b0008 	ldr	r0, [fp, #-8]
  1024b8:	e12fff33 	blx	r3
  1024bc:	e1a03000 	mov	r3, r0
  1024c0:	ea000000 	b	1024c8 <gpio_set_value+0x4c>
  1024c4:	e3a03000 	mov	r3, #0
  1024c8:	e1a00003 	mov	r0, r3
  1024cc:	e24bd004 	sub	sp, fp, #4
  1024d0:	e8bd8800 	pop	{fp, pc}

001024d4 <gpio_get_value>:
  1024d4:	e92d4800 	push	{fp, lr}
  1024d8:	e28db004 	add	fp, sp, #4
  1024dc:	e24dd008 	sub	sp, sp, #8
  1024e0:	e50b0008 	str	r0, [fp, #-8]
  1024e4:	e50b100c 	str	r1, [fp, #-12]
  1024e8:	e51b3008 	ldr	r3, [fp, #-8]
  1024ec:	e3530000 	cmp	r3, #0
  1024f0:	0a000007 	beq	102514 <gpio_get_value+0x40>
  1024f4:	e51b3008 	ldr	r3, [fp, #-8]
  1024f8:	e5933004 	ldr	r3, [r3, #4]
  1024fc:	e593301c 	ldr	r3, [r3, #28]
  102500:	e51b100c 	ldr	r1, [fp, #-12]
  102504:	e51b0008 	ldr	r0, [fp, #-8]
  102508:	e12fff33 	blx	r3
  10250c:	e1a03000 	mov	r3, r0
  102510:	ea000000 	b	102518 <gpio_get_value+0x44>
  102514:	e3a03000 	mov	r3, #0
  102518:	e1a00003 	mov	r0, r3
  10251c:	e24bd004 	sub	sp, fp, #4
  102520:	e8bd8800 	pop	{fp, pc}

00102524 <altera_gpio_get>:
  102524:	e92d4800 	push	{fp, lr}
  102528:	e28db004 	add	fp, sp, #4
  10252c:	e24dd018 	sub	sp, sp, #24
  102530:	e50b0018 	str	r0, [fp, #-24]	; 0xffffffe8
  102534:	e50b101c 	str	r1, [fp, #-28]	; 0xffffffe4
  102538:	e3a0100c 	mov	r1, #12
  10253c:	e3a00001 	mov	r0, #1
  102540:	eb0044de 	bl	1138c0 <calloc>
  102544:	e1a03000 	mov	r3, r0
  102548:	e50b3008 	str	r3, [fp, #-8]
  10254c:	e51b3008 	ldr	r3, [fp, #-8]
  102550:	e3530000 	cmp	r3, #0
  102554:	1a000001 	bne	102560 <altera_gpio_get+0x3c>
  102558:	e3e03000 	mvn	r3, #0
  10255c:	ea000028 	b	102604 <altera_gpio_get+0xe0>
  102560:	e3a0100c 	mov	r1, #12
  102564:	e3a00001 	mov	r0, #1
  102568:	eb0044d4 	bl	1138c0 <calloc>
  10256c:	e1a03000 	mov	r3, r0
  102570:	e1a02003 	mov	r2, r3
  102574:	e51b3008 	ldr	r3, [fp, #-8]
  102578:	e5832008 	str	r2, [r3, #8]
  10257c:	e51b3008 	ldr	r3, [fp, #-8]
  102580:	e5933008 	ldr	r3, [r3, #8]
  102584:	e3530000 	cmp	r3, #0
  102588:	1a000003 	bne	10259c <altera_gpio_get+0x78>
  10258c:	e51b0008 	ldr	r0, [fp, #-8]
  102590:	eb004500 	bl	113998 <free>
  102594:	e3e03000 	mvn	r3, #0
  102598:	ea000019 	b	102604 <altera_gpio_get+0xe0>
  10259c:	e51b3008 	ldr	r3, [fp, #-8]
  1025a0:	e5933008 	ldr	r3, [r3, #8]
  1025a4:	e50b300c 	str	r3, [fp, #-12]
  1025a8:	e51b301c 	ldr	r3, [fp, #-28]	; 0xffffffe4
  1025ac:	e5933008 	ldr	r3, [r3, #8]
  1025b0:	e50b3010 	str	r3, [fp, #-16]
  1025b4:	e51b301c 	ldr	r3, [fp, #-28]	; 0xffffffe4
  1025b8:	e5932000 	ldr	r2, [r3]
  1025bc:	e51b3008 	ldr	r3, [fp, #-8]
  1025c0:	e5832000 	str	r2, [r3]
  1025c4:	e51b3010 	ldr	r3, [fp, #-16]
  1025c8:	e5d32000 	ldrb	r2, [r3]
  1025cc:	e51b300c 	ldr	r3, [fp, #-12]
  1025d0:	e5c32000 	strb	r2, [r3]
  1025d4:	e51b3010 	ldr	r3, [fp, #-16]
  1025d8:	e5932004 	ldr	r2, [r3, #4]
  1025dc:	e51b300c 	ldr	r3, [fp, #-12]
  1025e0:	e5832004 	str	r2, [r3, #4]
  1025e4:	e51b3010 	ldr	r3, [fp, #-16]
  1025e8:	e5932008 	ldr	r2, [r3, #8]
  1025ec:	e51b300c 	ldr	r3, [fp, #-12]
  1025f0:	e5832008 	str	r2, [r3, #8]
  1025f4:	e51b3018 	ldr	r3, [fp, #-24]	; 0xffffffe8
  1025f8:	e51b2008 	ldr	r2, [fp, #-8]
  1025fc:	e5832000 	str	r2, [r3]
  102600:	e3a03000 	mov	r3, #0
  102604:	e1a00003 	mov	r0, r3
  102608:	e24bd004 	sub	sp, fp, #4
  10260c:	e8bd8800 	pop	{fp, pc}

00102610 <altera_gpio_get_optional>:
  102610:	e92d4800 	push	{fp, lr}
  102614:	e28db004 	add	fp, sp, #4
  102618:	e24dd008 	sub	sp, sp, #8
  10261c:	e50b0008 	str	r0, [fp, #-8]
  102620:	e50b100c 	str	r1, [fp, #-12]
  102624:	e51b300c 	ldr	r3, [fp, #-12]
  102628:	e3530000 	cmp	r3, #0
  10262c:	1a000004 	bne	102644 <altera_gpio_get_optional+0x34>
  102630:	e51b3008 	ldr	r3, [fp, #-8]
  102634:	e3a02000 	mov	r2, #0
  102638:	e5832000 	str	r2, [r3]
  10263c:	e3a03000 	mov	r3, #0
  102640:	ea000003 	b	102654 <altera_gpio_get_optional+0x44>
  102644:	e51b100c 	ldr	r1, [fp, #-12]
  102648:	e51b0008 	ldr	r0, [fp, #-8]
  10264c:	ebfffef9 	bl	102238 <gpio_get>
  102650:	e1a03000 	mov	r3, r0
  102654:	e1a00003 	mov	r0, r3
  102658:	e24bd004 	sub	sp, fp, #4
  10265c:	e8bd8800 	pop	{fp, pc}

00102660 <altera_gpio_remove>:
  102660:	e92d4800 	push	{fp, lr}
  102664:	e28db004 	add	fp, sp, #4
  102668:	e24dd008 	sub	sp, sp, #8
  10266c:	e50b0008 	str	r0, [fp, #-8]
  102670:	e51b3008 	ldr	r3, [fp, #-8]
  102674:	e3530000 	cmp	r3, #0
  102678:	0a000005 	beq	102694 <altera_gpio_remove+0x34>
  10267c:	e51b3008 	ldr	r3, [fp, #-8]
  102680:	e5933008 	ldr	r3, [r3, #8]
  102684:	e1a00003 	mov	r0, r3
  102688:	eb0044c2 	bl	113998 <free>
  10268c:	e51b0008 	ldr	r0, [fp, #-8]
  102690:	eb0044c0 	bl	113998 <free>
  102694:	e3a03000 	mov	r3, #0
  102698:	e1a00003 	mov	r0, r3
  10269c:	e24bd004 	sub	sp, fp, #4
  1026a0:	e8bd8800 	pop	{fp, pc}

001026a4 <altera_gpio_direction_input>:
  1026a4:	e52db004 	push	{fp}		; (str fp, [sp, #-4]!)
  1026a8:	e28db000 	add	fp, sp, #0
  1026ac:	e24dd00c 	sub	sp, sp, #12
  1026b0:	e50b0008 	str	r0, [fp, #-8]
  1026b4:	e3a03000 	mov	r3, #0
  1026b8:	e1a00003 	mov	r0, r3
  1026bc:	e24bd000 	sub	sp, fp, #0
  1026c0:	e49db004 	pop	{fp}		; (ldr fp, [sp], #4)
  1026c4:	e12fff1e 	bx	lr

001026c8 <altera_gpio_direction_output>:
  1026c8:	e92d4800 	push	{fp, lr}
  1026cc:	e28db004 	add	fp, sp, #4
  1026d0:	e24dd008 	sub	sp, sp, #8
  1026d4:	e50b0008 	str	r0, [fp, #-8]
  1026d8:	e1a03001 	mov	r3, r1
  1026dc:	e54b3009 	strb	r3, [fp, #-9]
  1026e0:	e55b3009 	ldrb	r3, [fp, #-9]
  1026e4:	e1a01003 	mov	r1, r3
  1026e8:	e51b0008 	ldr	r0, [fp, #-8]
  1026ec:	ebffff62 	bl	10247c <gpio_set_value>
  1026f0:	e1a03000 	mov	r3, r0
  1026f4:	e1a00003 	mov	r0, r3
  1026f8:	e24bd004 	sub	sp, fp, #4
  1026fc:	e8bd8800 	pop	{fp, pc}

00102700 <altera_gpio_get_direction>:
  102700:	e52db004 	push	{fp}		; (str fp, [sp, #-4]!)
  102704:	e28db000 	add	fp, sp, #0
  102708:	e24dd00c 	sub	sp, sp, #12
  10270c:	e50b0008 	str	r0, [fp, #-8]
  102710:	e50b100c 	str	r1, [fp, #-12]
  102714:	e3a03000 	mov	r3, #0
  102718:	e1a00003 	mov	r0, r3
  10271c:	e24bd000 	sub	sp, fp, #0
  102720:	e49db004 	pop	{fp}		; (ldr fp, [sp], #4)
  102724:	e12fff1e 	bx	lr

00102728 <altera_gpio_set_value>:
  102728:	e92d4800 	push	{fp, lr}
  10272c:	e28db004 	add	fp, sp, #4
  102730:	e24dd018 	sub	sp, sp, #24
  102734:	e50b0018 	str	r0, [fp, #-24]	; 0xffffffe8
  102738:	e1a03001 	mov	r3, r1
  10273c:	e54b3019 	strb	r3, [fp, #-25]	; 0xffffffe7
  102740:	e51b3018 	ldr	r3, [fp, #-24]	; 0xffffffe8
  102744:	e3530000 	cmp	r3, #0
  102748:	1a000001 	bne	102754 <altera_gpio_set_value+0x2c>
  10274c:	e3e03000 	mvn	r3, #0
  102750:	ea00002d 	b	10280c <altera_gpio_set_value+0xe4>
  102754:	e3a03000 	mov	r3, #0
  102758:	e50b3014 	str	r3, [fp, #-20]	; 0xffffffec
  10275c:	e51b3018 	ldr	r3, [fp, #-24]	; 0xffffffe8
  102760:	e5933008 	ldr	r3, [r3, #8]
  102764:	e50b3008 	str	r3, [fp, #-8]
  102768:	e51b3018 	ldr	r3, [fp, #-24]	; 0xffffffe8
  10276c:	e5933000 	ldr	r3, [r3]
  102770:	e353001f 	cmp	r3, #31
  102774:	ca000001 	bgt	102780 <altera_gpio_set_value+0x58>
  102778:	e3e03000 	mvn	r3, #0
  10277c:	ea000022 	b	10280c <altera_gpio_set_value+0xe4>
  102780:	e51b3008 	ldr	r3, [fp, #-8]
  102784:	e5d33000 	ldrb	r3, [r3]
  102788:	e3530000 	cmp	r3, #0
  10278c:	1a00001d 	bne	102808 <altera_gpio_set_value+0xe0>
  102790:	e51b3018 	ldr	r3, [fp, #-24]	; 0xffffffe8
  102794:	e5933000 	ldr	r3, [r3]
  102798:	e2433020 	sub	r3, r3, #32
  10279c:	e50b300c 	str	r3, [fp, #-12]
  1027a0:	e3a02001 	mov	r2, #1
  1027a4:	e51b300c 	ldr	r3, [fp, #-12]
  1027a8:	e1a03312 	lsl	r3, r2, r3
  1027ac:	e50b3010 	str	r3, [fp, #-16]
  1027b0:	e51b3008 	ldr	r3, [fp, #-8]
  1027b4:	e5933008 	ldr	r3, [r3, #8]
  1027b8:	e24b2014 	sub	r2, fp, #20
  1027bc:	e3a01000 	mov	r1, #0
  1027c0:	e1a00003 	mov	r0, r3
  1027c4:	ebfffe79 	bl	1021b0 <axi_io_read>
  1027c8:	e51b3008 	ldr	r3, [fp, #-8]
  1027cc:	e5930008 	ldr	r0, [r3, #8]
  1027d0:	e51b3010 	ldr	r3, [fp, #-16]
  1027d4:	e1e02003 	mvn	r2, r3
  1027d8:	e51b3014 	ldr	r3, [fp, #-20]	; 0xffffffec
  1027dc:	e0033002 	and	r3, r3, r2
  1027e0:	e55b1019 	ldrb	r1, [fp, #-25]	; 0xffffffe7
  1027e4:	e51b200c 	ldr	r2, [fp, #-12]
  1027e8:	e1a02211 	lsl	r2, r1, r2
  1027ec:	e1833002 	orr	r3, r3, r2
  1027f0:	e1a02003 	mov	r2, r3
  1027f4:	e3a01000 	mov	r1, #0
  1027f8:	ebfffe7d 	bl	1021f4 <axi_io_write>
  1027fc:	e320f000 	nop	{0}
  102800:	e3a03000 	mov	r3, #0
  102804:	ea000000 	b	10280c <altera_gpio_set_value+0xe4>
  102808:	e3e03000 	mvn	r3, #0
  10280c:	e1a00003 	mov	r0, r3
  102810:	e24bd004 	sub	sp, fp, #4
  102814:	e8bd8800 	pop	{fp, pc}

00102818 <altera_gpio_get_value>:
  102818:	e92d4800 	push	{fp, lr}
  10281c:	e28db004 	add	fp, sp, #4
  102820:	e24dd018 	sub	sp, sp, #24
  102824:	e50b0018 	str	r0, [fp, #-24]	; 0xffffffe8
  102828:	e50b101c 	str	r1, [fp, #-28]	; 0xffffffe4
  10282c:	e51b3018 	ldr	r3, [fp, #-24]	; 0xffffffe8
  102830:	e3530000 	cmp	r3, #0
  102834:	1a000001 	bne	102840 <altera_gpio_get_value+0x28>
  102838:	e3e03000 	mvn	r3, #0
  10283c:	ea000022 	b	1028cc <altera_gpio_get_value+0xb4>
  102840:	e51b3018 	ldr	r3, [fp, #-24]	; 0xffffffe8
  102844:	e5933008 	ldr	r3, [r3, #8]
  102848:	e50b3008 	str	r3, [fp, #-8]
  10284c:	e51b3018 	ldr	r3, [fp, #-24]	; 0xffffffe8
  102850:	e5933000 	ldr	r3, [r3]
  102854:	e353001f 	cmp	r3, #31
  102858:	ca000001 	bgt	102864 <altera_gpio_get_value+0x4c>
  10285c:	e3e03000 	mvn	r3, #0
  102860:	ea000019 	b	1028cc <altera_gpio_get_value+0xb4>
  102864:	e51b3008 	ldr	r3, [fp, #-8]
  102868:	e5d33000 	ldrb	r3, [r3]
  10286c:	e3530000 	cmp	r3, #0
  102870:	1a000014 	bne	1028c8 <altera_gpio_get_value+0xb0>
  102874:	e51b3018 	ldr	r3, [fp, #-24]	; 0xffffffe8
  102878:	e5933000 	ldr	r3, [r3]
  10287c:	e2433020 	sub	r3, r3, #32
  102880:	e50b300c 	str	r3, [fp, #-12]
  102884:	e51b3008 	ldr	r3, [fp, #-8]
  102888:	e5933008 	ldr	r3, [r3, #8]
  10288c:	e24b2010 	sub	r2, fp, #16
  102890:	e3a01000 	mov	r1, #0
  102894:	e1a00003 	mov	r0, r3
  102898:	ebfffe44 	bl	1021b0 <axi_io_read>
  10289c:	e51b2010 	ldr	r2, [fp, #-16]
  1028a0:	e51b300c 	ldr	r3, [fp, #-12]
  1028a4:	e1a03332 	lsr	r3, r2, r3
  1028a8:	e6ef3073 	uxtb	r3, r3
  1028ac:	e2033001 	and	r3, r3, #1
  1028b0:	e6ef2073 	uxtb	r2, r3
  1028b4:	e51b301c 	ldr	r3, [fp, #-28]	; 0xffffffe4
  1028b8:	e5c32000 	strb	r2, [r3]
  1028bc:	e320f000 	nop	{0}
  1028c0:	e3a03000 	mov	r3, #0
  1028c4:	ea000000 	b	1028cc <altera_gpio_get_value+0xb4>
  1028c8:	e3e03000 	mvn	r3, #0
  1028cc:	e1a00003 	mov	r0, r3
  1028d0:	e24bd004 	sub	sp, fp, #4
  1028d4:	e8bd8800 	pop	{fp, pc}

001028d8 <altera_spi_init>:
  1028d8:	e92d4800 	push	{fp, lr}
  1028dc:	e28db004 	add	fp, sp, #4
  1028e0:	e24dd018 	sub	sp, sp, #24
  1028e4:	e50b0018 	str	r0, [fp, #-24]	; 0xffffffe8
  1028e8:	e50b101c 	str	r1, [fp, #-28]	; 0xffffffe4
  1028ec:	e3a00014 	mov	r0, #20
  1028f0:	eb004422 	bl	113980 <malloc>
  1028f4:	e1a03000 	mov	r3, r0
  1028f8:	e50b3008 	str	r3, [fp, #-8]
  1028fc:	e51b3008 	ldr	r3, [fp, #-8]
  102900:	e3530000 	cmp	r3, #0
  102904:	1a000001 	bne	102910 <altera_spi_init+0x38>
  102908:	e3e03000 	mvn	r3, #0
  10290c:	ea00002c 	b	1029c4 <altera_spi_init+0xec>
  102910:	e3a01008 	mov	r1, #8
  102914:	e3a00001 	mov	r0, #1
  102918:	eb0043e8 	bl	1138c0 <calloc>
  10291c:	e1a03000 	mov	r3, r0
  102920:	e1a02003 	mov	r2, r3
  102924:	e51b3008 	ldr	r3, [fp, #-8]
  102928:	e5832010 	str	r2, [r3, #16]
  10292c:	e51b3008 	ldr	r3, [fp, #-8]
  102930:	e5933010 	ldr	r3, [r3, #16]
  102934:	e3530000 	cmp	r3, #0
  102938:	1a000003 	bne	10294c <altera_spi_init+0x74>
  10293c:	e51b0008 	ldr	r0, [fp, #-8]
  102940:	eb004414 	bl	113998 <free>
  102944:	e3e03000 	mvn	r3, #0
  102948:	ea00001d 	b	1029c4 <altera_spi_init+0xec>
  10294c:	e51b3008 	ldr	r3, [fp, #-8]
  102950:	e5933010 	ldr	r3, [r3, #16]
  102954:	e50b300c 	str	r3, [fp, #-12]
  102958:	e51b301c 	ldr	r3, [fp, #-28]	; 0xffffffe4
  10295c:	e5933010 	ldr	r3, [r3, #16]
  102960:	e50b3010 	str	r3, [fp, #-16]
  102964:	e51b301c 	ldr	r3, [fp, #-28]	; 0xffffffe4
  102968:	e5d32008 	ldrb	r2, [r3, #8]
  10296c:	e51b3008 	ldr	r3, [fp, #-8]
  102970:	e5c32008 	strb	r2, [r3, #8]
  102974:	e51b301c 	ldr	r3, [fp, #-28]	; 0xffffffe4
  102978:	e5d32009 	ldrb	r2, [r3, #9]
  10297c:	e51b3008 	ldr	r3, [fp, #-8]
  102980:	e5c32009 	strb	r2, [r3, #9]
  102984:	e51b301c 	ldr	r3, [fp, #-28]	; 0xffffffe4
  102988:	e5932000 	ldr	r2, [r3]
  10298c:	e51b3008 	ldr	r3, [fp, #-8]
  102990:	e5832000 	str	r2, [r3]
  102994:	e51b3010 	ldr	r3, [fp, #-16]
  102998:	e5d32000 	ldrb	r2, [r3]
  10299c:	e51b300c 	ldr	r3, [fp, #-12]
  1029a0:	e5c32000 	strb	r2, [r3]
  1029a4:	e51b3010 	ldr	r3, [fp, #-16]
  1029a8:	e5932004 	ldr	r2, [r3, #4]
  1029ac:	e51b300c 	ldr	r3, [fp, #-12]
  1029b0:	e5832004 	str	r2, [r3, #4]
  1029b4:	e51b3018 	ldr	r3, [fp, #-24]	; 0xffffffe8
  1029b8:	e51b2008 	ldr	r2, [fp, #-8]
  1029bc:	e5832000 	str	r2, [r3]
  1029c0:	e3a03000 	mov	r3, #0
  1029c4:	e1a00003 	mov	r0, r3
  1029c8:	e24bd004 	sub	sp, fp, #4
  1029cc:	e8bd8800 	pop	{fp, pc}

001029d0 <altera_spi_remove>:
  1029d0:	e52db004 	push	{fp}		; (str fp, [sp, #-4]!)
  1029d4:	e28db000 	add	fp, sp, #0
  1029d8:	e24dd00c 	sub	sp, sp, #12
  1029dc:	e50b0008 	str	r0, [fp, #-8]
  1029e0:	e3a03000 	mov	r3, #0
  1029e4:	e1a00003 	mov	r0, r3
  1029e8:	e24bd000 	sub	sp, fp, #0
  1029ec:	e49db004 	pop	{fp}		; (ldr fp, [sp], #4)
  1029f0:	e12fff1e 	bx	lr

001029f4 <altera_spi_write_and_read>:
  1029f4:	e92d4800 	push	{fp, lr}
  1029f8:	e28db004 	add	fp, sp, #4
  1029fc:	e24dd020 	sub	sp, sp, #32
  102a00:	e50b0018 	str	r0, [fp, #-24]	; 0xffffffe8
  102a04:	e50b101c 	str	r1, [fp, #-28]	; 0xffffffe4
  102a08:	e1a03002 	mov	r3, r2
  102a0c:	e14b31be 	strh	r3, [fp, #-30]	; 0xffffffe2
  102a10:	e51b3018 	ldr	r3, [fp, #-24]	; 0xffffffe8
  102a14:	e5933010 	ldr	r3, [r3, #16]
  102a18:	e50b300c 	str	r3, [fp, #-12]
  102a1c:	e51b300c 	ldr	r3, [fp, #-12]
  102a20:	e5d33000 	ldrb	r3, [r3]
  102a24:	e3530000 	cmp	r3, #0
  102a28:	1a00004f 	bne	102b6c <altera_spi_write_and_read+0x178>
  102a2c:	e51b300c 	ldr	r3, [fp, #-12]
  102a30:	e5933004 	ldr	r3, [r3, #4]
  102a34:	e3a02b01 	mov	r2, #1024	; 0x400
  102a38:	e3a0100c 	mov	r1, #12
  102a3c:	e1a00003 	mov	r0, r3
  102a40:	ebfffdeb 	bl	1021f4 <axi_io_write>
  102a44:	e51b300c 	ldr	r3, [fp, #-12]
  102a48:	e5930004 	ldr	r0, [r3, #4]
  102a4c:	e51b3018 	ldr	r3, [fp, #-24]	; 0xffffffe8
  102a50:	e5d33008 	ldrb	r3, [r3, #8]
  102a54:	e1a02003 	mov	r2, r3
  102a58:	e3a03001 	mov	r3, #1
  102a5c:	e1a03213 	lsl	r3, r3, r2
  102a60:	e1a02003 	mov	r2, r3
  102a64:	e3a01014 	mov	r1, #20
  102a68:	ebfffde1 	bl	1021f4 <axi_io_write>
  102a6c:	e3a03000 	mov	r3, #0
  102a70:	e50b3008 	str	r3, [fp, #-8]
  102a74:	ea000029 	b	102b20 <altera_spi_write_and_read+0x12c>
  102a78:	e51b300c 	ldr	r3, [fp, #-12]
  102a7c:	e5933004 	ldr	r3, [r3, #4]
  102a80:	e24b2010 	sub	r2, fp, #16
  102a84:	e3a01008 	mov	r1, #8
  102a88:	e1a00003 	mov	r0, r3
  102a8c:	ebfffdc7 	bl	1021b0 <axi_io_read>
  102a90:	e51b3010 	ldr	r3, [fp, #-16]
  102a94:	e2033040 	and	r3, r3, #64	; 0x40
  102a98:	e3530000 	cmp	r3, #0
  102a9c:	0afffff5 	beq	102a78 <altera_spi_write_and_read+0x84>
  102aa0:	e51b300c 	ldr	r3, [fp, #-12]
  102aa4:	e5930004 	ldr	r0, [r3, #4]
  102aa8:	e51b3008 	ldr	r3, [fp, #-8]
  102aac:	e1a03083 	lsl	r3, r3, #1
  102ab0:	e51b201c 	ldr	r2, [fp, #-28]	; 0xffffffe4
  102ab4:	e0823003 	add	r3, r2, r3
  102ab8:	e1d330b0 	ldrh	r3, [r3]
  102abc:	e1a02003 	mov	r2, r3
  102ac0:	e3a01004 	mov	r1, #4
  102ac4:	ebfffdca 	bl	1021f4 <axi_io_write>
  102ac8:	e51b300c 	ldr	r3, [fp, #-12]
  102acc:	e5933004 	ldr	r3, [r3, #4]
  102ad0:	e24b2010 	sub	r2, fp, #16
  102ad4:	e3a01008 	mov	r1, #8
  102ad8:	e1a00003 	mov	r0, r3
  102adc:	ebfffdb3 	bl	1021b0 <axi_io_read>
  102ae0:	e51b3010 	ldr	r3, [fp, #-16]
  102ae4:	e2033080 	and	r3, r3, #128	; 0x80
  102ae8:	e3530000 	cmp	r3, #0
  102aec:	0afffff5 	beq	102ac8 <altera_spi_write_and_read+0xd4>
  102af0:	e51b300c 	ldr	r3, [fp, #-12]
  102af4:	e5930004 	ldr	r0, [r3, #4]
  102af8:	e51b3008 	ldr	r3, [fp, #-8]
  102afc:	e1a03103 	lsl	r3, r3, #2
  102b00:	e51b201c 	ldr	r2, [fp, #-28]	; 0xffffffe4
  102b04:	e0823003 	add	r3, r2, r3
  102b08:	e1a02003 	mov	r2, r3
  102b0c:	e3a01000 	mov	r1, #0
  102b10:	ebfffda6 	bl	1021b0 <axi_io_read>
  102b14:	e51b3008 	ldr	r3, [fp, #-8]
  102b18:	e2833001 	add	r3, r3, #1
  102b1c:	e50b3008 	str	r3, [fp, #-8]
  102b20:	e15b21be 	ldrh	r2, [fp, #-30]	; 0xffffffe2
  102b24:	e51b3008 	ldr	r3, [fp, #-8]
  102b28:	e1520003 	cmp	r2, r3
  102b2c:	8affffd1 	bhi	102a78 <altera_spi_write_and_read+0x84>
  102b30:	e51b300c 	ldr	r3, [fp, #-12]
  102b34:	e5933004 	ldr	r3, [r3, #4]
  102b38:	e3a02000 	mov	r2, #0
  102b3c:	e3a01014 	mov	r1, #20
  102b40:	e1a00003 	mov	r0, r3
  102b44:	ebfffdaa 	bl	1021f4 <axi_io_write>
  102b48:	e51b300c 	ldr	r3, [fp, #-12]
  102b4c:	e5933004 	ldr	r3, [r3, #4]
  102b50:	e3a02000 	mov	r2, #0
  102b54:	e3a0100c 	mov	r1, #12
  102b58:	e1a00003 	mov	r0, r3
  102b5c:	ebfffda4 	bl	1021f4 <axi_io_write>
  102b60:	e320f000 	nop	{0}
  102b64:	e3a03000 	mov	r3, #0
  102b68:	ea000000 	b	102b70 <altera_spi_write_and_read+0x17c>
  102b6c:	e3e03000 	mvn	r3, #0
  102b70:	e1a00003 	mov	r0, r3
  102b74:	e24bd004 	sub	sp, fp, #4
  102b78:	e8bd8800 	pop	{fp, pc}

00102b7c <_close>:
  102b7c:	e52db004 	push	{fp}		; (str fp, [sp, #-4]!)
  102b80:	e28db000 	add	fp, sp, #0
  102b84:	e24dd00c 	sub	sp, sp, #12
  102b88:	e50b0008 	str	r0, [fp, #-8]
  102b8c:	e51b3008 	ldr	r3, [fp, #-8]
  102b90:	e3530001 	cmp	r3, #1
  102b94:	1a000001 	bne	102ba0 <_close+0x24>
  102b98:	e3a03000 	mov	r3, #0
  102b9c:	ea000000 	b	102ba4 <_close+0x28>
  102ba0:	e3e03000 	mvn	r3, #0
  102ba4:	e1a00003 	mov	r0, r3
  102ba8:	e24bd000 	sub	sp, fp, #0
  102bac:	e49db004 	pop	{fp}		; (ldr fp, [sp], #4)
  102bb0:	e12fff1e 	bx	lr

00102bb4 <_fstat>:
  102bb4:	e52db004 	push	{fp}		; (str fp, [sp, #-4]!)
  102bb8:	e28db000 	add	fp, sp, #0
  102bbc:	e24dd00c 	sub	sp, sp, #12
  102bc0:	e50b0008 	str	r0, [fp, #-8]
  102bc4:	e50b100c 	str	r1, [fp, #-12]
  102bc8:	e51b3008 	ldr	r3, [fp, #-8]
  102bcc:	e3530001 	cmp	r3, #1
  102bd0:	1a000001 	bne	102bdc <_fstat+0x28>
  102bd4:	e3a03000 	mov	r3, #0
  102bd8:	ea000000 	b	102be0 <_fstat+0x2c>
  102bdc:	e3e03000 	mvn	r3, #0
  102be0:	e1a00003 	mov	r0, r3
  102be4:	e24bd000 	sub	sp, fp, #0
  102be8:	e49db004 	pop	{fp}		; (ldr fp, [sp], #4)
  102bec:	e12fff1e 	bx	lr

00102bf0 <_isatty>:
  102bf0:	e52db004 	push	{fp}		; (str fp, [sp, #-4]!)
  102bf4:	e28db000 	add	fp, sp, #0
  102bf8:	e24dd00c 	sub	sp, sp, #12
  102bfc:	e50b0008 	str	r0, [fp, #-8]
  102c00:	e51b3008 	ldr	r3, [fp, #-8]
  102c04:	e3530001 	cmp	r3, #1
  102c08:	1a000001 	bne	102c14 <_isatty+0x24>
  102c0c:	e3a03001 	mov	r3, #1
  102c10:	ea000000 	b	102c18 <_isatty+0x28>
  102c14:	e3e03000 	mvn	r3, #0
  102c18:	e1a00003 	mov	r0, r3
  102c1c:	e24bd000 	sub	sp, fp, #0
  102c20:	e49db004 	pop	{fp}		; (ldr fp, [sp], #4)
  102c24:	e12fff1e 	bx	lr

00102c28 <_lseek>:
  102c28:	e52db004 	push	{fp}		; (str fp, [sp, #-4]!)
  102c2c:	e28db000 	add	fp, sp, #0
  102c30:	e24dd014 	sub	sp, sp, #20
  102c34:	e50b0008 	str	r0, [fp, #-8]
  102c38:	e50b100c 	str	r1, [fp, #-12]
  102c3c:	e50b2010 	str	r2, [fp, #-16]
  102c40:	e51b3008 	ldr	r3, [fp, #-8]
  102c44:	e3530001 	cmp	r3, #1
  102c48:	1a000001 	bne	102c54 <_lseek+0x2c>
  102c4c:	e3a03000 	mov	r3, #0
  102c50:	ea000000 	b	102c58 <_lseek+0x30>
  102c54:	e3e03000 	mvn	r3, #0
  102c58:	e1a00003 	mov	r0, r3
  102c5c:	e24bd000 	sub	sp, fp, #0
  102c60:	e49db004 	pop	{fp}		; (ldr fp, [sp], #4)
  102c64:	e12fff1e 	bx	lr

00102c68 <_read>:
  102c68:	e52db004 	push	{fp}		; (str fp, [sp, #-4]!)
  102c6c:	e28db000 	add	fp, sp, #0
  102c70:	e24dd014 	sub	sp, sp, #20
  102c74:	e50b0008 	str	r0, [fp, #-8]
  102c78:	e50b100c 	str	r1, [fp, #-12]
  102c7c:	e50b2010 	str	r2, [fp, #-16]
  102c80:	e3e03000 	mvn	r3, #0
  102c84:	e1a00003 	mov	r0, r3
  102c88:	e24bd000 	sub	sp, fp, #0
  102c8c:	e49db004 	pop	{fp}		; (ldr fp, [sp], #4)
  102c90:	e12fff1e 	bx	lr

00102c94 <_write>:
  102c94:	e52db004 	push	{fp}		; (str fp, [sp, #-4]!)
  102c98:	e28db000 	add	fp, sp, #0
  102c9c:	e24dd01c 	sub	sp, sp, #28
  102ca0:	e50b0010 	str	r0, [fp, #-16]
  102ca4:	e50b1014 	str	r1, [fp, #-20]	; 0xffffffec
  102ca8:	e50b2018 	str	r2, [fp, #-24]	; 0xffffffe8
  102cac:	e50b301c 	str	r3, [fp, #-28]	; 0xffffffe4
  102cb0:	e51b3010 	ldr	r3, [fp, #-16]
  102cb4:	e3530001 	cmp	r3, #1
  102cb8:	0a000001 	beq	102cc4 <_write+0x30>
  102cbc:	e3e03000 	mvn	r3, #0
  102cc0:	ea000019 	b	102d2c <_write+0x98>
  102cc4:	e3a03000 	mov	r3, #0
  102cc8:	e50b3008 	str	r3, [fp, #-8]
  102ccc:	ea000011 	b	102d18 <_write+0x84>
  102cd0:	e320f000 	nop	{0}
  102cd4:	e3023014 	movw	r3, #8212	; 0x2014
  102cd8:	e34f3fc0 	movt	r3, #65472	; 0xffc0
  102cdc:	e5933000 	ldr	r3, [r3]
  102ce0:	e1a032a3 	lsr	r3, r3, #5
  102ce4:	e2033001 	and	r3, r3, #1
  102ce8:	e3530001 	cmp	r3, #1
  102cec:	1afffff8 	bne	102cd4 <_write+0x40>
  102cf0:	e3a03a02 	mov	r3, #8192	; 0x2000
  102cf4:	e34f3fc0 	movt	r3, #65472	; 0xffc0
  102cf8:	e51b2008 	ldr	r2, [fp, #-8]
  102cfc:	e51b1014 	ldr	r1, [fp, #-20]	; 0xffffffec
  102d00:	e0812002 	add	r2, r1, r2
  102d04:	e5d22000 	ldrb	r2, [r2]
  102d08:	e5832000 	str	r2, [r3]
  102d0c:	e51b3008 	ldr	r3, [fp, #-8]
  102d10:	e2833001 	add	r3, r3, #1
  102d14:	e50b3008 	str	r3, [fp, #-8]
  102d18:	e51b2008 	ldr	r2, [fp, #-8]
  102d1c:	e51b3018 	ldr	r3, [fp, #-24]	; 0xffffffe8
  102d20:	e1520003 	cmp	r2, r3
  102d24:	3affffe9 	bcc	102cd0 <_write+0x3c>
  102d28:	e51b3018 	ldr	r3, [fp, #-24]	; 0xffffffe8
  102d2c:	e1a00003 	mov	r0, r3
  102d30:	e24bd000 	sub	sp, fp, #0
  102d34:	e49db004 	pop	{fp}		; (ldr fp, [sp], #4)
  102d38:	e12fff1e 	bx	lr

00102d3c <axi_adc_read>:
  102d3c:	e92d4800 	push	{fp, lr}
  102d40:	e28db004 	add	fp, sp, #4
  102d44:	e24dd010 	sub	sp, sp, #16
  102d48:	e50b0008 	str	r0, [fp, #-8]
  102d4c:	e50b100c 	str	r1, [fp, #-12]
  102d50:	e50b2010 	str	r2, [fp, #-16]
  102d54:	e51b3008 	ldr	r3, [fp, #-8]
  102d58:	e5933004 	ldr	r3, [r3, #4]
  102d5c:	e51b2010 	ldr	r2, [fp, #-16]
  102d60:	e51b100c 	ldr	r1, [fp, #-12]
  102d64:	e1a00003 	mov	r0, r3
  102d68:	ebfffd10 	bl	1021b0 <axi_io_read>
  102d6c:	e3a03000 	mov	r3, #0
  102d70:	e1a00003 	mov	r0, r3
  102d74:	e24bd004 	sub	sp, fp, #4
  102d78:	e8bd8800 	pop	{fp, pc}

00102d7c <axi_adc_write>:
  102d7c:	e92d4800 	push	{fp, lr}
  102d80:	e28db004 	add	fp, sp, #4
  102d84:	e24dd010 	sub	sp, sp, #16
  102d88:	e50b0008 	str	r0, [fp, #-8]
  102d8c:	e50b100c 	str	r1, [fp, #-12]
  102d90:	e50b2010 	str	r2, [fp, #-16]
  102d94:	e51b3008 	ldr	r3, [fp, #-8]
  102d98:	e5933004 	ldr	r3, [r3, #4]
  102d9c:	e51b2010 	ldr	r2, [fp, #-16]
  102da0:	e51b100c 	ldr	r1, [fp, #-12]
  102da4:	e1a00003 	mov	r0, r3
  102da8:	ebfffd11 	bl	1021f4 <axi_io_write>
  102dac:	e3a03000 	mov	r3, #0
  102db0:	e1a00003 	mov	r0, r3
  102db4:	e24bd004 	sub	sp, fp, #4
  102db8:	e8bd8800 	pop	{fp, pc}

00102dbc <axi_adc_set_pnsel>:
  102dbc:	e92d4800 	push	{fp, lr}
  102dc0:	e28db004 	add	fp, sp, #4
  102dc4:	e24dd018 	sub	sp, sp, #24
  102dc8:	e50b0010 	str	r0, [fp, #-16]
  102dcc:	e50b1014 	str	r1, [fp, #-20]	; 0xffffffec
  102dd0:	e1a03002 	mov	r3, r2
  102dd4:	e54b3015 	strb	r3, [fp, #-21]	; 0xffffffeb
  102dd8:	e51b3014 	ldr	r3, [fp, #-20]	; 0xffffffec
  102ddc:	e1a03303 	lsl	r3, r3, #6
  102de0:	e2833e41 	add	r3, r3, #1040	; 0x410
  102de4:	e2833008 	add	r3, r3, #8
  102de8:	e24b2008 	sub	r2, fp, #8
  102dec:	e1a01003 	mov	r1, r3
  102df0:	e51b0010 	ldr	r0, [fp, #-16]
  102df4:	ebffffd0 	bl	102d3c <axi_adc_read>
  102df8:	e51b3008 	ldr	r3, [fp, #-8]
  102dfc:	e3c3380f 	bic	r3, r3, #983040	; 0xf0000
  102e00:	e50b3008 	str	r3, [fp, #-8]
  102e04:	e55b3015 	ldrb	r3, [fp, #-21]	; 0xffffffeb
  102e08:	e1a03803 	lsl	r3, r3, #16
  102e0c:	e203280f 	and	r2, r3, #983040	; 0xf0000
  102e10:	e51b3008 	ldr	r3, [fp, #-8]
  102e14:	e1823003 	orr	r3, r2, r3
  102e18:	e50b3008 	str	r3, [fp, #-8]
  102e1c:	e51b3014 	ldr	r3, [fp, #-20]	; 0xffffffec
  102e20:	e1a03303 	lsl	r3, r3, #6
  102e24:	e2833e41 	add	r3, r3, #1040	; 0x410
  102e28:	e2833008 	add	r3, r3, #8
  102e2c:	e51b2008 	ldr	r2, [fp, #-8]
  102e30:	e1a01003 	mov	r1, r3
  102e34:	e51b0010 	ldr	r0, [fp, #-16]
  102e38:	ebffffcf 	bl	102d7c <axi_adc_write>
  102e3c:	e3a03000 	mov	r3, #0
  102e40:	e1a00003 	mov	r0, r3
  102e44:	e24bd004 	sub	sp, fp, #4
  102e48:	e8bd8800 	pop	{fp, pc}

00102e4c <axi_adc_pn_mon>:
  102e4c:	e92d4800 	push	{fp, lr}
  102e50:	e28db004 	add	fp, sp, #4
  102e54:	e24dd018 	sub	sp, sp, #24
  102e58:	e50b0010 	str	r0, [fp, #-16]
  102e5c:	e1a03001 	mov	r3, r1
  102e60:	e50b2018 	str	r2, [fp, #-24]	; 0xffffffe8
  102e64:	e54b3011 	strb	r3, [fp, #-17]	; 0xffffffef
  102e68:	e3a03000 	mov	r3, #0
  102e6c:	e54b3005 	strb	r3, [fp, #-5]
  102e70:	ea00001a 	b	102ee0 <axi_adc_pn_mon+0x94>
  102e74:	e55b3005 	ldrb	r3, [fp, #-5]
  102e78:	e2833010 	add	r3, r3, #16
  102e7c:	e1a03303 	lsl	r3, r3, #6
  102e80:	e1a01003 	mov	r1, r3
  102e84:	e24b300c 	sub	r3, fp, #12
  102e88:	e1a02003 	mov	r2, r3
  102e8c:	e51b0010 	ldr	r0, [fp, #-16]
  102e90:	ebffffa9 	bl	102d3c <axi_adc_read>
  102e94:	e51b300c 	ldr	r3, [fp, #-12]
  102e98:	e3833001 	orr	r3, r3, #1
  102e9c:	e50b300c 	str	r3, [fp, #-12]
  102ea0:	e55b3005 	ldrb	r3, [fp, #-5]
  102ea4:	e2833010 	add	r3, r3, #16
  102ea8:	e1a03303 	lsl	r3, r3, #6
  102eac:	e1a01003 	mov	r1, r3
  102eb0:	e51b300c 	ldr	r3, [fp, #-12]
  102eb4:	e1a02003 	mov	r2, r3
  102eb8:	e51b0010 	ldr	r0, [fp, #-16]
  102ebc:	ebffffae 	bl	102d7c <axi_adc_write>
  102ec0:	e55b3005 	ldrb	r3, [fp, #-5]
  102ec4:	e55b2011 	ldrb	r2, [fp, #-17]	; 0xffffffef
  102ec8:	e1a01003 	mov	r1, r3
  102ecc:	e51b0010 	ldr	r0, [fp, #-16]
  102ed0:	ebffffb9 	bl	102dbc <axi_adc_set_pnsel>
  102ed4:	e55b3005 	ldrb	r3, [fp, #-5]
  102ed8:	e2833001 	add	r3, r3, #1
  102edc:	e54b3005 	strb	r3, [fp, #-5]
  102ee0:	e51b3010 	ldr	r3, [fp, #-16]
  102ee4:	e5d33008 	ldrb	r3, [r3, #8]
  102ee8:	e55b2005 	ldrb	r2, [fp, #-5]
  102eec:	e1520003 	cmp	r2, r3
  102ef0:	3affffdf 	bcc	102e74 <axi_adc_pn_mon+0x28>
  102ef4:	e3a03000 	mov	r3, #0
  102ef8:	e54b3005 	strb	r3, [fp, #-5]
  102efc:	ea00000a 	b	102f2c <axi_adc_pn_mon+0xe0>
  102f00:	e55b3005 	ldrb	r3, [fp, #-5]
  102f04:	e1a03303 	lsl	r3, r3, #6
  102f08:	e2833b01 	add	r3, r3, #1024	; 0x400
  102f0c:	e2833004 	add	r3, r3, #4
  102f10:	e3a020ff 	mov	r2, #255	; 0xff
  102f14:	e1a01003 	mov	r1, r3
  102f18:	e51b0010 	ldr	r0, [fp, #-16]
  102f1c:	ebffff96 	bl	102d7c <axi_adc_write>
  102f20:	e55b3005 	ldrb	r3, [fp, #-5]
  102f24:	e2833001 	add	r3, r3, #1
  102f28:	e54b3005 	strb	r3, [fp, #-5]
  102f2c:	e51b3010 	ldr	r3, [fp, #-16]
  102f30:	e5d33008 	ldrb	r3, [r3, #8]
  102f34:	e55b2005 	ldrb	r2, [fp, #-5]
  102f38:	e1520003 	cmp	r2, r3
  102f3c:	3affffef 	bcc	102f00 <axi_adc_pn_mon+0xb4>
  102f40:	e3a03000 	mov	r3, #0
  102f44:	e54b3005 	strb	r3, [fp, #-5]
  102f48:	ea000010 	b	102f90 <axi_adc_pn_mon+0x144>
  102f4c:	e55b3005 	ldrb	r3, [fp, #-5]
  102f50:	e1a03303 	lsl	r3, r3, #6
  102f54:	e2833b01 	add	r3, r3, #1024	; 0x400
  102f58:	e2833004 	add	r3, r3, #4
  102f5c:	e1a01003 	mov	r1, r3
  102f60:	e24b300c 	sub	r3, fp, #12
  102f64:	e1a02003 	mov	r2, r3
  102f68:	e51b0010 	ldr	r0, [fp, #-16]
  102f6c:	ebffff72 	bl	102d3c <axi_adc_read>
  102f70:	e51b300c 	ldr	r3, [fp, #-12]
  102f74:	e3530000 	cmp	r3, #0
  102f78:	0a000001 	beq	102f84 <axi_adc_pn_mon+0x138>
  102f7c:	e3e03000 	mvn	r3, #0
  102f80:	ea000008 	b	102fa8 <axi_adc_pn_mon+0x15c>
  102f84:	e55b3005 	ldrb	r3, [fp, #-5]
  102f88:	e2833001 	add	r3, r3, #1
  102f8c:	e54b3005 	strb	r3, [fp, #-5]
  102f90:	e51b3010 	ldr	r3, [fp, #-16]
  102f94:	e5d33008 	ldrb	r3, [r3, #8]
  102f98:	e55b2005 	ldrb	r2, [fp, #-5]
  102f9c:	e1520003 	cmp	r2, r3
  102fa0:	3affffe9 	bcc	102f4c <axi_adc_pn_mon+0x100>
  102fa4:	e3a03000 	mov	r3, #0
  102fa8:	e1a00003 	mov	r0, r3
  102fac:	e24bd004 	sub	sp, fp, #4
  102fb0:	e8bd8800 	pop	{fp, pc}

00102fb4 <axi_adc_get_sampling_freq>:
  102fb4:	e92d4800 	push	{fp, lr}
  102fb8:	e28db004 	add	fp, sp, #4
  102fbc:	e24dd018 	sub	sp, sp, #24
  102fc0:	e50b0010 	str	r0, [fp, #-16]
  102fc4:	e50b1014 	str	r1, [fp, #-20]	; 0xffffffec
  102fc8:	e50b2018 	str	r2, [fp, #-24]	; 0xffffffe8
  102fcc:	e24b3008 	sub	r3, fp, #8
  102fd0:	e1a02003 	mov	r2, r3
  102fd4:	e3a01054 	mov	r1, #84	; 0x54
  102fd8:	e51b0010 	ldr	r0, [fp, #-16]
  102fdc:	ebffff56 	bl	102d3c <axi_adc_read>
  102fe0:	e24b300c 	sub	r3, fp, #12
  102fe4:	e1a02003 	mov	r2, r3
  102fe8:	e3a01058 	mov	r1, #88	; 0x58
  102fec:	e51b0010 	ldr	r0, [fp, #-16]
  102ff0:	ebffff51 	bl	102d3c <axi_adc_read>
  102ff4:	e51b3008 	ldr	r3, [fp, #-8]
  102ff8:	e51b200c 	ldr	r2, [fp, #-12]
  102ffc:	e0030392 	mul	r3, r2, r3
  103000:	e1a02003 	mov	r2, r3
  103004:	e3a03000 	mov	r3, #0
  103008:	e51b1018 	ldr	r1, [fp, #-24]	; 0xffffffe8
  10300c:	e1c120f0 	strd	r2, [r1]
  103010:	e51b3018 	ldr	r3, [fp, #-24]	; 0xffffffe8
  103014:	e1c320d0 	ldrd	r2, [r3]
  103018:	e30f15e1 	movw	r1, #62945	; 0xf5e1
  10301c:	e3401005 	movt	r1, #5
  103020:	e0000391 	mul	r0, r1, r3
  103024:	e3a01000 	mov	r1, #0
  103028:	e0010291 	mul	r1, r1, r2
  10302c:	e0800001 	add	r0, r0, r1
  103030:	e30f15e1 	movw	r1, #62945	; 0xf5e1
  103034:	e3401005 	movt	r1, #5
  103038:	e0832192 	umull	r2, r3, r2, r1
  10303c:	e0801003 	add	r1, r0, r3
  103040:	e1a03001 	mov	r3, r1
  103044:	e1a02422 	lsr	r2, r2, #8
  103048:	e1822c03 	orr	r2, r2, r3, lsl #24
  10304c:	e1a03423 	lsr	r3, r3, #8
  103050:	e51b1018 	ldr	r1, [fp, #-24]	; 0xffffffe8
  103054:	e1c120f0 	strd	r2, [r1]
  103058:	e3a03000 	mov	r3, #0
  10305c:	e1a00003 	mov	r0, r3
  103060:	e24bd004 	sub	sp, fp, #4
  103064:	e8bd8800 	pop	{fp, pc}

00103068 <axi_adc_idelay_set>:
  103068:	e92d4800 	push	{fp, lr}
  10306c:	e28db004 	add	fp, sp, #4
  103070:	e24dd010 	sub	sp, sp, #16
  103074:	e50b0008 	str	r0, [fp, #-8]
  103078:	e50b100c 	str	r1, [fp, #-12]
  10307c:	e50b2010 	str	r2, [fp, #-16]
  103080:	e51b300c 	ldr	r3, [fp, #-12]
  103084:	e2833c02 	add	r3, r3, #512	; 0x200
  103088:	e1a03103 	lsl	r3, r3, #2
  10308c:	e51b2010 	ldr	r2, [fp, #-16]
  103090:	e1a01003 	mov	r1, r3
  103094:	e51b0008 	ldr	r0, [fp, #-8]
  103098:	ebffff37 	bl	102d7c <axi_adc_write>
  10309c:	e320f000 	nop	{0}
  1030a0:	e24bd004 	sub	sp, fp, #4
  1030a4:	e8bd8800 	pop	{fp, pc}

001030a8 <axi_adc_delay_set>:
  1030a8:	e92d4800 	push	{fp, lr}
  1030ac:	e28db004 	add	fp, sp, #4
  1030b0:	e24dd020 	sub	sp, sp, #32
  1030b4:	e50b0018 	str	r0, [fp, #-24]	; 0xffffffe8
  1030b8:	e50b101c 	str	r1, [fp, #-28]	; 0xffffffe4
  1030bc:	e50b2020 	str	r2, [fp, #-32]	; 0xffffffe0
  1030c0:	e24b3010 	sub	r3, fp, #16
  1030c4:	e1a02003 	mov	r2, r3
  1030c8:	e3a01000 	mov	r1, #0
  1030cc:	e51b0018 	ldr	r0, [fp, #-24]	; 0xffffffe8
  1030d0:	ebffff19 	bl	102d3c <axi_adc_read>
  1030d4:	e51b3010 	ldr	r3, [fp, #-16]
  1030d8:	e1a03823 	lsr	r3, r3, #16
  1030dc:	e50b3010 	str	r3, [fp, #-16]
  1030e0:	e51b3010 	ldr	r3, [fp, #-16]
  1030e4:	e3530008 	cmp	r3, #8
  1030e8:	8a000009 	bhi	103114 <axi_adc_delay_set+0x6c>
  1030ec:	e51b3010 	ldr	r3, [fp, #-16]
  1030f0:	e1a01003 	mov	r1, r3
  1030f4:	e30d0388 	movw	r0, #54152	; 0xd388
  1030f8:	e3400011 	movt	r0, #17
  1030fc:	eb0044a5 	bl	114398 <printf>
  103100:	e30d03a4 	movw	r0, #54180	; 0xd3a4
  103104:	e3400011 	movt	r0, #17
  103108:	eb0044a2 	bl	114398 <printf>
  10310c:	e3e03000 	mvn	r3, #0
  103110:	ea00001f 	b	103194 <axi_adc_delay_set+0xec>
  103114:	e3a03000 	mov	r3, #0
  103118:	e50b3008 	str	r3, [fp, #-8]
  10311c:	ea000017 	b	103180 <axi_adc_delay_set+0xd8>
  103120:	e51b2020 	ldr	r2, [fp, #-32]	; 0xffffffe0
  103124:	e51b1008 	ldr	r1, [fp, #-8]
  103128:	e51b0018 	ldr	r0, [fp, #-24]	; 0xffffffe8
  10312c:	ebffffcd 	bl	103068 <axi_adc_idelay_set>
  103130:	e51b3008 	ldr	r3, [fp, #-8]
  103134:	e2833c02 	add	r3, r3, #512	; 0x200
  103138:	e1a03103 	lsl	r3, r3, #2
  10313c:	e24b200c 	sub	r2, fp, #12
  103140:	e1a01003 	mov	r1, r3
  103144:	e51b0018 	ldr	r0, [fp, #-24]	; 0xffffffe8
  103148:	ebfffefb 	bl	102d3c <axi_adc_read>
  10314c:	e51b200c 	ldr	r2, [fp, #-12]
  103150:	e51b3020 	ldr	r3, [fp, #-32]	; 0xffffffe0
  103154:	e1520003 	cmp	r2, r3
  103158:	0a000005 	beq	103174 <axi_adc_delay_set+0xcc>
  10315c:	e51b200c 	ldr	r2, [fp, #-12]
  103160:	e51b3020 	ldr	r3, [fp, #-32]	; 0xffffffe0
  103164:	e51b1008 	ldr	r1, [fp, #-8]
  103168:	e30d03dc 	movw	r0, #54236	; 0xd3dc
  10316c:	e3400011 	movt	r0, #17
  103170:	eb004488 	bl	114398 <printf>
  103174:	e51b3008 	ldr	r3, [fp, #-8]
  103178:	e2833001 	add	r3, r3, #1
  10317c:	e50b3008 	str	r3, [fp, #-8]
  103180:	e51b2008 	ldr	r2, [fp, #-8]
  103184:	e51b301c 	ldr	r3, [fp, #-28]	; 0xffffffe4
  103188:	e1520003 	cmp	r2, r3
  10318c:	3affffe3 	bcc	103120 <axi_adc_delay_set+0x78>
  103190:	e3a03000 	mov	r3, #0
  103194:	e1a00003 	mov	r0, r3
  103198:	e24bd004 	sub	sp, fp, #4
  10319c:	e8bd8800 	pop	{fp, pc}

001031a0 <axi_adc_delay_calibrate>:
  1031a0:	e92d4800 	push	{fp, lr}
  1031a4:	e28db004 	add	fp, sp, #4
  1031a8:	e24dd060 	sub	sp, sp, #96	; 0x60
  1031ac:	e50b0058 	str	r0, [fp, #-88]	; 0xffffffa8
  1031b0:	e50b105c 	str	r1, [fp, #-92]	; 0xffffffa4
  1031b4:	e1a03002 	mov	r3, r2
  1031b8:	e54b305d 	strb	r3, [fp, #-93]	; 0xffffffa3
  1031bc:	e24b3030 	sub	r3, fp, #48	; 0x30
  1031c0:	e3a02020 	mov	r2, #32
  1031c4:	e3a01000 	mov	r1, #0
  1031c8:	e1a00003 	mov	r0, r3
  1031cc:	eb004417 	bl	114230 <memset>
  1031d0:	e24b303c 	sub	r3, fp, #60	; 0x3c
  1031d4:	e3a02000 	mov	r2, #0
  1031d8:	e5832000 	str	r2, [r3]
  1031dc:	e5832004 	str	r2, [r3, #4]
  1031e0:	e1c320b8 	strh	r2, [r3, #8]
  1031e4:	e24b3048 	sub	r3, fp, #72	; 0x48
  1031e8:	e3a02000 	mov	r2, #0
  1031ec:	e5832000 	str	r2, [r3]
  1031f0:	e5832004 	str	r2, [r3, #4]
  1031f4:	e1c320b8 	strh	r2, [r3, #8]
  1031f8:	e3a03000 	mov	r3, #0
  1031fc:	e14b30b6 	strh	r3, [fp, #-6]
  103200:	e3a03020 	mov	r3, #32
  103204:	e14b30b8 	strh	r3, [fp, #-8]
  103208:	e3a03020 	mov	r3, #32
  10320c:	e14b30ba 	strh	r3, [fp, #-10]
  103210:	e3a03000 	mov	r3, #0
  103214:	e54b300b 	strb	r3, [fp, #-11]
  103218:	e3a03000 	mov	r3, #0
  10321c:	e54b300c 	strb	r3, [fp, #-12]
  103220:	e3a03000 	mov	r3, #0
  103224:	e54b300d 	strb	r3, [fp, #-13]
  103228:	e24b3050 	sub	r3, fp, #80	; 0x50
  10322c:	e3a02000 	mov	r2, #0
  103230:	e5832000 	str	r2, [r3]
  103234:	e5c32004 	strb	r2, [r3, #4]
  103238:	e3a03000 	mov	r3, #0
  10323c:	e54b300e 	strb	r3, [fp, #-14]
  103240:	e3a03000 	mov	r3, #0
  103244:	e54b300f 	strb	r3, [fp, #-15]
  103248:	e3a03020 	mov	r3, #32
  10324c:	e54b3010 	strb	r3, [fp, #-16]
  103250:	e3a03000 	mov	r3, #0
  103254:	e14b30b6 	strh	r3, [fp, #-6]
  103258:	ea000021 	b	1032e4 <axi_adc_delay_calibrate+0x144>
  10325c:	e15b30b6 	ldrh	r3, [fp, #-6]
  103260:	e1a02003 	mov	r2, r3
  103264:	e51b105c 	ldr	r1, [fp, #-92]	; 0xffffffa4
  103268:	e51b0058 	ldr	r0, [fp, #-88]	; 0xffffffa8
  10326c:	ebffff8d 	bl	1030a8 <axi_adc_delay_set>
  103270:	e55b305d 	ldrb	r3, [fp, #-93]	; 0xffffffa3
  103274:	e3a02064 	mov	r2, #100	; 0x64
  103278:	e1a01003 	mov	r1, r3
  10327c:	e51b0058 	ldr	r0, [fp, #-88]	; 0xffffffa8
  103280:	ebfffef1 	bl	102e4c <axi_adc_pn_mon>
  103284:	e1a03000 	mov	r3, r0
  103288:	e3530000 	cmp	r3, #0
  10328c:	1a00000c 	bne	1032c4 <axi_adc_delay_calibrate+0x124>
  103290:	e15b30b6 	ldrh	r3, [fp, #-6]
  103294:	e24b2004 	sub	r2, fp, #4
  103298:	e0823003 	add	r3, r2, r3
  10329c:	e3a02000 	mov	r2, #0
  1032a0:	e543202c 	strb	r2, [r3, #-44]	; 0xffffffd4
  1032a4:	e15b30b8 	ldrh	r3, [fp, #-8]
  1032a8:	e3530020 	cmp	r3, #32
  1032ac:	1a000001 	bne	1032b8 <axi_adc_delay_calibrate+0x118>
  1032b0:	e15b30b6 	ldrh	r3, [fp, #-6]
  1032b4:	ea000000 	b	1032bc <axi_adc_delay_calibrate+0x11c>
  1032b8:	e15b30b8 	ldrh	r3, [fp, #-8]
  1032bc:	e14b30b8 	strh	r3, [fp, #-8]
  1032c0:	ea000004 	b	1032d8 <axi_adc_delay_calibrate+0x138>
  1032c4:	e15b30b6 	ldrh	r3, [fp, #-6]
  1032c8:	e24b2004 	sub	r2, fp, #4
  1032cc:	e0823003 	add	r3, r2, r3
  1032d0:	e3a02001 	mov	r2, #1
  1032d4:	e543202c 	strb	r2, [r3, #-44]	; 0xffffffd4
  1032d8:	e15b30b6 	ldrh	r3, [fp, #-6]
  1032dc:	e2833001 	add	r3, r3, #1
  1032e0:	e14b30b6 	strh	r3, [fp, #-6]
  1032e4:	e15b30b6 	ldrh	r3, [fp, #-6]
  1032e8:	e353001f 	cmp	r3, #31
  1032ec:	9affffda 	bls	10325c <axi_adc_delay_calibrate+0xbc>
  1032f0:	e15b30b8 	ldrh	r3, [fp, #-8]
  1032f4:	e353001f 	cmp	r3, #31
  1032f8:	9a00000a 	bls	103328 <axi_adc_delay_calibrate+0x188>
  1032fc:	e30d1480 	movw	r1, #54400	; 0xd480
  103300:	e3401011 	movt	r1, #17
  103304:	e30d040c 	movw	r0, #54284	; 0xd40c
  103308:	e3400011 	movt	r0, #17
  10330c:	eb004421 	bl	114398 <printf>
  103310:	e3a02000 	mov	r2, #0
  103314:	e51b105c 	ldr	r1, [fp, #-92]	; 0xffffffa4
  103318:	e51b0058 	ldr	r0, [fp, #-88]	; 0xffffffa8
  10331c:	ebffff61 	bl	1030a8 <axi_adc_delay_set>
  103320:	e3e03000 	mvn	r3, #0
  103324:	ea00008e 	b	103564 <axi_adc_delay_calibrate+0x3c4>
  103328:	e3a03020 	mov	r3, #32
  10332c:	e14b30b8 	strh	r3, [fp, #-8]
  103330:	e3a03020 	mov	r3, #32
  103334:	e14b30ba 	strh	r3, [fp, #-10]
  103338:	e3a03000 	mov	r3, #0
  10333c:	e54b300f 	strb	r3, [fp, #-15]
  103340:	ea00004e 	b	103480 <axi_adc_delay_calibrate+0x2e0>
  103344:	e55b300f 	ldrb	r3, [fp, #-15]
  103348:	e24b2004 	sub	r2, fp, #4
  10334c:	e0823003 	add	r3, r2, r3
  103350:	e553302c 	ldrb	r3, [r3, #-44]	; 0xffffffd4
  103354:	e3530000 	cmp	r3, #0
  103358:	1a000017 	bne	1033bc <axi_adc_delay_calibrate+0x21c>
  10335c:	e15b30b8 	ldrh	r3, [fp, #-8]
  103360:	e3530020 	cmp	r3, #32
  103364:	1a000001 	bne	103370 <axi_adc_delay_calibrate+0x1d0>
  103368:	e55b300f 	ldrb	r3, [fp, #-15]
  10336c:	e14b30b8 	strh	r3, [fp, #-8]
  103370:	e15b30b8 	ldrh	r3, [fp, #-8]
  103374:	e3530020 	cmp	r3, #32
  103378:	0a000006 	beq	103398 <axi_adc_delay_calibrate+0x1f8>
  10337c:	e15b30ba 	ldrh	r3, [fp, #-10]
  103380:	e3530020 	cmp	r3, #32
  103384:	0a000003 	beq	103398 <axi_adc_delay_calibrate+0x1f8>
  103388:	e3a03020 	mov	r3, #32
  10338c:	e14b30b8 	strh	r3, [fp, #-8]
  103390:	e3a03020 	mov	r3, #32
  103394:	e14b30ba 	strh	r3, [fp, #-10]
  103398:	e55b300b 	ldrb	r3, [fp, #-11]
  10339c:	e24b2004 	sub	r2, fp, #4
  1033a0:	e0822003 	add	r2, r2, r3
  1033a4:	e552204c 	ldrb	r2, [r2, #-76]	; 0xffffffb4
  1033a8:	e2822001 	add	r2, r2, #1
  1033ac:	e6ef2072 	uxtb	r2, r2
  1033b0:	e24b1004 	sub	r1, fp, #4
  1033b4:	e0813003 	add	r3, r1, r3
  1033b8:	e543204c 	strb	r2, [r3, #-76]	; 0xffffffb4
  1033bc:	e55b300f 	ldrb	r3, [fp, #-15]
  1033c0:	e24b2004 	sub	r2, fp, #4
  1033c4:	e0823003 	add	r3, r2, r3
  1033c8:	e553302c 	ldrb	r3, [r3, #-44]	; 0xffffffd4
  1033cc:	e3530001 	cmp	r3, #1
  1033d0:	0a000004 	beq	1033e8 <axi_adc_delay_calibrate+0x248>
  1033d4:	e55b200f 	ldrb	r2, [fp, #-15]
  1033d8:	e55b3010 	ldrb	r3, [fp, #-16]
  1033dc:	e2433001 	sub	r3, r3, #1
  1033e0:	e1520003 	cmp	r2, r3
  1033e4:	1a000022 	bne	103474 <axi_adc_delay_calibrate+0x2d4>
  1033e8:	e15b30ba 	ldrh	r3, [fp, #-10]
  1033ec:	e3530020 	cmp	r3, #32
  1033f0:	1a000001 	bne	1033fc <axi_adc_delay_calibrate+0x25c>
  1033f4:	e55b300f 	ldrb	r3, [fp, #-15]
  1033f8:	e14b30ba 	strh	r3, [fp, #-10]
  1033fc:	e15b30b8 	ldrh	r3, [fp, #-8]
  103400:	e3530020 	cmp	r3, #32
  103404:	0a000017 	beq	103468 <axi_adc_delay_calibrate+0x2c8>
  103408:	e15b30ba 	ldrh	r3, [fp, #-10]
  10340c:	e3530020 	cmp	r3, #32
  103410:	0a000014 	beq	103468 <axi_adc_delay_calibrate+0x2c8>
  103414:	e55b300b 	ldrb	r3, [fp, #-11]
  103418:	e1a03083 	lsl	r3, r3, #1
  10341c:	e24b2004 	sub	r2, fp, #4
  103420:	e0823003 	add	r3, r2, r3
  103424:	e2433038 	sub	r3, r3, #56	; 0x38
  103428:	e15b20b8 	ldrh	r2, [fp, #-8]
  10342c:	e1c320b0 	strh	r2, [r3]
  103430:	e55b300b 	ldrb	r3, [fp, #-11]
  103434:	e1a03083 	lsl	r3, r3, #1
  103438:	e24b2004 	sub	r2, fp, #4
  10343c:	e0823003 	add	r3, r2, r3
  103440:	e2433044 	sub	r3, r3, #68	; 0x44
  103444:	e15b20ba 	ldrh	r2, [fp, #-10]
  103448:	e1c320b0 	strh	r2, [r3]
  10344c:	e3a03020 	mov	r3, #32
  103450:	e14b30b8 	strh	r3, [fp, #-8]
  103454:	e3a03020 	mov	r3, #32
  103458:	e14b30ba 	strh	r3, [fp, #-10]
  10345c:	e55b300b 	ldrb	r3, [fp, #-11]
  103460:	e2833001 	add	r3, r3, #1
  103464:	e54b300b 	strb	r3, [fp, #-11]
  103468:	e55b300e 	ldrb	r3, [fp, #-14]
  10346c:	e2833001 	add	r3, r3, #1
  103470:	e54b300e 	strb	r3, [fp, #-14]
  103474:	e55b300f 	ldrb	r3, [fp, #-15]
  103478:	e2833001 	add	r3, r3, #1
  10347c:	e54b300f 	strb	r3, [fp, #-15]
  103480:	e55b200f 	ldrb	r2, [fp, #-15]
  103484:	e55b3010 	ldrb	r3, [fp, #-16]
  103488:	e1520003 	cmp	r2, r3
  10348c:	3affffac 	bcc	103344 <axi_adc_delay_calibrate+0x1a4>
  103490:	e3a03000 	mov	r3, #0
  103494:	e54b300f 	strb	r3, [fp, #-15]
  103498:	ea000010 	b	1034e0 <axi_adc_delay_calibrate+0x340>
  10349c:	e55b300f 	ldrb	r3, [fp, #-15]
  1034a0:	e24b2004 	sub	r2, fp, #4
  1034a4:	e0823003 	add	r3, r2, r3
  1034a8:	e553304c 	ldrb	r3, [r3, #-76]	; 0xffffffb4
  1034ac:	e55b200d 	ldrb	r2, [fp, #-13]
  1034b0:	e1520003 	cmp	r2, r3
  1034b4:	2a000006 	bcs	1034d4 <axi_adc_delay_calibrate+0x334>
  1034b8:	e55b300f 	ldrb	r3, [fp, #-15]
  1034bc:	e24b2004 	sub	r2, fp, #4
  1034c0:	e0823003 	add	r3, r2, r3
  1034c4:	e553304c 	ldrb	r3, [r3, #-76]	; 0xffffffb4
  1034c8:	e54b300d 	strb	r3, [fp, #-13]
  1034cc:	e55b300f 	ldrb	r3, [fp, #-15]
  1034d0:	e54b300c 	strb	r3, [fp, #-12]
  1034d4:	e55b300f 	ldrb	r3, [fp, #-15]
  1034d8:	e2833001 	add	r3, r3, #1
  1034dc:	e54b300f 	strb	r3, [fp, #-15]
  1034e0:	e55b300f 	ldrb	r3, [fp, #-15]
  1034e4:	e3530004 	cmp	r3, #4
  1034e8:	9affffeb 	bls	10349c <axi_adc_delay_calibrate+0x2fc>
  1034ec:	e55b300c 	ldrb	r3, [fp, #-12]
  1034f0:	e1a03083 	lsl	r3, r3, #1
  1034f4:	e24b2004 	sub	r2, fp, #4
  1034f8:	e0823003 	add	r3, r2, r3
  1034fc:	e2433038 	sub	r3, r3, #56	; 0x38
  103500:	e1d330b0 	ldrh	r3, [r3]
  103504:	e1a02003 	mov	r2, r3
  103508:	e55b300c 	ldrb	r3, [fp, #-12]
  10350c:	e1a03083 	lsl	r3, r3, #1
  103510:	e24b1004 	sub	r1, fp, #4
  103514:	e0813003 	add	r3, r1, r3
  103518:	e2433044 	sub	r3, r3, #68	; 0x44
  10351c:	e1d330b0 	ldrh	r3, [r3]
  103520:	e0823003 	add	r3, r2, r3
  103524:	e2433001 	sub	r3, r3, #1
  103528:	e1a02fa3 	lsr	r2, r3, #31
  10352c:	e0823003 	add	r3, r2, r3
  103530:	e1a030c3 	asr	r3, r3, #1
  103534:	e14b30b6 	strh	r3, [fp, #-6]
  103538:	e15b30b6 	ldrh	r3, [fp, #-6]
  10353c:	e1a01003 	mov	r1, r3
  103540:	e30d0418 	movw	r0, #54296	; 0xd418
  103544:	e3400011 	movt	r0, #17
  103548:	eb004392 	bl	114398 <printf>
  10354c:	e15b30b6 	ldrh	r3, [fp, #-6]
  103550:	e1a02003 	mov	r2, r3
  103554:	e51b105c 	ldr	r1, [fp, #-92]	; 0xffffffa4
  103558:	e51b0058 	ldr	r0, [fp, #-88]	; 0xffffffa8
  10355c:	ebfffed1 	bl	1030a8 <axi_adc_delay_set>
  103560:	e3a03000 	mov	r3, #0
  103564:	e1a00003 	mov	r0, r3
  103568:	e24bd004 	sub	sp, fp, #4
  10356c:	e8bd8800 	pop	{fp, pc}

00103570 <axi_adc_set_calib_phase_scale>:
  103570:	e92d4800 	push	{fp, lr}
  103574:	e28db004 	add	fp, sp, #4
  103578:	e24dd028 	sub	sp, sp, #40	; 0x28
  10357c:	e50b0020 	str	r0, [fp, #-32]	; 0xffffffe0
  103580:	e50b1024 	str	r1, [fp, #-36]	; 0xffffffdc
  103584:	e50b2028 	str	r2, [fp, #-40]	; 0xffffffd8
  103588:	e50b302c 	str	r3, [fp, #-44]	; 0xffffffd4
  10358c:	e51b302c 	ldr	r3, [fp, #-44]	; 0xffffffd4
  103590:	e3530000 	cmp	r3, #0
  103594:	0a00000a 	beq	1035c4 <axi_adc_set_calib_phase_scale+0x54>
  103598:	e3530001 	cmp	r3, #1
  10359c:	0a000002 	beq	1035ac <axi_adc_set_calib_phase_scale+0x3c>
  1035a0:	e3730001 	cmn	r3, #1
  1035a4:	0a000003 	beq	1035b8 <axi_adc_set_calib_phase_scale+0x48>
  1035a8:	ea000010 	b	1035f0 <axi_adc_set_calib_phase_scale+0x80>
  1035ac:	e3a03901 	mov	r3, #16384	; 0x4000
  1035b0:	e50b3008 	str	r3, [fp, #-8]
  1035b4:	ea000010 	b	1035fc <axi_adc_set_calib_phase_scale+0x8c>
  1035b8:	e3a03903 	mov	r3, #49152	; 0xc000
  1035bc:	e50b3008 	str	r3, [fp, #-8]
  1035c0:	ea00000d 	b	1035fc <axi_adc_set_calib_phase_scale+0x8c>
  1035c4:	e3a03000 	mov	r3, #0
  1035c8:	e50b3008 	str	r3, [fp, #-8]
  1035cc:	e59b3004 	ldr	r3, [fp, #4]
  1035d0:	e3530000 	cmp	r3, #0
  1035d4:	aa000007 	bge	1035f8 <axi_adc_set_calib_phase_scale+0x88>
  1035d8:	e3a03902 	mov	r3, #32768	; 0x8000
  1035dc:	e50b3008 	str	r3, [fp, #-8]
  1035e0:	e59b3004 	ldr	r3, [fp, #4]
  1035e4:	e2633000 	rsb	r3, r3, #0
  1035e8:	e58b3004 	str	r3, [fp, #4]
  1035ec:	ea000001 	b	1035f8 <axi_adc_set_calib_phase_scale+0x88>
  1035f0:	e3e03000 	mvn	r3, #0
  1035f4:	ea000040 	b	1036fc <axi_adc_set_calib_phase_scale+0x18c>
  1035f8:	e320f000 	nop	{0}
  1035fc:	e59b3004 	ldr	r3, [fp, #4]
  103600:	ee803b90 	vdup.32	d16, r3
  103604:	f2e000b0 	vshr.s64	d16, d16, #32
  103608:	f2ce05b0 	vshl.s64	d16, d16, #14
  10360c:	e30a2120 	movw	r2, #41248	; 0xa120
  103610:	e3402007 	movt	r2, #7
  103614:	e3a03000 	mov	r3, #0
  103618:	ec510b30 	vmov	r0, r1, d16
  10361c:	e0900002 	adds	r0, r0, r2
  103620:	e0a11003 	adc	r1, r1, r3
  103624:	e1a02000 	mov	r2, r0
  103628:	e1a03001 	mov	r3, r1
  10362c:	e14b21f4 	strd	r2, [fp, #-20]	; 0xffffffec
  103630:	e24b1014 	sub	r1, fp, #20
  103634:	e3042240 	movw	r2, #16960	; 0x4240
  103638:	e340200f 	movt	r2, #15
  10363c:	e3a03000 	mov	r3, #0
  103640:	e1a00001 	mov	r0, r1
  103644:	eb0002e1 	bl	1041d0 <do_div>
  103648:	e14b21d4 	ldrd	r2, [fp, #-20]	; 0xffffffec
  10364c:	e51b3008 	ldr	r3, [fp, #-8]
  103650:	e1833002 	orr	r3, r3, r2
  103654:	e50b3008 	str	r3, [fp, #-8]
  103658:	e51b3028 	ldr	r3, [fp, #-40]	; 0xffffffd8
  10365c:	e1a03303 	lsl	r3, r3, #6
  103660:	e2833e41 	add	r3, r3, #1040	; 0x410
  103664:	e2833004 	add	r3, r3, #4
  103668:	e24b2018 	sub	r2, fp, #24
  10366c:	e1a01003 	mov	r1, r3
  103670:	e51b0020 	ldr	r0, [fp, #-32]	; 0xffffffe0
  103674:	ebfffdb0 	bl	102d3c <axi_adc_read>
  103678:	e51b2028 	ldr	r2, [fp, #-40]	; 0xffffffd8
  10367c:	e51b3024 	ldr	r3, [fp, #-36]	; 0xffffffdc
  103680:	e0823003 	add	r3, r2, r3
  103684:	e2033001 	and	r3, r3, #1
  103688:	e3530000 	cmp	r3, #0
  10368c:	1a000008 	bne	1036b4 <axi_adc_set_calib_phase_scale+0x144>
  103690:	e51b3018 	ldr	r3, [fp, #-24]	; 0xffffffe8
  103694:	e6ff3073 	uxth	r3, r3
  103698:	e50b3018 	str	r3, [fp, #-24]	; 0xffffffe8
  10369c:	e51b3008 	ldr	r3, [fp, #-8]
  1036a0:	e1a02803 	lsl	r2, r3, #16
  1036a4:	e51b3018 	ldr	r3, [fp, #-24]	; 0xffffffe8
  1036a8:	e1823003 	orr	r3, r2, r3
  1036ac:	e50b3018 	str	r3, [fp, #-24]	; 0xffffffe8
  1036b0:	ea000008 	b	1036d8 <axi_adc_set_calib_phase_scale+0x168>
  1036b4:	e51b3018 	ldr	r3, [fp, #-24]	; 0xffffffe8
  1036b8:	e1a03823 	lsr	r3, r3, #16
  1036bc:	e1a03803 	lsl	r3, r3, #16
  1036c0:	e50b3018 	str	r3, [fp, #-24]	; 0xffffffe8
  1036c4:	e51b3008 	ldr	r3, [fp, #-8]
  1036c8:	e6ff2073 	uxth	r2, r3
  1036cc:	e51b3018 	ldr	r3, [fp, #-24]	; 0xffffffe8
  1036d0:	e1823003 	orr	r3, r2, r3
  1036d4:	e50b3018 	str	r3, [fp, #-24]	; 0xffffffe8
  1036d8:	e51b3028 	ldr	r3, [fp, #-40]	; 0xffffffd8
  1036dc:	e1a03303 	lsl	r3, r3, #6
  1036e0:	e2833e41 	add	r3, r3, #1040	; 0x410
  1036e4:	e2833004 	add	r3, r3, #4
  1036e8:	e51b2018 	ldr	r2, [fp, #-24]	; 0xffffffe8
  1036ec:	e1a01003 	mov	r1, r3
  1036f0:	e51b0020 	ldr	r0, [fp, #-32]	; 0xffffffe0
  1036f4:	ebfffda0 	bl	102d7c <axi_adc_write>
  1036f8:	e3a03000 	mov	r3, #0
  1036fc:	e1a00003 	mov	r0, r3
  103700:	e24bd004 	sub	sp, fp, #4
  103704:	e8bd8800 	pop	{fp, pc}

00103708 <axi_adc_get_calib_phase_scale>:
  103708:	e92d4800 	push	{fp, lr}
  10370c:	e28db004 	add	fp, sp, #4
  103710:	e24dd020 	sub	sp, sp, #32
  103714:	e50b0018 	str	r0, [fp, #-24]	; 0xffffffe8
  103718:	e50b101c 	str	r1, [fp, #-28]	; 0xffffffe4
  10371c:	e50b2020 	str	r2, [fp, #-32]	; 0xffffffe0
  103720:	e50b3024 	str	r3, [fp, #-36]	; 0xffffffdc
  103724:	e51b3020 	ldr	r3, [fp, #-32]	; 0xffffffe0
  103728:	e1a03303 	lsl	r3, r3, #6
  10372c:	e2833e41 	add	r3, r3, #1040	; 0x410
  103730:	e2833004 	add	r3, r3, #4
  103734:	e24b200c 	sub	r2, fp, #12
  103738:	e1a01003 	mov	r1, r3
  10373c:	e51b0018 	ldr	r0, [fp, #-24]	; 0xffffffe8
  103740:	ebfffd7d 	bl	102d3c <axi_adc_read>
  103744:	e51b201c 	ldr	r2, [fp, #-28]	; 0xffffffe4
  103748:	e51b3020 	ldr	r3, [fp, #-32]	; 0xffffffe0
  10374c:	e0823003 	add	r3, r2, r3
  103750:	e2033001 	and	r3, r3, #1
  103754:	e3530000 	cmp	r3, #0
  103758:	1a000003 	bne	10376c <axi_adc_get_calib_phase_scale+0x64>
  10375c:	e51b300c 	ldr	r3, [fp, #-12]
  103760:	e1a03823 	lsr	r3, r3, #16
  103764:	e50b300c 	str	r3, [fp, #-12]
  103768:	ea000002 	b	103778 <axi_adc_get_calib_phase_scale+0x70>
  10376c:	e51b300c 	ldr	r3, [fp, #-12]
  103770:	e6ff3073 	uxth	r3, r3
  103774:	e50b300c 	str	r3, [fp, #-12]
  103778:	e51b300c 	ldr	r3, [fp, #-12]
  10377c:	e2033902 	and	r3, r3, #32768	; 0x8000
  103780:	e3530000 	cmp	r3, #0
  103784:	0a000002 	beq	103794 <axi_adc_get_calib_phase_scale+0x8c>
  103788:	e3e03000 	mvn	r3, #0
  10378c:	e50b3008 	str	r3, [fp, #-8]
  103790:	ea000001 	b	10379c <axi_adc_get_calib_phase_scale+0x94>
  103794:	e3a03001 	mov	r3, #1
  103798:	e50b3008 	str	r3, [fp, #-8]
  10379c:	e51b300c 	ldr	r3, [fp, #-12]
  1037a0:	e2033901 	and	r3, r3, #16384	; 0x4000
  1037a4:	e3530000 	cmp	r3, #0
  1037a8:	0a000003 	beq	1037bc <axi_adc_get_calib_phase_scale+0xb4>
  1037ac:	e51b3024 	ldr	r3, [fp, #-36]	; 0xffffffdc
  1037b0:	e51b2008 	ldr	r2, [fp, #-8]
  1037b4:	e5832000 	str	r2, [r3]
  1037b8:	ea000002 	b	1037c8 <axi_adc_get_calib_phase_scale+0xc0>
  1037bc:	e51b3024 	ldr	r3, [fp, #-36]	; 0xffffffdc
  1037c0:	e3a02000 	mov	r2, #0
  1037c4:	e5832000 	str	r2, [r3]
  1037c8:	e51b300c 	ldr	r3, [fp, #-12]
  1037cc:	e3c33903 	bic	r3, r3, #49152	; 0xc000
  1037d0:	e50b300c 	str	r3, [fp, #-12]
  1037d4:	e51b300c 	ldr	r3, [fp, #-12]
  1037d8:	e1a02003 	mov	r2, r3
  1037dc:	e3a03000 	mov	r3, #0
  1037e0:	ec432b30 	vmov	d16, r2, r3
  1037e4:	f2c505b0 	vshl.s64	d16, d16, #5
  1037e8:	ec432b31 	vmov	d17, r2, r3
  1037ec:	f37008a1 	vsub.i64	d16, d16, d17
  1037f0:	f2c905b0 	vshl.s64	d16, d16, #9
  1037f4:	ec432b31 	vmov	d17, r2, r3
  1037f8:	f27008a1 	vadd.i64	d16, d16, d17
  1037fc:	f2c615b0 	vshl.s64	d17, d16, #6
  103800:	f37118a0 	vsub.i64	d17, d17, d16
  103804:	ec510b31 	vmov	r0, r1, d17
  103808:	e0900002 	adds	r0, r0, r2
  10380c:	e0a11003 	adc	r1, r1, r3
  103810:	e1a02000 	mov	r2, r0
  103814:	e1a03001 	mov	r3, r1
  103818:	e2922a02 	adds	r2, r2, #8192	; 0x2000
  10381c:	e2a33000 	adc	r3, r3, #0
  103820:	e14b21f4 	strd	r2, [fp, #-20]	; 0xffffffec
  103824:	e24b1014 	sub	r1, fp, #20
  103828:	e3a02901 	mov	r2, #16384	; 0x4000
  10382c:	e3a03000 	mov	r3, #0
  103830:	e1a00001 	mov	r0, r1
  103834:	eb000265 	bl	1041d0 <do_div>
  103838:	e51b3024 	ldr	r3, [fp, #-36]	; 0xffffffdc
  10383c:	e5933000 	ldr	r3, [r3]
  103840:	e3530000 	cmp	r3, #0
  103844:	1a00000a 	bne	103874 <axi_adc_get_calib_phase_scale+0x16c>
  103848:	e51b3008 	ldr	r3, [fp, #-8]
  10384c:	e1a02003 	mov	r2, r3
  103850:	e1a03fc2 	asr	r3, r2, #31
  103854:	e1a01002 	mov	r1, r2
  103858:	e14b21d4 	ldrd	r2, [fp, #-20]	; 0xffffffec
  10385c:	e1a03002 	mov	r3, r2
  103860:	e0030193 	mul	r3, r3, r1
  103864:	e1a02003 	mov	r2, r3
  103868:	e59b3004 	ldr	r3, [fp, #4]
  10386c:	e5832000 	str	r2, [r3]
  103870:	ea000002 	b	103880 <axi_adc_get_calib_phase_scale+0x178>
  103874:	e14b21d4 	ldrd	r2, [fp, #-20]	; 0xffffffec
  103878:	e59b3004 	ldr	r3, [fp, #4]
  10387c:	e5832000 	str	r2, [r3]
  103880:	e3a03000 	mov	r3, #0
  103884:	e1a00003 	mov	r0, r3
  103888:	e24bd004 	sub	sp, fp, #4
  10388c:	e8bd8800 	pop	{fp, pc}

00103890 <axi_adc_set_calib_phase>:
  103890:	e92d4800 	push	{fp, lr}
  103894:	e28db004 	add	fp, sp, #4
  103898:	e24dd018 	sub	sp, sp, #24
  10389c:	e50b0008 	str	r0, [fp, #-8]
  1038a0:	e50b100c 	str	r1, [fp, #-12]
  1038a4:	e50b2010 	str	r2, [fp, #-16]
  1038a8:	e50b3014 	str	r3, [fp, #-20]	; 0xffffffec
  1038ac:	e51b3014 	ldr	r3, [fp, #-20]	; 0xffffffec
  1038b0:	e58d3000 	str	r3, [sp]
  1038b4:	e51b3010 	ldr	r3, [fp, #-16]
  1038b8:	e51b200c 	ldr	r2, [fp, #-12]
  1038bc:	e3a01001 	mov	r1, #1
  1038c0:	e51b0008 	ldr	r0, [fp, #-8]
  1038c4:	ebffff29 	bl	103570 <axi_adc_set_calib_phase_scale>
  1038c8:	e1a03000 	mov	r3, r0
  1038cc:	e1a00003 	mov	r0, r3
  1038d0:	e24bd004 	sub	sp, fp, #4
  1038d4:	e8bd8800 	pop	{fp, pc}

001038d8 <axi_adc_get_calib_phase>:
  1038d8:	e92d4800 	push	{fp, lr}
  1038dc:	e28db004 	add	fp, sp, #4
  1038e0:	e24dd018 	sub	sp, sp, #24
  1038e4:	e50b0008 	str	r0, [fp, #-8]
  1038e8:	e50b100c 	str	r1, [fp, #-12]
  1038ec:	e50b2010 	str	r2, [fp, #-16]
  1038f0:	e50b3014 	str	r3, [fp, #-20]	; 0xffffffec
  1038f4:	e51b3014 	ldr	r3, [fp, #-20]	; 0xffffffec
  1038f8:	e58d3000 	str	r3, [sp]
  1038fc:	e51b3010 	ldr	r3, [fp, #-16]
  103900:	e51b200c 	ldr	r2, [fp, #-12]
  103904:	e3a01001 	mov	r1, #1
  103908:	e51b0008 	ldr	r0, [fp, #-8]
  10390c:	ebffff7d 	bl	103708 <axi_adc_get_calib_phase_scale>
  103910:	e1a03000 	mov	r3, r0
  103914:	e1a00003 	mov	r0, r3
  103918:	e24bd004 	sub	sp, fp, #4
  10391c:	e8bd8800 	pop	{fp, pc}

00103920 <axi_adc_set_calib_scale>:
  103920:	e92d4800 	push	{fp, lr}
  103924:	e28db004 	add	fp, sp, #4
  103928:	e24dd018 	sub	sp, sp, #24
  10392c:	e50b0008 	str	r0, [fp, #-8]
  103930:	e50b100c 	str	r1, [fp, #-12]
  103934:	e50b2010 	str	r2, [fp, #-16]
  103938:	e50b3014 	str	r3, [fp, #-20]	; 0xffffffec
  10393c:	e51b3014 	ldr	r3, [fp, #-20]	; 0xffffffec
  103940:	e58d3000 	str	r3, [sp]
  103944:	e51b3010 	ldr	r3, [fp, #-16]
  103948:	e51b200c 	ldr	r2, [fp, #-12]
  10394c:	e3a01000 	mov	r1, #0
  103950:	e51b0008 	ldr	r0, [fp, #-8]
  103954:	ebffff05 	bl	103570 <axi_adc_set_calib_phase_scale>
  103958:	e1a03000 	mov	r3, r0
  10395c:	e1a00003 	mov	r0, r3
  103960:	e24bd004 	sub	sp, fp, #4
  103964:	e8bd8800 	pop	{fp, pc}

00103968 <axi_adc_get_calib_scale>:
  103968:	e92d4800 	push	{fp, lr}
  10396c:	e28db004 	add	fp, sp, #4
  103970:	e24dd018 	sub	sp, sp, #24
  103974:	e50b0008 	str	r0, [fp, #-8]
  103978:	e50b100c 	str	r1, [fp, #-12]
  10397c:	e50b2010 	str	r2, [fp, #-16]
  103980:	e50b3014 	str	r3, [fp, #-20]	; 0xffffffec
  103984:	e51b3014 	ldr	r3, [fp, #-20]	; 0xffffffec
  103988:	e58d3000 	str	r3, [sp]
  10398c:	e51b3010 	ldr	r3, [fp, #-16]
  103990:	e51b200c 	ldr	r2, [fp, #-12]
  103994:	e3a01000 	mov	r1, #0
  103998:	e51b0008 	ldr	r0, [fp, #-8]
  10399c:	ebffff59 	bl	103708 <axi_adc_get_calib_phase_scale>
  1039a0:	e1a03000 	mov	r3, r0
  1039a4:	e1a00003 	mov	r0, r3
  1039a8:	e24bd004 	sub	sp, fp, #4
  1039ac:	e8bd8800 	pop	{fp, pc}

001039b0 <axi_adc_set_calib_bias>:
  1039b0:	e92d4800 	push	{fp, lr}
  1039b4:	e28db004 	add	fp, sp, #4
  1039b8:	e24dd018 	sub	sp, sp, #24
  1039bc:	e50b0010 	str	r0, [fp, #-16]
  1039c0:	e50b1014 	str	r1, [fp, #-20]	; 0xffffffec
  1039c4:	e50b2018 	str	r2, [fp, #-24]	; 0xffffffe8
  1039c8:	e50b301c 	str	r3, [fp, #-28]	; 0xffffffe4
  1039cc:	e51b3014 	ldr	r3, [fp, #-20]	; 0xffffffec
  1039d0:	e1a03303 	lsl	r3, r3, #6
  1039d4:	e2833e41 	add	r3, r3, #1040	; 0x410
  1039d8:	e24b2008 	sub	r2, fp, #8
  1039dc:	e1a01003 	mov	r1, r3
  1039e0:	e51b0010 	ldr	r0, [fp, #-16]
  1039e4:	ebfffcd4 	bl	102d3c <axi_adc_read>
  1039e8:	e51b3008 	ldr	r3, [fp, #-8]
  1039ec:	e6ff3073 	uxth	r3, r3
  1039f0:	e50b3008 	str	r3, [fp, #-8]
  1039f4:	e51b3018 	ldr	r3, [fp, #-24]	; 0xffffffe8
  1039f8:	e6ff3073 	uxth	r3, r3
  1039fc:	e1a03803 	lsl	r3, r3, #16
  103a00:	e1a02003 	mov	r2, r3
  103a04:	e51b3008 	ldr	r3, [fp, #-8]
  103a08:	e1823003 	orr	r3, r2, r3
  103a0c:	e50b3008 	str	r3, [fp, #-8]
  103a10:	e51b3014 	ldr	r3, [fp, #-20]	; 0xffffffec
  103a14:	e1a03303 	lsl	r3, r3, #6
  103a18:	e2833e41 	add	r3, r3, #1040	; 0x410
  103a1c:	e51b2008 	ldr	r2, [fp, #-8]
  103a20:	e1a01003 	mov	r1, r3
  103a24:	e51b0010 	ldr	r0, [fp, #-16]
  103a28:	ebfffcd3 	bl	102d7c <axi_adc_write>
  103a2c:	e3a03000 	mov	r3, #0
  103a30:	e1a00003 	mov	r0, r3
  103a34:	e24bd004 	sub	sp, fp, #4
  103a38:	e8bd8800 	pop	{fp, pc}

00103a3c <axi_adc_get_calib_bias>:
  103a3c:	e92d4800 	push	{fp, lr}
  103a40:	e28db004 	add	fp, sp, #4
  103a44:	e24dd018 	sub	sp, sp, #24
  103a48:	e50b0010 	str	r0, [fp, #-16]
  103a4c:	e50b1014 	str	r1, [fp, #-20]	; 0xffffffec
  103a50:	e50b2018 	str	r2, [fp, #-24]	; 0xffffffe8
  103a54:	e50b301c 	str	r3, [fp, #-28]	; 0xffffffe4
  103a58:	e51b3014 	ldr	r3, [fp, #-20]	; 0xffffffec
  103a5c:	e1a03303 	lsl	r3, r3, #6
  103a60:	e2833e41 	add	r3, r3, #1040	; 0x410
  103a64:	e24b2008 	sub	r2, fp, #8
  103a68:	e1a01003 	mov	r1, r3
  103a6c:	e51b0010 	ldr	r0, [fp, #-16]
  103a70:	ebfffcb1 	bl	102d3c <axi_adc_read>
  103a74:	e51b3008 	ldr	r3, [fp, #-8]
  103a78:	e1a03823 	lsr	r3, r3, #16
  103a7c:	e6ff3073 	uxth	r3, r3
  103a80:	e1a02003 	mov	r2, r3
  103a84:	e51b3018 	ldr	r3, [fp, #-24]	; 0xffffffe8
  103a88:	e5832000 	str	r2, [r3]
  103a8c:	e3a03000 	mov	r3, #0
  103a90:	e1a00003 	mov	r0, r3
  103a94:	e24bd004 	sub	sp, fp, #4
  103a98:	e8bd8800 	pop	{fp, pc}

00103a9c <axi_adc_update_active_channels>:
  103a9c:	e92d4800 	push	{fp, lr}
  103aa0:	e28db004 	add	fp, sp, #4
  103aa4:	e24dd018 	sub	sp, sp, #24
  103aa8:	e50b0018 	str	r0, [fp, #-24]	; 0xffffffe8
  103aac:	e50b101c 	str	r1, [fp, #-28]	; 0xffffffe4
  103ab0:	e51b3018 	ldr	r3, [fp, #-24]	; 0xffffffe8
  103ab4:	e5932018 	ldr	r2, [r3, #24]
  103ab8:	e51b301c 	ldr	r3, [fp, #-28]	; 0xffffffe4
  103abc:	e1520003 	cmp	r2, r3
  103ac0:	1a000001 	bne	103acc <axi_adc_update_active_channels+0x30>
  103ac4:	e3a03000 	mov	r3, #0
  103ac8:	ea00002e 	b	103b88 <axi_adc_update_active_channels+0xec>
  103acc:	e51b3018 	ldr	r3, [fp, #-24]	; 0xffffffe8
  103ad0:	e51b201c 	ldr	r2, [fp, #-28]	; 0xffffffe4
  103ad4:	e5832018 	str	r2, [r3, #24]
  103ad8:	e3a03000 	mov	r3, #0
  103adc:	e50b3008 	str	r3, [fp, #-8]
  103ae0:	ea000021 	b	103b6c <axi_adc_update_active_channels+0xd0>
  103ae4:	e51b3008 	ldr	r3, [fp, #-8]
  103ae8:	e2833010 	add	r3, r3, #16
  103aec:	e1a03303 	lsl	r3, r3, #6
  103af0:	e24b2010 	sub	r2, fp, #16
  103af4:	e1a01003 	mov	r1, r3
  103af8:	e51b0018 	ldr	r0, [fp, #-24]	; 0xffffffe8
  103afc:	ebfffc8e 	bl	102d3c <axi_adc_read>
  103b00:	e51b3010 	ldr	r3, [fp, #-16]
  103b04:	e3c33001 	bic	r3, r3, #1
  103b08:	e50b300c 	str	r3, [fp, #-12]
  103b0c:	e51b301c 	ldr	r3, [fp, #-28]	; 0xffffffe4
  103b10:	e2033001 	and	r3, r3, #1
  103b14:	e3530000 	cmp	r3, #0
  103b18:	0a000002 	beq	103b28 <axi_adc_update_active_channels+0x8c>
  103b1c:	e51b3010 	ldr	r3, [fp, #-16]
  103b20:	e3833001 	orr	r3, r3, #1
  103b24:	e50b300c 	str	r3, [fp, #-12]
  103b28:	e51b3010 	ldr	r3, [fp, #-16]
  103b2c:	e51b200c 	ldr	r2, [fp, #-12]
  103b30:	e1520003 	cmp	r2, r3
  103b34:	0a000006 	beq	103b54 <axi_adc_update_active_channels+0xb8>
  103b38:	e51b3008 	ldr	r3, [fp, #-8]
  103b3c:	e2833010 	add	r3, r3, #16
  103b40:	e1a03303 	lsl	r3, r3, #6
  103b44:	e51b200c 	ldr	r2, [fp, #-12]
  103b48:	e1a01003 	mov	r1, r3
  103b4c:	e51b0018 	ldr	r0, [fp, #-24]	; 0xffffffe8
  103b50:	ebfffc89 	bl	102d7c <axi_adc_write>
  103b54:	e51b301c 	ldr	r3, [fp, #-28]	; 0xffffffe4
  103b58:	e1a030a3 	lsr	r3, r3, #1
  103b5c:	e50b301c 	str	r3, [fp, #-28]	; 0xffffffe4
  103b60:	e51b3008 	ldr	r3, [fp, #-8]
  103b64:	e2833001 	add	r3, r3, #1
  103b68:	e50b3008 	str	r3, [fp, #-8]
  103b6c:	e51b3018 	ldr	r3, [fp, #-24]	; 0xffffffe8
  103b70:	e5d33008 	ldrb	r3, [r3, #8]
  103b74:	e1a02003 	mov	r2, r3
  103b78:	e51b3008 	ldr	r3, [fp, #-8]
  103b7c:	e1520003 	cmp	r2, r3
  103b80:	8affffd7 	bhi	103ae4 <axi_adc_update_active_channels+0x48>
  103b84:	e3a03000 	mov	r3, #0
  103b88:	e1a00003 	mov	r0, r3
  103b8c:	e24bd004 	sub	sp, fp, #4
  103b90:	e8bd8800 	pop	{fp, pc}

00103b94 <axi_adc_init>:
  103b94:	e92d4800 	push	{fp, lr}
  103b98:	e28db004 	add	fp, sp, #4
  103b9c:	e24dd020 	sub	sp, sp, #32
  103ba0:	e50b0020 	str	r0, [fp, #-32]	; 0xffffffe0
  103ba4:	e50b1024 	str	r1, [fp, #-36]	; 0xffffffdc
  103ba8:	e3a00020 	mov	r0, #32
  103bac:	eb003f73 	bl	113980 <malloc>
  103bb0:	e1a03000 	mov	r3, r0
  103bb4:	e50b300c 	str	r3, [fp, #-12]
  103bb8:	e51b300c 	ldr	r3, [fp, #-12]
  103bbc:	e3530000 	cmp	r3, #0
  103bc0:	1a000001 	bne	103bcc <axi_adc_init+0x38>
  103bc4:	e3e03000 	mvn	r3, #0
  103bc8:	ea000063 	b	103d5c <axi_adc_init+0x1c8>
  103bcc:	e51b3024 	ldr	r3, [fp, #-36]	; 0xffffffdc
  103bd0:	e5932000 	ldr	r2, [r3]
  103bd4:	e51b300c 	ldr	r3, [fp, #-12]
  103bd8:	e5832000 	str	r2, [r3]
  103bdc:	e51b3024 	ldr	r3, [fp, #-36]	; 0xffffffdc
  103be0:	e5932004 	ldr	r2, [r3, #4]
  103be4:	e51b300c 	ldr	r3, [fp, #-12]
  103be8:	e5832004 	str	r2, [r3, #4]
  103bec:	e51b3024 	ldr	r3, [fp, #-36]	; 0xffffffdc
  103bf0:	e5d32008 	ldrb	r2, [r3, #8]
  103bf4:	e51b300c 	ldr	r3, [fp, #-12]
  103bf8:	e5c32008 	strb	r2, [r3, #8]
  103bfc:	e3a02000 	mov	r2, #0
  103c00:	e3a01040 	mov	r1, #64	; 0x40
  103c04:	e51b000c 	ldr	r0, [fp, #-12]
  103c08:	ebfffc5b 	bl	102d7c <axi_adc_write>
  103c0c:	e3a02003 	mov	r2, #3
  103c10:	e3a01040 	mov	r1, #64	; 0x40
  103c14:	e51b000c 	ldr	r0, [fp, #-12]
  103c18:	ebfffc57 	bl	102d7c <axi_adc_write>
  103c1c:	e3a03000 	mov	r3, #0
  103c20:	e54b3005 	strb	r3, [fp, #-5]
  103c24:	ea000016 	b	103c84 <axi_adc_init+0xf0>
  103c28:	e51b300c 	ldr	r3, [fp, #-12]
  103c2c:	e5d33008 	ldrb	r3, [r3, #8]
  103c30:	e1a02003 	mov	r2, r3
  103c34:	e55b3005 	ldrb	r3, [fp, #-5]
  103c38:	e1a03352 	asr	r3, r2, r3
  103c3c:	e2033001 	and	r3, r3, #1
  103c40:	e3530000 	cmp	r3, #0
  103c44:	0a00000b 	beq	103c78 <axi_adc_init+0xe4>
  103c48:	e55b3005 	ldrb	r3, [fp, #-5]
  103c4c:	e1a01003 	mov	r1, r3
  103c50:	e30d0444 	movw	r0, #54340	; 0xd444
  103c54:	e3400011 	movt	r0, #17
  103c58:	eb0041ce 	bl	114398 <printf>
  103c5c:	e55b3005 	ldrb	r3, [fp, #-5]
  103c60:	e2833010 	add	r3, r3, #16
  103c64:	e1a03303 	lsl	r3, r3, #6
  103c68:	e3a02051 	mov	r2, #81	; 0x51
  103c6c:	e1a01003 	mov	r1, r3
  103c70:	e51b000c 	ldr	r0, [fp, #-12]
  103c74:	ebfffc40 	bl	102d7c <axi_adc_write>
  103c78:	e55b3005 	ldrb	r3, [fp, #-5]
  103c7c:	e2833001 	add	r3, r3, #1
  103c80:	e54b3005 	strb	r3, [fp, #-5]
  103c84:	e55b3005 	ldrb	r3, [fp, #-5]
  103c88:	e3530007 	cmp	r3, #7
  103c8c:	9affffe5 	bls	103c28 <axi_adc_init+0x94>
  103c90:	e24b3010 	sub	r3, fp, #16
  103c94:	e1a02003 	mov	r2, r3
  103c98:	e3a0105c 	mov	r1, #92	; 0x5c
  103c9c:	e51b000c 	ldr	r0, [fp, #-12]
  103ca0:	ebfffc25 	bl	102d3c <axi_adc_read>
  103ca4:	e24b3014 	sub	r3, fp, #20
  103ca8:	e1a02003 	mov	r2, r3
  103cac:	e3a01054 	mov	r1, #84	; 0x54
  103cb0:	e51b000c 	ldr	r0, [fp, #-12]
  103cb4:	ebfffc20 	bl	102d3c <axi_adc_read>
  103cb8:	e24b3018 	sub	r3, fp, #24
  103cbc:	e1a02003 	mov	r2, r3
  103cc0:	e3a01058 	mov	r1, #88	; 0x58
  103cc4:	e51b000c 	ldr	r0, [fp, #-12]
  103cc8:	ebfffc1b 	bl	102d3c <axi_adc_read>
  103ccc:	e51b3014 	ldr	r3, [fp, #-20]	; 0xffffffec
  103cd0:	e51b2018 	ldr	r2, [fp, #-24]	; 0xffffffe8
  103cd4:	e0030392 	mul	r3, r2, r3
  103cd8:	e1a02003 	mov	r2, r3
  103cdc:	e3a03000 	mov	r3, #0
  103ce0:	e51b100c 	ldr	r1, [fp, #-12]
  103ce4:	e1c121f0 	strd	r2, [r1, #16]
  103ce8:	e51b300c 	ldr	r3, [fp, #-12]
  103cec:	e1c321d0 	ldrd	r2, [r3, #16]
  103cf0:	e30f15e1 	movw	r1, #62945	; 0xf5e1
  103cf4:	e3401005 	movt	r1, #5
  103cf8:	e0000391 	mul	r0, r1, r3
  103cfc:	e3a01000 	mov	r1, #0
  103d00:	e0010291 	mul	r1, r1, r2
  103d04:	e0800001 	add	r0, r0, r1
  103d08:	e30f15e1 	movw	r1, #62945	; 0xf5e1
  103d0c:	e3401005 	movt	r1, #5
  103d10:	e0832192 	umull	r2, r3, r2, r1
  103d14:	e0801003 	add	r1, r0, r3
  103d18:	e1a03001 	mov	r3, r1
  103d1c:	e1a02422 	lsr	r2, r2, #8
  103d20:	e1822c03 	orr	r2, r2, r3, lsl #24
  103d24:	e1a03423 	lsr	r3, r3, #8
  103d28:	e51b100c 	ldr	r1, [fp, #-12]
  103d2c:	e1c121f0 	strd	r2, [r1, #16]
  103d30:	e51b300c 	ldr	r3, [fp, #-12]
  103d34:	e5931000 	ldr	r1, [r3]
  103d38:	e51b300c 	ldr	r3, [fp, #-12]
  103d3c:	e1c321d0 	ldrd	r2, [r3, #16]
  103d40:	e30d0454 	movw	r0, #54356	; 0xd454
  103d44:	e3400011 	movt	r0, #17
  103d48:	eb004192 	bl	114398 <printf>
  103d4c:	e51b3020 	ldr	r3, [fp, #-32]	; 0xffffffe0
  103d50:	e51b200c 	ldr	r2, [fp, #-12]
  103d54:	e5832000 	str	r2, [r3]
  103d58:	e3a03000 	mov	r3, #0
  103d5c:	e1a00003 	mov	r0, r3
  103d60:	e24bd004 	sub	sp, fp, #4
  103d64:	e8bd8800 	pop	{fp, pc}

00103d68 <axi_adc_remove>:
  103d68:	e92d4800 	push	{fp, lr}
  103d6c:	e28db004 	add	fp, sp, #4
  103d70:	e24dd008 	sub	sp, sp, #8
  103d74:	e50b0008 	str	r0, [fp, #-8]
  103d78:	e51b0008 	ldr	r0, [fp, #-8]
  103d7c:	eb003f05 	bl	113998 <free>
  103d80:	e3a03000 	mov	r3, #0
  103d84:	e1a00003 	mov	r0, r3
  103d88:	e24bd004 	sub	sp, fp, #4
  103d8c:	e8bd8800 	pop	{fp, pc}

00103d90 <find_first_set_bit>:
  103d90:	e52db004 	push	{fp}		; (str fp, [sp, #-4]!)
  103d94:	e28db000 	add	fp, sp, #0
  103d98:	e24dd014 	sub	sp, sp, #20
  103d9c:	e50b0010 	str	r0, [fp, #-16]
  103da0:	e3a03000 	mov	r3, #0
  103da4:	e50b3008 	str	r3, [fp, #-8]
  103da8:	ea00000b 	b	103ddc <find_first_set_bit+0x4c>
  103dac:	e51b3010 	ldr	r3, [fp, #-16]
  103db0:	e2033001 	and	r3, r3, #1
  103db4:	e3530000 	cmp	r3, #0
  103db8:	0a000001 	beq	103dc4 <find_first_set_bit+0x34>
  103dbc:	e51b3008 	ldr	r3, [fp, #-8]
  103dc0:	ea000009 	b	103dec <find_first_set_bit+0x5c>
  103dc4:	e51b3010 	ldr	r3, [fp, #-16]
  103dc8:	e1a030a3 	lsr	r3, r3, #1
  103dcc:	e50b3010 	str	r3, [fp, #-16]
  103dd0:	e51b3008 	ldr	r3, [fp, #-8]
  103dd4:	e2833001 	add	r3, r3, #1
  103dd8:	e50b3008 	str	r3, [fp, #-8]
  103ddc:	e51b3010 	ldr	r3, [fp, #-16]
  103de0:	e3530000 	cmp	r3, #0
  103de4:	1afffff0 	bne	103dac <find_first_set_bit+0x1c>
  103de8:	e3a03020 	mov	r3, #32
  103dec:	e1a00003 	mov	r0, r3
  103df0:	e24bd000 	sub	sp, fp, #0
  103df4:	e49db004 	pop	{fp}		; (ldr fp, [sp], #4)
  103df8:	e12fff1e 	bx	lr

00103dfc <find_last_set_bit>:
  103dfc:	e52db004 	push	{fp}		; (str fp, [sp, #-4]!)
  103e00:	e28db000 	add	fp, sp, #0
  103e04:	e24dd014 	sub	sp, sp, #20
  103e08:	e50b0010 	str	r0, [fp, #-16]
  103e0c:	e3a03000 	mov	r3, #0
  103e10:	e50b3008 	str	r3, [fp, #-8]
  103e14:	e3a03020 	mov	r3, #32
  103e18:	e50b300c 	str	r3, [fp, #-12]
  103e1c:	ea00000b 	b	103e50 <find_last_set_bit+0x54>
  103e20:	e51b3010 	ldr	r3, [fp, #-16]
  103e24:	e2033001 	and	r3, r3, #1
  103e28:	e3530000 	cmp	r3, #0
  103e2c:	0a000001 	beq	103e38 <find_last_set_bit+0x3c>
  103e30:	e51b3008 	ldr	r3, [fp, #-8]
  103e34:	e50b300c 	str	r3, [fp, #-12]
  103e38:	e51b3010 	ldr	r3, [fp, #-16]
  103e3c:	e1a030a3 	lsr	r3, r3, #1
  103e40:	e50b3010 	str	r3, [fp, #-16]
  103e44:	e51b3008 	ldr	r3, [fp, #-8]
  103e48:	e2833001 	add	r3, r3, #1
  103e4c:	e50b3008 	str	r3, [fp, #-8]
  103e50:	e51b3010 	ldr	r3, [fp, #-16]
  103e54:	e3530000 	cmp	r3, #0
  103e58:	1afffff0 	bne	103e20 <find_last_set_bit+0x24>
  103e5c:	e51b300c 	ldr	r3, [fp, #-12]
  103e60:	e1a00003 	mov	r0, r3
  103e64:	e24bd000 	sub	sp, fp, #0
  103e68:	e49db004 	pop	{fp}		; (ldr fp, [sp], #4)
  103e6c:	e12fff1e 	bx	lr

00103e70 <find_closest>:
  103e70:	e52db004 	push	{fp}		; (str fp, [sp, #-4]!)
  103e74:	e28db000 	add	fp, sp, #0
  103e78:	e24dd024 	sub	sp, sp, #36	; 0x24
  103e7c:	e50b0018 	str	r0, [fp, #-24]	; 0xffffffe8
  103e80:	e50b101c 	str	r1, [fp, #-28]	; 0xffffffe4
  103e84:	e50b2020 	str	r2, [fp, #-32]	; 0xffffffe0
  103e88:	e51b301c 	ldr	r3, [fp, #-28]	; 0xffffffe4
  103e8c:	e5932000 	ldr	r2, [r3]
  103e90:	e51b3018 	ldr	r3, [fp, #-24]	; 0xffffffe8
  103e94:	e0423003 	sub	r3, r2, r3
  103e98:	e3530000 	cmp	r3, #0
  103e9c:	b2633000 	rsblt	r3, r3, #0
  103ea0:	e50b3008 	str	r3, [fp, #-8]
  103ea4:	e3a03000 	mov	r3, #0
  103ea8:	e50b300c 	str	r3, [fp, #-12]
  103eac:	e3a03001 	mov	r3, #1
  103eb0:	e50b3010 	str	r3, [fp, #-16]
  103eb4:	ea00001a 	b	103f24 <find_closest+0xb4>
  103eb8:	e51b3010 	ldr	r3, [fp, #-16]
  103ebc:	e1a03103 	lsl	r3, r3, #2
  103ec0:	e51b201c 	ldr	r2, [fp, #-28]	; 0xffffffe4
  103ec4:	e0823003 	add	r3, r2, r3
  103ec8:	e5932000 	ldr	r2, [r3]
  103ecc:	e51b3018 	ldr	r3, [fp, #-24]	; 0xffffffe8
  103ed0:	e0423003 	sub	r3, r2, r3
  103ed4:	e0232fc3 	eor	r2, r3, r3, asr #31
  103ed8:	e0422fc3 	sub	r2, r2, r3, asr #31
  103edc:	e51b3008 	ldr	r3, [fp, #-8]
  103ee0:	e1520003 	cmp	r2, r3
  103ee4:	aa00000b 	bge	103f18 <find_closest+0xa8>
  103ee8:	e51b3010 	ldr	r3, [fp, #-16]
  103eec:	e1a03103 	lsl	r3, r3, #2
  103ef0:	e51b201c 	ldr	r2, [fp, #-28]	; 0xffffffe4
  103ef4:	e0823003 	add	r3, r2, r3
  103ef8:	e5932000 	ldr	r2, [r3]
  103efc:	e51b3018 	ldr	r3, [fp, #-24]	; 0xffffffe8
  103f00:	e0423003 	sub	r3, r2, r3
  103f04:	e3530000 	cmp	r3, #0
  103f08:	b2633000 	rsblt	r3, r3, #0
  103f0c:	e50b3008 	str	r3, [fp, #-8]
  103f10:	e51b3010 	ldr	r3, [fp, #-16]
  103f14:	e50b300c 	str	r3, [fp, #-12]
  103f18:	e51b3010 	ldr	r3, [fp, #-16]
  103f1c:	e2833001 	add	r3, r3, #1
  103f20:	e50b3010 	str	r3, [fp, #-16]
  103f24:	e51b2010 	ldr	r2, [fp, #-16]
  103f28:	e51b3020 	ldr	r3, [fp, #-32]	; 0xffffffe0
  103f2c:	e1520003 	cmp	r2, r3
  103f30:	3affffe0 	bcc	103eb8 <find_closest+0x48>
  103f34:	e51b300c 	ldr	r3, [fp, #-12]
  103f38:	e1a00003 	mov	r0, r3
  103f3c:	e24bd000 	sub	sp, fp, #0
  103f40:	e49db004 	pop	{fp}		; (ldr fp, [sp], #4)
  103f44:	e12fff1e 	bx	lr

00103f48 <field_prep>:
  103f48:	e92d4800 	push	{fp, lr}
  103f4c:	e28db004 	add	fp, sp, #4
  103f50:	e24dd008 	sub	sp, sp, #8
  103f54:	e50b0008 	str	r0, [fp, #-8]
  103f58:	e50b100c 	str	r1, [fp, #-12]
  103f5c:	e51b0008 	ldr	r0, [fp, #-8]
  103f60:	ebffff8a 	bl	103d90 <find_first_set_bit>
  103f64:	e1a02000 	mov	r2, r0
  103f68:	e51b300c 	ldr	r3, [fp, #-12]
  103f6c:	e1a02213 	lsl	r2, r3, r2
  103f70:	e51b3008 	ldr	r3, [fp, #-8]
  103f74:	e0033002 	and	r3, r3, r2
  103f78:	e1a00003 	mov	r0, r3
  103f7c:	e24bd004 	sub	sp, fp, #4
  103f80:	e8bd8800 	pop	{fp, pc}

00103f84 <field_get>:
  103f84:	e92d4810 	push	{r4, fp, lr}
  103f88:	e28db008 	add	fp, sp, #8
  103f8c:	e24dd00c 	sub	sp, sp, #12
  103f90:	e50b0010 	str	r0, [fp, #-16]
  103f94:	e50b1014 	str	r1, [fp, #-20]	; 0xffffffec
  103f98:	e51b2014 	ldr	r2, [fp, #-20]	; 0xffffffec
  103f9c:	e51b3010 	ldr	r3, [fp, #-16]
  103fa0:	e0024003 	and	r4, r2, r3
  103fa4:	e51b0010 	ldr	r0, [fp, #-16]
  103fa8:	ebffff78 	bl	103d90 <find_first_set_bit>
  103fac:	e1a03000 	mov	r3, r0
  103fb0:	e1a03334 	lsr	r3, r4, r3
  103fb4:	e1a00003 	mov	r0, r3
  103fb8:	e24bd008 	sub	sp, fp, #8
  103fbc:	e8bd8810 	pop	{r4, fp, pc}

00103fc0 <log_base_2>:
  103fc0:	e92d4800 	push	{fp, lr}
  103fc4:	e28db004 	add	fp, sp, #4
  103fc8:	e24dd008 	sub	sp, sp, #8
  103fcc:	e50b0008 	str	r0, [fp, #-8]
  103fd0:	e51b0008 	ldr	r0, [fp, #-8]
  103fd4:	ebffff88 	bl	103dfc <find_last_set_bit>
  103fd8:	e1a03000 	mov	r3, r0
  103fdc:	e1a00003 	mov	r0, r3
  103fe0:	e24bd004 	sub	sp, fp, #4
  103fe4:	e8bd8800 	pop	{fp, pc}

00103fe8 <greatest_common_divisor>:
  103fe8:	e92d4800 	push	{fp, lr}
  103fec:	e28db004 	add	fp, sp, #4
  103ff0:	e24dd010 	sub	sp, sp, #16
  103ff4:	e50b0010 	str	r0, [fp, #-16]
  103ff8:	e50b1014 	str	r1, [fp, #-20]	; 0xffffffec
  103ffc:	e3a03001 	mov	r3, #1
  104000:	e50b300c 	str	r3, [fp, #-12]
  104004:	e51b3010 	ldr	r3, [fp, #-16]
  104008:	e3530000 	cmp	r3, #0
  10400c:	0a000002 	beq	10401c <greatest_common_divisor+0x34>
  104010:	e51b3014 	ldr	r3, [fp, #-20]	; 0xffffffec
  104014:	e3530000 	cmp	r3, #0
  104018:	1a000005 	bne	104034 <greatest_common_divisor+0x4c>
  10401c:	e51b2014 	ldr	r2, [fp, #-20]	; 0xffffffec
  104020:	e51b3010 	ldr	r3, [fp, #-16]
  104024:	e1520003 	cmp	r2, r3
  104028:	21a03002 	movcs	r3, r2
  10402c:	31a03003 	movcc	r3, r3
  104030:	ea00001e 	b	1040b0 <greatest_common_divisor+0xc8>
  104034:	e3a03001 	mov	r3, #1
  104038:	e50b3008 	str	r3, [fp, #-8]
  10403c:	ea000012 	b	10408c <greatest_common_divisor+0xa4>
  104040:	e51b3010 	ldr	r3, [fp, #-16]
  104044:	e51b1008 	ldr	r1, [fp, #-8]
  104048:	e1a00003 	mov	r0, r3
  10404c:	eb003dbc 	bl	113744 <__aeabi_uidivmod>
  104050:	e1a03001 	mov	r3, r1
  104054:	e3530000 	cmp	r3, #0
  104058:	1a000008 	bne	104080 <greatest_common_divisor+0x98>
  10405c:	e51b3014 	ldr	r3, [fp, #-20]	; 0xffffffec
  104060:	e51b1008 	ldr	r1, [fp, #-8]
  104064:	e1a00003 	mov	r0, r3
  104068:	eb003db5 	bl	113744 <__aeabi_uidivmod>
  10406c:	e1a03001 	mov	r3, r1
  104070:	e3530000 	cmp	r3, #0
  104074:	1a000001 	bne	104080 <greatest_common_divisor+0x98>
  104078:	e51b3008 	ldr	r3, [fp, #-8]
  10407c:	e50b300c 	str	r3, [fp, #-12]
  104080:	e51b3008 	ldr	r3, [fp, #-8]
  104084:	e2833001 	add	r3, r3, #1
  104088:	e50b3008 	str	r3, [fp, #-8]
  10408c:	e51b2008 	ldr	r2, [fp, #-8]
  104090:	e51b3010 	ldr	r3, [fp, #-16]
  104094:	e1520003 	cmp	r2, r3
  104098:	8a000003 	bhi	1040ac <greatest_common_divisor+0xc4>
  10409c:	e51b2008 	ldr	r2, [fp, #-8]
  1040a0:	e51b3014 	ldr	r3, [fp, #-20]	; 0xffffffec
  1040a4:	e1520003 	cmp	r2, r3
  1040a8:	9affffe4 	bls	104040 <greatest_common_divisor+0x58>
  1040ac:	e51b300c 	ldr	r3, [fp, #-12]
  1040b0:	e1a00003 	mov	r0, r3
  1040b4:	e24bd004 	sub	sp, fp, #4
  1040b8:	e8bd8800 	pop	{fp, pc}

001040bc <rational_best_approximation>:
  1040bc:	e92d4800 	push	{fp, lr}
  1040c0:	e28db004 	add	fp, sp, #4
  1040c4:	e24dd018 	sub	sp, sp, #24
  1040c8:	e50b0010 	str	r0, [fp, #-16]
  1040cc:	e50b1014 	str	r1, [fp, #-20]	; 0xffffffec
  1040d0:	e50b2018 	str	r2, [fp, #-24]	; 0xffffffe8
  1040d4:	e50b301c 	str	r3, [fp, #-28]	; 0xffffffe4
  1040d8:	e51b1014 	ldr	r1, [fp, #-20]	; 0xffffffec
  1040dc:	e51b0010 	ldr	r0, [fp, #-16]
  1040e0:	ebffffc0 	bl	103fe8 <greatest_common_divisor>
  1040e4:	e50b0008 	str	r0, [fp, #-8]
  1040e8:	e51b1008 	ldr	r1, [fp, #-8]
  1040ec:	e51b0010 	ldr	r0, [fp, #-16]
  1040f0:	eb003d18 	bl	113558 <__aeabi_uidiv>
  1040f4:	e1a03000 	mov	r3, r0
  1040f8:	e1a02003 	mov	r2, r3
  1040fc:	e59b3004 	ldr	r3, [fp, #4]
  104100:	e5832000 	str	r2, [r3]
  104104:	e51b1008 	ldr	r1, [fp, #-8]
  104108:	e51b0014 	ldr	r0, [fp, #-20]	; 0xffffffec
  10410c:	eb003d11 	bl	113558 <__aeabi_uidiv>
  104110:	e1a03000 	mov	r3, r0
  104114:	e1a02003 	mov	r2, r3
  104118:	e59b3008 	ldr	r3, [fp, #8]
  10411c:	e5832000 	str	r2, [r3]
  104120:	e59b3004 	ldr	r3, [fp, #4]
  104124:	e5932000 	ldr	r2, [r3]
  104128:	e51b3018 	ldr	r3, [fp, #-24]	; 0xffffffe8
  10412c:	e1520003 	cmp	r2, r3
  104130:	8a000004 	bhi	104148 <rational_best_approximation+0x8c>
  104134:	e59b3008 	ldr	r3, [fp, #8]
  104138:	e5932000 	ldr	r2, [r3]
  10413c:	e51b301c 	ldr	r3, [fp, #-28]	; 0xffffffe4
  104140:	e1520003 	cmp	r2, r3
  104144:	9a000005 	bls	104160 <rational_best_approximation+0xa4>
  104148:	e59b3004 	ldr	r3, [fp, #4]
  10414c:	e3a02000 	mov	r2, #0
  104150:	e5832000 	str	r2, [r3]
  104154:	e59b3008 	ldr	r3, [fp, #8]
  104158:	e3a02000 	mov	r2, #0
  10415c:	e5832000 	str	r2, [r3]
  104160:	e320f000 	nop	{0}
  104164:	e24bd004 	sub	sp, fp, #4
  104168:	e8bd8800 	pop	{fp, pc}

0010416c <hweight8>:
  10416c:	e52db004 	push	{fp}		; (str fp, [sp, #-4]!)
  104170:	e28db000 	add	fp, sp, #0
  104174:	e24dd014 	sub	sp, sp, #20
  104178:	e50b0010 	str	r0, [fp, #-16]
  10417c:	e3a03000 	mov	r3, #0
  104180:	e50b3008 	str	r3, [fp, #-8]
  104184:	ea000009 	b	1041b0 <hweight8+0x44>
  104188:	e51b3010 	ldr	r3, [fp, #-16]
  10418c:	e2033001 	and	r3, r3, #1
  104190:	e3530000 	cmp	r3, #0
  104194:	0a000002 	beq	1041a4 <hweight8+0x38>
  104198:	e51b3008 	ldr	r3, [fp, #-8]
  10419c:	e2833001 	add	r3, r3, #1
  1041a0:	e50b3008 	str	r3, [fp, #-8]
  1041a4:	e51b3010 	ldr	r3, [fp, #-16]
  1041a8:	e1a030a3 	lsr	r3, r3, #1
  1041ac:	e50b3010 	str	r3, [fp, #-16]
  1041b0:	e51b3010 	ldr	r3, [fp, #-16]
  1041b4:	e3530000 	cmp	r3, #0
  1041b8:	1afffff2 	bne	104188 <hweight8+0x1c>
  1041bc:	e51b3008 	ldr	r3, [fp, #-8]
  1041c0:	e1a00003 	mov	r0, r3
  1041c4:	e24bd000 	sub	sp, fp, #0
  1041c8:	e49db004 	pop	{fp}		; (ldr fp, [sp], #4)
  1041cc:	e12fff1e 	bx	lr

001041d0 <do_div>:
  1041d0:	e92d4800 	push	{fp, lr}
  1041d4:	e28db004 	add	fp, sp, #4
  1041d8:	e24dd018 	sub	sp, sp, #24
  1041dc:	e50b0010 	str	r0, [fp, #-16]
  1041e0:	e14b21fc 	strd	r2, [fp, #-28]	; 0xffffffe4
  1041e4:	f2c00010 	vmov.i32	d16, #0	; 0x00000000
  1041e8:	ed4b0b03 	vstr	d16, [fp, #-12]
  1041ec:	e51b3010 	ldr	r3, [fp, #-16]
  1041f0:	e1c300d0 	ldrd	r0, [r3]
  1041f4:	e14b21dc 	ldrd	r2, [fp, #-28]	; 0xffffffe4
  1041f8:	eb003d5a 	bl	113768 <__aeabi_uldivmod>
  1041fc:	e14b20fc 	strd	r2, [fp, #-12]
  104200:	e51b3010 	ldr	r3, [fp, #-16]
  104204:	e1c300d0 	ldrd	r0, [r3]
  104208:	e14b21dc 	ldrd	r2, [fp, #-28]	; 0xffffffe4
  10420c:	eb003d55 	bl	113768 <__aeabi_uldivmod>
  104210:	e1a02000 	mov	r2, r0
  104214:	e1a03001 	mov	r3, r1
  104218:	e51b1010 	ldr	r1, [fp, #-16]
  10421c:	e1c120f0 	strd	r2, [r1]
  104220:	e14b20dc 	ldrd	r2, [fp, #-12]
  104224:	e1a00002 	mov	r0, r2
  104228:	e1a01003 	mov	r1, r3
  10422c:	e24bd004 	sub	sp, fp, #4
  104230:	e8bd8800 	pop	{fp, pc}

00104234 <div64_u64_rem>:
  104234:	e92d4800 	push	{fp, lr}
  104238:	e28db004 	add	fp, sp, #4
  10423c:	e24dd010 	sub	sp, sp, #16
  104240:	e14b00fc 	strd	r0, [fp, #-12]
  104244:	e14b21f4 	strd	r2, [fp, #-20]	; 0xffffffec
  104248:	e14b00dc 	ldrd	r0, [fp, #-12]
  10424c:	e14b21d4 	ldrd	r2, [fp, #-20]	; 0xffffffec
  104250:	eb003d44 	bl	113768 <__aeabi_uldivmod>
  104254:	e59b1004 	ldr	r1, [fp, #4]
  104258:	e1c120f0 	strd	r2, [r1]
  10425c:	e14b21d4 	ldrd	r2, [fp, #-20]	; 0xffffffec
  104260:	e14b00dc 	ldrd	r0, [fp, #-12]
  104264:	eb003d3f 	bl	113768 <__aeabi_uldivmod>
  104268:	e1a02000 	mov	r2, r0
  10426c:	e1a03001 	mov	r3, r1
  104270:	e1a00002 	mov	r0, r2
  104274:	e1a01003 	mov	r1, r3
  104278:	e24bd004 	sub	sp, fp, #4
  10427c:	e8bd8800 	pop	{fp, pc}

00104280 <div_u64_rem>:
  104280:	e92d4800 	push	{fp, lr}
  104284:	e28db004 	add	fp, sp, #4
  104288:	e24dd010 	sub	sp, sp, #16
  10428c:	e14b00fc 	strd	r0, [fp, #-12]
  104290:	e50b2010 	str	r2, [fp, #-16]
  104294:	e50b3014 	str	r3, [fp, #-20]	; 0xffffffec
  104298:	e51b3010 	ldr	r3, [fp, #-16]
  10429c:	e1a02003 	mov	r2, r3
  1042a0:	e3a03000 	mov	r3, #0
  1042a4:	e24b100c 	sub	r1, fp, #12
  1042a8:	e1a00001 	mov	r0, r1
  1042ac:	ebffffc7 	bl	1041d0 <do_div>
  1042b0:	e1a02000 	mov	r2, r0
  1042b4:	e1a03001 	mov	r3, r1
  1042b8:	e51b3014 	ldr	r3, [fp, #-20]	; 0xffffffec
  1042bc:	e5832000 	str	r2, [r3]
  1042c0:	e14b20dc 	ldrd	r2, [fp, #-12]
  1042c4:	e1a00002 	mov	r0, r2
  1042c8:	e1a01003 	mov	r1, r3
  1042cc:	e24bd004 	sub	sp, fp, #4
  1042d0:	e8bd8800 	pop	{fp, pc}

001042d4 <div_u64>:
  1042d4:	e92d4800 	push	{fp, lr}
  1042d8:	e28db004 	add	fp, sp, #4
  1042dc:	e24dd018 	sub	sp, sp, #24
  1042e0:	e14b01f4 	strd	r0, [fp, #-20]	; 0xffffffec
  1042e4:	e50b2018 	str	r2, [fp, #-24]	; 0xffffffe8
  1042e8:	e24b3008 	sub	r3, fp, #8
  1042ec:	e51b2018 	ldr	r2, [fp, #-24]	; 0xffffffe8
  1042f0:	e14b01d4 	ldrd	r0, [fp, #-20]	; 0xffffffec
  1042f4:	ebffffe1 	bl	104280 <div_u64_rem>
  1042f8:	e1a02000 	mov	r2, r0
  1042fc:	e1a03001 	mov	r3, r1
  104300:	e1a00002 	mov	r0, r2
  104304:	e1a01003 	mov	r1, r3
  104308:	e24bd004 	sub	sp, fp, #4
  10430c:	e8bd8800 	pop	{fp, pc}

00104310 <str_to_int32>:
  104310:	e92d4800 	push	{fp, lr}
  104314:	e28db004 	add	fp, sp, #4
  104318:	e24dd010 	sub	sp, sp, #16
  10431c:	e50b0010 	str	r0, [fp, #-16]
  104320:	e24b300c 	sub	r3, fp, #12
  104324:	e3a02000 	mov	r2, #0
  104328:	e1a01003 	mov	r1, r3
  10432c:	e51b0010 	ldr	r0, [fp, #-16]
  104330:	eb004162 	bl	1148c0 <strtol>
  104334:	e50b0008 	str	r0, [fp, #-8]
  104338:	e51b200c 	ldr	r2, [fp, #-12]
  10433c:	e51b3010 	ldr	r3, [fp, #-16]
  104340:	e1520003 	cmp	r2, r3
  104344:	1a000001 	bne	104350 <str_to_int32+0x40>
  104348:	e3e03015 	mvn	r3, #21
  10434c:	ea000000 	b	104354 <str_to_int32+0x44>
  104350:	e51b3008 	ldr	r3, [fp, #-8]
  104354:	e1a00003 	mov	r0, r3
  104358:	e24bd004 	sub	sp, fp, #4
  10435c:	e8bd8800 	pop	{fp, pc}

00104360 <srt_to_uint32>:
  104360:	e92d4800 	push	{fp, lr}
  104364:	e28db004 	add	fp, sp, #4
  104368:	e24dd010 	sub	sp, sp, #16
  10436c:	e50b0010 	str	r0, [fp, #-16]
  104370:	e24b300c 	sub	r3, fp, #12
  104374:	e3a02000 	mov	r2, #0
  104378:	e1a01003 	mov	r1, r3
  10437c:	e51b0010 	ldr	r0, [fp, #-16]
  104380:	eb0041fc 	bl	114b78 <strtoul>
  104384:	e50b0008 	str	r0, [fp, #-8]
  104388:	e51b200c 	ldr	r2, [fp, #-12]
  10438c:	e51b3010 	ldr	r3, [fp, #-16]
  104390:	e1520003 	cmp	r2, r3
  104394:	1a000001 	bne	1043a0 <srt_to_uint32+0x40>
  104398:	e3e03015 	mvn	r3, #21
  10439c:	ea000000 	b	1043a4 <srt_to_uint32+0x44>
  1043a0:	e51b3008 	ldr	r3, [fp, #-8]
  1043a4:	e1a00003 	mov	r0, r3
  1043a8:	e24bd004 	sub	sp, fp, #4
  1043ac:	e8bd8800 	pop	{fp, pc}

001043b0 <enable_all_caches>:
  1043b0:	e52de004 	push	{lr}		; (str lr, [sp, #-4]!)
  1043b4:	eb000005 	bl	1043d0 <enable_MMU>
  1043b8:	eb000050 	bl	104500 <initialize_L2C>
  1043bc:	eb00009f 	bl	104640 <enable_L1_D_side_prefetch>
  1043c0:	eb0000a2 	bl	104650 <enable_L2_prefetch_hint>
  1043c4:	eb0000b1 	bl	104690 <enable_SCU>
  1043c8:	eb000065 	bl	104564 <enable_caches>
  1043cc:	e49df004 	pop	{pc}		; (ldr pc, [sp], #4)

001043d0 <enable_MMU>:
  1043d0:	e92d4eb0 	push	{r4, r5, r7, r9, sl, fp, lr}
  1043d4:	e59f0378 	ldr	r0, [pc, #888]	; 104754 <invalidate_and_flush+0x9c>
  1043d8:	e3a01000 	mov	r1, #0
  1043dc:	e5801100 	str	r1, [r0, #256]	; 0x100
  1043e0:	ee110f10 	mrc	15, 0, r0, cr1, cr0, {0}
  1043e4:	e3c00a01 	bic	r0, r0, #4096	; 0x1000
  1043e8:	e3c00004 	bic	r0, r0, #4
  1043ec:	e3c00001 	bic	r0, r0, #1
  1043f0:	e3c00b02 	bic	r0, r0, #2048	; 0x800
  1043f4:	ee010f10 	mcr	15, 0, r0, cr1, cr0, {0}
  1043f8:	e3a00000 	mov	r0, #0
  1043fc:	ee080f17 	mcr	15, 0, r0, cr8, cr7, {0}
  104400:	ee070fd5 	mcr	15, 0, r0, cr7, cr5, {6}
  104404:	ee300f30 	mrc	15, 1, r0, cr0, cr0, {1}
  104408:	e3100003 	tst	r0, #3
  10440c:	e3a00000 	mov	r0, #0
  104410:	1e070f15 	mcrne	15, 0, r0, cr7, cr5, {0}
  104414:	ee300f30 	mrc	15, 1, r0, cr0, cr0, {1}
  104418:	e2103407 	ands	r3, r0, #117440512	; 0x7000000
  10441c:	e1a03ba3 	lsr	r3, r3, #23
  104420:	0a00001a 	beq	104490 <Finished>
  104424:	e3a0a000 	mov	sl, #0

00104428 <Loop1>:
  104428:	e08a20aa 	add	r2, sl, sl, lsr #1
  10442c:	e1a01230 	lsr	r1, r0, r2
  104430:	e2011007 	and	r1, r1, #7
  104434:	e3510002 	cmp	r1, #2
  104438:	ba000011 	blt	104484 <Skip>
  10443c:	ee40af10 	mcr	15, 2, sl, cr0, cr0, {0}
  104440:	f57ff06f 	isb	sy
  104444:	ee301f10 	mrc	15, 1, r1, cr0, cr0, {0}
  104448:	e2012007 	and	r2, r1, #7
  10444c:	e2822004 	add	r2, r2, #4
  104450:	e59f4300 	ldr	r4, [pc, #768]	; 104758 <invalidate_and_flush+0xa0>
  104454:	e01441a1 	ands	r4, r4, r1, lsr #3
  104458:	e16f5f14 	clz	r5, r4
  10445c:	e59f72f8 	ldr	r7, [pc, #760]	; 10475c <invalidate_and_flush+0xa4>
  104460:	e01776a1 	ands	r7, r7, r1, lsr #13

00104464 <Loop2>:
  104464:	e1a09004 	mov	r9, r4

00104468 <Loop3>:
  104468:	e18ab519 	orr	fp, sl, r9, lsl r5
  10446c:	e18bb217 	orr	fp, fp, r7, lsl r2
  104470:	ee07bf56 	mcr	15, 0, fp, cr7, cr6, {2}
  104474:	e2599001 	subs	r9, r9, #1
  104478:	aafffffa 	bge	104468 <Loop3>
  10447c:	e2577001 	subs	r7, r7, #1
  104480:	aafffff7 	bge	104464 <Loop2>

00104484 <Skip>:
  104484:	e28aa002 	add	sl, sl, #2
  104488:	e153000a 	cmp	r3, sl
  10448c:	caffffe5 	bgt	104428 <Loop1>

00104490 <Finished>:
  104490:	e3a00000 	mov	r0, #0
  104494:	ee070fd5 	mcr	15, 0, r0, cr7, cr5, {6}
  104498:	e3a00000 	mov	r0, #0
  10449c:	ee020f50 	mcr	15, 0, r0, cr2, cr0, {2}
  1044a0:	e59f02b8 	ldr	r0, [pc, #696]	; 104760 <invalidate_and_flush+0xa8>
  1044a4:	e3a01008 	mov	r1, #8
  1044a8:	e3811040 	orr	r1, r1, #64	; 0x40
  1044ac:	e1800001 	orr	r0, r0, r1
  1044b0:	ee020f10 	mcr	15, 0, r0, cr2, cr0, {0}
  1044b4:	e59f02a4 	ldr	r0, [pc, #676]	; 104760 <invalidate_and_flush+0xa8>
  1044b8:	e59f12a4 	ldr	r1, [pc, #676]	; 104764 <invalidate_and_flush+0xac>

001044bc <init_ttb_1>:
  1044bc:	e3510b02 	cmp	r1, #2048	; 0x800
  1044c0:	459f22a0 	ldrmi	r2, [pc, #672]	; 104768 <invalidate_and_flush+0xb0>
  1044c4:	559f22a0 	ldrpl	r2, [pc, #672]	; 10476c <invalidate_and_flush+0xb4>
  1044c8:	e1823a01 	orr	r3, r2, r1, lsl #20
  1044cc:	e7803101 	str	r3, [r0, r1, lsl #2]
  1044d0:	e2511001 	subs	r1, r1, #1
  1044d4:	5afffff8 	bpl	1044bc <init_ttb_1>
  1044d8:	ee130f10 	mrc	15, 0, r0, cr3, cr0, {0}
  1044dc:	e3e00000 	mvn	r0, #0
  1044e0:	ee030f10 	mcr	15, 0, r0, cr3, cr0, {0}
  1044e4:	ee110f10 	mrc	15, 0, r0, cr1, cr0, {0}
  1044e8:	e3c00a01 	bic	r0, r0, #4096	; 0x1000
  1044ec:	e3c00004 	bic	r0, r0, #4
  1044f0:	e3c00002 	bic	r0, r0, #2
  1044f4:	e3800001 	orr	r0, r0, #1
  1044f8:	ee010f10 	mcr	15, 0, r0, cr1, cr0, {0}
  1044fc:	e8bd8eb0 	pop	{r4, r5, r7, r9, sl, fp, pc}

00104500 <initialize_L2C>:
  104500:	e59f024c 	ldr	r0, [pc, #588]	; 104754 <invalidate_and_flush+0x9c>
  104504:	e3a01000 	mov	r1, #0
  104508:	e5801100 	str	r1, [r0, #256]	; 0x100
  10450c:	e3a01806 	mov	r1, #393216	; 0x60000
  104510:	e3811202 	orr	r1, r1, #536870912	; 0x20000000
  104514:	e3811201 	orr	r1, r1, #268435456	; 0x10000000
  104518:	e5801104 	str	r1, [r0, #260]	; 0x104
  10451c:	e3a01000 	mov	r1, #0
  104520:	e5801108 	str	r1, [r0, #264]	; 0x108
  104524:	e3a01000 	mov	r1, #0
  104528:	e580110c 	str	r1, [r0, #268]	; 0x10c
  10452c:	e3a010ff 	mov	r1, #255	; 0xff
  104530:	e580177c 	str	r1, [r0, #1916]	; 0x77c

00104534 <poll_invalidate>:
  104534:	e590177c 	ldr	r1, [r0, #1916]	; 0x77c
  104538:	e3110001 	tst	r1, #1
  10453c:	1afffffc 	bne	104534 <poll_invalidate>
  104540:	e3a01007 	mov	r1, #7
  104544:	e5801200 	str	r1, [r0, #512]	; 0x200
  104548:	e3a01008 	mov	r1, #8
  10454c:	e5801204 	str	r1, [r0, #516]	; 0x204
  104550:	e3a0100c 	mov	r1, #12
  104554:	e5801208 	str	r1, [r0, #520]	; 0x208
  104558:	e3a01000 	mov	r1, #0
  10455c:	e5801100 	str	r1, [r0, #256]	; 0x100
  104560:	e12fff1e 	bx	lr

00104564 <enable_caches>:
  104564:	ee110f10 	mrc	15, 0, r0, cr1, cr0, {0}
  104568:	e3800a01 	orr	r0, r0, #4096	; 0x1000
  10456c:	e3800004 	orr	r0, r0, #4
  104570:	e3800b02 	orr	r0, r0, #2048	; 0x800
  104574:	ee010f10 	mcr	15, 0, r0, cr1, cr0, {0}
  104578:	e59f01d4 	ldr	r0, [pc, #468]	; 104754 <invalidate_and_flush+0x9c>
  10457c:	e3a01001 	mov	r1, #1
  104580:	e5801100 	str	r1, [r0, #256]	; 0x100
  104584:	e12fff1e 	bx	lr

00104588 <enable_L1_D>:
  104588:	ee110f10 	mrc	15, 0, r0, cr1, cr0, {0}
  10458c:	e3800004 	orr	r0, r0, #4
  104590:	ee010f10 	mcr	15, 0, r0, cr1, cr0, {0}
  104594:	e12fff1e 	bx	lr

00104598 <enable_L1_I>:
  104598:	ee110f10 	mrc	15, 0, r0, cr1, cr0, {0}
  10459c:	e3800a01 	orr	r0, r0, #4096	; 0x1000
  1045a0:	ee010f10 	mcr	15, 0, r0, cr1, cr0, {0}
  1045a4:	e12fff1e 	bx	lr

001045a8 <enable_branch_prediction>:
  1045a8:	ee110f10 	mrc	15, 0, r0, cr1, cr0, {0}
  1045ac:	e3800b02 	orr	r0, r0, #2048	; 0x800
  1045b0:	ee010f10 	mcr	15, 0, r0, cr1, cr0, {0}
  1045b4:	e12fff1e 	bx	lr

001045b8 <enable_L2>:
  1045b8:	e59f0194 	ldr	r0, [pc, #404]	; 104754 <invalidate_and_flush+0x9c>
  1045bc:	e3a01001 	mov	r1, #1
  1045c0:	e5801100 	str	r1, [r0, #256]	; 0x100
  1045c4:	e12fff1e 	bx	lr

001045c8 <enable_store_buffer_device_limitation>:
  1045c8:	e59f0184 	ldr	r0, [pc, #388]	; 104754 <invalidate_and_flush+0x9c>
  1045cc:	e3a01000 	mov	r1, #0
  1045d0:	e5801100 	str	r1, [r0, #256]	; 0x100
  1045d4:	e5901104 	ldr	r1, [r0, #260]	; 0x104
  1045d8:	e3811b02 	orr	r1, r1, #2048	; 0x800
  1045dc:	e5801104 	str	r1, [r0, #260]	; 0x104
  1045e0:	e3a01001 	mov	r1, #1
  1045e4:	e5801100 	str	r1, [r0, #256]	; 0x100
  1045e8:	e12fff1e 	bx	lr

001045ec <enable_early_BRESP>:
  1045ec:	e59f0160 	ldr	r0, [pc, #352]	; 104754 <invalidate_and_flush+0x9c>
  1045f0:	e3a01000 	mov	r1, #0
  1045f4:	e5801100 	str	r1, [r0, #256]	; 0x100
  1045f8:	e5901104 	ldr	r1, [r0, #260]	; 0x104
  1045fc:	e3811101 	orr	r1, r1, #1073741824	; 0x40000000
  104600:	e5801104 	str	r1, [r0, #260]	; 0x104
  104604:	e3a01001 	mov	r1, #1
  104608:	e5801100 	str	r1, [r0, #256]	; 0x100
  10460c:	e12fff1e 	bx	lr

00104610 <enable_write_full_line_zeros>:
  104610:	e59f013c 	ldr	r0, [pc, #316]	; 104754 <invalidate_and_flush+0x9c>
  104614:	e3a01000 	mov	r1, #0
  104618:	e5801100 	str	r1, [r0, #256]	; 0x100
  10461c:	e5901104 	ldr	r1, [r0, #260]	; 0x104
  104620:	e3811101 	orr	r1, r1, #1073741824	; 0x40000000
  104624:	e5801104 	str	r1, [r0, #260]	; 0x104
  104628:	e3a01001 	mov	r1, #1
  10462c:	e5801100 	str	r1, [r0, #256]	; 0x100
  104630:	ee110f30 	mrc	15, 0, r0, cr1, cr0, {1}
  104634:	e3800008 	orr	r0, r0, #8
  104638:	ee010f30 	mcr	15, 0, r0, cr1, cr0, {1}
  10463c:	e12fff1e 	bx	lr

00104640 <enable_L1_D_side_prefetch>:
  104640:	ee110f30 	mrc	15, 0, r0, cr1, cr0, {1}
  104644:	e3800004 	orr	r0, r0, #4
  104648:	ee010f30 	mcr	15, 0, r0, cr1, cr0, {1}
  10464c:	e12fff1e 	bx	lr

00104650 <enable_L2_prefetch_hint>:
  104650:	ee110f30 	mrc	15, 0, r0, cr1, cr0, {1}
  104654:	e3800002 	orr	r0, r0, #2
  104658:	ee010f30 	mcr	15, 0, r0, cr1, cr0, {1}
  10465c:	e12fff1e 	bx	lr

00104660 <enable_exclusive_caching>:
  104660:	e59f00ec 	ldr	r0, [pc, #236]	; 104754 <invalidate_and_flush+0x9c>
  104664:	e3a01000 	mov	r1, #0
  104668:	e5801100 	str	r1, [r0, #256]	; 0x100
  10466c:	e5901104 	ldr	r1, [r0, #260]	; 0x104
  104670:	e3811a01 	orr	r1, r1, #4096	; 0x1000
  104674:	e5801104 	str	r1, [r0, #260]	; 0x104
  104678:	e3a01001 	mov	r1, #1
  10467c:	e5801100 	str	r1, [r0, #256]	; 0x100
  104680:	ee110f30 	mrc	15, 0, r0, cr1, cr0, {1}
  104684:	e3800080 	orr	r0, r0, #128	; 0x80
  104688:	ee010f30 	mcr	15, 0, r0, cr1, cr0, {1}
  10468c:	e12fff1e 	bx	lr

00104690 <enable_SCU>:
  104690:	ee9f0f10 	mrc	15, 4, r0, cr15, cr0, {0}
  104694:	e5901000 	ldr	r1, [r0]
  104698:	e3811001 	orr	r1, r1, #1
  10469c:	e5801000 	str	r1, [r0]
  1046a0:	e12fff1e 	bx	lr

001046a4 <enable_L2_speculative_linefill>:
  1046a4:	ee9f0f10 	mrc	15, 4, r0, cr15, cr0, {0}
  1046a8:	e5901000 	ldr	r1, [r0]
  1046ac:	e3811008 	orr	r1, r1, #8
  1046b0:	e5801000 	str	r1, [r0]
  1046b4:	e12fff1e 	bx	lr

001046b8 <invalidate_and_flush>:
  1046b8:	e92d4eb0 	push	{r4, r5, r7, r9, sl, fp, lr}
  1046bc:	e3a00000 	mov	r0, #0
  1046c0:	ee070fd5 	mcr	15, 0, r0, cr7, cr5, {6}
  1046c4:	ee300f30 	mrc	15, 1, r0, cr0, cr0, {1}
  1046c8:	e3a00000 	mov	r0, #0
  1046cc:	ee070f15 	mcr	15, 0, r0, cr7, cr5, {0}
  1046d0:	ee300f30 	mrc	15, 1, r0, cr0, cr0, {1}
  1046d4:	e2103407 	ands	r3, r0, #117440512	; 0x7000000
  1046d8:	e1a03ba3 	lsr	r3, r3, #23
  1046dc:	0a00001a 	beq	10474c <invalidate_and_flush+0x94>
  1046e0:	e3a0a000 	mov	sl, #0
  1046e4:	e08a20aa 	add	r2, sl, sl, lsr #1
  1046e8:	e1a01230 	lsr	r1, r0, r2
  1046ec:	e2011007 	and	r1, r1, #7
  1046f0:	e3510002 	cmp	r1, #2
  1046f4:	ba000011 	blt	104740 <invalidate_and_flush+0x88>
  1046f8:	ee40af10 	mcr	15, 2, sl, cr0, cr0, {0}
  1046fc:	f57ff06f 	isb	sy
  104700:	ee301f10 	mrc	15, 1, r1, cr0, cr0, {0}
  104704:	e2012007 	and	r2, r1, #7
  104708:	e2822004 	add	r2, r2, #4
  10470c:	e59f4044 	ldr	r4, [pc, #68]	; 104758 <invalidate_and_flush+0xa0>
  104710:	e01441a1 	ands	r4, r4, r1, lsr #3
  104714:	e16f5f14 	clz	r5, r4
  104718:	e59f703c 	ldr	r7, [pc, #60]	; 10475c <invalidate_and_flush+0xa4>
  10471c:	e01776a1 	ands	r7, r7, r1, lsr #13
  104720:	e1a09004 	mov	r9, r4
  104724:	e18ab519 	orr	fp, sl, r9, lsl r5
  104728:	e18bb217 	orr	fp, fp, r7, lsl r2
  10472c:	ee07bf56 	mcr	15, 0, fp, cr7, cr6, {2}
  104730:	e2599001 	subs	r9, r9, #1
  104734:	aafffffa 	bge	104724 <invalidate_and_flush+0x6c>
  104738:	e2577001 	subs	r7, r7, #1
  10473c:	aafffff7 	bge	104720 <invalidate_and_flush+0x68>
  104740:	e28aa002 	add	sl, sl, #2
  104744:	e153000a 	cmp	r3, sl
  104748:	caffffe5 	bgt	1046e4 <invalidate_and_flush+0x2c>
  10474c:	f57ff04f 	dsb	sy
  104750:	e8bd8eb0 	pop	{r4, r5, r7, r9, sl, fp, pc}
  104754:	fffef000 	.word	0xfffef000
  104758:	000003ff 	.word	0x000003ff
  10475c:	00007fff 	.word	0x00007fff
  104760:	00124000 	.word	0x00124000
  104764:	00000fff 	.word	0x00000fff
  104768:	00017c0e 	.word	0x00017c0e
  10476c:	00002c02 	.word	0x00002c02

00104770 <construct_standard_st_to_mm_descriptor>:
  104770:	e52db004 	push	{fp}		; (str fp, [sp, #-4]!)
  104774:	e28db000 	add	fp, sp, #0
  104778:	e24dd014 	sub	sp, sp, #20
  10477c:	e50b0008 	str	r0, [fp, #-8]
  104780:	e50b100c 	str	r1, [fp, #-12]
  104784:	e50b2010 	str	r2, [fp, #-16]
  104788:	e50b3014 	str	r3, [fp, #-20]	; 0xffffffec
  10478c:	e51b3008 	ldr	r3, [fp, #-8]
  104790:	e3a02000 	mov	r2, #0
  104794:	e5832000 	str	r2, [r3]
  104798:	e51b3008 	ldr	r3, [fp, #-8]
  10479c:	e51b200c 	ldr	r2, [fp, #-12]
  1047a0:	e5832004 	str	r2, [r3, #4]
  1047a4:	e51b3008 	ldr	r3, [fp, #-8]
  1047a8:	e51b2010 	ldr	r2, [fp, #-16]
  1047ac:	e5832008 	str	r2, [r3, #8]
  1047b0:	e51b3014 	ldr	r3, [fp, #-20]	; 0xffffffec
  1047b4:	e3832102 	orr	r2, r3, #-2147483648	; 0x80000000
  1047b8:	e51b3008 	ldr	r3, [fp, #-8]
  1047bc:	e583200c 	str	r2, [r3, #12]
  1047c0:	e3a03000 	mov	r3, #0
  1047c4:	e1a00003 	mov	r0, r3
  1047c8:	e24bd000 	sub	sp, fp, #0
  1047cc:	e49db004 	pop	{fp}		; (ldr fp, [sp], #4)
  1047d0:	e12fff1e 	bx	lr

001047d4 <construct_standard_mm_to_st_descriptor>:
  1047d4:	e52db004 	push	{fp}		; (str fp, [sp, #-4]!)
  1047d8:	e28db000 	add	fp, sp, #0
  1047dc:	e24dd014 	sub	sp, sp, #20
  1047e0:	e50b0008 	str	r0, [fp, #-8]
  1047e4:	e50b100c 	str	r1, [fp, #-12]
  1047e8:	e50b2010 	str	r2, [fp, #-16]
  1047ec:	e50b3014 	str	r3, [fp, #-20]	; 0xffffffec
  1047f0:	e51b3008 	ldr	r3, [fp, #-8]
  1047f4:	e51b200c 	ldr	r2, [fp, #-12]
  1047f8:	e5832000 	str	r2, [r3]
  1047fc:	e51b3008 	ldr	r3, [fp, #-8]
  104800:	e3a02000 	mov	r2, #0
  104804:	e5832004 	str	r2, [r3, #4]
  104808:	e51b3008 	ldr	r3, [fp, #-8]
  10480c:	e51b2010 	ldr	r2, [fp, #-16]
  104810:	e5832008 	str	r2, [r3, #8]
  104814:	e51b3014 	ldr	r3, [fp, #-20]	; 0xffffffec
  104818:	e3832102 	orr	r2, r3, #-2147483648	; 0x80000000
  10481c:	e51b3008 	ldr	r3, [fp, #-8]
  104820:	e583200c 	str	r2, [r3, #12]
  104824:	e3a03000 	mov	r3, #0
  104828:	e1a00003 	mov	r0, r3
  10482c:	e24bd000 	sub	sp, fp, #0
  104830:	e49db004 	pop	{fp}		; (ldr fp, [sp], #4)
  104834:	e12fff1e 	bx	lr

00104838 <construct_standard_mm_to_mm_descriptor>:
  104838:	e52db004 	push	{fp}		; (str fp, [sp, #-4]!)
  10483c:	e28db000 	add	fp, sp, #0
  104840:	e24dd014 	sub	sp, sp, #20
  104844:	e50b0008 	str	r0, [fp, #-8]
  104848:	e50b100c 	str	r1, [fp, #-12]
  10484c:	e50b2010 	str	r2, [fp, #-16]
  104850:	e50b3014 	str	r3, [fp, #-20]	; 0xffffffec
  104854:	e51b3008 	ldr	r3, [fp, #-8]
  104858:	e51b200c 	ldr	r2, [fp, #-12]
  10485c:	e5832000 	str	r2, [r3]
  104860:	e51b3008 	ldr	r3, [fp, #-8]
  104864:	e51b2010 	ldr	r2, [fp, #-16]
  104868:	e5832004 	str	r2, [r3, #4]
  10486c:	e51b3008 	ldr	r3, [fp, #-8]
  104870:	e51b2014 	ldr	r2, [fp, #-20]	; 0xffffffec
  104874:	e5832008 	str	r2, [r3, #8]
  104878:	e59b3004 	ldr	r3, [fp, #4]
  10487c:	e3832102 	orr	r2, r3, #-2147483648	; 0x80000000
  104880:	e51b3008 	ldr	r3, [fp, #-8]
  104884:	e583200c 	str	r2, [r3, #12]
  104888:	e3a03000 	mov	r3, #0
  10488c:	e1a00003 	mov	r0, r3
  104890:	e24bd000 	sub	sp, fp, #0
  104894:	e49db004 	pop	{fp}		; (ldr fp, [sp], #4)
  104898:	e12fff1e 	bx	lr

0010489c <construct_extended_st_to_mm_descriptor>:
  10489c:	e52db004 	push	{fp}		; (str fp, [sp, #-4]!)
  1048a0:	e28db000 	add	fp, sp, #0
  1048a4:	e24dd014 	sub	sp, sp, #20
  1048a8:	e50b0008 	str	r0, [fp, #-8]
  1048ac:	e50b100c 	str	r1, [fp, #-12]
  1048b0:	e50b2010 	str	r2, [fp, #-16]
  1048b4:	e50b3014 	str	r3, [fp, #-20]	; 0xffffffec
  1048b8:	e51b3008 	ldr	r3, [fp, #-8]
  1048bc:	e3a02000 	mov	r2, #0
  1048c0:	e5832000 	str	r2, [r3]
  1048c4:	e51b3008 	ldr	r3, [fp, #-8]
  1048c8:	e51b200c 	ldr	r2, [fp, #-12]
  1048cc:	e5832004 	str	r2, [r3, #4]
  1048d0:	e51b3008 	ldr	r3, [fp, #-8]
  1048d4:	e51b2010 	ldr	r2, [fp, #-16]
  1048d8:	e5832008 	str	r2, [r3, #8]
  1048dc:	e51b3008 	ldr	r3, [fp, #-8]
  1048e0:	e1db20b4 	ldrh	r2, [fp, #4]
  1048e4:	e1c320bc 	strh	r2, [r3, #12]
  1048e8:	e51b3008 	ldr	r3, [fp, #-8]
  1048ec:	e3a02000 	mov	r2, #0
  1048f0:	e5c3200e 	strb	r2, [r3, #14]
  1048f4:	e51b3008 	ldr	r3, [fp, #-8]
  1048f8:	e5db2008 	ldrb	r2, [fp, #8]
  1048fc:	e5c3200f 	strb	r2, [r3, #15]
  104900:	e51b3008 	ldr	r3, [fp, #-8]
  104904:	e3a02000 	mov	r2, #0
  104908:	e1c321b0 	strh	r2, [r3, #16]
  10490c:	e51b3008 	ldr	r3, [fp, #-8]
  104910:	e1db20bc 	ldrh	r2, [fp, #12]
  104914:	e1c321b2 	strh	r2, [r3, #18]
  104918:	e51b3008 	ldr	r3, [fp, #-8]
  10491c:	e3a02000 	mov	r2, #0
  104920:	e5832014 	str	r2, [r3, #20]
  104924:	e51b3008 	ldr	r3, [fp, #-8]
  104928:	e3a02000 	mov	r2, #0
  10492c:	e5832018 	str	r2, [r3, #24]
  104930:	e51b3014 	ldr	r3, [fp, #-20]	; 0xffffffec
  104934:	e3832102 	orr	r2, r3, #-2147483648	; 0x80000000
  104938:	e51b3008 	ldr	r3, [fp, #-8]
  10493c:	e583201c 	str	r2, [r3, #28]
  104940:	e3a03000 	mov	r3, #0
  104944:	e1a00003 	mov	r0, r3
  104948:	e24bd000 	sub	sp, fp, #0
  10494c:	e49db004 	pop	{fp}		; (ldr fp, [sp], #4)
  104950:	e12fff1e 	bx	lr

00104954 <construct_extended_st_to_mm_descriptor_64>:
  104954:	e52db004 	push	{fp}		; (str fp, [sp, #-4]!)
  104958:	e28db000 	add	fp, sp, #0
  10495c:	e24dd014 	sub	sp, sp, #20
  104960:	e50b0008 	str	r0, [fp, #-8]
  104964:	e50b100c 	str	r1, [fp, #-12]
  104968:	e50b2010 	str	r2, [fp, #-16]
  10496c:	e50b3014 	str	r3, [fp, #-20]	; 0xffffffec
  104970:	e51b3008 	ldr	r3, [fp, #-8]
  104974:	e3a02000 	mov	r2, #0
  104978:	e5832000 	str	r2, [r3]
  10497c:	e51b3008 	ldr	r3, [fp, #-8]
  104980:	e51b200c 	ldr	r2, [fp, #-12]
  104984:	e5832004 	str	r2, [r3, #4]
  104988:	e51b3008 	ldr	r3, [fp, #-8]
  10498c:	e51b2014 	ldr	r2, [fp, #-20]	; 0xffffffec
  104990:	e5832008 	str	r2, [r3, #8]
  104994:	e51b3008 	ldr	r3, [fp, #-8]
  104998:	e1db20b8 	ldrh	r2, [fp, #8]
  10499c:	e1c320bc 	strh	r2, [r3, #12]
  1049a0:	e51b3008 	ldr	r3, [fp, #-8]
  1049a4:	e3a02000 	mov	r2, #0
  1049a8:	e5c3200e 	strb	r2, [r3, #14]
  1049ac:	e51b3008 	ldr	r3, [fp, #-8]
  1049b0:	e5db200c 	ldrb	r2, [fp, #12]
  1049b4:	e5c3200f 	strb	r2, [r3, #15]
  1049b8:	e51b3008 	ldr	r3, [fp, #-8]
  1049bc:	e3a02000 	mov	r2, #0
  1049c0:	e1c321b0 	strh	r2, [r3, #16]
  1049c4:	e51b3008 	ldr	r3, [fp, #-8]
  1049c8:	e1db21b0 	ldrh	r2, [fp, #16]
  1049cc:	e1c321b2 	strh	r2, [r3, #18]
  1049d0:	e51b3008 	ldr	r3, [fp, #-8]
  1049d4:	e3a02000 	mov	r2, #0
  1049d8:	e5832014 	str	r2, [r3, #20]
  1049dc:	e51b3008 	ldr	r3, [fp, #-8]
  1049e0:	e51b2010 	ldr	r2, [fp, #-16]
  1049e4:	e5832018 	str	r2, [r3, #24]
  1049e8:	e59b3004 	ldr	r3, [fp, #4]
  1049ec:	e3832102 	orr	r2, r3, #-2147483648	; 0x80000000
  1049f0:	e51b3008 	ldr	r3, [fp, #-8]
  1049f4:	e583201c 	str	r2, [r3, #28]
  1049f8:	e3a03000 	mov	r3, #0
  1049fc:	e1a00003 	mov	r0, r3
  104a00:	e24bd000 	sub	sp, fp, #0
  104a04:	e49db004 	pop	{fp}		; (ldr fp, [sp], #4)
  104a08:	e12fff1e 	bx	lr

00104a0c <construct_extended_mm_to_st_descriptor>:
  104a0c:	e52db004 	push	{fp}		; (str fp, [sp, #-4]!)
  104a10:	e28db000 	add	fp, sp, #0
  104a14:	e24dd014 	sub	sp, sp, #20
  104a18:	e50b0008 	str	r0, [fp, #-8]
  104a1c:	e50b100c 	str	r1, [fp, #-12]
  104a20:	e50b2010 	str	r2, [fp, #-16]
  104a24:	e50b3014 	str	r3, [fp, #-20]	; 0xffffffec
  104a28:	e51b3008 	ldr	r3, [fp, #-8]
  104a2c:	e51b200c 	ldr	r2, [fp, #-12]
  104a30:	e5832000 	str	r2, [r3]
  104a34:	e51b3008 	ldr	r3, [fp, #-8]
  104a38:	e3a02000 	mov	r2, #0
  104a3c:	e5832004 	str	r2, [r3, #4]
  104a40:	e51b3008 	ldr	r3, [fp, #-8]
  104a44:	e51b2010 	ldr	r2, [fp, #-16]
  104a48:	e5832008 	str	r2, [r3, #8]
  104a4c:	e51b3008 	ldr	r3, [fp, #-8]
  104a50:	e1db20b4 	ldrh	r2, [fp, #4]
  104a54:	e1c320bc 	strh	r2, [r3, #12]
  104a58:	e51b3008 	ldr	r3, [fp, #-8]
  104a5c:	e5db2008 	ldrb	r2, [fp, #8]
  104a60:	e5c3200e 	strb	r2, [r3, #14]
  104a64:	e51b3008 	ldr	r3, [fp, #-8]
  104a68:	e3a02000 	mov	r2, #0
  104a6c:	e5c3200f 	strb	r2, [r3, #15]
  104a70:	e51b3008 	ldr	r3, [fp, #-8]
  104a74:	e1db20bc 	ldrh	r2, [fp, #12]
  104a78:	e1c321b0 	strh	r2, [r3, #16]
  104a7c:	e51b3008 	ldr	r3, [fp, #-8]
  104a80:	e3a02000 	mov	r2, #0
  104a84:	e1c321b2 	strh	r2, [r3, #18]
  104a88:	e51b3008 	ldr	r3, [fp, #-8]
  104a8c:	e3a02000 	mov	r2, #0
  104a90:	e5832014 	str	r2, [r3, #20]
  104a94:	e51b3008 	ldr	r3, [fp, #-8]
  104a98:	e3a02000 	mov	r2, #0
  104a9c:	e5832018 	str	r2, [r3, #24]
  104aa0:	e51b3014 	ldr	r3, [fp, #-20]	; 0xffffffec
  104aa4:	e3832102 	orr	r2, r3, #-2147483648	; 0x80000000
  104aa8:	e51b3008 	ldr	r3, [fp, #-8]
  104aac:	e583201c 	str	r2, [r3, #28]
  104ab0:	e3a03000 	mov	r3, #0
  104ab4:	e1a00003 	mov	r0, r3
  104ab8:	e24bd000 	sub	sp, fp, #0
  104abc:	e49db004 	pop	{fp}		; (ldr fp, [sp], #4)
  104ac0:	e12fff1e 	bx	lr

00104ac4 <construct_extended_mm_to_st_descriptor_64>:
  104ac4:	e52db004 	push	{fp}		; (str fp, [sp, #-4]!)
  104ac8:	e28db000 	add	fp, sp, #0
  104acc:	e24dd014 	sub	sp, sp, #20
  104ad0:	e50b0008 	str	r0, [fp, #-8]
  104ad4:	e50b100c 	str	r1, [fp, #-12]
  104ad8:	e50b2010 	str	r2, [fp, #-16]
  104adc:	e50b3014 	str	r3, [fp, #-20]	; 0xffffffec
  104ae0:	e51b3008 	ldr	r3, [fp, #-8]
  104ae4:	e51b200c 	ldr	r2, [fp, #-12]
  104ae8:	e5832000 	str	r2, [r3]
  104aec:	e51b3008 	ldr	r3, [fp, #-8]
  104af0:	e3a02000 	mov	r2, #0
  104af4:	e5832004 	str	r2, [r3, #4]
  104af8:	e51b3008 	ldr	r3, [fp, #-8]
  104afc:	e51b2014 	ldr	r2, [fp, #-20]	; 0xffffffec
  104b00:	e5832008 	str	r2, [r3, #8]
  104b04:	e51b3008 	ldr	r3, [fp, #-8]
  104b08:	e1db20b8 	ldrh	r2, [fp, #8]
  104b0c:	e1c320bc 	strh	r2, [r3, #12]
  104b10:	e51b3008 	ldr	r3, [fp, #-8]
  104b14:	e5db200c 	ldrb	r2, [fp, #12]
  104b18:	e5c3200e 	strb	r2, [r3, #14]
  104b1c:	e51b3008 	ldr	r3, [fp, #-8]
  104b20:	e3a02000 	mov	r2, #0
  104b24:	e5c3200f 	strb	r2, [r3, #15]
  104b28:	e51b3008 	ldr	r3, [fp, #-8]
  104b2c:	e1db21b0 	ldrh	r2, [fp, #16]
  104b30:	e1c321b0 	strh	r2, [r3, #16]
  104b34:	e51b3008 	ldr	r3, [fp, #-8]
  104b38:	e3a02000 	mov	r2, #0
  104b3c:	e1c321b2 	strh	r2, [r3, #18]
  104b40:	e51b3008 	ldr	r3, [fp, #-8]
  104b44:	e51b2010 	ldr	r2, [fp, #-16]
  104b48:	e5832014 	str	r2, [r3, #20]
  104b4c:	e51b3008 	ldr	r3, [fp, #-8]
  104b50:	e3a02000 	mov	r2, #0
  104b54:	e5832018 	str	r2, [r3, #24]
  104b58:	e59b3004 	ldr	r3, [fp, #4]
  104b5c:	e3832102 	orr	r2, r3, #-2147483648	; 0x80000000
  104b60:	e51b3008 	ldr	r3, [fp, #-8]
  104b64:	e583201c 	str	r2, [r3, #28]
  104b68:	e3a03000 	mov	r3, #0
  104b6c:	e1a00003 	mov	r0, r3
  104b70:	e24bd000 	sub	sp, fp, #0
  104b74:	e49db004 	pop	{fp}		; (ldr fp, [sp], #4)
  104b78:	e12fff1e 	bx	lr

00104b7c <construct_extended_mm_to_mm_descriptor>:
  104b7c:	e52db004 	push	{fp}		; (str fp, [sp, #-4]!)
  104b80:	e28db000 	add	fp, sp, #0
  104b84:	e24dd014 	sub	sp, sp, #20
  104b88:	e50b0008 	str	r0, [fp, #-8]
  104b8c:	e50b100c 	str	r1, [fp, #-12]
  104b90:	e50b2010 	str	r2, [fp, #-16]
  104b94:	e50b3014 	str	r3, [fp, #-20]	; 0xffffffec
  104b98:	e51b3008 	ldr	r3, [fp, #-8]
  104b9c:	e51b200c 	ldr	r2, [fp, #-12]
  104ba0:	e5832000 	str	r2, [r3]
  104ba4:	e51b3008 	ldr	r3, [fp, #-8]
  104ba8:	e51b2010 	ldr	r2, [fp, #-16]
  104bac:	e5832004 	str	r2, [r3, #4]
  104bb0:	e51b3008 	ldr	r3, [fp, #-8]
  104bb4:	e51b2014 	ldr	r2, [fp, #-20]	; 0xffffffec
  104bb8:	e5832008 	str	r2, [r3, #8]
  104bbc:	e51b3008 	ldr	r3, [fp, #-8]
  104bc0:	e1db20b8 	ldrh	r2, [fp, #8]
  104bc4:	e1c320bc 	strh	r2, [r3, #12]
  104bc8:	e51b3008 	ldr	r3, [fp, #-8]
  104bcc:	e5db200c 	ldrb	r2, [fp, #12]
  104bd0:	e5c3200e 	strb	r2, [r3, #14]
  104bd4:	e51b3008 	ldr	r3, [fp, #-8]
  104bd8:	e5db2010 	ldrb	r2, [fp, #16]
  104bdc:	e5c3200f 	strb	r2, [r3, #15]
  104be0:	e51b3008 	ldr	r3, [fp, #-8]
  104be4:	e1db21b4 	ldrh	r2, [fp, #20]
  104be8:	e1c321b0 	strh	r2, [r3, #16]
  104bec:	e51b3008 	ldr	r3, [fp, #-8]
  104bf0:	e1db21b8 	ldrh	r2, [fp, #24]
  104bf4:	e1c321b2 	strh	r2, [r3, #18]
  104bf8:	e51b3008 	ldr	r3, [fp, #-8]
  104bfc:	e3a02000 	mov	r2, #0
  104c00:	e5832014 	str	r2, [r3, #20]
  104c04:	e51b3008 	ldr	r3, [fp, #-8]
  104c08:	e3a02000 	mov	r2, #0
  104c0c:	e5832018 	str	r2, [r3, #24]
  104c10:	e59b3004 	ldr	r3, [fp, #4]
  104c14:	e3832102 	orr	r2, r3, #-2147483648	; 0x80000000
  104c18:	e51b3008 	ldr	r3, [fp, #-8]
  104c1c:	e583201c 	str	r2, [r3, #28]
  104c20:	e3a03000 	mov	r3, #0
  104c24:	e1a00003 	mov	r0, r3
  104c28:	e24bd000 	sub	sp, fp, #0
  104c2c:	e49db004 	pop	{fp}		; (ldr fp, [sp], #4)
  104c30:	e12fff1e 	bx	lr

00104c34 <construct_extended_mm_to_mm_descriptor_64>:
  104c34:	e52db004 	push	{fp}		; (str fp, [sp, #-4]!)
  104c38:	e28db000 	add	fp, sp, #0
  104c3c:	e24dd014 	sub	sp, sp, #20
  104c40:	e50b0008 	str	r0, [fp, #-8]
  104c44:	e50b100c 	str	r1, [fp, #-12]
  104c48:	e50b2010 	str	r2, [fp, #-16]
  104c4c:	e50b3014 	str	r3, [fp, #-20]	; 0xffffffec
  104c50:	e51b3008 	ldr	r3, [fp, #-8]
  104c54:	e51b200c 	ldr	r2, [fp, #-12]
  104c58:	e5832000 	str	r2, [r3]
  104c5c:	e51b3008 	ldr	r3, [fp, #-8]
  104c60:	e51b2014 	ldr	r2, [fp, #-20]	; 0xffffffec
  104c64:	e5832004 	str	r2, [r3, #4]
  104c68:	e51b3008 	ldr	r3, [fp, #-8]
  104c6c:	e59b2008 	ldr	r2, [fp, #8]
  104c70:	e5832008 	str	r2, [r3, #8]
  104c74:	e51b3008 	ldr	r3, [fp, #-8]
  104c78:	e1db21b0 	ldrh	r2, [fp, #16]
  104c7c:	e1c320bc 	strh	r2, [r3, #12]
  104c80:	e51b3008 	ldr	r3, [fp, #-8]
  104c84:	e5db2014 	ldrb	r2, [fp, #20]
  104c88:	e5c3200e 	strb	r2, [r3, #14]
  104c8c:	e51b3008 	ldr	r3, [fp, #-8]
  104c90:	e5db2018 	ldrb	r2, [fp, #24]
  104c94:	e5c3200f 	strb	r2, [r3, #15]
  104c98:	e51b3008 	ldr	r3, [fp, #-8]
  104c9c:	e1db21bc 	ldrh	r2, [fp, #28]
  104ca0:	e1c321b0 	strh	r2, [r3, #16]
  104ca4:	e51b3008 	ldr	r3, [fp, #-8]
  104ca8:	e1db22b0 	ldrh	r2, [fp, #32]
  104cac:	e1c321b2 	strh	r2, [r3, #18]
  104cb0:	e51b3008 	ldr	r3, [fp, #-8]
  104cb4:	e51b2010 	ldr	r2, [fp, #-16]
  104cb8:	e5832014 	str	r2, [r3, #20]
  104cbc:	e51b3008 	ldr	r3, [fp, #-8]
  104cc0:	e59b2004 	ldr	r2, [fp, #4]
  104cc4:	e5832018 	str	r2, [r3, #24]
  104cc8:	e59b300c 	ldr	r3, [fp, #12]
  104ccc:	e3832102 	orr	r2, r3, #-2147483648	; 0x80000000
  104cd0:	e51b3008 	ldr	r3, [fp, #-8]
  104cd4:	e583201c 	str	r2, [r3, #28]
  104cd8:	e3a03000 	mov	r3, #0
  104cdc:	e1a00003 	mov	r0, r3
  104ce0:	e24bd000 	sub	sp, fp, #0
  104ce4:	e49db004 	pop	{fp}		; (ldr fp, [sp], #4)
  104ce8:	e12fff1e 	bx	lr

00104cec <write_standard_descriptor>:
  104cec:	e52db004 	push	{fp}		; (str fp, [sp, #-4]!)
  104cf0:	e28db000 	add	fp, sp, #0
  104cf4:	e24dd014 	sub	sp, sp, #20
  104cf8:	e50b0008 	str	r0, [fp, #-8]
  104cfc:	e50b100c 	str	r1, [fp, #-12]
  104d00:	e50b2010 	str	r2, [fp, #-16]
  104d04:	e51b3008 	ldr	r3, [fp, #-8]
  104d08:	e5933000 	ldr	r3, [r3]
  104d0c:	e2033004 	and	r3, r3, #4
  104d10:	e3530000 	cmp	r3, #0
  104d14:	0a000001 	beq	104d20 <write_standard_descriptor+0x34>
  104d18:	e3e0301b 	mvn	r3, #27
  104d1c:	ea000016 	b	104d7c <write_standard_descriptor+0x90>
  104d20:	e51b300c 	ldr	r3, [fp, #-12]
  104d24:	e51b2010 	ldr	r2, [fp, #-16]
  104d28:	e5922000 	ldr	r2, [r2]
  104d2c:	e5832000 	str	r2, [r3]
  104d30:	e51b300c 	ldr	r3, [fp, #-12]
  104d34:	e2833004 	add	r3, r3, #4
  104d38:	e1a02003 	mov	r2, r3
  104d3c:	e51b3010 	ldr	r3, [fp, #-16]
  104d40:	e5933004 	ldr	r3, [r3, #4]
  104d44:	e5823000 	str	r3, [r2]
  104d48:	e51b300c 	ldr	r3, [fp, #-12]
  104d4c:	e2833008 	add	r3, r3, #8
  104d50:	e1a02003 	mov	r2, r3
  104d54:	e51b3010 	ldr	r3, [fp, #-16]
  104d58:	e5933008 	ldr	r3, [r3, #8]
  104d5c:	e5823000 	str	r3, [r2]
  104d60:	e51b300c 	ldr	r3, [fp, #-12]
  104d64:	e283300c 	add	r3, r3, #12
  104d68:	e1a02003 	mov	r2, r3
  104d6c:	e51b3010 	ldr	r3, [fp, #-16]
  104d70:	e593300c 	ldr	r3, [r3, #12]
  104d74:	e5823000 	str	r3, [r2]
  104d78:	e3a03000 	mov	r3, #0
  104d7c:	e1a00003 	mov	r0, r3
  104d80:	e24bd000 	sub	sp, fp, #0
  104d84:	e49db004 	pop	{fp}		; (ldr fp, [sp], #4)
  104d88:	e12fff1e 	bx	lr

00104d8c <write_extended_descriptor>:
  104d8c:	e52db004 	push	{fp}		; (str fp, [sp, #-4]!)
  104d90:	e28db000 	add	fp, sp, #0
  104d94:	e24dd014 	sub	sp, sp, #20
  104d98:	e50b0008 	str	r0, [fp, #-8]
  104d9c:	e50b100c 	str	r1, [fp, #-12]
  104da0:	e50b2010 	str	r2, [fp, #-16]
  104da4:	e51b3008 	ldr	r3, [fp, #-8]
  104da8:	e5933000 	ldr	r3, [r3]
  104dac:	e2033004 	and	r3, r3, #4
  104db0:	e3530000 	cmp	r3, #0
  104db4:	0a000001 	beq	104dc0 <write_extended_descriptor+0x34>
  104db8:	e3e0301b 	mvn	r3, #27
  104dbc:	ea000040 	b	104ec4 <write_extended_descriptor+0x138>
  104dc0:	e51b300c 	ldr	r3, [fp, #-12]
  104dc4:	e51b2010 	ldr	r2, [fp, #-16]
  104dc8:	e5922000 	ldr	r2, [r2]
  104dcc:	e5832000 	str	r2, [r3]
  104dd0:	e51b300c 	ldr	r3, [fp, #-12]
  104dd4:	e2833004 	add	r3, r3, #4
  104dd8:	e1a02003 	mov	r2, r3
  104ddc:	e51b3010 	ldr	r3, [fp, #-16]
  104de0:	e5933004 	ldr	r3, [r3, #4]
  104de4:	e5823000 	str	r3, [r2]
  104de8:	e51b300c 	ldr	r3, [fp, #-12]
  104dec:	e2833008 	add	r3, r3, #8
  104df0:	e1a02003 	mov	r2, r3
  104df4:	e51b3010 	ldr	r3, [fp, #-16]
  104df8:	e5933008 	ldr	r3, [r3, #8]
  104dfc:	e5823000 	str	r3, [r2]
  104e00:	e51b300c 	ldr	r3, [fp, #-12]
  104e04:	e283300c 	add	r3, r3, #12
  104e08:	e1a02003 	mov	r2, r3
  104e0c:	e51b3010 	ldr	r3, [fp, #-16]
  104e10:	e1d330bc 	ldrh	r3, [r3, #12]
  104e14:	e1c230b0 	strh	r3, [r2]
  104e18:	e51b300c 	ldr	r3, [fp, #-12]
  104e1c:	e283300e 	add	r3, r3, #14
  104e20:	e1a02003 	mov	r2, r3
  104e24:	e51b3010 	ldr	r3, [fp, #-16]
  104e28:	e5d3300e 	ldrb	r3, [r3, #14]
  104e2c:	e5c23000 	strb	r3, [r2]
  104e30:	e51b300c 	ldr	r3, [fp, #-12]
  104e34:	e283300f 	add	r3, r3, #15
  104e38:	e1a02003 	mov	r2, r3
  104e3c:	e51b3010 	ldr	r3, [fp, #-16]
  104e40:	e5d3300f 	ldrb	r3, [r3, #15]
  104e44:	e5c23000 	strb	r3, [r2]
  104e48:	e51b300c 	ldr	r3, [fp, #-12]
  104e4c:	e2833010 	add	r3, r3, #16
  104e50:	e1a02003 	mov	r2, r3
  104e54:	e51b3010 	ldr	r3, [fp, #-16]
  104e58:	e1d331b0 	ldrh	r3, [r3, #16]
  104e5c:	e1c230b0 	strh	r3, [r2]
  104e60:	e51b300c 	ldr	r3, [fp, #-12]
  104e64:	e2833012 	add	r3, r3, #18
  104e68:	e1a02003 	mov	r2, r3
  104e6c:	e51b3010 	ldr	r3, [fp, #-16]
  104e70:	e1d331b2 	ldrh	r3, [r3, #18]
  104e74:	e1c230b0 	strh	r3, [r2]
  104e78:	e51b300c 	ldr	r3, [fp, #-12]
  104e7c:	e2833014 	add	r3, r3, #20
  104e80:	e1a02003 	mov	r2, r3
  104e84:	e51b3010 	ldr	r3, [fp, #-16]
  104e88:	e5933014 	ldr	r3, [r3, #20]
  104e8c:	e5823000 	str	r3, [r2]
  104e90:	e51b300c 	ldr	r3, [fp, #-12]
  104e94:	e2833018 	add	r3, r3, #24
  104e98:	e1a02003 	mov	r2, r3
  104e9c:	e51b3010 	ldr	r3, [fp, #-16]
  104ea0:	e5933018 	ldr	r3, [r3, #24]
  104ea4:	e5823000 	str	r3, [r2]
  104ea8:	e51b300c 	ldr	r3, [fp, #-12]
  104eac:	e283301c 	add	r3, r3, #28
  104eb0:	e1a02003 	mov	r2, r3
  104eb4:	e51b3010 	ldr	r3, [fp, #-16]
  104eb8:	e593301c 	ldr	r3, [r3, #28]
  104ebc:	e5823000 	str	r3, [r2]
  104ec0:	e3a03000 	mov	r3, #0
  104ec4:	e1a00003 	mov	r0, r3
  104ec8:	e24bd000 	sub	sp, fp, #0
  104ecc:	e49db004 	pop	{fp}		; (ldr fp, [sp], #4)
  104ed0:	e12fff1e 	bx	lr

00104ed4 <read_mm_response>:
  104ed4:	e52db004 	push	{fp}		; (str fp, [sp, #-4]!)
  104ed8:	e28db000 	add	fp, sp, #0
  104edc:	e24dd01c 	sub	sp, sp, #28
  104ee0:	e50b0010 	str	r0, [fp, #-16]
  104ee4:	e50b1014 	str	r1, [fp, #-20]	; 0xffffffec
  104ee8:	e50b2018 	str	r2, [fp, #-24]	; 0xffffffe8
  104eec:	e51b3010 	ldr	r3, [fp, #-16]
  104ef0:	e5933000 	ldr	r3, [r3]
  104ef4:	e2033008 	and	r3, r3, #8
  104ef8:	e3530000 	cmp	r3, #0
  104efc:	0a000001 	beq	104f08 <read_mm_response+0x34>
  104f00:	e3e0303c 	mvn	r3, #60	; 0x3c
  104f04:	ea000013 	b	104f58 <read_mm_response+0x84>
  104f08:	e51b3014 	ldr	r3, [fp, #-20]	; 0xffffffec
  104f0c:	e5932000 	ldr	r2, [r3]
  104f10:	e51b3018 	ldr	r3, [fp, #-24]	; 0xffffffe8
  104f14:	e5832000 	str	r2, [r3]
  104f18:	e51b3014 	ldr	r3, [fp, #-20]	; 0xffffffec
  104f1c:	e2833004 	add	r3, r3, #4
  104f20:	e5933000 	ldr	r3, [r3]
  104f24:	e50b3008 	str	r3, [fp, #-8]
  104f28:	e51b3008 	ldr	r3, [fp, #-8]
  104f2c:	e6ef2073 	uxtb	r2, r3
  104f30:	e51b3018 	ldr	r3, [fp, #-24]	; 0xffffffe8
  104f34:	e5c32004 	strb	r2, [r3, #4]
  104f38:	e51b3008 	ldr	r3, [fp, #-8]
  104f3c:	e1a03423 	lsr	r3, r3, #8
  104f40:	e6ef3073 	uxtb	r3, r3
  104f44:	e2033001 	and	r3, r3, #1
  104f48:	e6ef2073 	uxtb	r2, r3
  104f4c:	e51b3018 	ldr	r3, [fp, #-24]	; 0xffffffe8
  104f50:	e5c32005 	strb	r2, [r3, #5]
  104f54:	e3a03000 	mov	r3, #0
  104f58:	e1a00003 	mov	r0, r3
  104f5c:	e24bd000 	sub	sp, fp, #0
  104f60:	e49db004 	pop	{fp}		; (ldr fp, [sp], #4)
  104f64:	e12fff1e 	bx	lr

00104f68 <read_csr_status>:
  104f68:	e52db004 	push	{fp}		; (str fp, [sp, #-4]!)
  104f6c:	e28db000 	add	fp, sp, #0
  104f70:	e24dd00c 	sub	sp, sp, #12
  104f74:	e50b0008 	str	r0, [fp, #-8]
  104f78:	e51b3008 	ldr	r3, [fp, #-8]
  104f7c:	e5933000 	ldr	r3, [r3]
  104f80:	e1a00003 	mov	r0, r3
  104f84:	e24bd000 	sub	sp, fp, #0
  104f88:	e49db004 	pop	{fp}		; (ldr fp, [sp], #4)
  104f8c:	e12fff1e 	bx	lr

00104f90 <read_csr_control>:
  104f90:	e52db004 	push	{fp}		; (str fp, [sp, #-4]!)
  104f94:	e28db000 	add	fp, sp, #0
  104f98:	e24dd00c 	sub	sp, sp, #12
  104f9c:	e50b0008 	str	r0, [fp, #-8]
  104fa0:	e51b3008 	ldr	r3, [fp, #-8]
  104fa4:	e2833004 	add	r3, r3, #4
  104fa8:	e5933000 	ldr	r3, [r3]
  104fac:	e1a00003 	mov	r0, r3
  104fb0:	e24bd000 	sub	sp, fp, #0
  104fb4:	e49db004 	pop	{fp}		; (ldr fp, [sp], #4)
  104fb8:	e12fff1e 	bx	lr

00104fbc <read_csr_read_descriptor_buffer_fill_level>:
  104fbc:	e52db004 	push	{fp}		; (str fp, [sp, #-4]!)
  104fc0:	e28db000 	add	fp, sp, #0
  104fc4:	e24dd00c 	sub	sp, sp, #12
  104fc8:	e50b0008 	str	r0, [fp, #-8]
  104fcc:	e51b3008 	ldr	r3, [fp, #-8]
  104fd0:	e2833008 	add	r3, r3, #8
  104fd4:	e5933000 	ldr	r3, [r3]
  104fd8:	e6ff3073 	uxth	r3, r3
  104fdc:	e1a00003 	mov	r0, r3
  104fe0:	e24bd000 	sub	sp, fp, #0
  104fe4:	e49db004 	pop	{fp}		; (ldr fp, [sp], #4)
  104fe8:	e12fff1e 	bx	lr

00104fec <read_csr_write_descriptor_buffer_fill_level>:
  104fec:	e52db004 	push	{fp}		; (str fp, [sp, #-4]!)
  104ff0:	e28db000 	add	fp, sp, #0
  104ff4:	e24dd00c 	sub	sp, sp, #12
  104ff8:	e50b0008 	str	r0, [fp, #-8]
  104ffc:	e51b3008 	ldr	r3, [fp, #-8]
  105000:	e2833008 	add	r3, r3, #8
  105004:	e5933000 	ldr	r3, [r3]
  105008:	e1a03823 	lsr	r3, r3, #16
  10500c:	e6ff3073 	uxth	r3, r3
  105010:	e1a00003 	mov	r0, r3
  105014:	e24bd000 	sub	sp, fp, #0
  105018:	e49db004 	pop	{fp}		; (ldr fp, [sp], #4)
  10501c:	e12fff1e 	bx	lr

00105020 <read_csr_response_buffer_fill_level>:
  105020:	e52db004 	push	{fp}		; (str fp, [sp, #-4]!)
  105024:	e28db000 	add	fp, sp, #0
  105028:	e24dd00c 	sub	sp, sp, #12
  10502c:	e50b0008 	str	r0, [fp, #-8]
  105030:	e51b3008 	ldr	r3, [fp, #-8]
  105034:	e283300c 	add	r3, r3, #12
  105038:	e5933000 	ldr	r3, [r3]
  10503c:	e6ff3073 	uxth	r3, r3
  105040:	e1a00003 	mov	r0, r3
  105044:	e24bd000 	sub	sp, fp, #0
  105048:	e49db004 	pop	{fp}		; (ldr fp, [sp], #4)
  10504c:	e12fff1e 	bx	lr

00105050 <read_csr_read_sequence_number>:
  105050:	e52db004 	push	{fp}		; (str fp, [sp, #-4]!)
  105054:	e28db000 	add	fp, sp, #0
  105058:	e24dd00c 	sub	sp, sp, #12
  10505c:	e50b0008 	str	r0, [fp, #-8]
  105060:	e51b3008 	ldr	r3, [fp, #-8]
  105064:	e2833010 	add	r3, r3, #16
  105068:	e5933000 	ldr	r3, [r3]
  10506c:	e6ff3073 	uxth	r3, r3
  105070:	e1a00003 	mov	r0, r3
  105074:	e24bd000 	sub	sp, fp, #0
  105078:	e49db004 	pop	{fp}		; (ldr fp, [sp], #4)
  10507c:	e12fff1e 	bx	lr

00105080 <read_csr_write_sequence_number>:
  105080:	e52db004 	push	{fp}		; (str fp, [sp, #-4]!)
  105084:	e28db000 	add	fp, sp, #0
  105088:	e24dd00c 	sub	sp, sp, #12
  10508c:	e50b0008 	str	r0, [fp, #-8]
  105090:	e51b3008 	ldr	r3, [fp, #-8]
  105094:	e2833010 	add	r3, r3, #16
  105098:	e5933000 	ldr	r3, [r3]
  10509c:	e1a03823 	lsr	r3, r3, #16
  1050a0:	e6ff3073 	uxth	r3, r3
  1050a4:	e1a00003 	mov	r0, r3
  1050a8:	e24bd000 	sub	sp, fp, #0
  1050ac:	e49db004 	pop	{fp}		; (ldr fp, [sp], #4)
  1050b0:	e12fff1e 	bx	lr

001050b4 <read_busy>:
  1050b4:	e52db004 	push	{fp}		; (str fp, [sp, #-4]!)
  1050b8:	e28db000 	add	fp, sp, #0
  1050bc:	e24dd00c 	sub	sp, sp, #12
  1050c0:	e50b0008 	str	r0, [fp, #-8]
  1050c4:	e51b3008 	ldr	r3, [fp, #-8]
  1050c8:	e5933000 	ldr	r3, [r3]
  1050cc:	e2033001 	and	r3, r3, #1
  1050d0:	e3530000 	cmp	r3, #0
  1050d4:	13a03001 	movne	r3, #1
  1050d8:	03a03000 	moveq	r3, #0
  1050dc:	e6ef3073 	uxtb	r3, r3
  1050e0:	e1a00003 	mov	r0, r3
  1050e4:	e24bd000 	sub	sp, fp, #0
  1050e8:	e49db004 	pop	{fp}		; (ldr fp, [sp], #4)
  1050ec:	e12fff1e 	bx	lr

001050f0 <read_descriptor_buffer_empty>:
  1050f0:	e52db004 	push	{fp}		; (str fp, [sp, #-4]!)
  1050f4:	e28db000 	add	fp, sp, #0
  1050f8:	e24dd00c 	sub	sp, sp, #12
  1050fc:	e50b0008 	str	r0, [fp, #-8]
  105100:	e51b3008 	ldr	r3, [fp, #-8]
  105104:	e5933000 	ldr	r3, [r3]
  105108:	e2033002 	and	r3, r3, #2
  10510c:	e3530000 	cmp	r3, #0
  105110:	13a03001 	movne	r3, #1
  105114:	03a03000 	moveq	r3, #0
  105118:	e6ef3073 	uxtb	r3, r3
  10511c:	e1a00003 	mov	r0, r3
  105120:	e24bd000 	sub	sp, fp, #0
  105124:	e49db004 	pop	{fp}		; (ldr fp, [sp], #4)
  105128:	e12fff1e 	bx	lr

0010512c <read_descriptor_buffer_full>:
  10512c:	e52db004 	push	{fp}		; (str fp, [sp, #-4]!)
  105130:	e28db000 	add	fp, sp, #0
  105134:	e24dd00c 	sub	sp, sp, #12
  105138:	e50b0008 	str	r0, [fp, #-8]
  10513c:	e51b3008 	ldr	r3, [fp, #-8]
  105140:	e5933000 	ldr	r3, [r3]
  105144:	e2033004 	and	r3, r3, #4
  105148:	e3530000 	cmp	r3, #0
  10514c:	13a03001 	movne	r3, #1
  105150:	03a03000 	moveq	r3, #0
  105154:	e6ef3073 	uxtb	r3, r3
  105158:	e1a00003 	mov	r0, r3
  10515c:	e24bd000 	sub	sp, fp, #0
  105160:	e49db004 	pop	{fp}		; (ldr fp, [sp], #4)
  105164:	e12fff1e 	bx	lr

00105168 <read_response_buffer_empty>:
  105168:	e52db004 	push	{fp}		; (str fp, [sp, #-4]!)
  10516c:	e28db000 	add	fp, sp, #0
  105170:	e24dd00c 	sub	sp, sp, #12
  105174:	e50b0008 	str	r0, [fp, #-8]
  105178:	e51b3008 	ldr	r3, [fp, #-8]
  10517c:	e5933000 	ldr	r3, [r3]
  105180:	e2033008 	and	r3, r3, #8
  105184:	e3530000 	cmp	r3, #0
  105188:	13a03001 	movne	r3, #1
  10518c:	03a03000 	moveq	r3, #0
  105190:	e6ef3073 	uxtb	r3, r3
  105194:	e1a00003 	mov	r0, r3
  105198:	e24bd000 	sub	sp, fp, #0
  10519c:	e49db004 	pop	{fp}		; (ldr fp, [sp], #4)
  1051a0:	e12fff1e 	bx	lr

001051a4 <read_response_buffer_full>:
  1051a4:	e52db004 	push	{fp}		; (str fp, [sp, #-4]!)
  1051a8:	e28db000 	add	fp, sp, #0
  1051ac:	e24dd00c 	sub	sp, sp, #12
  1051b0:	e50b0008 	str	r0, [fp, #-8]
  1051b4:	e51b3008 	ldr	r3, [fp, #-8]
  1051b8:	e5933000 	ldr	r3, [r3]
  1051bc:	e2033010 	and	r3, r3, #16
  1051c0:	e3530000 	cmp	r3, #0
  1051c4:	13a03001 	movne	r3, #1
  1051c8:	03a03000 	moveq	r3, #0
  1051cc:	e6ef3073 	uxtb	r3, r3
  1051d0:	e1a00003 	mov	r0, r3
  1051d4:	e24bd000 	sub	sp, fp, #0
  1051d8:	e49db004 	pop	{fp}		; (ldr fp, [sp], #4)
  1051dc:	e12fff1e 	bx	lr

001051e0 <read_stopped>:
  1051e0:	e52db004 	push	{fp}		; (str fp, [sp, #-4]!)
  1051e4:	e28db000 	add	fp, sp, #0
  1051e8:	e24dd00c 	sub	sp, sp, #12
  1051ec:	e50b0008 	str	r0, [fp, #-8]
  1051f0:	e51b3008 	ldr	r3, [fp, #-8]
  1051f4:	e5933000 	ldr	r3, [r3]
  1051f8:	e2033020 	and	r3, r3, #32
  1051fc:	e3530000 	cmp	r3, #0
  105200:	13a03001 	movne	r3, #1
  105204:	03a03000 	moveq	r3, #0
  105208:	e6ef3073 	uxtb	r3, r3
  10520c:	e1a00003 	mov	r0, r3
  105210:	e24bd000 	sub	sp, fp, #0
  105214:	e49db004 	pop	{fp}		; (ldr fp, [sp], #4)
  105218:	e12fff1e 	bx	lr

0010521c <read_resetting>:
  10521c:	e52db004 	push	{fp}		; (str fp, [sp, #-4]!)
  105220:	e28db000 	add	fp, sp, #0
  105224:	e24dd00c 	sub	sp, sp, #12
  105228:	e50b0008 	str	r0, [fp, #-8]
  10522c:	e51b3008 	ldr	r3, [fp, #-8]
  105230:	e5933000 	ldr	r3, [r3]
  105234:	e2033040 	and	r3, r3, #64	; 0x40
  105238:	e3530000 	cmp	r3, #0
  10523c:	13a03001 	movne	r3, #1
  105240:	03a03000 	moveq	r3, #0
  105244:	e6ef3073 	uxtb	r3, r3
  105248:	e1a00003 	mov	r0, r3
  10524c:	e24bd000 	sub	sp, fp, #0
  105250:	e49db004 	pop	{fp}		; (ldr fp, [sp], #4)
  105254:	e12fff1e 	bx	lr

00105258 <read_stopped_on_error>:
  105258:	e52db004 	push	{fp}		; (str fp, [sp, #-4]!)
  10525c:	e28db000 	add	fp, sp, #0
  105260:	e24dd00c 	sub	sp, sp, #12
  105264:	e50b0008 	str	r0, [fp, #-8]
  105268:	e51b3008 	ldr	r3, [fp, #-8]
  10526c:	e5933000 	ldr	r3, [r3]
  105270:	e2033080 	and	r3, r3, #128	; 0x80
  105274:	e3530000 	cmp	r3, #0
  105278:	13a03001 	movne	r3, #1
  10527c:	03a03000 	moveq	r3, #0
  105280:	e6ef3073 	uxtb	r3, r3
  105284:	e1a00003 	mov	r0, r3
  105288:	e24bd000 	sub	sp, fp, #0
  10528c:	e49db004 	pop	{fp}		; (ldr fp, [sp], #4)
  105290:	e12fff1e 	bx	lr

00105294 <read_stopped_on_early_termination>:
  105294:	e52db004 	push	{fp}		; (str fp, [sp, #-4]!)
  105298:	e28db000 	add	fp, sp, #0
  10529c:	e24dd00c 	sub	sp, sp, #12
  1052a0:	e50b0008 	str	r0, [fp, #-8]
  1052a4:	e51b3008 	ldr	r3, [fp, #-8]
  1052a8:	e5933000 	ldr	r3, [r3]
  1052ac:	e2033c01 	and	r3, r3, #256	; 0x100
  1052b0:	e3530000 	cmp	r3, #0
  1052b4:	13a03001 	movne	r3, #1
  1052b8:	03a03000 	moveq	r3, #0
  1052bc:	e6ef3073 	uxtb	r3, r3
  1052c0:	e1a00003 	mov	r0, r3
  1052c4:	e24bd000 	sub	sp, fp, #0
  1052c8:	e49db004 	pop	{fp}		; (ldr fp, [sp], #4)
  1052cc:	e12fff1e 	bx	lr

001052d0 <read_irq>:
  1052d0:	e52db004 	push	{fp}		; (str fp, [sp, #-4]!)
  1052d4:	e28db000 	add	fp, sp, #0
  1052d8:	e24dd00c 	sub	sp, sp, #12
  1052dc:	e50b0008 	str	r0, [fp, #-8]
  1052e0:	e51b3008 	ldr	r3, [fp, #-8]
  1052e4:	e5933000 	ldr	r3, [r3]
  1052e8:	e2033c02 	and	r3, r3, #512	; 0x200
  1052ec:	e3530000 	cmp	r3, #0
  1052f0:	13a03001 	movne	r3, #1
  1052f4:	03a03000 	moveq	r3, #0
  1052f8:	e6ef3073 	uxtb	r3, r3
  1052fc:	e1a00003 	mov	r0, r3
  105300:	e24bd000 	sub	sp, fp, #0
  105304:	e49db004 	pop	{fp}		; (ldr fp, [sp], #4)
  105308:	e12fff1e 	bx	lr

0010530c <clear_irq>:
  10530c:	e52db004 	push	{fp}		; (str fp, [sp, #-4]!)
  105310:	e28db000 	add	fp, sp, #0
  105314:	e24dd00c 	sub	sp, sp, #12
  105318:	e50b0008 	str	r0, [fp, #-8]
  10531c:	e51b3008 	ldr	r3, [fp, #-8]
  105320:	e3a02c02 	mov	r2, #512	; 0x200
  105324:	e5832000 	str	r2, [r3]
  105328:	e320f000 	nop	{0}
  10532c:	e24bd000 	sub	sp, fp, #0
  105330:	e49db004 	pop	{fp}		; (ldr fp, [sp], #4)
  105334:	e12fff1e 	bx	lr

00105338 <stop_dispatcher>:
  105338:	e52db004 	push	{fp}		; (str fp, [sp, #-4]!)
  10533c:	e28db000 	add	fp, sp, #0
  105340:	e24dd014 	sub	sp, sp, #20
  105344:	e50b0010 	str	r0, [fp, #-16]
  105348:	e51b3010 	ldr	r3, [fp, #-16]
  10534c:	e2833004 	add	r3, r3, #4
  105350:	e5933000 	ldr	r3, [r3]
  105354:	e3833001 	orr	r3, r3, #1
  105358:	e50b3008 	str	r3, [fp, #-8]
  10535c:	e51b3010 	ldr	r3, [fp, #-16]
  105360:	e2833004 	add	r3, r3, #4
  105364:	e1a02003 	mov	r2, r3
  105368:	e51b3008 	ldr	r3, [fp, #-8]
  10536c:	e5823000 	str	r3, [r2]
  105370:	e320f000 	nop	{0}
  105374:	e24bd000 	sub	sp, fp, #0
  105378:	e49db004 	pop	{fp}		; (ldr fp, [sp], #4)
  10537c:	e12fff1e 	bx	lr

00105380 <start_dispatcher>:
  105380:	e52db004 	push	{fp}		; (str fp, [sp, #-4]!)
  105384:	e28db000 	add	fp, sp, #0
  105388:	e24dd014 	sub	sp, sp, #20
  10538c:	e50b0010 	str	r0, [fp, #-16]
  105390:	e51b3010 	ldr	r3, [fp, #-16]
  105394:	e2833004 	add	r3, r3, #4
  105398:	e5933000 	ldr	r3, [r3]
  10539c:	e3c33001 	bic	r3, r3, #1
  1053a0:	e50b3008 	str	r3, [fp, #-8]
  1053a4:	e51b3010 	ldr	r3, [fp, #-16]
  1053a8:	e2833004 	add	r3, r3, #4
  1053ac:	e1a02003 	mov	r2, r3
  1053b0:	e51b3008 	ldr	r3, [fp, #-8]
  1053b4:	e5823000 	str	r3, [r2]
  1053b8:	e320f000 	nop	{0}
  1053bc:	e24bd000 	sub	sp, fp, #0
  1053c0:	e49db004 	pop	{fp}		; (ldr fp, [sp], #4)
  1053c4:	e12fff1e 	bx	lr

001053c8 <reset_dispatcher>:
  1053c8:	e52db004 	push	{fp}		; (str fp, [sp, #-4]!)
  1053cc:	e28db000 	add	fp, sp, #0
  1053d0:	e24dd00c 	sub	sp, sp, #12
  1053d4:	e50b0008 	str	r0, [fp, #-8]
  1053d8:	e51b3008 	ldr	r3, [fp, #-8]
  1053dc:	e2833004 	add	r3, r3, #4
  1053e0:	e1a02003 	mov	r2, r3
  1053e4:	e3a03002 	mov	r3, #2
  1053e8:	e5823000 	str	r3, [r2]
  1053ec:	e320f000 	nop	{0}
  1053f0:	e24bd000 	sub	sp, fp, #0
  1053f4:	e49db004 	pop	{fp}		; (ldr fp, [sp], #4)
  1053f8:	e12fff1e 	bx	lr

001053fc <enable_stop_on_error>:
  1053fc:	e52db004 	push	{fp}		; (str fp, [sp, #-4]!)
  105400:	e28db000 	add	fp, sp, #0
  105404:	e24dd014 	sub	sp, sp, #20
  105408:	e50b0010 	str	r0, [fp, #-16]
  10540c:	e51b3010 	ldr	r3, [fp, #-16]
  105410:	e2833004 	add	r3, r3, #4
  105414:	e5933000 	ldr	r3, [r3]
  105418:	e3833004 	orr	r3, r3, #4
  10541c:	e50b3008 	str	r3, [fp, #-8]
  105420:	e51b3010 	ldr	r3, [fp, #-16]
  105424:	e2833004 	add	r3, r3, #4
  105428:	e1a02003 	mov	r2, r3
  10542c:	e51b3008 	ldr	r3, [fp, #-8]
  105430:	e5823000 	str	r3, [r2]
  105434:	e320f000 	nop	{0}
  105438:	e24bd000 	sub	sp, fp, #0
  10543c:	e49db004 	pop	{fp}		; (ldr fp, [sp], #4)
  105440:	e12fff1e 	bx	lr

00105444 <disable_stop_on_error>:
  105444:	e52db004 	push	{fp}		; (str fp, [sp, #-4]!)
  105448:	e28db000 	add	fp, sp, #0
  10544c:	e24dd014 	sub	sp, sp, #20
  105450:	e50b0010 	str	r0, [fp, #-16]
  105454:	e51b3010 	ldr	r3, [fp, #-16]
  105458:	e2833004 	add	r3, r3, #4
  10545c:	e5933000 	ldr	r3, [r3]
  105460:	e3c33004 	bic	r3, r3, #4
  105464:	e50b3008 	str	r3, [fp, #-8]
  105468:	e51b3010 	ldr	r3, [fp, #-16]
  10546c:	e2833004 	add	r3, r3, #4
  105470:	e1a02003 	mov	r2, r3
  105474:	e51b3008 	ldr	r3, [fp, #-8]
  105478:	e5823000 	str	r3, [r2]
  10547c:	e320f000 	nop	{0}
  105480:	e24bd000 	sub	sp, fp, #0
  105484:	e49db004 	pop	{fp}		; (ldr fp, [sp], #4)
  105488:	e12fff1e 	bx	lr

0010548c <enable_stop_on_early_termination>:
  10548c:	e52db004 	push	{fp}		; (str fp, [sp, #-4]!)
  105490:	e28db000 	add	fp, sp, #0
  105494:	e24dd014 	sub	sp, sp, #20
  105498:	e50b0010 	str	r0, [fp, #-16]
  10549c:	e51b3010 	ldr	r3, [fp, #-16]
  1054a0:	e2833004 	add	r3, r3, #4
  1054a4:	e5933000 	ldr	r3, [r3]
  1054a8:	e3833008 	orr	r3, r3, #8
  1054ac:	e50b3008 	str	r3, [fp, #-8]
  1054b0:	e51b3010 	ldr	r3, [fp, #-16]
  1054b4:	e2833004 	add	r3, r3, #4
  1054b8:	e1a02003 	mov	r2, r3
  1054bc:	e51b3008 	ldr	r3, [fp, #-8]
  1054c0:	e5823000 	str	r3, [r2]
  1054c4:	e320f000 	nop	{0}
  1054c8:	e24bd000 	sub	sp, fp, #0
  1054cc:	e49db004 	pop	{fp}		; (ldr fp, [sp], #4)
  1054d0:	e12fff1e 	bx	lr

001054d4 <disable_stop_on_early_termination>:
  1054d4:	e52db004 	push	{fp}		; (str fp, [sp, #-4]!)
  1054d8:	e28db000 	add	fp, sp, #0
  1054dc:	e24dd014 	sub	sp, sp, #20
  1054e0:	e50b0010 	str	r0, [fp, #-16]
  1054e4:	e51b3010 	ldr	r3, [fp, #-16]
  1054e8:	e2833004 	add	r3, r3, #4
  1054ec:	e5933000 	ldr	r3, [r3]
  1054f0:	e3c33008 	bic	r3, r3, #8
  1054f4:	e50b3008 	str	r3, [fp, #-8]
  1054f8:	e51b3010 	ldr	r3, [fp, #-16]
  1054fc:	e2833004 	add	r3, r3, #4
  105500:	e1a02003 	mov	r2, r3
  105504:	e51b3008 	ldr	r3, [fp, #-8]
  105508:	e5823000 	str	r3, [r2]
  10550c:	e320f000 	nop	{0}
  105510:	e24bd000 	sub	sp, fp, #0
  105514:	e49db004 	pop	{fp}		; (ldr fp, [sp], #4)
  105518:	e12fff1e 	bx	lr

0010551c <enable_global_interrupt_mask>:
  10551c:	e52db004 	push	{fp}		; (str fp, [sp, #-4]!)
  105520:	e28db000 	add	fp, sp, #0
  105524:	e24dd014 	sub	sp, sp, #20
  105528:	e50b0010 	str	r0, [fp, #-16]
  10552c:	e51b3010 	ldr	r3, [fp, #-16]
  105530:	e2833004 	add	r3, r3, #4
  105534:	e5933000 	ldr	r3, [r3]
  105538:	e3833010 	orr	r3, r3, #16
  10553c:	e50b3008 	str	r3, [fp, #-8]
  105540:	e51b3010 	ldr	r3, [fp, #-16]
  105544:	e2833004 	add	r3, r3, #4
  105548:	e1a02003 	mov	r2, r3
  10554c:	e51b3008 	ldr	r3, [fp, #-8]
  105550:	e5823000 	str	r3, [r2]
  105554:	e320f000 	nop	{0}
  105558:	e24bd000 	sub	sp, fp, #0
  10555c:	e49db004 	pop	{fp}		; (ldr fp, [sp], #4)
  105560:	e12fff1e 	bx	lr

00105564 <disable_global_interrupt_mask>:
  105564:	e52db004 	push	{fp}		; (str fp, [sp, #-4]!)
  105568:	e28db000 	add	fp, sp, #0
  10556c:	e24dd014 	sub	sp, sp, #20
  105570:	e50b0010 	str	r0, [fp, #-16]
  105574:	e51b3010 	ldr	r3, [fp, #-16]
  105578:	e2833004 	add	r3, r3, #4
  10557c:	e5933000 	ldr	r3, [r3]
  105580:	e3c33010 	bic	r3, r3, #16
  105584:	e50b3008 	str	r3, [fp, #-8]
  105588:	e51b3010 	ldr	r3, [fp, #-16]
  10558c:	e2833004 	add	r3, r3, #4
  105590:	e1a02003 	mov	r2, r3
  105594:	e51b3008 	ldr	r3, [fp, #-8]
  105598:	e5823000 	str	r3, [r2]
  10559c:	e320f000 	nop	{0}
  1055a0:	e24bd000 	sub	sp, fp, #0
  1055a4:	e49db004 	pop	{fp}		; (ldr fp, [sp], #4)
  1055a8:	e12fff1e 	bx	lr

001055ac <stop_descriptors>:
  1055ac:	e52db004 	push	{fp}		; (str fp, [sp, #-4]!)
  1055b0:	e28db000 	add	fp, sp, #0
  1055b4:	e24dd014 	sub	sp, sp, #20
  1055b8:	e50b0010 	str	r0, [fp, #-16]
  1055bc:	e51b3010 	ldr	r3, [fp, #-16]
  1055c0:	e2833004 	add	r3, r3, #4
  1055c4:	e5933000 	ldr	r3, [r3]
  1055c8:	e3833020 	orr	r3, r3, #32
  1055cc:	e50b3008 	str	r3, [fp, #-8]
  1055d0:	e51b3010 	ldr	r3, [fp, #-16]
  1055d4:	e2833004 	add	r3, r3, #4
  1055d8:	e1a02003 	mov	r2, r3
  1055dc:	e51b3008 	ldr	r3, [fp, #-8]
  1055e0:	e5823000 	str	r3, [r2]
  1055e4:	e320f000 	nop	{0}
  1055e8:	e24bd000 	sub	sp, fp, #0
  1055ec:	e49db004 	pop	{fp}		; (ldr fp, [sp], #4)
  1055f0:	e12fff1e 	bx	lr

001055f4 <start_descriptors>:
  1055f4:	e52db004 	push	{fp}		; (str fp, [sp, #-4]!)
  1055f8:	e28db000 	add	fp, sp, #0
  1055fc:	e24dd014 	sub	sp, sp, #20
  105600:	e50b0010 	str	r0, [fp, #-16]
  105604:	e51b3010 	ldr	r3, [fp, #-16]
  105608:	e2833004 	add	r3, r3, #4
  10560c:	e5933000 	ldr	r3, [r3]
  105610:	e3c33020 	bic	r3, r3, #32
  105614:	e50b3008 	str	r3, [fp, #-8]
  105618:	e51b3010 	ldr	r3, [fp, #-16]
  10561c:	e2833004 	add	r3, r3, #4
  105620:	e1a02003 	mov	r2, r3
  105624:	e51b3008 	ldr	r3, [fp, #-8]
  105628:	e5823000 	str	r3, [r2]
  10562c:	e320f000 	nop	{0}
  105630:	e24bd000 	sub	sp, fp, #0
  105634:	e49db004 	pop	{fp}		; (ldr fp, [sp], #4)
  105638:	e12fff1e 	bx	lr

0010563c <alt_reset_event_get>:
  10563c:	e52db004 	push	{fp}		; (str fp, [sp, #-4]!)
  105640:	e28db000 	add	fp, sp, #0
  105644:	e3a03a05 	mov	r3, #20480	; 0x5000
  105648:	e34f3fd0 	movt	r3, #65488	; 0xffd0
  10564c:	e5933000 	ldr	r3, [r3]
  105650:	e1a00003 	mov	r0, r3
  105654:	e24bd000 	sub	sp, fp, #0
  105658:	e49db004 	pop	{fp}		; (ldr fp, [sp], #4)
  10565c:	e12fff1e 	bx	lr

00105660 <alt_reset_event_clear>:
  105660:	e52db004 	push	{fp}		; (str fp, [sp, #-4]!)
  105664:	e28db000 	add	fp, sp, #0
  105668:	e24dd00c 	sub	sp, sp, #12
  10566c:	e50b0008 	str	r0, [fp, #-8]
  105670:	e3a03a05 	mov	r3, #20480	; 0x5000
  105674:	e34f3fd0 	movt	r3, #65488	; 0xffd0
  105678:	e51b2008 	ldr	r2, [fp, #-8]
  10567c:	e5832000 	str	r2, [r3]
  105680:	e3a03000 	mov	r3, #0
  105684:	e1a00003 	mov	r0, r3
  105688:	e24bd000 	sub	sp, fp, #0
  10568c:	e49db004 	pop	{fp}		; (ldr fp, [sp], #4)
  105690:	e12fff1e 	bx	lr

00105694 <alt_reset_cold_reset>:
  105694:	e52db004 	push	{fp}		; (str fp, [sp, #-4]!)
  105698:	e28db000 	add	fp, sp, #0
  10569c:	e3053004 	movw	r3, #20484	; 0x5004
  1056a0:	e34f3fd0 	movt	r3, #65488	; 0xffd0
  1056a4:	e3a02001 	mov	r2, #1
  1056a8:	e5832000 	str	r2, [r3]
  1056ac:	e3a03000 	mov	r3, #0
  1056b0:	e1a00003 	mov	r0, r3
  1056b4:	e24bd000 	sub	sp, fp, #0
  1056b8:	e49db004 	pop	{fp}		; (ldr fp, [sp], #4)
  1056bc:	e12fff1e 	bx	lr

001056c0 <alt_reset_warm_reset>:
  1056c0:	e52db004 	push	{fp}		; (str fp, [sp, #-4]!)
  1056c4:	e28db000 	add	fp, sp, #0
  1056c8:	e24dd01c 	sub	sp, sp, #28
  1056cc:	e50b0010 	str	r0, [fp, #-16]
  1056d0:	e50b1014 	str	r1, [fp, #-20]	; 0xffffffec
  1056d4:	e1a01002 	mov	r1, r2
  1056d8:	e1a02003 	mov	r2, r3
  1056dc:	e1a03001 	mov	r3, r1
  1056e0:	e54b3015 	strb	r3, [fp, #-21]	; 0xffffffeb
  1056e4:	e1a03002 	mov	r3, r2
  1056e8:	e54b3016 	strb	r3, [fp, #-22]	; 0xffffffea
  1056ec:	e3a03002 	mov	r3, #2
  1056f0:	e50b3008 	str	r3, [fp, #-8]
  1056f4:	e3a03000 	mov	r3, #0
  1056f8:	e50b300c 	str	r3, [fp, #-12]
  1056fc:	e51b3010 	ldr	r3, [fp, #-16]
  105700:	e353000f 	cmp	r3, #15
  105704:	9a000002 	bls	105714 <alt_reset_warm_reset+0x54>
  105708:	e51b3010 	ldr	r3, [fp, #-16]
  10570c:	e35300ff 	cmp	r3, #255	; 0xff
  105710:	9a000001 	bls	10571c <alt_reset_warm_reset+0x5c>
  105714:	e3e03008 	mvn	r3, #8
  105718:	ea00003c 	b	105810 <alt_reset_warm_reset+0x150>
  10571c:	e51b3014 	ldr	r3, [fp, #-20]	; 0xffffffec
  105720:	e3530000 	cmp	r3, #0
  105724:	1a000001 	bne	105730 <alt_reset_warm_reset+0x70>
  105728:	e3e03000 	mvn	r3, #0
  10572c:	ea000037 	b	105810 <alt_reset_warm_reset+0x150>
  105730:	e51b3014 	ldr	r3, [fp, #-20]	; 0xffffffec
  105734:	e3530601 	cmp	r3, #1048576	; 0x100000
  105738:	3a000001 	bcc	105744 <alt_reset_warm_reset+0x84>
  10573c:	e3e03008 	mvn	r3, #8
  105740:	ea000032 	b	105810 <alt_reset_warm_reset+0x150>
  105744:	e51b3010 	ldr	r3, [fp, #-16]
  105748:	e6ef3073 	uxtb	r3, r3
  10574c:	e51b200c 	ldr	r2, [fp, #-12]
  105750:	e1823003 	orr	r3, r2, r3
  105754:	e50b300c 	str	r3, [fp, #-12]
  105758:	e51b3014 	ldr	r3, [fp, #-20]	; 0xffffffec
  10575c:	e1a03403 	lsl	r3, r3, #8
  105760:	e3c3320f 	bic	r3, r3, #-268435456	; 0xf0000000
  105764:	e3c330ff 	bic	r3, r3, #255	; 0xff
  105768:	e51b200c 	ldr	r2, [fp, #-12]
  10576c:	e1823003 	orr	r3, r2, r3
  105770:	e50b300c 	str	r3, [fp, #-12]
  105774:	e55b3015 	ldrb	r3, [fp, #-21]	; 0xffffffeb
  105778:	e3530000 	cmp	r3, #0
  10577c:	0a000002 	beq	10578c <alt_reset_warm_reset+0xcc>
  105780:	e51b3008 	ldr	r3, [fp, #-8]
  105784:	e3833010 	orr	r3, r3, #16
  105788:	e50b3008 	str	r3, [fp, #-8]
  10578c:	e55b3016 	ldrb	r3, [fp, #-22]	; 0xffffffea
  105790:	e3530000 	cmp	r3, #0
  105794:	0a000002 	beq	1057a4 <alt_reset_warm_reset+0xe4>
  105798:	e51b3008 	ldr	r3, [fp, #-8]
  10579c:	e3833c01 	orr	r3, r3, #256	; 0x100
  1057a0:	e50b3008 	str	r3, [fp, #-8]
  1057a4:	e5db3004 	ldrb	r3, [fp, #4]
  1057a8:	e3530000 	cmp	r3, #0
  1057ac:	0a000002 	beq	1057bc <alt_reset_warm_reset+0xfc>
  1057b0:	e51b3008 	ldr	r3, [fp, #-8]
  1057b4:	e3833a01 	orr	r3, r3, #4096	; 0x1000
  1057b8:	e50b3008 	str	r3, [fp, #-8]
  1057bc:	e5db3008 	ldrb	r3, [fp, #8]
  1057c0:	e3530000 	cmp	r3, #0
  1057c4:	0a000002 	beq	1057d4 <alt_reset_warm_reset+0x114>
  1057c8:	e51b3008 	ldr	r3, [fp, #-8]
  1057cc:	e3833801 	orr	r3, r3, #65536	; 0x10000
  1057d0:	e50b3008 	str	r3, [fp, #-8]
  1057d4:	e5db300c 	ldrb	r3, [fp, #12]
  1057d8:	e3530000 	cmp	r3, #0
  1057dc:	0a000002 	beq	1057ec <alt_reset_warm_reset+0x12c>
  1057e0:	e51b3008 	ldr	r3, [fp, #-8]
  1057e4:	e3833601 	orr	r3, r3, #1048576	; 0x100000
  1057e8:	e50b3008 	str	r3, [fp, #-8]
  1057ec:	e3053008 	movw	r3, #20488	; 0x5008
  1057f0:	e34f3fd0 	movt	r3, #65488	; 0xffd0
  1057f4:	e51b200c 	ldr	r2, [fp, #-12]
  1057f8:	e5832000 	str	r2, [r3]
  1057fc:	e3053004 	movw	r3, #20484	; 0x5004
  105800:	e34f3fd0 	movt	r3, #65488	; 0xffd0
  105804:	e51b2008 	ldr	r2, [fp, #-8]
  105808:	e5832000 	str	r2, [r3]
  10580c:	e3a03000 	mov	r3, #0
  105810:	e1a00003 	mov	r0, r3
  105814:	e24bd000 	sub	sp, fp, #0
  105818:	e49db004 	pop	{fp}		; (ldr fp, [sp], #4)
  10581c:	e12fff1e 	bx	lr

00105820 <alt_clk_mgr_wait>:
  105820:	e52db004 	push	{fp}		; (str fp, [sp, #-4]!)
  105824:	e28db000 	add	fp, sp, #0
  105828:	e24dd00c 	sub	sp, sp, #12
  10582c:	e50b0008 	str	r0, [fp, #-8]
  105830:	e50b100c 	str	r1, [fp, #-12]
  105834:	ea000004 	b	10584c <alt_clk_mgr_wait+0x2c>
  105838:	e51b3008 	ldr	r3, [fp, #-8]
  10583c:	e5933000 	ldr	r3, [r3]
  105840:	e51b300c 	ldr	r3, [fp, #-12]
  105844:	e2433001 	sub	r3, r3, #1
  105848:	e50b300c 	str	r3, [fp, #-12]
  10584c:	e51b300c 	ldr	r3, [fp, #-12]
  105850:	e3530000 	cmp	r3, #0
  105854:	1afffff7 	bne	105838 <alt_clk_mgr_wait+0x18>
  105858:	e320f000 	nop	{0}
  10585c:	e24bd000 	sub	sp, fp, #0
  105860:	e49db004 	pop	{fp}		; (ldr fp, [sp], #4)
  105864:	e12fff1e 	bx	lr

00105868 <alt_clk_plls_settle_wait>:
  105868:	e52db004 	push	{fp}		; (str fp, [sp, #-4]!)
  10586c:	e28db000 	add	fp, sp, #0
  105870:	e24dd00c 	sub	sp, sp, #12
  105874:	e3a03032 	mov	r3, #50	; 0x32
  105878:	e50b3008 	str	r3, [fp, #-8]
  10587c:	e3043014 	movw	r3, #16404	; 0x4014
  105880:	e34f3fd0 	movt	r3, #65488	; 0xffd0
  105884:	e5933000 	ldr	r3, [r3]
  105888:	e2033001 	and	r3, r3, #1
  10588c:	e3530000 	cmp	r3, #0
  105890:	13a03001 	movne	r3, #1
  105894:	03a03000 	moveq	r3, #0
  105898:	e54b3009 	strb	r3, [fp, #-9]
  10589c:	e55b3009 	ldrb	r3, [fp, #-9]
  1058a0:	e3530000 	cmp	r3, #0
  1058a4:	0a000004 	beq	1058bc <alt_clk_plls_settle_wait+0x54>
  1058a8:	e51b3008 	ldr	r3, [fp, #-8]
  1058ac:	e2432001 	sub	r2, r3, #1
  1058b0:	e50b2008 	str	r2, [fp, #-8]
  1058b4:	e3530000 	cmp	r3, #0
  1058b8:	1affffef 	bne	10587c <alt_clk_plls_settle_wait+0x14>
  1058bc:	e51b3008 	ldr	r3, [fp, #-8]
  1058c0:	e3530000 	cmp	r3, #0
  1058c4:	da000001 	ble	1058d0 <alt_clk_plls_settle_wait+0x68>
  1058c8:	e3a03000 	mov	r3, #0
  1058cc:	ea000000 	b	1058d4 <alt_clk_plls_settle_wait+0x6c>
  1058d0:	e3e03000 	mvn	r3, #0
  1058d4:	e1a00003 	mov	r0, r3
  1058d8:	e24bd000 	sub	sp, fp, #0
  1058dc:	e49db004 	pop	{fp}		; (ldr fp, [sp], #4)
  1058e0:	e12fff1e 	bx	lr

001058e4 <alt_clk_pll_lock_wait>:
  1058e4:	e52db004 	push	{fp}		; (str fp, [sp, #-4]!)
  1058e8:	e28db000 	add	fp, sp, #0
  1058ec:	e24dd014 	sub	sp, sp, #20
  1058f0:	e1a03000 	mov	r3, r0
  1058f4:	e50b1014 	str	r1, [fp, #-20]	; 0xffffffec
  1058f8:	e54b300d 	strb	r3, [fp, #-13]
  1058fc:	e3a03000 	mov	r3, #0
  105900:	e50b3008 	str	r3, [fp, #-8]
  105904:	e55b300d 	ldrb	r3, [fp, #-13]
  105908:	e3530009 	cmp	r3, #9
  10590c:	1a000002 	bne	10591c <alt_clk_pll_lock_wait+0x38>
  105910:	e3a03040 	mov	r3, #64	; 0x40
  105914:	e50b3008 	str	r3, [fp, #-8]
  105918:	ea00000d 	b	105954 <alt_clk_pll_lock_wait+0x70>
  10591c:	e55b300d 	ldrb	r3, [fp, #-13]
  105920:	e353000a 	cmp	r3, #10
  105924:	1a000002 	bne	105934 <alt_clk_pll_lock_wait+0x50>
  105928:	e3a03080 	mov	r3, #128	; 0x80
  10592c:	e50b3008 	str	r3, [fp, #-8]
  105930:	ea000007 	b	105954 <alt_clk_pll_lock_wait+0x70>
  105934:	e55b300d 	ldrb	r3, [fp, #-13]
  105938:	e353000b 	cmp	r3, #11
  10593c:	1a000002 	bne	10594c <alt_clk_pll_lock_wait+0x68>
  105940:	e3a03c01 	mov	r3, #256	; 0x100
  105944:	e50b3008 	str	r3, [fp, #-8]
  105948:	ea000001 	b	105954 <alt_clk_pll_lock_wait+0x70>
  10594c:	e3e03008 	mvn	r3, #8
  105950:	ea000010 	b	105998 <alt_clk_pll_lock_wait+0xb4>
  105954:	e3043008 	movw	r3, #16392	; 0x4008
  105958:	e34f3fd0 	movt	r3, #65488	; 0xffd0
  10595c:	e5933000 	ldr	r3, [r3]
  105960:	e50b300c 	str	r3, [fp, #-12]
  105964:	e51b200c 	ldr	r2, [fp, #-12]
  105968:	e51b3008 	ldr	r3, [fp, #-8]
  10596c:	e0033002 	and	r3, r3, r2
  105970:	e3530000 	cmp	r3, #0
  105974:	0a000001 	beq	105980 <alt_clk_pll_lock_wait+0x9c>
  105978:	e3a03000 	mov	r3, #0
  10597c:	ea000005 	b	105998 <alt_clk_pll_lock_wait+0xb4>
  105980:	e51b3014 	ldr	r3, [fp, #-20]	; 0xffffffec
  105984:	e2432001 	sub	r2, r3, #1
  105988:	e50b2014 	str	r2, [fp, #-20]	; 0xffffffec
  10598c:	e3530000 	cmp	r3, #0
  105990:	1affffef 	bne	105954 <alt_clk_pll_lock_wait+0x70>
  105994:	e3e0300b 	mvn	r3, #11
  105998:	e1a00003 	mov	r0, r3
  10599c:	e24bd000 	sub	sp, fp, #0
  1059a0:	e49db004 	pop	{fp}		; (ldr fp, [sp], #4)
  1059a4:	e12fff1e 	bx	lr

001059a8 <alt_clk_pllcounter_write>:
  1059a8:	e52db004 	push	{fp}		; (str fp, [sp, #-4]!)
  1059ac:	e28db000 	add	fp, sp, #0
  1059b0:	e24dd01c 	sub	sp, sp, #28
  1059b4:	e50b0010 	str	r0, [fp, #-16]
  1059b8:	e50b1014 	str	r1, [fp, #-20]	; 0xffffffec
  1059bc:	e50b2018 	str	r2, [fp, #-24]	; 0xffffffe8
  1059c0:	e50b301c 	str	r3, [fp, #-28]	; 0xffffffe4
  1059c4:	e51b3010 	ldr	r3, [fp, #-16]
  1059c8:	e5932000 	ldr	r2, [r3]
  1059cc:	e59b1004 	ldr	r1, [fp, #4]
  1059d0:	e59b3008 	ldr	r3, [fp, #8]
  1059d4:	e1a03311 	lsl	r3, r1, r3
  1059d8:	e1822003 	orr	r2, r2, r3
  1059dc:	e51b3010 	ldr	r3, [fp, #-16]
  1059e0:	e5832000 	str	r2, [r3]
  1059e4:	e51b3014 	ldr	r3, [fp, #-20]	; 0xffffffec
  1059e8:	e5933000 	ldr	r3, [r3]
  1059ec:	e50b3008 	str	r3, [fp, #-8]
  1059f0:	e51b2008 	ldr	r2, [fp, #-8]
  1059f4:	e59b3004 	ldr	r3, [fp, #4]
  1059f8:	e0033002 	and	r3, r3, r2
  1059fc:	e3530000 	cmp	r3, #0
  105a00:	0afffff7 	beq	1059e4 <alt_clk_pllcounter_write+0x3c>
  105a04:	e51b3018 	ldr	r3, [fp, #-24]	; 0xffffffe8
  105a08:	e51b201c 	ldr	r2, [fp, #-28]	; 0xffffffe4
  105a0c:	e5832000 	str	r2, [r3]
  105a10:	e51b3010 	ldr	r3, [fp, #-16]
  105a14:	e5932000 	ldr	r2, [r3]
  105a18:	e59b1004 	ldr	r1, [fp, #4]
  105a1c:	e59b3008 	ldr	r3, [fp, #8]
  105a20:	e1a03311 	lsl	r3, r1, r3
  105a24:	e1e03003 	mvn	r3, r3
  105a28:	e0022003 	and	r2, r2, r3
  105a2c:	e51b3010 	ldr	r3, [fp, #-16]
  105a30:	e5832000 	str	r2, [r3]
  105a34:	e320f000 	nop	{0}
  105a38:	e24bd000 	sub	sp, fp, #0
  105a3c:	e49db004 	pop	{fp}		; (ldr fp, [sp], #4)
  105a40:	e12fff1e 	bx	lr

00105a44 <alt_clk_lock_status_clear>:
  105a44:	e52db004 	push	{fp}		; (str fp, [sp, #-4]!)
  105a48:	e28db000 	add	fp, sp, #0
  105a4c:	e24dd00c 	sub	sp, sp, #12
  105a50:	e1a03000 	mov	r3, r0
  105a54:	e54b3005 	strb	r3, [fp, #-5]
  105a58:	e55b3005 	ldrb	r3, [fp, #-5]
  105a5c:	e3c3303f 	bic	r3, r3, #63	; 0x3f
  105a60:	e3530000 	cmp	r3, #0
  105a64:	0a000001 	beq	105a70 <alt_clk_lock_status_clear+0x2c>
  105a68:	e3e03008 	mvn	r3, #8
  105a6c:	ea000008 	b	105a94 <alt_clk_lock_status_clear+0x50>
  105a70:	e3043008 	movw	r3, #16392	; 0x4008
  105a74:	e34f3fd0 	movt	r3, #65488	; 0xffd0
  105a78:	e3042008 	movw	r2, #16392	; 0x4008
  105a7c:	e34f2fd0 	movt	r2, #65488	; 0xffd0
  105a80:	e5921000 	ldr	r1, [r2]
  105a84:	e55b2005 	ldrb	r2, [fp, #-5]
  105a88:	e1812002 	orr	r2, r1, r2
  105a8c:	e5832000 	str	r2, [r3]
  105a90:	e3a03000 	mov	r3, #0
  105a94:	e1a00003 	mov	r0, r3
  105a98:	e24bd000 	sub	sp, fp, #0
  105a9c:	e49db004 	pop	{fp}		; (ldr fp, [sp], #4)
  105aa0:	e12fff1e 	bx	lr

00105aa4 <alt_clk_lock_status_get>:
  105aa4:	e52db004 	push	{fp}		; (str fp, [sp, #-4]!)
  105aa8:	e28db000 	add	fp, sp, #0
  105aac:	e3043008 	movw	r3, #16392	; 0x4008
  105ab0:	e34f3fd0 	movt	r3, #65488	; 0xffd0
  105ab4:	e5933000 	ldr	r3, [r3]
  105ab8:	e7e83053 	ubfx	r3, r3, #0, #9
  105abc:	e1a00003 	mov	r0, r3
  105ac0:	e24bd000 	sub	sp, fp, #0
  105ac4:	e49db004 	pop	{fp}		; (ldr fp, [sp], #4)
  105ac8:	e12fff1e 	bx	lr

00105acc <alt_clk_pll_is_locked>:
  105acc:	e52db004 	push	{fp}		; (str fp, [sp, #-4]!)
  105ad0:	e28db000 	add	fp, sp, #0
  105ad4:	e24dd014 	sub	sp, sp, #20
  105ad8:	e1a03000 	mov	r3, r0
  105adc:	e54b300d 	strb	r3, [fp, #-13]
  105ae0:	e3e03008 	mvn	r3, #8
  105ae4:	e50b3008 	str	r3, [fp, #-8]
  105ae8:	e55b300d 	ldrb	r3, [fp, #-13]
  105aec:	e3530009 	cmp	r3, #9
  105af0:	1a000009 	bne	105b1c <alt_clk_pll_is_locked+0x50>
  105af4:	e3043008 	movw	r3, #16392	; 0x4008
  105af8:	e34f3fd0 	movt	r3, #65488	; 0xffd0
  105afc:	e5933000 	ldr	r3, [r3]
  105b00:	e2033040 	and	r3, r3, #64	; 0x40
  105b04:	e3530000 	cmp	r3, #0
  105b08:	13a03001 	movne	r3, #1
  105b0c:	03a03000 	moveq	r3, #0
  105b10:	e6ef3073 	uxtb	r3, r3
  105b14:	e50b3008 	str	r3, [fp, #-8]
  105b18:	ea000018 	b	105b80 <alt_clk_pll_is_locked+0xb4>
  105b1c:	e55b300d 	ldrb	r3, [fp, #-13]
  105b20:	e353000a 	cmp	r3, #10
  105b24:	1a000009 	bne	105b50 <alt_clk_pll_is_locked+0x84>
  105b28:	e3043008 	movw	r3, #16392	; 0x4008
  105b2c:	e34f3fd0 	movt	r3, #65488	; 0xffd0
  105b30:	e5933000 	ldr	r3, [r3]
  105b34:	e2033080 	and	r3, r3, #128	; 0x80
  105b38:	e3530000 	cmp	r3, #0
  105b3c:	13a03001 	movne	r3, #1
  105b40:	03a03000 	moveq	r3, #0
  105b44:	e6ef3073 	uxtb	r3, r3
  105b48:	e50b3008 	str	r3, [fp, #-8]
  105b4c:	ea00000b 	b	105b80 <alt_clk_pll_is_locked+0xb4>
  105b50:	e55b300d 	ldrb	r3, [fp, #-13]
  105b54:	e353000b 	cmp	r3, #11
  105b58:	1a000008 	bne	105b80 <alt_clk_pll_is_locked+0xb4>
  105b5c:	e3043008 	movw	r3, #16392	; 0x4008
  105b60:	e34f3fd0 	movt	r3, #65488	; 0xffd0
  105b64:	e5933000 	ldr	r3, [r3]
  105b68:	e2033c01 	and	r3, r3, #256	; 0x100
  105b6c:	e3530000 	cmp	r3, #0
  105b70:	13a03001 	movne	r3, #1
  105b74:	03a03000 	moveq	r3, #0
  105b78:	e6ef3073 	uxtb	r3, r3
  105b7c:	e50b3008 	str	r3, [fp, #-8]
  105b80:	e51b3008 	ldr	r3, [fp, #-8]
  105b84:	e1a00003 	mov	r0, r3
  105b88:	e24bd000 	sub	sp, fp, #0
  105b8c:	e49db004 	pop	{fp}		; (ldr fp, [sp], #4)
  105b90:	e12fff1e 	bx	lr

00105b94 <alt_clk_safe_mode_clear>:
  105b94:	e92d4800 	push	{fp, lr}
  105b98:	e28db004 	add	fp, sp, #4
  105b9c:	e24dd008 	sub	sp, sp, #8
  105ba0:	e3e03000 	mvn	r3, #0
  105ba4:	e50b3008 	str	r3, [fp, #-8]
  105ba8:	e3043060 	movw	r3, #16480	; 0x4060
  105bac:	e34f3fd0 	movt	r3, #65488	; 0xffd0
  105bb0:	e5933000 	ldr	r3, [r3]
  105bb4:	e50b300c 	str	r3, [fp, #-12]
  105bb8:	e3043060 	movw	r3, #16480	; 0x4060
  105bbc:	e34f3fd0 	movt	r3, #65488	; 0xffd0
  105bc0:	e51b200c 	ldr	r2, [fp, #-12]
  105bc4:	e3c2200c 	bic	r2, r2, #12
  105bc8:	e5832000 	str	r2, [r3]
  105bcc:	e3a03901 	mov	r3, #16384	; 0x4000
  105bd0:	e34f3fd0 	movt	r3, #65488	; 0xffd0
  105bd4:	e3a02901 	mov	r2, #16384	; 0x4000
  105bd8:	e34f2fd0 	movt	r2, #65488	; 0xffd0
  105bdc:	e5922000 	ldr	r2, [r2]
  105be0:	e3822001 	orr	r2, r2, #1
  105be4:	e5832000 	str	r2, [r3]
  105be8:	ebffff1e 	bl	105868 <alt_clk_plls_settle_wait>
  105bec:	e50b0008 	str	r0, [fp, #-8]
  105bf0:	e3043060 	movw	r3, #16480	; 0x4060
  105bf4:	e34f3fd0 	movt	r3, #65488	; 0xffd0
  105bf8:	e3042060 	movw	r2, #16480	; 0x4060
  105bfc:	e34f2fd0 	movt	r2, #65488	; 0xffd0
  105c00:	e5922000 	ldr	r2, [r2]
  105c04:	e3c2100c 	bic	r1, r2, #12
  105c08:	e51b200c 	ldr	r2, [fp, #-12]
  105c0c:	e202200c 	and	r2, r2, #12
  105c10:	e1812002 	orr	r2, r1, r2
  105c14:	e5832000 	str	r2, [r3]
  105c18:	e51b3008 	ldr	r3, [fp, #-8]
  105c1c:	e1a00003 	mov	r0, r3
  105c20:	e24bd004 	sub	sp, fp, #4
  105c24:	e8bd8800 	pop	{fp, pc}

00105c28 <alt_clk_is_in_safe_mode>:
  105c28:	e52db004 	push	{fp}		; (str fp, [sp, #-4]!)
  105c2c:	e28db000 	add	fp, sp, #0
  105c30:	e24dd014 	sub	sp, sp, #20
  105c34:	e1a03000 	mov	r3, r0
  105c38:	e54b300d 	strb	r3, [fp, #-13]
  105c3c:	e3a03000 	mov	r3, #0
  105c40:	e54b3005 	strb	r3, [fp, #-5]
  105c44:	e55b300d 	ldrb	r3, [fp, #-13]
  105c48:	e3530000 	cmp	r3, #0
  105c4c:	1a000008 	bne	105c74 <alt_clk_is_in_safe_mode+0x4c>
  105c50:	e3a03901 	mov	r3, #16384	; 0x4000
  105c54:	e34f3fd0 	movt	r3, #65488	; 0xffd0
  105c58:	e5933000 	ldr	r3, [r3]
  105c5c:	e2033001 	and	r3, r3, #1
  105c60:	e3530000 	cmp	r3, #0
  105c64:	13a03001 	movne	r3, #1
  105c68:	03a03000 	moveq	r3, #0
  105c6c:	e54b3005 	strb	r3, [fp, #-5]
  105c70:	ea000019 	b	105cdc <alt_clk_is_in_safe_mode+0xb4>
  105c74:	e55b300d 	ldrb	r3, [fp, #-13]
  105c78:	e3530001 	cmp	r3, #1
  105c7c:	1a000016 	bne	105cdc <alt_clk_is_in_safe_mode+0xb4>
  105c80:	e3043010 	movw	r3, #16400	; 0x4010
  105c84:	e34f3fd0 	movt	r3, #65488	; 0xffd0
  105c88:	e5933000 	ldr	r3, [r3]
  105c8c:	e50b300c 	str	r3, [fp, #-12]
  105c90:	e51b300c 	ldr	r3, [fp, #-12]
  105c94:	e2033001 	and	r3, r3, #1
  105c98:	e3530000 	cmp	r3, #0
  105c9c:	0a000002 	beq	105cac <alt_clk_is_in_safe_mode+0x84>
  105ca0:	e3a03001 	mov	r3, #1
  105ca4:	e54b3005 	strb	r3, [fp, #-5]
  105ca8:	ea00000b 	b	105cdc <alt_clk_is_in_safe_mode+0xb4>
  105cac:	e51b300c 	ldr	r3, [fp, #-12]
  105cb0:	e2033002 	and	r3, r3, #2
  105cb4:	e3530000 	cmp	r3, #0
  105cb8:	0a000007 	beq	105cdc <alt_clk_is_in_safe_mode+0xb4>
  105cbc:	e3a03901 	mov	r3, #16384	; 0x4000
  105cc0:	e34f3fd0 	movt	r3, #65488	; 0xffd0
  105cc4:	e5933000 	ldr	r3, [r3]
  105cc8:	e2033001 	and	r3, r3, #1
  105ccc:	e3530000 	cmp	r3, #0
  105cd0:	13a03001 	movne	r3, #1
  105cd4:	03a03000 	moveq	r3, #0
  105cd8:	e54b3005 	strb	r3, [fp, #-5]
  105cdc:	e55b3005 	ldrb	r3, [fp, #-5]
  105ce0:	e1a00003 	mov	r0, r3
  105ce4:	e24bd000 	sub	sp, fp, #0
  105ce8:	e49db004 	pop	{fp}		; (ldr fp, [sp], #4)
  105cec:	e12fff1e 	bx	lr

00105cf0 <alt_clk_pll_bypass_disable>:
  105cf0:	e92d4800 	push	{fp, lr}
  105cf4:	e28db004 	add	fp, sp, #4
  105cf8:	e24dd018 	sub	sp, sp, #24
  105cfc:	e1a03000 	mov	r3, r0
  105d00:	e54b3015 	strb	r3, [fp, #-21]	; 0xffffffeb
  105d04:	e3e03008 	mvn	r3, #8
  105d08:	e50b3008 	str	r3, [fp, #-8]
  105d0c:	e3a03000 	mov	r3, #0
  105d10:	e54b300d 	strb	r3, [fp, #-13]
  105d14:	e3a03000 	mov	r3, #0
  105d18:	e54b300e 	strb	r3, [fp, #-14]
  105d1c:	e55b3015 	ldrb	r3, [fp, #-21]	; 0xffffffeb
  105d20:	e1a00003 	mov	r0, r3
  105d24:	ebffff68 	bl	105acc <alt_clk_pll_is_locked>
  105d28:	e1a03000 	mov	r3, r0
  105d2c:	e3530001 	cmp	r3, #1
  105d30:	1a0000d7 	bne	106094 <alt_clk_pll_bypass_disable+0x3a4>
  105d34:	e55b3015 	ldrb	r3, [fp, #-21]	; 0xffffffeb
  105d38:	e3530009 	cmp	r3, #9
  105d3c:	1a00005a 	bne	105eac <alt_clk_pll_bypass_disable+0x1bc>
  105d40:	e3043070 	movw	r3, #16496	; 0x4070
  105d44:	e34f3fd0 	movt	r3, #65488	; 0xffd0
  105d48:	e5933000 	ldr	r3, [r3]
  105d4c:	e50b300c 	str	r3, [fp, #-12]
  105d50:	e3043060 	movw	r3, #16480	; 0x4060
  105d54:	e34f3fd0 	movt	r3, #65488	; 0xffd0
  105d58:	e5933000 	ldr	r3, [r3]
  105d5c:	e50b3014 	str	r3, [fp, #-20]	; 0xffffffec
  105d60:	e51b3014 	ldr	r3, [fp, #-20]	; 0xffffffec
  105d64:	e2033004 	and	r3, r3, #4
  105d68:	e3530000 	cmp	r3, #0
  105d6c:	0a000005 	beq	105d88 <alt_clk_pll_bypass_disable+0x98>
  105d70:	e51b300c 	ldr	r3, [fp, #-12]
  105d74:	e2033001 	and	r3, r3, #1
  105d78:	e3530000 	cmp	r3, #0
  105d7c:	1a000001 	bne	105d88 <alt_clk_pll_bypass_disable+0x98>
  105d80:	e3a03001 	mov	r3, #1
  105d84:	e54b300d 	strb	r3, [fp, #-13]
  105d88:	e51b3014 	ldr	r3, [fp, #-20]	; 0xffffffec
  105d8c:	e2033008 	and	r3, r3, #8
  105d90:	e3530000 	cmp	r3, #0
  105d94:	0a000005 	beq	105db0 <alt_clk_pll_bypass_disable+0xc0>
  105d98:	e51b300c 	ldr	r3, [fp, #-12]
  105d9c:	e2033002 	and	r3, r3, #2
  105da0:	e3530000 	cmp	r3, #0
  105da4:	1a000001 	bne	105db0 <alt_clk_pll_bypass_disable+0xc0>
  105da8:	e3a03001 	mov	r3, #1
  105dac:	e54b300e 	strb	r3, [fp, #-14]
  105db0:	e51b3014 	ldr	r3, [fp, #-20]	; 0xffffffec
  105db4:	e50b300c 	str	r3, [fp, #-12]
  105db8:	e55b300d 	ldrb	r3, [fp, #-13]
  105dbc:	e3530000 	cmp	r3, #0
  105dc0:	0a000002 	beq	105dd0 <alt_clk_pll_bypass_disable+0xe0>
  105dc4:	e51b300c 	ldr	r3, [fp, #-12]
  105dc8:	e3c33004 	bic	r3, r3, #4
  105dcc:	e50b300c 	str	r3, [fp, #-12]
  105dd0:	e55b300e 	ldrb	r3, [fp, #-14]
  105dd4:	e3530000 	cmp	r3, #0
  105dd8:	0a000002 	beq	105de8 <alt_clk_pll_bypass_disable+0xf8>
  105ddc:	e51b300c 	ldr	r3, [fp, #-12]
  105de0:	e3c33008 	bic	r3, r3, #8
  105de4:	e50b300c 	str	r3, [fp, #-12]
  105de8:	e55b300d 	ldrb	r3, [fp, #-13]
  105dec:	e3530000 	cmp	r3, #0
  105df0:	1a000002 	bne	105e00 <alt_clk_pll_bypass_disable+0x110>
  105df4:	e55b300e 	ldrb	r3, [fp, #-14]
  105df8:	e3530000 	cmp	r3, #0
  105dfc:	0a000003 	beq	105e10 <alt_clk_pll_bypass_disable+0x120>
  105e00:	e3043060 	movw	r3, #16480	; 0x4060
  105e04:	e34f3fd0 	movt	r3, #65488	; 0xffd0
  105e08:	e51b200c 	ldr	r2, [fp, #-12]
  105e0c:	e5832000 	str	r2, [r3]
  105e10:	e3043040 	movw	r3, #16448	; 0x4040
  105e14:	e34f3fd0 	movt	r3, #65488	; 0xffd0
  105e18:	e5933000 	ldr	r3, [r3]
  105e1c:	e50b300c 	str	r3, [fp, #-12]
  105e20:	e3043040 	movw	r3, #16448	; 0x4040
  105e24:	e34f3fd0 	movt	r3, #65488	; 0xffd0
  105e28:	e51b200c 	ldr	r2, [fp, #-12]
  105e2c:	e3822401 	orr	r2, r2, #16777216	; 0x1000000
  105e30:	e5832000 	str	r2, [r3]
  105e34:	e3043040 	movw	r3, #16448	; 0x4040
  105e38:	e34f3fd0 	movt	r3, #65488	; 0xffd0
  105e3c:	e51b200c 	ldr	r2, [fp, #-12]
  105e40:	e3c22401 	bic	r2, r2, #16777216	; 0x1000000
  105e44:	e5832000 	str	r2, [r3]
  105e48:	ebfffe86 	bl	105868 <alt_clk_plls_settle_wait>
  105e4c:	e3043004 	movw	r3, #16388	; 0x4004
  105e50:	e34f3fd0 	movt	r3, #65488	; 0xffd0
  105e54:	e3042004 	movw	r2, #16388	; 0x4004
  105e58:	e34f2fd0 	movt	r2, #65488	; 0xffd0
  105e5c:	e5922000 	ldr	r2, [r2]
  105e60:	e3c22001 	bic	r2, r2, #1
  105e64:	e5832000 	str	r2, [r3]
  105e68:	ebfffe7e 	bl	105868 <alt_clk_plls_settle_wait>
  105e6c:	e50b0008 	str	r0, [fp, #-8]
  105e70:	e55b300d 	ldrb	r3, [fp, #-13]
  105e74:	e3530000 	cmp	r3, #0
  105e78:	1a000002 	bne	105e88 <alt_clk_pll_bypass_disable+0x198>
  105e7c:	e55b300e 	ldrb	r3, [fp, #-14]
  105e80:	e3530000 	cmp	r3, #0
  105e84:	0a000084 	beq	10609c <alt_clk_pll_bypass_disable+0x3ac>
  105e88:	e3a0101e 	mov	r1, #30
  105e8c:	e3040060 	movw	r0, #16480	; 0x4060
  105e90:	e34f0fd0 	movt	r0, #65488	; 0xffd0
  105e94:	ebfffe61 	bl	105820 <alt_clk_mgr_wait>
  105e98:	e3043060 	movw	r3, #16480	; 0x4060
  105e9c:	e34f3fd0 	movt	r3, #65488	; 0xffd0
  105ea0:	e51b2014 	ldr	r2, [fp, #-20]	; 0xffffffec
  105ea4:	e5832000 	str	r2, [r3]
  105ea8:	ea00007b 	b	10609c <alt_clk_pll_bypass_disable+0x3ac>
  105eac:	e55b3015 	ldrb	r3, [fp, #-21]	; 0xffffffeb
  105eb0:	e353000a 	cmp	r3, #10
  105eb4:	1a00005a 	bne	106024 <alt_clk_pll_bypass_disable+0x334>
  105eb8:	e3043070 	movw	r3, #16496	; 0x4070
  105ebc:	e34f3fd0 	movt	r3, #65488	; 0xffd0
  105ec0:	e5933000 	ldr	r3, [r3]
  105ec4:	e50b300c 	str	r3, [fp, #-12]
  105ec8:	e3043060 	movw	r3, #16480	; 0x4060
  105ecc:	e34f3fd0 	movt	r3, #65488	; 0xffd0
  105ed0:	e5933000 	ldr	r3, [r3]
  105ed4:	e50b3014 	str	r3, [fp, #-20]	; 0xffffffec
  105ed8:	e51b3014 	ldr	r3, [fp, #-20]	; 0xffffffec
  105edc:	e2033004 	and	r3, r3, #4
  105ee0:	e3530000 	cmp	r3, #0
  105ee4:	0a000005 	beq	105f00 <alt_clk_pll_bypass_disable+0x210>
  105ee8:	e51b300c 	ldr	r3, [fp, #-12]
  105eec:	e2033001 	and	r3, r3, #1
  105ef0:	e3530000 	cmp	r3, #0
  105ef4:	0a000001 	beq	105f00 <alt_clk_pll_bypass_disable+0x210>
  105ef8:	e3a03001 	mov	r3, #1
  105efc:	e54b300d 	strb	r3, [fp, #-13]
  105f00:	e51b3014 	ldr	r3, [fp, #-20]	; 0xffffffec
  105f04:	e2033008 	and	r3, r3, #8
  105f08:	e3530000 	cmp	r3, #0
  105f0c:	0a000005 	beq	105f28 <alt_clk_pll_bypass_disable+0x238>
  105f10:	e51b300c 	ldr	r3, [fp, #-12]
  105f14:	e2033002 	and	r3, r3, #2
  105f18:	e3530000 	cmp	r3, #0
  105f1c:	0a000001 	beq	105f28 <alt_clk_pll_bypass_disable+0x238>
  105f20:	e3a03001 	mov	r3, #1
  105f24:	e54b300e 	strb	r3, [fp, #-14]
  105f28:	e51b3014 	ldr	r3, [fp, #-20]	; 0xffffffec
  105f2c:	e50b300c 	str	r3, [fp, #-12]
  105f30:	e55b300d 	ldrb	r3, [fp, #-13]
  105f34:	e3530000 	cmp	r3, #0
  105f38:	0a000002 	beq	105f48 <alt_clk_pll_bypass_disable+0x258>
  105f3c:	e51b300c 	ldr	r3, [fp, #-12]
  105f40:	e3c33004 	bic	r3, r3, #4
  105f44:	e50b300c 	str	r3, [fp, #-12]
  105f48:	e55b300e 	ldrb	r3, [fp, #-14]
  105f4c:	e3530000 	cmp	r3, #0
  105f50:	0a000002 	beq	105f60 <alt_clk_pll_bypass_disable+0x270>
  105f54:	e51b300c 	ldr	r3, [fp, #-12]
  105f58:	e3c33008 	bic	r3, r3, #8
  105f5c:	e50b300c 	str	r3, [fp, #-12]
  105f60:	e55b300d 	ldrb	r3, [fp, #-13]
  105f64:	e3530000 	cmp	r3, #0
  105f68:	1a000002 	bne	105f78 <alt_clk_pll_bypass_disable+0x288>
  105f6c:	e55b300e 	ldrb	r3, [fp, #-14]
  105f70:	e3530000 	cmp	r3, #0
  105f74:	0a000003 	beq	105f88 <alt_clk_pll_bypass_disable+0x298>
  105f78:	e3043060 	movw	r3, #16480	; 0x4060
  105f7c:	e34f3fd0 	movt	r3, #65488	; 0xffd0
  105f80:	e51b200c 	ldr	r2, [fp, #-12]
  105f84:	e5832000 	str	r2, [r3]
  105f88:	e3043080 	movw	r3, #16512	; 0x4080
  105f8c:	e34f3fd0 	movt	r3, #65488	; 0xffd0
  105f90:	e5933000 	ldr	r3, [r3]
  105f94:	e50b300c 	str	r3, [fp, #-12]
  105f98:	e3043080 	movw	r3, #16512	; 0x4080
  105f9c:	e34f3fd0 	movt	r3, #65488	; 0xffd0
  105fa0:	e51b200c 	ldr	r2, [fp, #-12]
  105fa4:	e3822401 	orr	r2, r2, #16777216	; 0x1000000
  105fa8:	e5832000 	str	r2, [r3]
  105fac:	ebfffe2d 	bl	105868 <alt_clk_plls_settle_wait>
  105fb0:	e3043080 	movw	r3, #16512	; 0x4080
  105fb4:	e34f3fd0 	movt	r3, #65488	; 0xffd0
  105fb8:	e51b200c 	ldr	r2, [fp, #-12]
  105fbc:	e3c22401 	bic	r2, r2, #16777216	; 0x1000000
  105fc0:	e5832000 	str	r2, [r3]
  105fc4:	e3043004 	movw	r3, #16388	; 0x4004
  105fc8:	e34f3fd0 	movt	r3, #65488	; 0xffd0
  105fcc:	e3042004 	movw	r2, #16388	; 0x4004
  105fd0:	e34f2fd0 	movt	r2, #65488	; 0xffd0
  105fd4:	e5922000 	ldr	r2, [r2]
  105fd8:	e3c22008 	bic	r2, r2, #8
  105fdc:	e5832000 	str	r2, [r3]
  105fe0:	ebfffe20 	bl	105868 <alt_clk_plls_settle_wait>
  105fe4:	e50b0008 	str	r0, [fp, #-8]
  105fe8:	e55b300d 	ldrb	r3, [fp, #-13]
  105fec:	e3530000 	cmp	r3, #0
  105ff0:	1a000002 	bne	106000 <alt_clk_pll_bypass_disable+0x310>
  105ff4:	e55b300e 	ldrb	r3, [fp, #-14]
  105ff8:	e3530000 	cmp	r3, #0
  105ffc:	0a000026 	beq	10609c <alt_clk_pll_bypass_disable+0x3ac>
  106000:	e3a0101e 	mov	r1, #30
  106004:	e3040060 	movw	r0, #16480	; 0x4060
  106008:	e34f0fd0 	movt	r0, #65488	; 0xffd0
  10600c:	ebfffe03 	bl	105820 <alt_clk_mgr_wait>
  106010:	e3043060 	movw	r3, #16480	; 0x4060
  106014:	e34f3fd0 	movt	r3, #65488	; 0xffd0
  106018:	e51b2014 	ldr	r2, [fp, #-20]	; 0xffffffec
  10601c:	e5832000 	str	r2, [r3]
  106020:	ea00001d 	b	10609c <alt_clk_pll_bypass_disable+0x3ac>
  106024:	e55b3015 	ldrb	r3, [fp, #-21]	; 0xffffffeb
  106028:	e353000b 	cmp	r3, #11
  10602c:	1a00001a 	bne	10609c <alt_clk_pll_bypass_disable+0x3ac>
  106030:	e30430c0 	movw	r3, #16576	; 0x40c0
  106034:	e34f3fd0 	movt	r3, #65488	; 0xffd0
  106038:	e5933000 	ldr	r3, [r3]
  10603c:	e50b300c 	str	r3, [fp, #-12]
  106040:	e30430c0 	movw	r3, #16576	; 0x40c0
  106044:	e34f3fd0 	movt	r3, #65488	; 0xffd0
  106048:	e51b200c 	ldr	r2, [fp, #-12]
  10604c:	e3822401 	orr	r2, r2, #16777216	; 0x1000000
  106050:	e5832000 	str	r2, [r3]
  106054:	e30430c0 	movw	r3, #16576	; 0x40c0
  106058:	e34f3fd0 	movt	r3, #65488	; 0xffd0
  10605c:	e51b200c 	ldr	r2, [fp, #-12]
  106060:	e3c22401 	bic	r2, r2, #16777216	; 0x1000000
  106064:	e5832000 	str	r2, [r3]
  106068:	ebfffdfe 	bl	105868 <alt_clk_plls_settle_wait>
  10606c:	e3043004 	movw	r3, #16388	; 0x4004
  106070:	e34f3fd0 	movt	r3, #65488	; 0xffd0
  106074:	e3042004 	movw	r2, #16388	; 0x4004
  106078:	e34f2fd0 	movt	r2, #65488	; 0xffd0
  10607c:	e5922000 	ldr	r2, [r2]
  106080:	e3c22004 	bic	r2, r2, #4
  106084:	e5832000 	str	r2, [r3]
  106088:	ebfffdf6 	bl	105868 <alt_clk_plls_settle_wait>
  10608c:	e50b0008 	str	r0, [fp, #-8]
  106090:	ea000001 	b	10609c <alt_clk_pll_bypass_disable+0x3ac>
  106094:	e3e03000 	mvn	r3, #0
  106098:	e50b3008 	str	r3, [fp, #-8]
  10609c:	e51b3008 	ldr	r3, [fp, #-8]
  1060a0:	e1a00003 	mov	r0, r3
  1060a4:	e24bd004 	sub	sp, fp, #4
